
APC1.elf:     file format elf32-littlearm

Sections:
Idx Name          Size      VMA       LMA       File off  Algn
  0 .isr_vector   00000198  08000000  08000000  00001000  2**0
                  CONTENTS, ALLOC, LOAD, READONLY, DATA
  1 .text         0000352c  08000198  08000198  00001198  2**2
                  CONTENTS, ALLOC, LOAD, READONLY, CODE
  2 .rodata       00000158  080036c4  080036c4  000046c4  2**2
                  CONTENTS, ALLOC, LOAD, READONLY, DATA
  3 .ARM.extab    00000000  0800381c  0800381c  00005090  2**0
                  CONTENTS
  4 .ARM          00000008  0800381c  0800381c  0000481c  2**2
                  CONTENTS, ALLOC, LOAD, READONLY, DATA
  5 .preinit_array 00000000  08003824  08003824  00005090  2**0
                  CONTENTS, ALLOC, LOAD, DATA
  6 .init_array   00000004  08003824  08003824  00004824  2**2
                  CONTENTS, ALLOC, LOAD, DATA
  7 .fini_array   00000004  08003828  08003828  00004828  2**2
                  CONTENTS, ALLOC, LOAD, DATA
  8 .data         00000090  20000000  0800382c  00005000  2**2
                  CONTENTS, ALLOC, LOAD, DATA
  9 .bss          000002e4  20000090  080038bc  00005090  2**3
                  ALLOC
 10 ._user_heap_stack 00000604  20000374  080038bc  00005374  2**0
                  ALLOC
 11 .ARM.attributes 00000030  00000000  00000000  00005090  2**0
                  CONTENTS, READONLY
 12 .debug_info   00009111  00000000  00000000  000050c0  2**0
                  CONTENTS, READONLY, DEBUGGING, OCTETS
 13 .debug_abbrev 0000191a  00000000  00000000  0000e1d1  2**0
                  CONTENTS, READONLY, DEBUGGING, OCTETS
 14 .debug_aranges 000007c8  00000000  00000000  0000faf0  2**3
                  CONTENTS, READONLY, DEBUGGING, OCTETS
 15 .debug_rnglists 000005f2  00000000  00000000  000102b8  2**0
                  CONTENTS, READONLY, DEBUGGING, OCTETS
 16 .debug_macro  00015607  00000000  00000000  000108aa  2**0
                  CONTENTS, READONLY, DEBUGGING, OCTETS
 17 .debug_line   00009b31  00000000  00000000  00025eb1  2**0
                  CONTENTS, READONLY, DEBUGGING, OCTETS
 18 .debug_str    0008563d  00000000  00000000  0002f9e2  2**0
                  CONTENTS, READONLY, DEBUGGING, OCTETS
 19 .comment      00000043  00000000  00000000  000b501f  2**0
                  CONTENTS, READONLY
 20 .debug_frame  00001f78  00000000  00000000  000b5064  2**2
                  CONTENTS, READONLY, DEBUGGING, OCTETS
 21 .debug_line_str 0000004f  00000000  00000000  000b6fdc  2**0
                  CONTENTS, READONLY, DEBUGGING, OCTETS

Disassembly of section .text:

08000198 <__do_global_dtors_aux>:
 8000198:	b510      	push	{r4, lr}
 800019a:	4c05      	ldr	r4, [pc, #20]	@ (80001b0 <__do_global_dtors_aux+0x18>)
 800019c:	7823      	ldrb	r3, [r4, #0]
 800019e:	b933      	cbnz	r3, 80001ae <__do_global_dtors_aux+0x16>
 80001a0:	4b04      	ldr	r3, [pc, #16]	@ (80001b4 <__do_global_dtors_aux+0x1c>)
 80001a2:	b113      	cbz	r3, 80001aa <__do_global_dtors_aux+0x12>
 80001a4:	4804      	ldr	r0, [pc, #16]	@ (80001b8 <__do_global_dtors_aux+0x20>)
 80001a6:	f3af 8000 	nop.w
 80001aa:	2301      	movs	r3, #1
 80001ac:	7023      	strb	r3, [r4, #0]
 80001ae:	bd10      	pop	{r4, pc}
 80001b0:	20000090 	.word	0x20000090
 80001b4:	00000000 	.word	0x00000000
 80001b8:	080036ac 	.word	0x080036ac

080001bc <frame_dummy>:
 80001bc:	b508      	push	{r3, lr}
 80001be:	4b03      	ldr	r3, [pc, #12]	@ (80001cc <frame_dummy+0x10>)
 80001c0:	b11b      	cbz	r3, 80001ca <frame_dummy+0xe>
 80001c2:	4903      	ldr	r1, [pc, #12]	@ (80001d0 <frame_dummy+0x14>)
 80001c4:	4803      	ldr	r0, [pc, #12]	@ (80001d4 <frame_dummy+0x18>)
 80001c6:	f3af 8000 	nop.w
 80001ca:	bd08      	pop	{r3, pc}
 80001cc:	00000000 	.word	0x00000000
 80001d0:	20000094 	.word	0x20000094
 80001d4:	080036ac 	.word	0x080036ac

080001d8 <strlen>:
 80001d8:	4603      	mov	r3, r0
 80001da:	f813 2b01 	ldrb.w	r2, [r3], #1
 80001de:	2a00      	cmp	r2, #0
 80001e0:	d1fb      	bne.n	80001da <strlen+0x2>
 80001e2:	1a18      	subs	r0, r3, r0
 80001e4:	3801      	subs	r0, #1
 80001e6:	4770      	bx	lr

080001e8 <__aeabi_drsub>:
 80001e8:	f081 4100 	eor.w	r1, r1, #2147483648	@ 0x80000000
 80001ec:	e002      	b.n	80001f4 <__adddf3>
 80001ee:	bf00      	nop

080001f0 <__aeabi_dsub>:
 80001f0:	f083 4300 	eor.w	r3, r3, #2147483648	@ 0x80000000

080001f4 <__adddf3>:
 80001f4:	b530      	push	{r4, r5, lr}
 80001f6:	ea4f 0441 	mov.w	r4, r1, lsl #1
 80001fa:	ea4f 0543 	mov.w	r5, r3, lsl #1
 80001fe:	ea94 0f05 	teq	r4, r5
 8000202:	bf08      	it	eq
 8000204:	ea90 0f02 	teqeq	r0, r2
 8000208:	bf1f      	itttt	ne
 800020a:	ea54 0c00 	orrsne.w	ip, r4, r0
 800020e:	ea55 0c02 	orrsne.w	ip, r5, r2
 8000212:	ea7f 5c64 	mvnsne.w	ip, r4, asr #21
 8000216:	ea7f 5c65 	mvnsne.w	ip, r5, asr #21
 800021a:	f000 80e2 	beq.w	80003e2 <__adddf3+0x1ee>
 800021e:	ea4f 5454 	mov.w	r4, r4, lsr #21
 8000222:	ebd4 5555 	rsbs	r5, r4, r5, lsr #21
 8000226:	bfb8      	it	lt
 8000228:	426d      	neglt	r5, r5
 800022a:	dd0c      	ble.n	8000246 <__adddf3+0x52>
 800022c:	442c      	add	r4, r5
 800022e:	ea80 0202 	eor.w	r2, r0, r2
 8000232:	ea81 0303 	eor.w	r3, r1, r3
 8000236:	ea82 0000 	eor.w	r0, r2, r0
 800023a:	ea83 0101 	eor.w	r1, r3, r1
 800023e:	ea80 0202 	eor.w	r2, r0, r2
 8000242:	ea81 0303 	eor.w	r3, r1, r3
 8000246:	2d36      	cmp	r5, #54	@ 0x36
 8000248:	bf88      	it	hi
 800024a:	bd30      	pophi	{r4, r5, pc}
 800024c:	f011 4f00 	tst.w	r1, #2147483648	@ 0x80000000
 8000250:	ea4f 3101 	mov.w	r1, r1, lsl #12
 8000254:	f44f 1c80 	mov.w	ip, #1048576	@ 0x100000
 8000258:	ea4c 3111 	orr.w	r1, ip, r1, lsr #12
 800025c:	d002      	beq.n	8000264 <__adddf3+0x70>
 800025e:	4240      	negs	r0, r0
 8000260:	eb61 0141 	sbc.w	r1, r1, r1, lsl #1
 8000264:	f013 4f00 	tst.w	r3, #2147483648	@ 0x80000000
 8000268:	ea4f 3303 	mov.w	r3, r3, lsl #12
 800026c:	ea4c 3313 	orr.w	r3, ip, r3, lsr #12
 8000270:	d002      	beq.n	8000278 <__adddf3+0x84>
 8000272:	4252      	negs	r2, r2
 8000274:	eb63 0343 	sbc.w	r3, r3, r3, lsl #1
 8000278:	ea94 0f05 	teq	r4, r5
 800027c:	f000 80a7 	beq.w	80003ce <__adddf3+0x1da>
 8000280:	f1a4 0401 	sub.w	r4, r4, #1
 8000284:	f1d5 0e20 	rsbs	lr, r5, #32
 8000288:	db0d      	blt.n	80002a6 <__adddf3+0xb2>
 800028a:	fa02 fc0e 	lsl.w	ip, r2, lr
 800028e:	fa22 f205 	lsr.w	r2, r2, r5
 8000292:	1880      	adds	r0, r0, r2
 8000294:	f141 0100 	adc.w	r1, r1, #0
 8000298:	fa03 f20e 	lsl.w	r2, r3, lr
 800029c:	1880      	adds	r0, r0, r2
 800029e:	fa43 f305 	asr.w	r3, r3, r5
 80002a2:	4159      	adcs	r1, r3
 80002a4:	e00e      	b.n	80002c4 <__adddf3+0xd0>
 80002a6:	f1a5 0520 	sub.w	r5, r5, #32
 80002aa:	f10e 0e20 	add.w	lr, lr, #32
 80002ae:	2a01      	cmp	r2, #1
 80002b0:	fa03 fc0e 	lsl.w	ip, r3, lr
 80002b4:	bf28      	it	cs
 80002b6:	f04c 0c02 	orrcs.w	ip, ip, #2
 80002ba:	fa43 f305 	asr.w	r3, r3, r5
 80002be:	18c0      	adds	r0, r0, r3
 80002c0:	eb51 71e3 	adcs.w	r1, r1, r3, asr #31
 80002c4:	f001 4500 	and.w	r5, r1, #2147483648	@ 0x80000000
 80002c8:	d507      	bpl.n	80002da <__adddf3+0xe6>
 80002ca:	f04f 0e00 	mov.w	lr, #0
 80002ce:	f1dc 0c00 	rsbs	ip, ip, #0
 80002d2:	eb7e 0000 	sbcs.w	r0, lr, r0
 80002d6:	eb6e 0101 	sbc.w	r1, lr, r1
 80002da:	f5b1 1f80 	cmp.w	r1, #1048576	@ 0x100000
 80002de:	d31b      	bcc.n	8000318 <__adddf3+0x124>
 80002e0:	f5b1 1f00 	cmp.w	r1, #2097152	@ 0x200000
 80002e4:	d30c      	bcc.n	8000300 <__adddf3+0x10c>
 80002e6:	0849      	lsrs	r1, r1, #1
 80002e8:	ea5f 0030 	movs.w	r0, r0, rrx
 80002ec:	ea4f 0c3c 	mov.w	ip, ip, rrx
 80002f0:	f104 0401 	add.w	r4, r4, #1
 80002f4:	ea4f 5244 	mov.w	r2, r4, lsl #21
 80002f8:	f512 0f80 	cmn.w	r2, #4194304	@ 0x400000
 80002fc:	f080 809a 	bcs.w	8000434 <__adddf3+0x240>
 8000300:	f1bc 4f00 	cmp.w	ip, #2147483648	@ 0x80000000
 8000304:	bf08      	it	eq
 8000306:	ea5f 0c50 	movseq.w	ip, r0, lsr #1
 800030a:	f150 0000 	adcs.w	r0, r0, #0
 800030e:	eb41 5104 	adc.w	r1, r1, r4, lsl #20
 8000312:	ea41 0105 	orr.w	r1, r1, r5
 8000316:	bd30      	pop	{r4, r5, pc}
 8000318:	ea5f 0c4c 	movs.w	ip, ip, lsl #1
 800031c:	4140      	adcs	r0, r0
 800031e:	eb41 0101 	adc.w	r1, r1, r1
 8000322:	3c01      	subs	r4, #1
 8000324:	bf28      	it	cs
 8000326:	f5b1 1f80 	cmpcs.w	r1, #1048576	@ 0x100000
 800032a:	d2e9      	bcs.n	8000300 <__adddf3+0x10c>
 800032c:	f091 0f00 	teq	r1, #0
 8000330:	bf04      	itt	eq
 8000332:	4601      	moveq	r1, r0
 8000334:	2000      	moveq	r0, #0
 8000336:	fab1 f381 	clz	r3, r1
 800033a:	bf08      	it	eq
 800033c:	3320      	addeq	r3, #32
 800033e:	f1a3 030b 	sub.w	r3, r3, #11
 8000342:	f1b3 0220 	subs.w	r2, r3, #32
 8000346:	da0c      	bge.n	8000362 <__adddf3+0x16e>
 8000348:	320c      	adds	r2, #12
 800034a:	dd08      	ble.n	800035e <__adddf3+0x16a>
 800034c:	f102 0c14 	add.w	ip, r2, #20
 8000350:	f1c2 020c 	rsb	r2, r2, #12
 8000354:	fa01 f00c 	lsl.w	r0, r1, ip
 8000358:	fa21 f102 	lsr.w	r1, r1, r2
 800035c:	e00c      	b.n	8000378 <__adddf3+0x184>
 800035e:	f102 0214 	add.w	r2, r2, #20
 8000362:	bfd8      	it	le
 8000364:	f1c2 0c20 	rsble	ip, r2, #32
 8000368:	fa01 f102 	lsl.w	r1, r1, r2
 800036c:	fa20 fc0c 	lsr.w	ip, r0, ip
 8000370:	bfdc      	itt	le
 8000372:	ea41 010c 	orrle.w	r1, r1, ip
 8000376:	4090      	lslle	r0, r2
 8000378:	1ae4      	subs	r4, r4, r3
 800037a:	bfa2      	ittt	ge
 800037c:	eb01 5104 	addge.w	r1, r1, r4, lsl #20
 8000380:	4329      	orrge	r1, r5
 8000382:	bd30      	popge	{r4, r5, pc}
 8000384:	ea6f 0404 	mvn.w	r4, r4
 8000388:	3c1f      	subs	r4, #31
 800038a:	da1c      	bge.n	80003c6 <__adddf3+0x1d2>
 800038c:	340c      	adds	r4, #12
 800038e:	dc0e      	bgt.n	80003ae <__adddf3+0x1ba>
 8000390:	f104 0414 	add.w	r4, r4, #20
 8000394:	f1c4 0220 	rsb	r2, r4, #32
 8000398:	fa20 f004 	lsr.w	r0, r0, r4
 800039c:	fa01 f302 	lsl.w	r3, r1, r2
 80003a0:	ea40 0003 	orr.w	r0, r0, r3
 80003a4:	fa21 f304 	lsr.w	r3, r1, r4
 80003a8:	ea45 0103 	orr.w	r1, r5, r3
 80003ac:	bd30      	pop	{r4, r5, pc}
 80003ae:	f1c4 040c 	rsb	r4, r4, #12
 80003b2:	f1c4 0220 	rsb	r2, r4, #32
 80003b6:	fa20 f002 	lsr.w	r0, r0, r2
 80003ba:	fa01 f304 	lsl.w	r3, r1, r4
 80003be:	ea40 0003 	orr.w	r0, r0, r3
 80003c2:	4629      	mov	r1, r5
 80003c4:	bd30      	pop	{r4, r5, pc}
 80003c6:	fa21 f004 	lsr.w	r0, r1, r4
 80003ca:	4629      	mov	r1, r5
 80003cc:	bd30      	pop	{r4, r5, pc}
 80003ce:	f094 0f00 	teq	r4, #0
 80003d2:	f483 1380 	eor.w	r3, r3, #1048576	@ 0x100000
 80003d6:	bf06      	itte	eq
 80003d8:	f481 1180 	eoreq.w	r1, r1, #1048576	@ 0x100000
 80003dc:	3401      	addeq	r4, #1
 80003de:	3d01      	subne	r5, #1
 80003e0:	e74e      	b.n	8000280 <__adddf3+0x8c>
 80003e2:	ea7f 5c64 	mvns.w	ip, r4, asr #21
 80003e6:	bf18      	it	ne
 80003e8:	ea7f 5c65 	mvnsne.w	ip, r5, asr #21
 80003ec:	d029      	beq.n	8000442 <__adddf3+0x24e>
 80003ee:	ea94 0f05 	teq	r4, r5
 80003f2:	bf08      	it	eq
 80003f4:	ea90 0f02 	teqeq	r0, r2
 80003f8:	d005      	beq.n	8000406 <__adddf3+0x212>
 80003fa:	ea54 0c00 	orrs.w	ip, r4, r0
 80003fe:	bf04      	itt	eq
 8000400:	4619      	moveq	r1, r3
 8000402:	4610      	moveq	r0, r2
 8000404:	bd30      	pop	{r4, r5, pc}
 8000406:	ea91 0f03 	teq	r1, r3
 800040a:	bf1e      	ittt	ne
 800040c:	2100      	movne	r1, #0
 800040e:	2000      	movne	r0, #0
 8000410:	bd30      	popne	{r4, r5, pc}
 8000412:	ea5f 5c54 	movs.w	ip, r4, lsr #21
 8000416:	d105      	bne.n	8000424 <__adddf3+0x230>
 8000418:	0040      	lsls	r0, r0, #1
 800041a:	4149      	adcs	r1, r1
 800041c:	bf28      	it	cs
 800041e:	f041 4100 	orrcs.w	r1, r1, #2147483648	@ 0x80000000
 8000422:	bd30      	pop	{r4, r5, pc}
 8000424:	f514 0480 	adds.w	r4, r4, #4194304	@ 0x400000
 8000428:	bf3c      	itt	cc
 800042a:	f501 1180 	addcc.w	r1, r1, #1048576	@ 0x100000
 800042e:	bd30      	popcc	{r4, r5, pc}
 8000430:	f001 4500 	and.w	r5, r1, #2147483648	@ 0x80000000
 8000434:	f045 41fe 	orr.w	r1, r5, #2130706432	@ 0x7f000000
 8000438:	f441 0170 	orr.w	r1, r1, #15728640	@ 0xf00000
 800043c:	f04f 0000 	mov.w	r0, #0
 8000440:	bd30      	pop	{r4, r5, pc}
 8000442:	ea7f 5c64 	mvns.w	ip, r4, asr #21
 8000446:	bf1a      	itte	ne
 8000448:	4619      	movne	r1, r3
 800044a:	4610      	movne	r0, r2
 800044c:	ea7f 5c65 	mvnseq.w	ip, r5, asr #21
 8000450:	bf1c      	itt	ne
 8000452:	460b      	movne	r3, r1
 8000454:	4602      	movne	r2, r0
 8000456:	ea50 3401 	orrs.w	r4, r0, r1, lsl #12
 800045a:	bf06      	itte	eq
 800045c:	ea52 3503 	orrseq.w	r5, r2, r3, lsl #12
 8000460:	ea91 0f03 	teqeq	r1, r3
 8000464:	f441 2100 	orrne.w	r1, r1, #524288	@ 0x80000
 8000468:	bd30      	pop	{r4, r5, pc}
 800046a:	bf00      	nop

0800046c <__aeabi_ui2d>:
 800046c:	f090 0f00 	teq	r0, #0
 8000470:	bf04      	itt	eq
 8000472:	2100      	moveq	r1, #0
 8000474:	4770      	bxeq	lr
 8000476:	b530      	push	{r4, r5, lr}
 8000478:	f44f 6480 	mov.w	r4, #1024	@ 0x400
 800047c:	f104 0432 	add.w	r4, r4, #50	@ 0x32
 8000480:	f04f 0500 	mov.w	r5, #0
 8000484:	f04f 0100 	mov.w	r1, #0
 8000488:	e750      	b.n	800032c <__adddf3+0x138>
 800048a:	bf00      	nop

0800048c <__aeabi_i2d>:
 800048c:	f090 0f00 	teq	r0, #0
 8000490:	bf04      	itt	eq
 8000492:	2100      	moveq	r1, #0
 8000494:	4770      	bxeq	lr
 8000496:	b530      	push	{r4, r5, lr}
 8000498:	f44f 6480 	mov.w	r4, #1024	@ 0x400
 800049c:	f104 0432 	add.w	r4, r4, #50	@ 0x32
 80004a0:	f010 4500 	ands.w	r5, r0, #2147483648	@ 0x80000000
 80004a4:	bf48      	it	mi
 80004a6:	4240      	negmi	r0, r0
 80004a8:	f04f 0100 	mov.w	r1, #0
 80004ac:	e73e      	b.n	800032c <__adddf3+0x138>
 80004ae:	bf00      	nop

080004b0 <__aeabi_f2d>:
 80004b0:	0042      	lsls	r2, r0, #1
 80004b2:	ea4f 01e2 	mov.w	r1, r2, asr #3
 80004b6:	ea4f 0131 	mov.w	r1, r1, rrx
 80004ba:	ea4f 7002 	mov.w	r0, r2, lsl #28
 80004be:	bf1f      	itttt	ne
 80004c0:	f012 437f 	andsne.w	r3, r2, #4278190080	@ 0xff000000
 80004c4:	f093 4f7f 	teqne	r3, #4278190080	@ 0xff000000
 80004c8:	f081 5160 	eorne.w	r1, r1, #939524096	@ 0x38000000
 80004cc:	4770      	bxne	lr
 80004ce:	f032 427f 	bics.w	r2, r2, #4278190080	@ 0xff000000
 80004d2:	bf08      	it	eq
 80004d4:	4770      	bxeq	lr
 80004d6:	f093 4f7f 	teq	r3, #4278190080	@ 0xff000000
 80004da:	bf04      	itt	eq
 80004dc:	f441 2100 	orreq.w	r1, r1, #524288	@ 0x80000
 80004e0:	4770      	bxeq	lr
 80004e2:	b530      	push	{r4, r5, lr}
 80004e4:	f44f 7460 	mov.w	r4, #896	@ 0x380
 80004e8:	f001 4500 	and.w	r5, r1, #2147483648	@ 0x80000000
 80004ec:	f021 4100 	bic.w	r1, r1, #2147483648	@ 0x80000000
 80004f0:	e71c      	b.n	800032c <__adddf3+0x138>
 80004f2:	bf00      	nop

080004f4 <__aeabi_ul2d>:
 80004f4:	ea50 0201 	orrs.w	r2, r0, r1
 80004f8:	bf08      	it	eq
 80004fa:	4770      	bxeq	lr
 80004fc:	b530      	push	{r4, r5, lr}
 80004fe:	f04f 0500 	mov.w	r5, #0
 8000502:	e00a      	b.n	800051a <__aeabi_l2d+0x16>

08000504 <__aeabi_l2d>:
 8000504:	ea50 0201 	orrs.w	r2, r0, r1
 8000508:	bf08      	it	eq
 800050a:	4770      	bxeq	lr
 800050c:	b530      	push	{r4, r5, lr}
 800050e:	f011 4500 	ands.w	r5, r1, #2147483648	@ 0x80000000
 8000512:	d502      	bpl.n	800051a <__aeabi_l2d+0x16>
 8000514:	4240      	negs	r0, r0
 8000516:	eb61 0141 	sbc.w	r1, r1, r1, lsl #1
 800051a:	f44f 6480 	mov.w	r4, #1024	@ 0x400
 800051e:	f104 0432 	add.w	r4, r4, #50	@ 0x32
 8000522:	ea5f 5c91 	movs.w	ip, r1, lsr #22
 8000526:	f43f aed8 	beq.w	80002da <__adddf3+0xe6>
 800052a:	f04f 0203 	mov.w	r2, #3
 800052e:	ea5f 0cdc 	movs.w	ip, ip, lsr #3
 8000532:	bf18      	it	ne
 8000534:	3203      	addne	r2, #3
 8000536:	ea5f 0cdc 	movs.w	ip, ip, lsr #3
 800053a:	bf18      	it	ne
 800053c:	3203      	addne	r2, #3
 800053e:	eb02 02dc 	add.w	r2, r2, ip, lsr #3
 8000542:	f1c2 0320 	rsb	r3, r2, #32
 8000546:	fa00 fc03 	lsl.w	ip, r0, r3
 800054a:	fa20 f002 	lsr.w	r0, r0, r2
 800054e:	fa01 fe03 	lsl.w	lr, r1, r3
 8000552:	ea40 000e 	orr.w	r0, r0, lr
 8000556:	fa21 f102 	lsr.w	r1, r1, r2
 800055a:	4414      	add	r4, r2
 800055c:	e6bd      	b.n	80002da <__adddf3+0xe6>
 800055e:	bf00      	nop

08000560 <__aeabi_uldivmod>:
 8000560:	b953      	cbnz	r3, 8000578 <__aeabi_uldivmod+0x18>
 8000562:	b94a      	cbnz	r2, 8000578 <__aeabi_uldivmod+0x18>
 8000564:	2900      	cmp	r1, #0
 8000566:	bf08      	it	eq
 8000568:	2800      	cmpeq	r0, #0
 800056a:	bf1c      	itt	ne
 800056c:	f04f 31ff 	movne.w	r1, #4294967295
 8000570:	f04f 30ff 	movne.w	r0, #4294967295
 8000574:	f000 b96a 	b.w	800084c <__aeabi_idiv0>
 8000578:	f1ad 0c08 	sub.w	ip, sp, #8
 800057c:	e96d ce04 	strd	ip, lr, [sp, #-16]!
 8000580:	f000 f806 	bl	8000590 <__udivmoddi4>
 8000584:	f8dd e004 	ldr.w	lr, [sp, #4]
 8000588:	e9dd 2302 	ldrd	r2, r3, [sp, #8]
 800058c:	b004      	add	sp, #16
 800058e:	4770      	bx	lr

08000590 <__udivmoddi4>:
 8000590:	e92d 47f0 	stmdb	sp!, {r4, r5, r6, r7, r8, r9, sl, lr}
 8000594:	9d08      	ldr	r5, [sp, #32]
 8000596:	460c      	mov	r4, r1
 8000598:	2b00      	cmp	r3, #0
 800059a:	d14e      	bne.n	800063a <__udivmoddi4+0xaa>
 800059c:	4694      	mov	ip, r2
 800059e:	458c      	cmp	ip, r1
 80005a0:	4686      	mov	lr, r0
 80005a2:	fab2 f282 	clz	r2, r2
 80005a6:	d962      	bls.n	800066e <__udivmoddi4+0xde>
 80005a8:	b14a      	cbz	r2, 80005be <__udivmoddi4+0x2e>
 80005aa:	f1c2 0320 	rsb	r3, r2, #32
 80005ae:	4091      	lsls	r1, r2
 80005b0:	fa20 f303 	lsr.w	r3, r0, r3
 80005b4:	fa0c fc02 	lsl.w	ip, ip, r2
 80005b8:	4319      	orrs	r1, r3
 80005ba:	fa00 fe02 	lsl.w	lr, r0, r2
 80005be:	ea4f 471c 	mov.w	r7, ip, lsr #16
 80005c2:	fa1f f68c 	uxth.w	r6, ip
 80005c6:	fbb1 f4f7 	udiv	r4, r1, r7
 80005ca:	ea4f 431e 	mov.w	r3, lr, lsr #16
 80005ce:	fb07 1114 	mls	r1, r7, r4, r1
 80005d2:	ea43 4301 	orr.w	r3, r3, r1, lsl #16
 80005d6:	fb04 f106 	mul.w	r1, r4, r6
 80005da:	4299      	cmp	r1, r3
 80005dc:	d90a      	bls.n	80005f4 <__udivmoddi4+0x64>
 80005de:	eb1c 0303 	adds.w	r3, ip, r3
 80005e2:	f104 30ff 	add.w	r0, r4, #4294967295
 80005e6:	f080 8112 	bcs.w	800080e <__udivmoddi4+0x27e>
 80005ea:	4299      	cmp	r1, r3
 80005ec:	f240 810f 	bls.w	800080e <__udivmoddi4+0x27e>
 80005f0:	3c02      	subs	r4, #2
 80005f2:	4463      	add	r3, ip
 80005f4:	1a59      	subs	r1, r3, r1
 80005f6:	fa1f f38e 	uxth.w	r3, lr
 80005fa:	fbb1 f0f7 	udiv	r0, r1, r7
 80005fe:	fb07 1110 	mls	r1, r7, r0, r1
 8000602:	ea43 4301 	orr.w	r3, r3, r1, lsl #16
 8000606:	fb00 f606 	mul.w	r6, r0, r6
 800060a:	429e      	cmp	r6, r3
 800060c:	d90a      	bls.n	8000624 <__udivmoddi4+0x94>
 800060e:	eb1c 0303 	adds.w	r3, ip, r3
 8000612:	f100 31ff 	add.w	r1, r0, #4294967295
 8000616:	f080 80fc 	bcs.w	8000812 <__udivmoddi4+0x282>
 800061a:	429e      	cmp	r6, r3
 800061c:	f240 80f9 	bls.w	8000812 <__udivmoddi4+0x282>
 8000620:	4463      	add	r3, ip
 8000622:	3802      	subs	r0, #2
 8000624:	1b9b      	subs	r3, r3, r6
 8000626:	ea40 4004 	orr.w	r0, r0, r4, lsl #16
 800062a:	2100      	movs	r1, #0
 800062c:	b11d      	cbz	r5, 8000636 <__udivmoddi4+0xa6>
 800062e:	40d3      	lsrs	r3, r2
 8000630:	2200      	movs	r2, #0
 8000632:	e9c5 3200 	strd	r3, r2, [r5]
 8000636:	e8bd 87f0 	ldmia.w	sp!, {r4, r5, r6, r7, r8, r9, sl, pc}
 800063a:	428b      	cmp	r3, r1
 800063c:	d905      	bls.n	800064a <__udivmoddi4+0xba>
 800063e:	b10d      	cbz	r5, 8000644 <__udivmoddi4+0xb4>
 8000640:	e9c5 0100 	strd	r0, r1, [r5]
 8000644:	2100      	movs	r1, #0
 8000646:	4608      	mov	r0, r1
 8000648:	e7f5      	b.n	8000636 <__udivmoddi4+0xa6>
 800064a:	fab3 f183 	clz	r1, r3
 800064e:	2900      	cmp	r1, #0
 8000650:	d146      	bne.n	80006e0 <__udivmoddi4+0x150>
 8000652:	42a3      	cmp	r3, r4
 8000654:	d302      	bcc.n	800065c <__udivmoddi4+0xcc>
 8000656:	4290      	cmp	r0, r2
 8000658:	f0c0 80f0 	bcc.w	800083c <__udivmoddi4+0x2ac>
 800065c:	1a86      	subs	r6, r0, r2
 800065e:	eb64 0303 	sbc.w	r3, r4, r3
 8000662:	2001      	movs	r0, #1
 8000664:	2d00      	cmp	r5, #0
 8000666:	d0e6      	beq.n	8000636 <__udivmoddi4+0xa6>
 8000668:	e9c5 6300 	strd	r6, r3, [r5]
 800066c:	e7e3      	b.n	8000636 <__udivmoddi4+0xa6>
 800066e:	2a00      	cmp	r2, #0
 8000670:	f040 8090 	bne.w	8000794 <__udivmoddi4+0x204>
 8000674:	eba1 040c 	sub.w	r4, r1, ip
 8000678:	ea4f 481c 	mov.w	r8, ip, lsr #16
 800067c:	fa1f f78c 	uxth.w	r7, ip
 8000680:	2101      	movs	r1, #1
 8000682:	fbb4 f6f8 	udiv	r6, r4, r8
 8000686:	ea4f 431e 	mov.w	r3, lr, lsr #16
 800068a:	fb08 4416 	mls	r4, r8, r6, r4
 800068e:	ea43 4304 	orr.w	r3, r3, r4, lsl #16
 8000692:	fb07 f006 	mul.w	r0, r7, r6
 8000696:	4298      	cmp	r0, r3
 8000698:	d908      	bls.n	80006ac <__udivmoddi4+0x11c>
 800069a:	eb1c 0303 	adds.w	r3, ip, r3
 800069e:	f106 34ff 	add.w	r4, r6, #4294967295
 80006a2:	d202      	bcs.n	80006aa <__udivmoddi4+0x11a>
 80006a4:	4298      	cmp	r0, r3
 80006a6:	f200 80cd 	bhi.w	8000844 <__udivmoddi4+0x2b4>
 80006aa:	4626      	mov	r6, r4
 80006ac:	1a1c      	subs	r4, r3, r0
 80006ae:	fa1f f38e 	uxth.w	r3, lr
 80006b2:	fbb4 f0f8 	udiv	r0, r4, r8
 80006b6:	fb08 4410 	mls	r4, r8, r0, r4
 80006ba:	ea43 4304 	orr.w	r3, r3, r4, lsl #16
 80006be:	fb00 f707 	mul.w	r7, r0, r7
 80006c2:	429f      	cmp	r7, r3
 80006c4:	d908      	bls.n	80006d8 <__udivmoddi4+0x148>
 80006c6:	eb1c 0303 	adds.w	r3, ip, r3
 80006ca:	f100 34ff 	add.w	r4, r0, #4294967295
 80006ce:	d202      	bcs.n	80006d6 <__udivmoddi4+0x146>
 80006d0:	429f      	cmp	r7, r3
 80006d2:	f200 80b0 	bhi.w	8000836 <__udivmoddi4+0x2a6>
 80006d6:	4620      	mov	r0, r4
 80006d8:	1bdb      	subs	r3, r3, r7
 80006da:	ea40 4006 	orr.w	r0, r0, r6, lsl #16
 80006de:	e7a5      	b.n	800062c <__udivmoddi4+0x9c>
 80006e0:	f1c1 0620 	rsb	r6, r1, #32
 80006e4:	408b      	lsls	r3, r1
 80006e6:	fa22 f706 	lsr.w	r7, r2, r6
 80006ea:	431f      	orrs	r7, r3
 80006ec:	fa20 fc06 	lsr.w	ip, r0, r6
 80006f0:	fa04 f301 	lsl.w	r3, r4, r1
 80006f4:	ea43 030c 	orr.w	r3, r3, ip
 80006f8:	40f4      	lsrs	r4, r6
 80006fa:	fa00 f801 	lsl.w	r8, r0, r1
 80006fe:	0c38      	lsrs	r0, r7, #16
 8000700:	ea4f 4913 	mov.w	r9, r3, lsr #16
 8000704:	fbb4 fef0 	udiv	lr, r4, r0
 8000708:	fa1f fc87 	uxth.w	ip, r7
 800070c:	fb00 441e 	mls	r4, r0, lr, r4
 8000710:	ea49 4404 	orr.w	r4, r9, r4, lsl #16
 8000714:	fb0e f90c 	mul.w	r9, lr, ip
 8000718:	45a1      	cmp	r9, r4
 800071a:	fa02 f201 	lsl.w	r2, r2, r1
 800071e:	d90a      	bls.n	8000736 <__udivmoddi4+0x1a6>
 8000720:	193c      	adds	r4, r7, r4
 8000722:	f10e 3aff 	add.w	sl, lr, #4294967295
 8000726:	f080 8084 	bcs.w	8000832 <__udivmoddi4+0x2a2>
 800072a:	45a1      	cmp	r9, r4
 800072c:	f240 8081 	bls.w	8000832 <__udivmoddi4+0x2a2>
 8000730:	f1ae 0e02 	sub.w	lr, lr, #2
 8000734:	443c      	add	r4, r7
 8000736:	eba4 0409 	sub.w	r4, r4, r9
 800073a:	fa1f f983 	uxth.w	r9, r3
 800073e:	fbb4 f3f0 	udiv	r3, r4, r0
 8000742:	fb00 4413 	mls	r4, r0, r3, r4
 8000746:	ea49 4404 	orr.w	r4, r9, r4, lsl #16
 800074a:	fb03 fc0c 	mul.w	ip, r3, ip
 800074e:	45a4      	cmp	ip, r4
 8000750:	d907      	bls.n	8000762 <__udivmoddi4+0x1d2>
 8000752:	193c      	adds	r4, r7, r4
 8000754:	f103 30ff 	add.w	r0, r3, #4294967295
 8000758:	d267      	bcs.n	800082a <__udivmoddi4+0x29a>
 800075a:	45a4      	cmp	ip, r4
 800075c:	d965      	bls.n	800082a <__udivmoddi4+0x29a>
 800075e:	3b02      	subs	r3, #2
 8000760:	443c      	add	r4, r7
 8000762:	ea43 400e 	orr.w	r0, r3, lr, lsl #16
 8000766:	fba0 9302 	umull	r9, r3, r0, r2
 800076a:	eba4 040c 	sub.w	r4, r4, ip
 800076e:	429c      	cmp	r4, r3
 8000770:	46ce      	mov	lr, r9
 8000772:	469c      	mov	ip, r3
 8000774:	d351      	bcc.n	800081a <__udivmoddi4+0x28a>
 8000776:	d04e      	beq.n	8000816 <__udivmoddi4+0x286>
 8000778:	b155      	cbz	r5, 8000790 <__udivmoddi4+0x200>
 800077a:	ebb8 030e 	subs.w	r3, r8, lr
 800077e:	eb64 040c 	sbc.w	r4, r4, ip
 8000782:	fa04 f606 	lsl.w	r6, r4, r6
 8000786:	40cb      	lsrs	r3, r1
 8000788:	431e      	orrs	r6, r3
 800078a:	40cc      	lsrs	r4, r1
 800078c:	e9c5 6400 	strd	r6, r4, [r5]
 8000790:	2100      	movs	r1, #0
 8000792:	e750      	b.n	8000636 <__udivmoddi4+0xa6>
 8000794:	f1c2 0320 	rsb	r3, r2, #32
 8000798:	fa20 f103 	lsr.w	r1, r0, r3
 800079c:	fa0c fc02 	lsl.w	ip, ip, r2
 80007a0:	fa24 f303 	lsr.w	r3, r4, r3
 80007a4:	4094      	lsls	r4, r2
 80007a6:	430c      	orrs	r4, r1
 80007a8:	ea4f 481c 	mov.w	r8, ip, lsr #16
 80007ac:	fa00 fe02 	lsl.w	lr, r0, r2
 80007b0:	fa1f f78c 	uxth.w	r7, ip
 80007b4:	fbb3 f0f8 	udiv	r0, r3, r8
 80007b8:	fb08 3110 	mls	r1, r8, r0, r3
 80007bc:	0c23      	lsrs	r3, r4, #16
 80007be:	ea43 4301 	orr.w	r3, r3, r1, lsl #16
 80007c2:	fb00 f107 	mul.w	r1, r0, r7
 80007c6:	4299      	cmp	r1, r3
 80007c8:	d908      	bls.n	80007dc <__udivmoddi4+0x24c>
 80007ca:	eb1c 0303 	adds.w	r3, ip, r3
 80007ce:	f100 36ff 	add.w	r6, r0, #4294967295
 80007d2:	d22c      	bcs.n	800082e <__udivmoddi4+0x29e>
 80007d4:	4299      	cmp	r1, r3
 80007d6:	d92a      	bls.n	800082e <__udivmoddi4+0x29e>
 80007d8:	3802      	subs	r0, #2
 80007da:	4463      	add	r3, ip
 80007dc:	1a5b      	subs	r3, r3, r1
 80007de:	b2a4      	uxth	r4, r4
 80007e0:	fbb3 f1f8 	udiv	r1, r3, r8
 80007e4:	fb08 3311 	mls	r3, r8, r1, r3
 80007e8:	ea44 4403 	orr.w	r4, r4, r3, lsl #16
 80007ec:	fb01 f307 	mul.w	r3, r1, r7
 80007f0:	42a3      	cmp	r3, r4
 80007f2:	d908      	bls.n	8000806 <__udivmoddi4+0x276>
 80007f4:	eb1c 0404 	adds.w	r4, ip, r4
 80007f8:	f101 36ff 	add.w	r6, r1, #4294967295
 80007fc:	d213      	bcs.n	8000826 <__udivmoddi4+0x296>
 80007fe:	42a3      	cmp	r3, r4
 8000800:	d911      	bls.n	8000826 <__udivmoddi4+0x296>
 8000802:	3902      	subs	r1, #2
 8000804:	4464      	add	r4, ip
 8000806:	1ae4      	subs	r4, r4, r3
 8000808:	ea41 4100 	orr.w	r1, r1, r0, lsl #16
 800080c:	e739      	b.n	8000682 <__udivmoddi4+0xf2>
 800080e:	4604      	mov	r4, r0
 8000810:	e6f0      	b.n	80005f4 <__udivmoddi4+0x64>
 8000812:	4608      	mov	r0, r1
 8000814:	e706      	b.n	8000624 <__udivmoddi4+0x94>
 8000816:	45c8      	cmp	r8, r9
 8000818:	d2ae      	bcs.n	8000778 <__udivmoddi4+0x1e8>
 800081a:	ebb9 0e02 	subs.w	lr, r9, r2
 800081e:	eb63 0c07 	sbc.w	ip, r3, r7
 8000822:	3801      	subs	r0, #1
 8000824:	e7a8      	b.n	8000778 <__udivmoddi4+0x1e8>
 8000826:	4631      	mov	r1, r6
 8000828:	e7ed      	b.n	8000806 <__udivmoddi4+0x276>
 800082a:	4603      	mov	r3, r0
 800082c:	e799      	b.n	8000762 <__udivmoddi4+0x1d2>
 800082e:	4630      	mov	r0, r6
 8000830:	e7d4      	b.n	80007dc <__udivmoddi4+0x24c>
 8000832:	46d6      	mov	lr, sl
 8000834:	e77f      	b.n	8000736 <__udivmoddi4+0x1a6>
 8000836:	4463      	add	r3, ip
 8000838:	3802      	subs	r0, #2
 800083a:	e74d      	b.n	80006d8 <__udivmoddi4+0x148>
 800083c:	4606      	mov	r6, r0
 800083e:	4623      	mov	r3, r4
 8000840:	4608      	mov	r0, r1
 8000842:	e70f      	b.n	8000664 <__udivmoddi4+0xd4>
 8000844:	3e02      	subs	r6, #2
 8000846:	4463      	add	r3, ip
 8000848:	e730      	b.n	80006ac <__udivmoddi4+0x11c>
 800084a:	bf00      	nop

0800084c <__aeabi_idiv0>:
 800084c:	4770      	bx	lr
 800084e:	bf00      	nop

08000850 <APC1_Init_Sensor>:
  * @brief  Initializes the APC1 sensor.
  * @param  huart Pointer to a UART_HandleTypeDef structure that contains
  *               the configuration information for the specified UART module.
  * @retval APC1 status
  */
enum APC1_Status APC1_Init_Sensor(UART_HandleTypeDef *huart) {
 8000850:	b580      	push	{r7, lr}
 8000852:	b086      	sub	sp, #24
 8000854:	af00      	add	r7, sp, #0
 8000856:	6078      	str	r0, [r7, #4]

	if (huart == NULL) {
 8000858:	687b      	ldr	r3, [r7, #4]
 800085a:	2b00      	cmp	r3, #0
 800085c:	d107      	bne.n	800086e <APC1_Init_Sensor+0x1e>
		APC1_Error_Buffer_Append(error_buffer, 10);
 800085e:	4b0c      	ldr	r3, [pc, #48]	@ (8000890 <APC1_Init_Sensor+0x40>)
 8000860:	6a9b      	ldr	r3, [r3, #40]	@ 0x28
 8000862:	4619      	mov	r1, r3
 8000864:	480b      	ldr	r0, [pc, #44]	@ (8000894 <APC1_Init_Sensor+0x44>)
 8000866:	f002 feed 	bl	8003644 <strcat>
		return APC1_ERROR_NULL_POINTER;
 800086a:	2382      	movs	r3, #130	@ 0x82
 800086c:	e00c      	b.n	8000888 <APC1_Init_Sensor+0x38>
	}

	dev_settings = (struct APC1_Device_Settings) {
 800086e:	4a0a      	ldr	r2, [pc, #40]	@ (8000898 <APC1_Init_Sensor+0x48>)
 8000870:	687b      	ldr	r3, [r7, #4]
 8000872:	6013      	str	r3, [r2, #0]
 8000874:	4b08      	ldr	r3, [pc, #32]	@ (8000898 <APC1_Init_Sensor+0x48>)
 8000876:	2200      	movs	r2, #0
 8000878:	605a      	str	r2, [r3, #4]
 800087a:	4b07      	ldr	r3, [pc, #28]	@ (8000898 <APC1_Init_Sensor+0x48>)
 800087c:	2200      	movs	r2, #0
 800087e:	721a      	strb	r2, [r3, #8]
 8000880:	4b05      	ldr	r3, [pc, #20]	@ (8000898 <APC1_Init_Sensor+0x48>)
 8000882:	2200      	movs	r2, #0
 8000884:	725a      	strb	r2, [r3, #9]
			.mode = APC1_PASSIVE_MODE,
			.fw_vesion = 0,
			.received_response = 0
	};

	return APC1_OK;
 8000886:	2300      	movs	r3, #0

}
 8000888:	4618      	mov	r0, r3
 800088a:	3718      	adds	r7, #24
 800088c:	46bd      	mov	sp, r7
 800088e:	bd80      	pop	{r7, pc}
 8000890:	20000058 	.word	0x20000058
 8000894:	200001ac 	.word	0x200001ac
 8000898:	200002ac 	.word	0x200002ac

0800089c <APC1_Send_Receive_Command>:
  *               the configuration information for the specified UART module.
  * @param  setting	Struct element describing the command and its parameters.
  * @param  get_response  Indicating to receive or ignore response of executed command.
  * @retval HAL status
  */
HAL_StatusTypeDef APC1_Send_Receive_Command(UART_HandleTypeDef *huart, struct APC1_Command_Settings setting, int get_response) {
 800089c:	b580      	push	{r7, lr}
 800089e:	b086      	sub	sp, #24
 80008a0:	af00      	add	r7, sp, #0
 80008a2:	60f8      	str	r0, [r7, #12]
 80008a4:	4638      	mov	r0, r7
 80008a6:	e880 000e 	stmia.w	r0, {r1, r2, r3}

	HAL_StatusTypeDef status;

	memset(buffer, 0, BUFFER_SIZE);
 80008aa:	f44f 7280 	mov.w	r2, #256	@ 0x100
 80008ae:	2100      	movs	r1, #0
 80008b0:	4812      	ldr	r0, [pc, #72]	@ (80008fc <APC1_Send_Receive_Command+0x60>)
 80008b2:	f002 febf 	bl	8003634 <memset>
	if (get_response && (status = HAL_UART_Receive_IT(huart, buffer, setting.response_size)) != HAL_OK) {
 80008b6:	6a3b      	ldr	r3, [r7, #32]
 80008b8:	2b00      	cmp	r3, #0
 80008ba:	d00c      	beq.n	80008d6 <APC1_Send_Receive_Command+0x3a>
 80008bc:	7abb      	ldrb	r3, [r7, #10]
 80008be:	461a      	mov	r2, r3
 80008c0:	490e      	ldr	r1, [pc, #56]	@ (80008fc <APC1_Send_Receive_Command+0x60>)
 80008c2:	68f8      	ldr	r0, [r7, #12]
 80008c4:	f001 ff1d 	bl	8002702 <HAL_UART_Receive_IT>
 80008c8:	4603      	mov	r3, r0
 80008ca:	75fb      	strb	r3, [r7, #23]
 80008cc:	7dfb      	ldrb	r3, [r7, #23]
 80008ce:	2b00      	cmp	r3, #0
 80008d0:	d001      	beq.n	80008d6 <APC1_Send_Receive_Command+0x3a>
		return status;
 80008d2:	7dfb      	ldrb	r3, [r7, #23]
 80008d4:	e00e      	b.n	80008f4 <APC1_Send_Receive_Command+0x58>
	}
	if ((status = HAL_UART_Transmit(huart, setting.cmd, COMMAND_LENGHT, 2000)) != HAL_OK) {
 80008d6:	4639      	mov	r1, r7
 80008d8:	f44f 63fa 	mov.w	r3, #2000	@ 0x7d0
 80008dc:	2207      	movs	r2, #7
 80008de:	68f8      	ldr	r0, [r7, #12]
 80008e0:	f001 fe7d 	bl	80025de <HAL_UART_Transmit>
 80008e4:	4603      	mov	r3, r0
 80008e6:	75fb      	strb	r3, [r7, #23]
 80008e8:	7dfb      	ldrb	r3, [r7, #23]
 80008ea:	2b00      	cmp	r3, #0
 80008ec:	d001      	beq.n	80008f2 <APC1_Send_Receive_Command+0x56>
		return status;
 80008ee:	7dfb      	ldrb	r3, [r7, #23]
 80008f0:	e000      	b.n	80008f4 <APC1_Send_Receive_Command+0x58>
	}

	return status;
 80008f2:	7dfb      	ldrb	r3, [r7, #23]

}
 80008f4:	4618      	mov	r0, r3
 80008f6:	3718      	adds	r7, #24
 80008f8:	46bd      	mov	sp, r7
 80008fa:	bd80      	pop	{r7, pc}
 80008fc:	200000ac 	.word	0x200000ac

08000900 <APC1_Read_Module_Type>:
  * @note	Depending on the firmware version of the sensor this command is supported or not.
  * 		Versions prior to 35 DO NOT support it. In such case, this function will hang
  * 		in the while loop waiting for a response which will not occur.
  * @retval APC1 status
  */
enum APC1_Status APC1_Read_Module_Type(void) {
 8000900:	b580      	push	{r7, lr}
 8000902:	b084      	sub	sp, #16
 8000904:	af02      	add	r7, sp, #8

	enum APC1_Status status;

	if (APC1_Send_Receive_Command(dev_settings.sensor_uart, command[APC1_CMD_READ_MODULE_TYPE], GET_RESPONSE) != HAL_OK) {
 8000906:	4b1b      	ldr	r3, [pc, #108]	@ (8000974 <APC1_Read_Module_Type+0x74>)
 8000908:	6818      	ldr	r0, [r3, #0]
 800090a:	4b1b      	ldr	r3, [pc, #108]	@ (8000978 <APC1_Read_Module_Type+0x78>)
 800090c:	2201      	movs	r2, #1
 800090e:	9200      	str	r2, [sp, #0]
 8000910:	cb0e      	ldmia	r3, {r1, r2, r3}
 8000912:	f7ff ffc3 	bl	800089c <APC1_Send_Receive_Command>
 8000916:	4603      	mov	r3, r0
 8000918:	2b00      	cmp	r3, #0
 800091a:	d007      	beq.n	800092c <APC1_Read_Module_Type+0x2c>
		APC1_Error_Buffer_Append(error_buffer, 9);
 800091c:	4b17      	ldr	r3, [pc, #92]	@ (800097c <APC1_Read_Module_Type+0x7c>)
 800091e:	6a5b      	ldr	r3, [r3, #36]	@ 0x24
 8000920:	4619      	mov	r1, r3
 8000922:	4817      	ldr	r0, [pc, #92]	@ (8000980 <APC1_Read_Module_Type+0x80>)
 8000924:	f002 fe8e 	bl	8003644 <strcat>
		return APC1_ERROR_CMD;
 8000928:	2381      	movs	r3, #129	@ 0x81
 800092a:	e01e      	b.n	800096a <APC1_Read_Module_Type+0x6a>
	}
	while (dev_settings.received_response == 0);
 800092c:	bf00      	nop
 800092e:	4b11      	ldr	r3, [pc, #68]	@ (8000974 <APC1_Read_Module_Type+0x74>)
 8000930:	685b      	ldr	r3, [r3, #4]
 8000932:	2b00      	cmp	r3, #0
 8000934:	d0fb      	beq.n	800092e <APC1_Read_Module_Type+0x2e>
	dev_settings.received_response = 0;
 8000936:	4b0f      	ldr	r3, [pc, #60]	@ (8000974 <APC1_Read_Module_Type+0x74>)
 8000938:	2200      	movs	r2, #0
 800093a:	605a      	str	r2, [r3, #4]

	if ((status = APC1_Check_Checksum(SUM_OF_VALUES_FW, CHECKSUM_LOW_FW, CHECKSUM_HIGH_FW)) != APC1_OK) {
 800093c:	2216      	movs	r2, #22
 800093e:	2115      	movs	r1, #21
 8000940:	2015      	movs	r0, #21
 8000942:	f000 f8b3 	bl	8000aac <APC1_Check_Checksum>
 8000946:	4603      	mov	r3, r0
 8000948:	71fb      	strb	r3, [r7, #7]
 800094a:	79fb      	ldrb	r3, [r7, #7]
 800094c:	2b00      	cmp	r3, #0
 800094e:	d007      	beq.n	8000960 <APC1_Read_Module_Type+0x60>
		APC1_Error_Buffer_Append(error_buffer, 8);
 8000950:	4b0a      	ldr	r3, [pc, #40]	@ (800097c <APC1_Read_Module_Type+0x7c>)
 8000952:	6a1b      	ldr	r3, [r3, #32]
 8000954:	4619      	mov	r1, r3
 8000956:	480a      	ldr	r0, [pc, #40]	@ (8000980 <APC1_Read_Module_Type+0x80>)
 8000958:	f002 fe74 	bl	8003644 <strcat>
		return status;
 800095c:	79fb      	ldrb	r3, [r7, #7]
 800095e:	e004      	b.n	800096a <APC1_Read_Module_Type+0x6a>
	}
	dev_settings.fw_vesion = buffer[FW_ANSWER_FW_VERSION];
 8000960:	4b08      	ldr	r3, [pc, #32]	@ (8000984 <APC1_Read_Module_Type+0x84>)
 8000962:	7cda      	ldrb	r2, [r3, #19]
 8000964:	4b03      	ldr	r3, [pc, #12]	@ (8000974 <APC1_Read_Module_Type+0x74>)
 8000966:	725a      	strb	r2, [r3, #9]

	return status;
 8000968:	79fb      	ldrb	r3, [r7, #7]

}
 800096a:	4618      	mov	r0, r3
 800096c:	3708      	adds	r7, #8
 800096e:	46bd      	mov	sp, r7
 8000970:	bd80      	pop	{r7, pc}
 8000972:	bf00      	nop
 8000974:	200002ac 	.word	0x200002ac
 8000978:	20000000 	.word	0x20000000
 800097c:	20000058 	.word	0x20000058
 8000980:	200001ac 	.word	0x200001ac
 8000984:	200000ac 	.word	0x200000ac

08000988 <APC1_Read_Mea_Data>:
/**
  * @brief  Receives and processes answer for measurement command.
  * @note	This function is to be called when user wishes to get latest measurement from sensor.
  * @retval APC1 status
  */
enum APC1_Status APC1_Read_Mea_Data(void) {
 8000988:	b5b0      	push	{r4, r5, r7, lr}
 800098a:	b082      	sub	sp, #8
 800098c:	af02      	add	r7, sp, #8

	if (APC1_Send_Receive_Command(dev_settings.sensor_uart, command[APC1_CMD_READ_MEA_DATA], GET_RESPONSE) != HAL_OK) {
 800098e:	4b16      	ldr	r3, [pc, #88]	@ (80009e8 <APC1_Read_Mea_Data+0x60>)
 8000990:	6818      	ldr	r0, [r3, #0]
 8000992:	4b16      	ldr	r3, [pc, #88]	@ (80009ec <APC1_Read_Mea_Data+0x64>)
 8000994:	2201      	movs	r2, #1
 8000996:	9200      	str	r2, [sp, #0]
 8000998:	f8d3 200b 	ldr.w	r2, [r3, #11]
 800099c:	4615      	mov	r5, r2
 800099e:	f8d3 200f 	ldr.w	r2, [r3, #15]
 80009a2:	4614      	mov	r4, r2
 80009a4:	7cda      	ldrb	r2, [r3, #19]
 80009a6:	7d19      	ldrb	r1, [r3, #20]
 80009a8:	0209      	lsls	r1, r1, #8
 80009aa:	430a      	orrs	r2, r1
 80009ac:	7d5b      	ldrb	r3, [r3, #21]
 80009ae:	041b      	lsls	r3, r3, #16
 80009b0:	431a      	orrs	r2, r3
 80009b2:	2300      	movs	r3, #0
 80009b4:	f362 0317 	bfi	r3, r2, #0, #24
 80009b8:	4629      	mov	r1, r5
 80009ba:	4622      	mov	r2, r4
 80009bc:	f7ff ff6e 	bl	800089c <APC1_Send_Receive_Command>
 80009c0:	4603      	mov	r3, r0
 80009c2:	2b00      	cmp	r3, #0
 80009c4:	d001      	beq.n	80009ca <APC1_Read_Mea_Data+0x42>
		return APC1_ERROR_CMD;
 80009c6:	2381      	movs	r3, #129	@ 0x81
 80009c8:	e00a      	b.n	80009e0 <APC1_Read_Mea_Data+0x58>
	}
	while (dev_settings.received_response == 0);
 80009ca:	bf00      	nop
 80009cc:	4b06      	ldr	r3, [pc, #24]	@ (80009e8 <APC1_Read_Mea_Data+0x60>)
 80009ce:	685b      	ldr	r3, [r3, #4]
 80009d0:	2b00      	cmp	r3, #0
 80009d2:	d0fb      	beq.n	80009cc <APC1_Read_Mea_Data+0x44>
	dev_settings.received_response = 0;
 80009d4:	4b04      	ldr	r3, [pc, #16]	@ (80009e8 <APC1_Read_Mea_Data+0x60>)
 80009d6:	2200      	movs	r2, #0
 80009d8:	605a      	str	r2, [r3, #4]

	return APC1_Process_Mea_Data();
 80009da:	f000 f809 	bl	80009f0 <APC1_Process_Mea_Data>
 80009de:	4603      	mov	r3, r0

}
 80009e0:	4618      	mov	r0, r3
 80009e2:	46bd      	mov	sp, r7
 80009e4:	bdb0      	pop	{r4, r5, r7, pc}
 80009e6:	bf00      	nop
 80009e8:	200002ac 	.word	0x200002ac
 80009ec:	20000000 	.word	0x20000000

080009f0 <APC1_Process_Mea_Data>:

/**
  * @brief  Processes measurements received from sensor before being sent to user.
  * @retval APC1 status
  */
enum APC1_Status APC1_Process_Mea_Data(void) {
 80009f0:	b580      	push	{r7, lr}
 80009f2:	b084      	sub	sp, #16
 80009f4:	af00      	add	r7, sp, #0

	enum APC1_Status errorStat;

	if ((errorStat = APC1_Check_Checksum(SUM_OF_VALUES_MEA, CHECKSUM_LOW_OUTPUT_REGISTER, CHECKSUM_HIGH_OUTPUT_REGISTER)) != APC1_OK) {
 80009f6:	223f      	movs	r2, #63	@ 0x3f
 80009f8:	213e      	movs	r1, #62	@ 0x3e
 80009fa:	203e      	movs	r0, #62	@ 0x3e
 80009fc:	f000 f856 	bl	8000aac <APC1_Check_Checksum>
 8000a00:	4603      	mov	r3, r0
 8000a02:	72fb      	strb	r3, [r7, #11]
 8000a04:	7afb      	ldrb	r3, [r7, #11]
 8000a06:	2b00      	cmp	r3, #0
 8000a08:	d007      	beq.n	8000a1a <APC1_Process_Mea_Data+0x2a>
		APC1_Error_Buffer_Append(error_buffer, 8);
 8000a0a:	4b23      	ldr	r3, [pc, #140]	@ (8000a98 <APC1_Process_Mea_Data+0xa8>)
 8000a0c:	6a1b      	ldr	r3, [r3, #32]
 8000a0e:	4619      	mov	r1, r3
 8000a10:	4822      	ldr	r0, [pc, #136]	@ (8000a9c <APC1_Process_Mea_Data+0xac>)
 8000a12:	f002 fe17 	bl	8003644 <strcat>
		return errorStat;
 8000a16:	7afb      	ldrb	r3, [r7, #11]
 8000a18:	e039      	b.n	8000a8e <APC1_Process_Mea_Data+0x9e>
	}

	if (APC1_Check_For_Error()) {
 8000a1a:	f000 f879 	bl	8000b10 <APC1_Check_For_Error>
 8000a1e:	4603      	mov	r3, r0
 8000a20:	2b00      	cmp	r3, #0
 8000a22:	d001      	beq.n	8000a28 <APC1_Process_Mea_Data+0x38>
		return APC1_ERROR_CMD; // it does not matter which error we return here, as the correct errors are reported in the error buffer
 8000a24:	2381      	movs	r3, #129	@ 0x81
 8000a26:	e032      	b.n	8000a8e <APC1_Process_Mea_Data+0x9e>
	}

	uint16_t index = 4, i = 0;
 8000a28:	2304      	movs	r3, #4
 8000a2a:	81fb      	strh	r3, [r7, #14]
 8000a2c:	2300      	movs	r3, #0
 8000a2e:	81bb      	strh	r3, [r7, #12]
	uint16_t *struct_member = &processed_data.pm1_0;
 8000a30:	4b1b      	ldr	r3, [pc, #108]	@ (8000aa0 <APC1_Process_Mea_Data+0xb0>)
 8000a32:	607b      	str	r3, [r7, #4]
	while (index < RS0_OUTPUT_REGISTER) {
 8000a34:	e01c      	b.n	8000a70 <APC1_Process_Mea_Data+0x80>
		if (index == RESERVED_OUTPUT_REGISTER) { // skip reserved two bytes in output data at address 0x20
 8000a36:	89fb      	ldrh	r3, [r7, #14]
 8000a38:	2b20      	cmp	r3, #32
 8000a3a:	d102      	bne.n	8000a42 <APC1_Process_Mea_Data+0x52>
			index += 2;
 8000a3c:	89fb      	ldrh	r3, [r7, #14]
 8000a3e:	3302      	adds	r3, #2
 8000a40:	81fb      	strh	r3, [r7, #14]
		}
		struct_member[i++] = APC1_Convert(buffer[index], buffer[index + 1]);
 8000a42:	89fb      	ldrh	r3, [r7, #14]
 8000a44:	4a17      	ldr	r2, [pc, #92]	@ (8000aa4 <APC1_Process_Mea_Data+0xb4>)
 8000a46:	5cd3      	ldrb	r3, [r2, r3]
 8000a48:	021b      	lsls	r3, r3, #8
 8000a4a:	b21a      	sxth	r2, r3
 8000a4c:	89fb      	ldrh	r3, [r7, #14]
 8000a4e:	3301      	adds	r3, #1
 8000a50:	4914      	ldr	r1, [pc, #80]	@ (8000aa4 <APC1_Process_Mea_Data+0xb4>)
 8000a52:	5ccb      	ldrb	r3, [r1, r3]
 8000a54:	b21b      	sxth	r3, r3
 8000a56:	4313      	orrs	r3, r2
 8000a58:	b219      	sxth	r1, r3
 8000a5a:	89bb      	ldrh	r3, [r7, #12]
 8000a5c:	1c5a      	adds	r2, r3, #1
 8000a5e:	81ba      	strh	r2, [r7, #12]
 8000a60:	005b      	lsls	r3, r3, #1
 8000a62:	687a      	ldr	r2, [r7, #4]
 8000a64:	4413      	add	r3, r2
 8000a66:	b28a      	uxth	r2, r1
 8000a68:	801a      	strh	r2, [r3, #0]
		index += 2;
 8000a6a:	89fb      	ldrh	r3, [r7, #14]
 8000a6c:	3302      	adds	r3, #2
 8000a6e:	81fb      	strh	r3, [r7, #14]
	while (index < RS0_OUTPUT_REGISTER) {
 8000a70:	89fb      	ldrh	r3, [r7, #14]
 8000a72:	2b29      	cmp	r3, #41	@ 0x29
 8000a74:	d9df      	bls.n	8000a36 <APC1_Process_Mea_Data+0x46>
	}
	processed_data.aqi = buffer[AQI_OUTPUT_REGISTER];
 8000a76:	4b0b      	ldr	r3, [pc, #44]	@ (8000aa4 <APC1_Process_Mea_Data+0xb4>)
 8000a78:	f893 203a 	ldrb.w	r2, [r3, #58]	@ 0x3a
 8000a7c:	4b08      	ldr	r3, [pc, #32]	@ (8000aa0 <APC1_Process_Mea_Data+0xb0>)
 8000a7e:	f883 2024 	strb.w	r2, [r3, #36]	@ 0x24
	dev_settings.fw_vesion = buffer[VERSION_OUTPUT_REGISTER];
 8000a82:	4b08      	ldr	r3, [pc, #32]	@ (8000aa4 <APC1_Process_Mea_Data+0xb4>)
 8000a84:	f893 203c 	ldrb.w	r2, [r3, #60]	@ 0x3c
 8000a88:	4b07      	ldr	r3, [pc, #28]	@ (8000aa8 <APC1_Process_Mea_Data+0xb8>)
 8000a8a:	725a      	strb	r2, [r3, #9]

	return APC1_OK;
 8000a8c:	2300      	movs	r3, #0

}
 8000a8e:	4618      	mov	r0, r3
 8000a90:	3710      	adds	r7, #16
 8000a92:	46bd      	mov	sp, r7
 8000a94:	bd80      	pop	{r7, pc}
 8000a96:	bf00      	nop
 8000a98:	20000058 	.word	0x20000058
 8000a9c:	200001ac 	.word	0x200001ac
 8000aa0:	200002b8 	.word	0x200002b8
 8000aa4:	200000ac 	.word	0x200000ac
 8000aa8:	200002ac 	.word	0x200002ac

08000aac <APC1_Check_Checksum>:
  * @param	limit	Index of the last element + 1 which is to be used from the buffer.
  * @param	low		Lower index of the byte representing checksum in the buffer.
  * @param	high	Higher index of the byte representing checksum in the buffer.
  * @retval APC1 status
  */
enum APC1_Status APC1_Check_Checksum(int limit, int low, int high) {
 8000aac:	b480      	push	{r7}
 8000aae:	b087      	sub	sp, #28
 8000ab0:	af00      	add	r7, sp, #0
 8000ab2:	60f8      	str	r0, [r7, #12]
 8000ab4:	60b9      	str	r1, [r7, #8]
 8000ab6:	607a      	str	r2, [r7, #4]

	int sum = 0;
 8000ab8:	2300      	movs	r3, #0
 8000aba:	617b      	str	r3, [r7, #20]
	for (int i = 0; i<limit; i++) {
 8000abc:	2300      	movs	r3, #0
 8000abe:	613b      	str	r3, [r7, #16]
 8000ac0:	e00a      	b.n	8000ad8 <APC1_Check_Checksum+0x2c>
		sum += buffer[i];
 8000ac2:	4a12      	ldr	r2, [pc, #72]	@ (8000b0c <APC1_Check_Checksum+0x60>)
 8000ac4:	693b      	ldr	r3, [r7, #16]
 8000ac6:	4413      	add	r3, r2
 8000ac8:	781b      	ldrb	r3, [r3, #0]
 8000aca:	461a      	mov	r2, r3
 8000acc:	697b      	ldr	r3, [r7, #20]
 8000ace:	4413      	add	r3, r2
 8000ad0:	617b      	str	r3, [r7, #20]
	for (int i = 0; i<limit; i++) {
 8000ad2:	693b      	ldr	r3, [r7, #16]
 8000ad4:	3301      	adds	r3, #1
 8000ad6:	613b      	str	r3, [r7, #16]
 8000ad8:	693a      	ldr	r2, [r7, #16]
 8000ada:	68fb      	ldr	r3, [r7, #12]
 8000adc:	429a      	cmp	r2, r3
 8000ade:	dbf0      	blt.n	8000ac2 <APC1_Check_Checksum+0x16>
	}

	return (APC1_Convert(buffer[low], buffer[high])) == sum ? APC1_OK : APC1_ERROR_CRC;
 8000ae0:	4a0a      	ldr	r2, [pc, #40]	@ (8000b0c <APC1_Check_Checksum+0x60>)
 8000ae2:	68bb      	ldr	r3, [r7, #8]
 8000ae4:	4413      	add	r3, r2
 8000ae6:	781b      	ldrb	r3, [r3, #0]
 8000ae8:	021b      	lsls	r3, r3, #8
 8000aea:	4908      	ldr	r1, [pc, #32]	@ (8000b0c <APC1_Check_Checksum+0x60>)
 8000aec:	687a      	ldr	r2, [r7, #4]
 8000aee:	440a      	add	r2, r1
 8000af0:	7812      	ldrb	r2, [r2, #0]
 8000af2:	4313      	orrs	r3, r2
 8000af4:	697a      	ldr	r2, [r7, #20]
 8000af6:	429a      	cmp	r2, r3
 8000af8:	d101      	bne.n	8000afe <APC1_Check_Checksum+0x52>
 8000afa:	2300      	movs	r3, #0
 8000afc:	e000      	b.n	8000b00 <APC1_Check_Checksum+0x54>
 8000afe:	2380      	movs	r3, #128	@ 0x80

}
 8000b00:	4618      	mov	r0, r3
 8000b02:	371c      	adds	r7, #28
 8000b04:	46bd      	mov	sp, r7
 8000b06:	f85d 7b04 	ldr.w	r7, [sp], #4
 8000b0a:	4770      	bx	lr
 8000b0c:	200000ac 	.word	0x200000ac

08000b10 <APC1_Check_For_Error>:
  * @note	Returns an integer where 0 indicated no error, 1 indicating one or more errors.
  * 		Registered errors and their descriptions are found in the error buffer. The end
  * 		of the error buffer is always terminated by a '\0' null terminator.
  * @retval int
  */
int APC1_Check_For_Error(void) {
 8000b10:	b580      	push	{r7, lr}
 8000b12:	b082      	sub	sp, #8
 8000b14:	af00      	add	r7, sp, #0

	error_buffer[0] = '\0';
 8000b16:	4b26      	ldr	r3, [pc, #152]	@ (8000bb0 <APC1_Check_For_Error+0xa0>)
 8000b18:	2200      	movs	r2, #0
 8000b1a:	701a      	strb	r2, [r3, #0]
	uint8_t status = buffer[ERROR_OUTPUT_REGISTER];
 8000b1c:	4b25      	ldr	r3, [pc, #148]	@ (8000bb4 <APC1_Check_For_Error+0xa4>)
 8000b1e:	f893 303d 	ldrb.w	r3, [r3, #61]	@ 0x3d
 8000b22:	70fb      	strb	r3, [r7, #3]

	if (status == APC1_OK) {
 8000b24:	78fb      	ldrb	r3, [r7, #3]
 8000b26:	2b00      	cmp	r3, #0
 8000b28:	d10e      	bne.n	8000b48 <APC1_Check_For_Error+0x38>
		APC1_Error_Buffer_Append(error_buffer, 0);
 8000b2a:	4b23      	ldr	r3, [pc, #140]	@ (8000bb8 <APC1_Check_For_Error+0xa8>)
 8000b2c:	681b      	ldr	r3, [r3, #0]
 8000b2e:	4619      	mov	r1, r3
 8000b30:	481f      	ldr	r0, [pc, #124]	@ (8000bb0 <APC1_Check_For_Error+0xa0>)
 8000b32:	f002 fd87 	bl	8003644 <strcat>
		error_buffer[strlen(error_buffer)] = '\0';
 8000b36:	481e      	ldr	r0, [pc, #120]	@ (8000bb0 <APC1_Check_For_Error+0xa0>)
 8000b38:	f7ff fb4e 	bl	80001d8 <strlen>
 8000b3c:	4603      	mov	r3, r0
 8000b3e:	4a1c      	ldr	r2, [pc, #112]	@ (8000bb0 <APC1_Check_For_Error+0xa0>)
 8000b40:	2100      	movs	r1, #0
 8000b42:	54d1      	strb	r1, [r2, r3]
		error_buffer[strlen(error_buffer) - 1] = '\0';

		return 1;
	}

	return 0;
 8000b44:	2300      	movs	r3, #0
 8000b46:	e02e      	b.n	8000ba6 <APC1_Check_For_Error+0x96>
		for (int i = 0; i<NUM_OF_ERRORS; i++) {
 8000b48:	2300      	movs	r3, #0
 8000b4a:	607b      	str	r3, [r7, #4]
 8000b4c:	e01f      	b.n	8000b8e <APC1_Check_For_Error+0x7e>
			if (status & APC1_Error_Masks[i]) {
 8000b4e:	4a1b      	ldr	r2, [pc, #108]	@ (8000bbc <APC1_Check_For_Error+0xac>)
 8000b50:	687b      	ldr	r3, [r7, #4]
 8000b52:	4413      	add	r3, r2
 8000b54:	781a      	ldrb	r2, [r3, #0]
 8000b56:	78fb      	ldrb	r3, [r7, #3]
 8000b58:	4013      	ands	r3, r2
 8000b5a:	b2db      	uxtb	r3, r3
 8000b5c:	2b00      	cmp	r3, #0
 8000b5e:	d013      	beq.n	8000b88 <APC1_Check_For_Error+0x78>
				APC1_Error_Buffer_Append(error_buffer, i);
 8000b60:	4a15      	ldr	r2, [pc, #84]	@ (8000bb8 <APC1_Check_For_Error+0xa8>)
 8000b62:	687b      	ldr	r3, [r7, #4]
 8000b64:	f852 3023 	ldr.w	r3, [r2, r3, lsl #2]
 8000b68:	4619      	mov	r1, r3
 8000b6a:	4811      	ldr	r0, [pc, #68]	@ (8000bb0 <APC1_Check_For_Error+0xa0>)
 8000b6c:	f002 fd6a 	bl	8003644 <strcat>
				strcat(error_buffer, ";");
 8000b70:	480f      	ldr	r0, [pc, #60]	@ (8000bb0 <APC1_Check_For_Error+0xa0>)
 8000b72:	f7ff fb31 	bl	80001d8 <strlen>
 8000b76:	4603      	mov	r3, r0
 8000b78:	461a      	mov	r2, r3
 8000b7a:	4b0d      	ldr	r3, [pc, #52]	@ (8000bb0 <APC1_Check_For_Error+0xa0>)
 8000b7c:	4413      	add	r3, r2
 8000b7e:	4910      	ldr	r1, [pc, #64]	@ (8000bc0 <APC1_Check_For_Error+0xb0>)
 8000b80:	461a      	mov	r2, r3
 8000b82:	460b      	mov	r3, r1
 8000b84:	881b      	ldrh	r3, [r3, #0]
 8000b86:	8013      	strh	r3, [r2, #0]
		for (int i = 0; i<NUM_OF_ERRORS; i++) {
 8000b88:	687b      	ldr	r3, [r7, #4]
 8000b8a:	3301      	adds	r3, #1
 8000b8c:	607b      	str	r3, [r7, #4]
 8000b8e:	687b      	ldr	r3, [r7, #4]
 8000b90:	2b08      	cmp	r3, #8
 8000b92:	dddc      	ble.n	8000b4e <APC1_Check_For_Error+0x3e>
		error_buffer[strlen(error_buffer) - 1] = '\0';
 8000b94:	4806      	ldr	r0, [pc, #24]	@ (8000bb0 <APC1_Check_For_Error+0xa0>)
 8000b96:	f7ff fb1f 	bl	80001d8 <strlen>
 8000b9a:	4603      	mov	r3, r0
 8000b9c:	3b01      	subs	r3, #1
 8000b9e:	4a04      	ldr	r2, [pc, #16]	@ (8000bb0 <APC1_Check_For_Error+0xa0>)
 8000ba0:	2100      	movs	r1, #0
 8000ba2:	54d1      	strb	r1, [r2, r3]
		return 1;
 8000ba4:	2301      	movs	r3, #1

}
 8000ba6:	4618      	mov	r0, r3
 8000ba8:	3708      	adds	r7, #8
 8000baa:	46bd      	mov	sp, r7
 8000bac:	bd80      	pop	{r7, pc}
 8000bae:	bf00      	nop
 8000bb0:	200001ac 	.word	0x200001ac
 8000bb4:	200000ac 	.word	0x200000ac
 8000bb8:	20000058 	.word	0x20000058
 8000bbc:	080037f8 	.word	0x080037f8
 8000bc0:	080037dc 	.word	0x080037dc

08000bc4 <APC1_Get_PM1_0>:

/**
  * @brief  Get PM1.0 mass concentration.
  * @retval unsigned 16 bit value
  */
uint16_t APC1_Get_PM1_0(void) {
 8000bc4:	b480      	push	{r7}
 8000bc6:	af00      	add	r7, sp, #0

	return processed_data.pm1_0;
 8000bc8:	4b03      	ldr	r3, [pc, #12]	@ (8000bd8 <APC1_Get_PM1_0+0x14>)
 8000bca:	881b      	ldrh	r3, [r3, #0]

}
 8000bcc:	4618      	mov	r0, r3
 8000bce:	46bd      	mov	sp, r7
 8000bd0:	f85d 7b04 	ldr.w	r7, [sp], #4
 8000bd4:	4770      	bx	lr
 8000bd6:	bf00      	nop
 8000bd8:	200002b8 	.word	0x200002b8

08000bdc <APC1_Get_PM2_5>:

/**
  * @brief  Get PM2.5 mass concentration.
  * @retval unsigned 16 bit value
  */
uint16_t APC1_Get_PM2_5(void) {
 8000bdc:	b480      	push	{r7}
 8000bde:	af00      	add	r7, sp, #0

	return processed_data.pm2_5;
 8000be0:	4b03      	ldr	r3, [pc, #12]	@ (8000bf0 <APC1_Get_PM2_5+0x14>)
 8000be2:	885b      	ldrh	r3, [r3, #2]

}
 8000be4:	4618      	mov	r0, r3
 8000be6:	46bd      	mov	sp, r7
 8000be8:	f85d 7b04 	ldr.w	r7, [sp], #4
 8000bec:	4770      	bx	lr
 8000bee:	bf00      	nop
 8000bf0:	200002b8 	.word	0x200002b8

08000bf4 <APC1_Get_PM10>:

/**
  * @brief  Get PM10 mass concentration.
  * @retval unsigned 16 bit value
  */
uint16_t APC1_Get_PM10(void) {
 8000bf4:	b480      	push	{r7}
 8000bf6:	af00      	add	r7, sp, #0

	return processed_data.pm10;
 8000bf8:	4b03      	ldr	r3, [pc, #12]	@ (8000c08 <APC1_Get_PM10+0x14>)
 8000bfa:	889b      	ldrh	r3, [r3, #4]

}
 8000bfc:	4618      	mov	r0, r3
 8000bfe:	46bd      	mov	sp, r7
 8000c00:	f85d 7b04 	ldr.w	r7, [sp], #4
 8000c04:	4770      	bx	lr
 8000c06:	bf00      	nop
 8000c08:	200002b8 	.word	0x200002b8

08000c0c <APC1_Get_PM1_0_air>:

/**
  * @brief  Get PM1.0 mass concentration in atmospheric environment.
  * @retval unsigned 16 bit value
  */
uint16_t APC1_Get_PM1_0_air(void) {
 8000c0c:	b480      	push	{r7}
 8000c0e:	af00      	add	r7, sp, #0

	return processed_data.pm1_0_air;
 8000c10:	4b03      	ldr	r3, [pc, #12]	@ (8000c20 <APC1_Get_PM1_0_air+0x14>)
 8000c12:	88db      	ldrh	r3, [r3, #6]

}
 8000c14:	4618      	mov	r0, r3
 8000c16:	46bd      	mov	sp, r7
 8000c18:	f85d 7b04 	ldr.w	r7, [sp], #4
 8000c1c:	4770      	bx	lr
 8000c1e:	bf00      	nop
 8000c20:	200002b8 	.word	0x200002b8

08000c24 <APC1_Get_PM2_5_air>:

/**
  * @brief  Get PM2.5 mass concentration in atmospheric environment.
  * @retval unsigned 16 bit value
  */
uint16_t APC1_Get_PM2_5_air(void) {
 8000c24:	b480      	push	{r7}
 8000c26:	af00      	add	r7, sp, #0

	return processed_data.pm2_5_air;
 8000c28:	4b03      	ldr	r3, [pc, #12]	@ (8000c38 <APC1_Get_PM2_5_air+0x14>)
 8000c2a:	891b      	ldrh	r3, [r3, #8]

}
 8000c2c:	4618      	mov	r0, r3
 8000c2e:	46bd      	mov	sp, r7
 8000c30:	f85d 7b04 	ldr.w	r7, [sp], #4
 8000c34:	4770      	bx	lr
 8000c36:	bf00      	nop
 8000c38:	200002b8 	.word	0x200002b8

08000c3c <APC1_Get_PM10_air>:

/**
  * @brief  Get PM10 mass concentration in atmospheric environment.
  * @retval unsigned 16 bit value
  */
uint16_t APC1_Get_PM10_air(void) {
 8000c3c:	b480      	push	{r7}
 8000c3e:	af00      	add	r7, sp, #0

	return processed_data.pm10_air;
 8000c40:	4b03      	ldr	r3, [pc, #12]	@ (8000c50 <APC1_Get_PM10_air+0x14>)
 8000c42:	895b      	ldrh	r3, [r3, #10]

}
 8000c44:	4618      	mov	r0, r3
 8000c46:	46bd      	mov	sp, r7
 8000c48:	f85d 7b04 	ldr.w	r7, [sp], #4
 8000c4c:	4770      	bx	lr
 8000c4e:	bf00      	nop
 8000c50:	200002b8 	.word	0x200002b8

08000c54 <APC1_Get_Particles_GT_0_3>:

/**
  * @brief  Get number of particles with diameter > 0.3m in 0.1L of air.
  * @retval unsigned 16 bit value
  */
uint16_t APC1_Get_Particles_GT_0_3(void) {
 8000c54:	b480      	push	{r7}
 8000c56:	af00      	add	r7, sp, #0

	return processed_data.particles_0_3;
 8000c58:	4b03      	ldr	r3, [pc, #12]	@ (8000c68 <APC1_Get_Particles_GT_0_3+0x14>)
 8000c5a:	899b      	ldrh	r3, [r3, #12]

}
 8000c5c:	4618      	mov	r0, r3
 8000c5e:	46bd      	mov	sp, r7
 8000c60:	f85d 7b04 	ldr.w	r7, [sp], #4
 8000c64:	4770      	bx	lr
 8000c66:	bf00      	nop
 8000c68:	200002b8 	.word	0x200002b8

08000c6c <APC1_Get_Particles_GT_0_5>:

/**
  * @brief  Get number of particles with diameter > 0.5m in 0.1L of air.
  * @retval unsigned 16 bit value
  */
uint16_t APC1_Get_Particles_GT_0_5(void) {
 8000c6c:	b480      	push	{r7}
 8000c6e:	af00      	add	r7, sp, #0

	return processed_data.particles_0_5 - processed_data.particles_0_3;
 8000c70:	4b05      	ldr	r3, [pc, #20]	@ (8000c88 <APC1_Get_Particles_GT_0_5+0x1c>)
 8000c72:	89da      	ldrh	r2, [r3, #14]
 8000c74:	4b04      	ldr	r3, [pc, #16]	@ (8000c88 <APC1_Get_Particles_GT_0_5+0x1c>)
 8000c76:	899b      	ldrh	r3, [r3, #12]
 8000c78:	1ad3      	subs	r3, r2, r3
 8000c7a:	b29b      	uxth	r3, r3

}
 8000c7c:	4618      	mov	r0, r3
 8000c7e:	46bd      	mov	sp, r7
 8000c80:	f85d 7b04 	ldr.w	r7, [sp], #4
 8000c84:	4770      	bx	lr
 8000c86:	bf00      	nop
 8000c88:	200002b8 	.word	0x200002b8

08000c8c <APC1_Get_Particles_GT_1_0>:

/**
  * @brief  Get number of particles with diameter > 1.0m in 0.1L of air.
  * @retval unsigned 16 bit value
  */
uint16_t APC1_Get_Particles_GT_1_0(void) {
 8000c8c:	b480      	push	{r7}
 8000c8e:	af00      	add	r7, sp, #0

	return processed_data.particles_1_0 - processed_data.particles_0_3;
 8000c90:	4b05      	ldr	r3, [pc, #20]	@ (8000ca8 <APC1_Get_Particles_GT_1_0+0x1c>)
 8000c92:	8a1a      	ldrh	r2, [r3, #16]
 8000c94:	4b04      	ldr	r3, [pc, #16]	@ (8000ca8 <APC1_Get_Particles_GT_1_0+0x1c>)
 8000c96:	899b      	ldrh	r3, [r3, #12]
 8000c98:	1ad3      	subs	r3, r2, r3
 8000c9a:	b29b      	uxth	r3, r3

}
 8000c9c:	4618      	mov	r0, r3
 8000c9e:	46bd      	mov	sp, r7
 8000ca0:	f85d 7b04 	ldr.w	r7, [sp], #4
 8000ca4:	4770      	bx	lr
 8000ca6:	bf00      	nop
 8000ca8:	200002b8 	.word	0x200002b8

08000cac <APC1_Get_Particles_GT_2_5>:

/**
  * @brief  Get number of particles with diameter > 2.5m in 0.1L of air.
  * @retval unsigned 16 bit value
  */
uint16_t APC1_Get_Particles_GT_2_5(void) {
 8000cac:	b480      	push	{r7}
 8000cae:	af00      	add	r7, sp, #0

	return processed_data.particles_2_5 - processed_data.particles_0_3;
 8000cb0:	4b05      	ldr	r3, [pc, #20]	@ (8000cc8 <APC1_Get_Particles_GT_2_5+0x1c>)
 8000cb2:	8a5a      	ldrh	r2, [r3, #18]
 8000cb4:	4b04      	ldr	r3, [pc, #16]	@ (8000cc8 <APC1_Get_Particles_GT_2_5+0x1c>)
 8000cb6:	899b      	ldrh	r3, [r3, #12]
 8000cb8:	1ad3      	subs	r3, r2, r3
 8000cba:	b29b      	uxth	r3, r3

}
 8000cbc:	4618      	mov	r0, r3
 8000cbe:	46bd      	mov	sp, r7
 8000cc0:	f85d 7b04 	ldr.w	r7, [sp], #4
 8000cc4:	4770      	bx	lr
 8000cc6:	bf00      	nop
 8000cc8:	200002b8 	.word	0x200002b8

08000ccc <APC1_Get_Particles_GT_5_0>:

/**
  * @brief  Get number of particles with diameter > 5.0m in 0.1L of air.
  * @retval unsigned 16 bit value
  */
uint16_t APC1_Get_Particles_GT_5_0(void) {
 8000ccc:	b480      	push	{r7}
 8000cce:	af00      	add	r7, sp, #0

	return processed_data.particles_5_0 - processed_data.particles_0_3;
 8000cd0:	4b05      	ldr	r3, [pc, #20]	@ (8000ce8 <APC1_Get_Particles_GT_5_0+0x1c>)
 8000cd2:	8a9a      	ldrh	r2, [r3, #20]
 8000cd4:	4b04      	ldr	r3, [pc, #16]	@ (8000ce8 <APC1_Get_Particles_GT_5_0+0x1c>)
 8000cd6:	899b      	ldrh	r3, [r3, #12]
 8000cd8:	1ad3      	subs	r3, r2, r3
 8000cda:	b29b      	uxth	r3, r3

}
 8000cdc:	4618      	mov	r0, r3
 8000cde:	46bd      	mov	sp, r7
 8000ce0:	f85d 7b04 	ldr.w	r7, [sp], #4
 8000ce4:	4770      	bx	lr
 8000ce6:	bf00      	nop
 8000ce8:	200002b8 	.word	0x200002b8

08000cec <APC1_Get_Particles_GT_10>:

/**
  * @brief  Get number of particles with diameter > 10m in 0.1L of air.
  * @retval unsigned 16 bit value
  */
uint16_t APC1_Get_Particles_GT_10(void) {
 8000cec:	b480      	push	{r7}
 8000cee:	af00      	add	r7, sp, #0

	return processed_data.particles_10 - processed_data.particles_0_3;
 8000cf0:	4b05      	ldr	r3, [pc, #20]	@ (8000d08 <APC1_Get_Particles_GT_10+0x1c>)
 8000cf2:	8ada      	ldrh	r2, [r3, #22]
 8000cf4:	4b04      	ldr	r3, [pc, #16]	@ (8000d08 <APC1_Get_Particles_GT_10+0x1c>)
 8000cf6:	899b      	ldrh	r3, [r3, #12]
 8000cf8:	1ad3      	subs	r3, r2, r3
 8000cfa:	b29b      	uxth	r3, r3

}
 8000cfc:	4618      	mov	r0, r3
 8000cfe:	46bd      	mov	sp, r7
 8000d00:	f85d 7b04 	ldr.w	r7, [sp], #4
 8000d04:	4770      	bx	lr
 8000d06:	bf00      	nop
 8000d08:	200002b8 	.word	0x200002b8

08000d0c <APC1_Get_TVOC>:

/**
  * @brief  Get TVOC output.
  * @retval unsigned 16 bit value
  */
uint16_t APC1_Get_TVOC(void) {
 8000d0c:	b480      	push	{r7}
 8000d0e:	af00      	add	r7, sp, #0

	return processed_data.TVOC;
 8000d10:	4b03      	ldr	r3, [pc, #12]	@ (8000d20 <APC1_Get_TVOC+0x14>)
 8000d12:	8b1b      	ldrh	r3, [r3, #24]

}
 8000d14:	4618      	mov	r0, r3
 8000d16:	46bd      	mov	sp, r7
 8000d18:	f85d 7b04 	ldr.w	r7, [sp], #4
 8000d1c:	4770      	bx	lr
 8000d1e:	bf00      	nop
 8000d20:	200002b8 	.word	0x200002b8

08000d24 <APC1_Get_eCO2>:

/**
  * @brief  Get output in ppm CO2 equivalents.
  * @retval unsigned 16 bit value
  */
uint16_t APC1_Get_eCO2(void) {
 8000d24:	b480      	push	{r7}
 8000d26:	af00      	add	r7, sp, #0

	return processed_data.eCO2;
 8000d28:	4b03      	ldr	r3, [pc, #12]	@ (8000d38 <APC1_Get_eCO2+0x14>)
 8000d2a:	8b5b      	ldrh	r3, [r3, #26]

}
 8000d2c:	4618      	mov	r0, r3
 8000d2e:	46bd      	mov	sp, r7
 8000d30:	f85d 7b04 	ldr.w	r7, [sp], #4
 8000d34:	4770      	bx	lr
 8000d36:	bf00      	nop
 8000d38:	200002b8 	.word	0x200002b8

08000d3c <APC1_Get_T_Comp>:

/**
  * @brief  Get compensated temperature in C.
  * @retval double
  */
double APC1_Get_T_Comp(void) {
 8000d3c:	b580      	push	{r7, lr}
 8000d3e:	af00      	add	r7, sp, #0

	return processed_data.t_comp * 0.1f;
 8000d40:	4b0b      	ldr	r3, [pc, #44]	@ (8000d70 <APC1_Get_T_Comp+0x34>)
 8000d42:	8b9b      	ldrh	r3, [r3, #28]
 8000d44:	ee07 3a90 	vmov	s15, r3
 8000d48:	eef8 7ae7 	vcvt.f32.s32	s15, s15
 8000d4c:	ed9f 7a09 	vldr	s14, [pc, #36]	@ 8000d74 <APC1_Get_T_Comp+0x38>
 8000d50:	ee67 7a87 	vmul.f32	s15, s15, s14
 8000d54:	ee17 0a90 	vmov	r0, s15
 8000d58:	f7ff fbaa 	bl	80004b0 <__aeabi_f2d>
 8000d5c:	4602      	mov	r2, r0
 8000d5e:	460b      	mov	r3, r1
 8000d60:	ec43 2b17 	vmov	d7, r2, r3

}
 8000d64:	eeb0 0a47 	vmov.f32	s0, s14
 8000d68:	eef0 0a67 	vmov.f32	s1, s15
 8000d6c:	bd80      	pop	{r7, pc}
 8000d6e:	bf00      	nop
 8000d70:	200002b8 	.word	0x200002b8
 8000d74:	3dcccccd 	.word	0x3dcccccd

08000d78 <APC1_Get_RH_Comp>:

/**
  * @brief  Get compensated RH in %.
  * @retval double
  */
double APC1_Get_RH_Comp(void) {
 8000d78:	b580      	push	{r7, lr}
 8000d7a:	af00      	add	r7, sp, #0

	return processed_data.rh_comp * 0.1f;
 8000d7c:	4b0b      	ldr	r3, [pc, #44]	@ (8000dac <APC1_Get_RH_Comp+0x34>)
 8000d7e:	8bdb      	ldrh	r3, [r3, #30]
 8000d80:	ee07 3a90 	vmov	s15, r3
 8000d84:	eef8 7ae7 	vcvt.f32.s32	s15, s15
 8000d88:	ed9f 7a09 	vldr	s14, [pc, #36]	@ 8000db0 <APC1_Get_RH_Comp+0x38>
 8000d8c:	ee67 7a87 	vmul.f32	s15, s15, s14
 8000d90:	ee17 0a90 	vmov	r0, s15
 8000d94:	f7ff fb8c 	bl	80004b0 <__aeabi_f2d>
 8000d98:	4602      	mov	r2, r0
 8000d9a:	460b      	mov	r3, r1
 8000d9c:	ec43 2b17 	vmov	d7, r2, r3

}
 8000da0:	eeb0 0a47 	vmov.f32	s0, s14
 8000da4:	eef0 0a67 	vmov.f32	s1, s15
 8000da8:	bd80      	pop	{r7, pc}
 8000daa:	bf00      	nop
 8000dac:	200002b8 	.word	0x200002b8
 8000db0:	3dcccccd 	.word	0x3dcccccd

08000db4 <APC1_Get_T_Raw>:

/**
  * @brief  Get uncompensated temperature in C.
  * @retval double
  */
double APC1_Get_T_Raw(void) {
 8000db4:	b580      	push	{r7, lr}
 8000db6:	af00      	add	r7, sp, #0

	return processed_data.t_raw * 0.1f;
 8000db8:	4b0b      	ldr	r3, [pc, #44]	@ (8000de8 <APC1_Get_T_Raw+0x34>)
 8000dba:	8c1b      	ldrh	r3, [r3, #32]
 8000dbc:	ee07 3a90 	vmov	s15, r3
 8000dc0:	eef8 7ae7 	vcvt.f32.s32	s15, s15
 8000dc4:	ed9f 7a09 	vldr	s14, [pc, #36]	@ 8000dec <APC1_Get_T_Raw+0x38>
 8000dc8:	ee67 7a87 	vmul.f32	s15, s15, s14
 8000dcc:	ee17 0a90 	vmov	r0, s15
 8000dd0:	f7ff fb6e 	bl	80004b0 <__aeabi_f2d>
 8000dd4:	4602      	mov	r2, r0
 8000dd6:	460b      	mov	r3, r1
 8000dd8:	ec43 2b17 	vmov	d7, r2, r3

}
 8000ddc:	eeb0 0a47 	vmov.f32	s0, s14
 8000de0:	eef0 0a67 	vmov.f32	s1, s15
 8000de4:	bd80      	pop	{r7, pc}
 8000de6:	bf00      	nop
 8000de8:	200002b8 	.word	0x200002b8
 8000dec:	3dcccccd 	.word	0x3dcccccd

08000df0 <APC1_Get_RH_Raw>:

/**
  * @brief  Get uncompensated RH in %.
  * @retval double
  */
double APC1_Get_RH_Raw(void) {
 8000df0:	b580      	push	{r7, lr}
 8000df2:	af00      	add	r7, sp, #0

	return processed_data.rh_raw * 0.1f;
 8000df4:	4b0b      	ldr	r3, [pc, #44]	@ (8000e24 <APC1_Get_RH_Raw+0x34>)
 8000df6:	8c5b      	ldrh	r3, [r3, #34]	@ 0x22
 8000df8:	ee07 3a90 	vmov	s15, r3
 8000dfc:	eef8 7ae7 	vcvt.f32.s32	s15, s15
 8000e00:	ed9f 7a09 	vldr	s14, [pc, #36]	@ 8000e28 <APC1_Get_RH_Raw+0x38>
 8000e04:	ee67 7a87 	vmul.f32	s15, s15, s14
 8000e08:	ee17 0a90 	vmov	r0, s15
 8000e0c:	f7ff fb50 	bl	80004b0 <__aeabi_f2d>
 8000e10:	4602      	mov	r2, r0
 8000e12:	460b      	mov	r3, r1
 8000e14:	ec43 2b17 	vmov	d7, r2, r3

}
 8000e18:	eeb0 0a47 	vmov.f32	s0, s14
 8000e1c:	eef0 0a67 	vmov.f32	s1, s15
 8000e20:	bd80      	pop	{r7, pc}
 8000e22:	bf00      	nop
 8000e24:	200002b8 	.word	0x200002b8
 8000e28:	3dcccccd 	.word	0x3dcccccd

08000e2c <APC1_Get_AQI>:

/**
  * @brief  Get Air Quality Index according to UBA Classification of TVOC value.
  * @retval unsigned 8 bit value
  */
uint8_t	APC1_Get_AQI(void) {
 8000e2c:	b480      	push	{r7}
 8000e2e:	af00      	add	r7, sp, #0

	return processed_data.aqi;
 8000e30:	4b03      	ldr	r3, [pc, #12]	@ (8000e40 <APC1_Get_AQI+0x14>)
 8000e32:	f893 3024 	ldrb.w	r3, [r3, #36]	@ 0x24

}
 8000e36:	4618      	mov	r0, r3
 8000e38:	46bd      	mov	sp, r7
 8000e3a:	f85d 7b04 	ldr.w	r7, [sp], #4
 8000e3e:	4770      	bx	lr
 8000e40:	200002b8 	.word	0x200002b8

08000e44 <APC1_Get_AQI_String>:

/**
  * @brief  Get Air Quality Index according to UBA Classification of TVOC value as describing string.
  * @retval char*
  */
const char *APC1_Get_AQI_String(void) {
 8000e44:	b580      	push	{r7, lr}
 8000e46:	b082      	sub	sp, #8
 8000e48:	af00      	add	r7, sp, #0

	// if somehow we get a wrong index
	uint8_t index = APC1_Get_AQI();
 8000e4a:	f7ff ffef 	bl	8000e2c <APC1_Get_AQI>
 8000e4e:	4603      	mov	r3, r0
 8000e50:	71fb      	strb	r3, [r7, #7]
	return (index <= 5 && index >= 1) ? APC1_AQI_Strings[index - 1] : "Index out of bounds\0";
 8000e52:	79fb      	ldrb	r3, [r7, #7]
 8000e54:	2b05      	cmp	r3, #5
 8000e56:	d808      	bhi.n	8000e6a <APC1_Get_AQI_String+0x26>
 8000e58:	79fb      	ldrb	r3, [r7, #7]
 8000e5a:	2b00      	cmp	r3, #0
 8000e5c:	d005      	beq.n	8000e6a <APC1_Get_AQI_String+0x26>
 8000e5e:	79fb      	ldrb	r3, [r7, #7]
 8000e60:	3b01      	subs	r3, #1
 8000e62:	4a04      	ldr	r2, [pc, #16]	@ (8000e74 <APC1_Get_AQI_String+0x30>)
 8000e64:	f852 3023 	ldr.w	r3, [r2, r3, lsl #2]
 8000e68:	e000      	b.n	8000e6c <APC1_Get_AQI_String+0x28>
 8000e6a:	4b03      	ldr	r3, [pc, #12]	@ (8000e78 <APC1_Get_AQI_String+0x34>)

}
 8000e6c:	4618      	mov	r0, r3
 8000e6e:	3708      	adds	r7, #8
 8000e70:	46bd      	mov	sp, r7
 8000e72:	bd80      	pop	{r7, pc}
 8000e74:	20000044 	.word	0x20000044
 8000e78:	080037e0 	.word	0x080037e0

08000e7c <APC1_Get_Error_String>:

/**
  * @brief  Get error value as describing string.
  * @retval char*
  */
char *APC1_Get_Error_String(void) {
 8000e7c:	b480      	push	{r7}
 8000e7e:	af00      	add	r7, sp, #0

	return error_buffer;
 8000e80:	4b02      	ldr	r3, [pc, #8]	@ (8000e8c <APC1_Get_Error_String+0x10>)

}
 8000e82:	4618      	mov	r0, r3
 8000e84:	46bd      	mov	sp, r7
 8000e86:	f85d 7b04 	ldr.w	r7, [sp], #4
 8000e8a:	4770      	bx	lr
 8000e8c:	200001ac 	.word	0x200001ac

08000e90 <HAL_UART_RxCpltCallback>:

/**
  * @brief  Full callback for USART receive by interrupt.
  * @note	Sets flag indicating a full reception of values from sensor.
  */
void HAL_UART_RxCpltCallback(UART_HandleTypeDef *huart) {
 8000e90:	b480      	push	{r7}
 8000e92:	b083      	sub	sp, #12
 8000e94:	af00      	add	r7, sp, #0
 8000e96:	6078      	str	r0, [r7, #4]

	if (huart == dev_settings.sensor_uart) {
 8000e98:	4b06      	ldr	r3, [pc, #24]	@ (8000eb4 <HAL_UART_RxCpltCallback+0x24>)
 8000e9a:	681b      	ldr	r3, [r3, #0]
 8000e9c:	687a      	ldr	r2, [r7, #4]
 8000e9e:	429a      	cmp	r2, r3
 8000ea0:	d102      	bne.n	8000ea8 <HAL_UART_RxCpltCallback+0x18>
		dev_settings.received_response = 1;
 8000ea2:	4b04      	ldr	r3, [pc, #16]	@ (8000eb4 <HAL_UART_RxCpltCallback+0x24>)
 8000ea4:	2201      	movs	r2, #1
 8000ea6:	605a      	str	r2, [r3, #4]
	}

}
 8000ea8:	bf00      	nop
 8000eaa:	370c      	adds	r7, #12
 8000eac:	46bd      	mov	sp, r7
 8000eae:	f85d 7b04 	ldr.w	r7, [sp], #4
 8000eb2:	4770      	bx	lr
 8000eb4:	200002ac 	.word	0x200002ac

08000eb8 <main>:
/**
  * @brief  The application entry point.
  * @retval int
  */
int main(void)
{
 8000eb8:	b580      	push	{r7, lr}
 8000eba:	af00      	add	r7, sp, #0
  /* USER CODE END 1 */

  /* MCU Configuration--------------------------------------------------------*/

  /* Reset of all peripherals, Initializes the Flash interface and the Systick. */
  HAL_Init();
 8000ebc:	f000 fad2 	bl	8001464 <HAL_Init>
  /* USER CODE BEGIN Init */

  /* USER CODE END Init */

  /* Configure the system clock */
  SystemClock_Config();
 8000ec0:	f000 f8d4 	bl	800106c <SystemClock_Config>
  /* USER CODE BEGIN SysInit */

  /* USER CODE END SysInit */

  /* Initialize all configured peripherals */
  MX_GPIO_Init();
 8000ec4:	f000 f966 	bl	8001194 <MX_GPIO_Init>
  MX_USART1_UART_Init();
 8000ec8:	f000 f93a 	bl	8001140 <MX_USART1_UART_Init>
  /* USER CODE BEGIN 2 */

  if (APC1_Init_Sensor(&huart1) != APC1_OK) {
 8000ecc:	4851      	ldr	r0, [pc, #324]	@ (8001014 <main+0x15c>)
 8000ece:	f7ff fcbf 	bl	8000850 <APC1_Init_Sensor>
 8000ed2:	4603      	mov	r3, r0
 8000ed4:	2b00      	cmp	r3, #0
 8000ed6:	d001      	beq.n	8000edc <main+0x24>
	  Error_Handler();
 8000ed8:	f000 f9ca 	bl	8001270 <Error_Handler>
  }

  if (APC1_Read_Module_Type() != APC1_OK) {
 8000edc:	f7ff fd10 	bl	8000900 <APC1_Read_Module_Type>
 8000ee0:	4603      	mov	r3, r0
 8000ee2:	2b00      	cmp	r3, #0
 8000ee4:	d001      	beq.n	8000eea <main+0x32>
	  Error_Handler();
 8000ee6:	f000 f9c3 	bl	8001270 <Error_Handler>

  /* Infinite loop */
  /* USER CODE BEGIN WHILE */
  while (1)
  {
	  if (APC1_Read_Mea_Data() != APC1_OK) {
 8000eea:	f7ff fd4d 	bl	8000988 <APC1_Read_Mea_Data>
 8000eee:	4603      	mov	r3, r0
 8000ef0:	2b00      	cmp	r3, #0
 8000ef2:	d001      	beq.n	8000ef8 <main+0x40>
		  Error_Handler();
 8000ef4:	f000 f9bc 	bl	8001270 <Error_Handler>
	  }
	  T_pm1_0 = APC1_Get_PM1_0();
 8000ef8:	f7ff fe64 	bl	8000bc4 <APC1_Get_PM1_0>
 8000efc:	4603      	mov	r3, r0
 8000efe:	461a      	mov	r2, r3
 8000f00:	4b45      	ldr	r3, [pc, #276]	@ (8001018 <main+0x160>)
 8000f02:	801a      	strh	r2, [r3, #0]
	  T_pm2_5 = APC1_Get_PM2_5();
 8000f04:	f7ff fe6a 	bl	8000bdc <APC1_Get_PM2_5>
 8000f08:	4603      	mov	r3, r0
 8000f0a:	461a      	mov	r2, r3
 8000f0c:	4b43      	ldr	r3, [pc, #268]	@ (800101c <main+0x164>)
 8000f0e:	801a      	strh	r2, [r3, #0]
	  T_pm10 = APC1_Get_PM10();
 8000f10:	f7ff fe70 	bl	8000bf4 <APC1_Get_PM10>
 8000f14:	4603      	mov	r3, r0
 8000f16:	461a      	mov	r2, r3
 8000f18:	4b41      	ldr	r3, [pc, #260]	@ (8001020 <main+0x168>)
 8000f1a:	801a      	strh	r2, [r3, #0]
	  T_pm1_0_air = APC1_Get_PM1_0_air();
 8000f1c:	f7ff fe76 	bl	8000c0c <APC1_Get_PM1_0_air>
 8000f20:	4603      	mov	r3, r0
 8000f22:	461a      	mov	r2, r3
 8000f24:	4b3f      	ldr	r3, [pc, #252]	@ (8001024 <main+0x16c>)
 8000f26:	801a      	strh	r2, [r3, #0]
	  T_pm2_5_air = APC1_Get_PM2_5_air();
 8000f28:	f7ff fe7c 	bl	8000c24 <APC1_Get_PM2_5_air>
 8000f2c:	4603      	mov	r3, r0
 8000f2e:	461a      	mov	r2, r3
 8000f30:	4b3d      	ldr	r3, [pc, #244]	@ (8001028 <main+0x170>)
 8000f32:	801a      	strh	r2, [r3, #0]
	  T_pm10_air = APC1_Get_PM10_air();
 8000f34:	f7ff fe82 	bl	8000c3c <APC1_Get_PM10_air>
 8000f38:	4603      	mov	r3, r0
 8000f3a:	461a      	mov	r2, r3
 8000f3c:	4b3b      	ldr	r3, [pc, #236]	@ (800102c <main+0x174>)
 8000f3e:	801a      	strh	r2, [r3, #0]
	  T_particles_0_3 = APC1_Get_Particles_GT_0_3();
 8000f40:	f7ff fe88 	bl	8000c54 <APC1_Get_Particles_GT_0_3>
 8000f44:	4603      	mov	r3, r0
 8000f46:	461a      	mov	r2, r3
 8000f48:	4b39      	ldr	r3, [pc, #228]	@ (8001030 <main+0x178>)
 8000f4a:	801a      	strh	r2, [r3, #0]
	  T_particles_0_5 = APC1_Get_Particles_GT_0_5();
 8000f4c:	f7ff fe8e 	bl	8000c6c <APC1_Get_Particles_GT_0_5>
 8000f50:	4603      	mov	r3, r0
 8000f52:	461a      	mov	r2, r3
 8000f54:	4b37      	ldr	r3, [pc, #220]	@ (8001034 <main+0x17c>)
 8000f56:	801a      	strh	r2, [r3, #0]
	  T_particles_1_0 = APC1_Get_Particles_GT_1_0();
 8000f58:	f7ff fe98 	bl	8000c8c <APC1_Get_Particles_GT_1_0>
 8000f5c:	4603      	mov	r3, r0
 8000f5e:	461a      	mov	r2, r3
 8000f60:	4b35      	ldr	r3, [pc, #212]	@ (8001038 <main+0x180>)
 8000f62:	801a      	strh	r2, [r3, #0]
	  T_particles_2_5 = APC1_Get_Particles_GT_2_5();
 8000f64:	f7ff fea2 	bl	8000cac <APC1_Get_Particles_GT_2_5>
 8000f68:	4603      	mov	r3, r0
 8000f6a:	461a      	mov	r2, r3
 8000f6c:	4b33      	ldr	r3, [pc, #204]	@ (800103c <main+0x184>)
 8000f6e:	801a      	strh	r2, [r3, #0]
	  T_particles_5_0 = APC1_Get_Particles_GT_5_0();
 8000f70:	f7ff feac 	bl	8000ccc <APC1_Get_Particles_GT_5_0>
 8000f74:	4603      	mov	r3, r0
 8000f76:	461a      	mov	r2, r3
 8000f78:	4b31      	ldr	r3, [pc, #196]	@ (8001040 <main+0x188>)
 8000f7a:	801a      	strh	r2, [r3, #0]
	  T_particles_10 = APC1_Get_Particles_GT_10();
 8000f7c:	f7ff feb6 	bl	8000cec <APC1_Get_Particles_GT_10>
 8000f80:	4603      	mov	r3, r0
 8000f82:	461a      	mov	r2, r3
 8000f84:	4b2f      	ldr	r3, [pc, #188]	@ (8001044 <main+0x18c>)
 8000f86:	801a      	strh	r2, [r3, #0]
	  T_TVOC = APC1_Get_TVOC();
 8000f88:	f7ff fec0 	bl	8000d0c <APC1_Get_TVOC>
 8000f8c:	4603      	mov	r3, r0
 8000f8e:	461a      	mov	r2, r3
 8000f90:	4b2d      	ldr	r3, [pc, #180]	@ (8001048 <main+0x190>)
 8000f92:	801a      	strh	r2, [r3, #0]
	  T_eCO2 = APC1_Get_eCO2();
 8000f94:	f7ff fec6 	bl	8000d24 <APC1_Get_eCO2>
 8000f98:	4603      	mov	r3, r0
 8000f9a:	461a      	mov	r2, r3
 8000f9c:	4b2b      	ldr	r3, [pc, #172]	@ (800104c <main+0x194>)
 8000f9e:	801a      	strh	r2, [r3, #0]
	  T_t_comp = APC1_Get_T_Comp();
 8000fa0:	f7ff fecc 	bl	8000d3c <APC1_Get_T_Comp>
 8000fa4:	eeb0 7a40 	vmov.f32	s14, s0
 8000fa8:	eef0 7a60 	vmov.f32	s15, s1
 8000fac:	4b28      	ldr	r3, [pc, #160]	@ (8001050 <main+0x198>)
 8000fae:	ed83 7b00 	vstr	d7, [r3]
	  T_rh_comp = APC1_Get_RH_Comp();
 8000fb2:	f7ff fee1 	bl	8000d78 <APC1_Get_RH_Comp>
 8000fb6:	eeb0 7a40 	vmov.f32	s14, s0
 8000fba:	eef0 7a60 	vmov.f32	s15, s1
 8000fbe:	4b25      	ldr	r3, [pc, #148]	@ (8001054 <main+0x19c>)
 8000fc0:	ed83 7b00 	vstr	d7, [r3]
	  T_t_raw = APC1_Get_T_Raw();
 8000fc4:	f7ff fef6 	bl	8000db4 <APC1_Get_T_Raw>
 8000fc8:	eeb0 7a40 	vmov.f32	s14, s0
 8000fcc:	eef0 7a60 	vmov.f32	s15, s1
 8000fd0:	4b21      	ldr	r3, [pc, #132]	@ (8001058 <main+0x1a0>)
 8000fd2:	ed83 7b00 	vstr	d7, [r3]
	  T_rh_raw = APC1_Get_RH_Raw();
 8000fd6:	f7ff ff0b 	bl	8000df0 <APC1_Get_RH_Raw>
 8000fda:	eeb0 7a40 	vmov.f32	s14, s0
 8000fde:	eef0 7a60 	vmov.f32	s15, s1
 8000fe2:	4b1e      	ldr	r3, [pc, #120]	@ (800105c <main+0x1a4>)
 8000fe4:	ed83 7b00 	vstr	d7, [r3]
	  T_aqi = APC1_Get_AQI();
 8000fe8:	f7ff ff20 	bl	8000e2c <APC1_Get_AQI>
 8000fec:	4603      	mov	r3, r0
 8000fee:	461a      	mov	r2, r3
 8000ff0:	4b1b      	ldr	r3, [pc, #108]	@ (8001060 <main+0x1a8>)
 8000ff2:	701a      	strb	r2, [r3, #0]
	  aqi_string = APC1_Get_AQI_String();
 8000ff4:	f7ff ff26 	bl	8000e44 <APC1_Get_AQI_String>
 8000ff8:	4603      	mov	r3, r0
 8000ffa:	4a1a      	ldr	r2, [pc, #104]	@ (8001064 <main+0x1ac>)
 8000ffc:	6013      	str	r3, [r2, #0]
	  error_string = APC1_Get_Error_String();
 8000ffe:	f7ff ff3d 	bl	8000e7c <APC1_Get_Error_String>
 8001002:	4603      	mov	r3, r0
 8001004:	4a18      	ldr	r2, [pc, #96]	@ (8001068 <main+0x1b0>)
 8001006:	6013      	str	r3, [r2, #0]
	  HAL_Delay(2000);
 8001008:	f44f 60fa 	mov.w	r0, #2000	@ 0x7d0
 800100c:	f000 fa9c 	bl	8001548 <HAL_Delay>
	  if (APC1_Read_Mea_Data() != APC1_OK) {
 8001010:	e76b      	b.n	8000eea <main+0x32>
 8001012:	bf00      	nop
 8001014:	2000032c 	.word	0x2000032c
 8001018:	200002de 	.word	0x200002de
 800101c:	200002e0 	.word	0x200002e0
 8001020:	200002e2 	.word	0x200002e2
 8001024:	200002e4 	.word	0x200002e4
 8001028:	200002e6 	.word	0x200002e6
 800102c:	200002e8 	.word	0x200002e8
 8001030:	200002ea 	.word	0x200002ea
 8001034:	200002ec 	.word	0x200002ec
 8001038:	200002ee 	.word	0x200002ee
 800103c:	200002f0 	.word	0x200002f0
 8001040:	200002f2 	.word	0x200002f2
 8001044:	200002f4 	.word	0x200002f4
 8001048:	200002f6 	.word	0x200002f6
 800104c:	200002f8 	.word	0x200002f8
 8001050:	20000300 	.word	0x20000300
 8001054:	20000308 	.word	0x20000308
 8001058:	20000310 	.word	0x20000310
 800105c:	20000318 	.word	0x20000318
 8001060:	20000328 	.word	0x20000328
 8001064:	20000320 	.word	0x20000320
 8001068:	20000324 	.word	0x20000324

0800106c <SystemClock_Config>:
/**
  * @brief System Clock Configuration
  * @retval None
  */
void SystemClock_Config(void)
{
 800106c:	b580      	push	{r7, lr}
 800106e:	b094      	sub	sp, #80	@ 0x50
 8001070:	af00      	add	r7, sp, #0
  RCC_OscInitTypeDef RCC_OscInitStruct = {0};
 8001072:	f107 0320 	add.w	r3, r7, #32
 8001076:	2230      	movs	r2, #48	@ 0x30
 8001078:	2100      	movs	r1, #0
 800107a:	4618      	mov	r0, r3
 800107c:	f002 fada 	bl	8003634 <memset>
  RCC_ClkInitTypeDef RCC_ClkInitStruct = {0};
 8001080:	f107 030c 	add.w	r3, r7, #12
 8001084:	2200      	movs	r2, #0
 8001086:	601a      	str	r2, [r3, #0]
 8001088:	605a      	str	r2, [r3, #4]
 800108a:	609a      	str	r2, [r3, #8]
 800108c:	60da      	str	r2, [r3, #12]
 800108e:	611a      	str	r2, [r3, #16]

  /** Configure the main internal regulator output voltage
  */
  __HAL_RCC_PWR_CLK_ENABLE();
 8001090:	2300      	movs	r3, #0
 8001092:	60bb      	str	r3, [r7, #8]
 8001094:	4b28      	ldr	r3, [pc, #160]	@ (8001138 <SystemClock_Config+0xcc>)
 8001096:	6c1b      	ldr	r3, [r3, #64]	@ 0x40
 8001098:	4a27      	ldr	r2, [pc, #156]	@ (8001138 <SystemClock_Config+0xcc>)
 800109a:	f043 5380 	orr.w	r3, r3, #268435456	@ 0x10000000
 800109e:	6413      	str	r3, [r2, #64]	@ 0x40
 80010a0:	4b25      	ldr	r3, [pc, #148]	@ (8001138 <SystemClock_Config+0xcc>)
 80010a2:	6c1b      	ldr	r3, [r3, #64]	@ 0x40
 80010a4:	f003 5380 	and.w	r3, r3, #268435456	@ 0x10000000
 80010a8:	60bb      	str	r3, [r7, #8]
 80010aa:	68bb      	ldr	r3, [r7, #8]
  __HAL_PWR_VOLTAGESCALING_CONFIG(PWR_REGULATOR_VOLTAGE_SCALE1);
 80010ac:	2300      	movs	r3, #0
 80010ae:	607b      	str	r3, [r7, #4]
 80010b0:	4b22      	ldr	r3, [pc, #136]	@ (800113c <SystemClock_Config+0xd0>)
 80010b2:	681b      	ldr	r3, [r3, #0]
 80010b4:	4a21      	ldr	r2, [pc, #132]	@ (800113c <SystemClock_Config+0xd0>)
 80010b6:	f443 4340 	orr.w	r3, r3, #49152	@ 0xc000
 80010ba:	6013      	str	r3, [r2, #0]
 80010bc:	4b1f      	ldr	r3, [pc, #124]	@ (800113c <SystemClock_Config+0xd0>)
 80010be:	681b      	ldr	r3, [r3, #0]
 80010c0:	f403 4340 	and.w	r3, r3, #49152	@ 0xc000
 80010c4:	607b      	str	r3, [r7, #4]
 80010c6:	687b      	ldr	r3, [r7, #4]

  /** Initializes the RCC Oscillators according to the specified parameters
  * in the RCC_OscInitTypeDef structure.
  */
  RCC_OscInitStruct.OscillatorType = RCC_OSCILLATORTYPE_HSI;
 80010c8:	2302      	movs	r3, #2
 80010ca:	623b      	str	r3, [r7, #32]
  RCC_OscInitStruct.HSIState = RCC_HSI_ON;
 80010cc:	2301      	movs	r3, #1
 80010ce:	62fb      	str	r3, [r7, #44]	@ 0x2c
  RCC_OscInitStruct.HSICalibrationValue = RCC_HSICALIBRATION_DEFAULT;
 80010d0:	2310      	movs	r3, #16
 80010d2:	633b      	str	r3, [r7, #48]	@ 0x30
  RCC_OscInitStruct.PLL.PLLState = RCC_PLL_ON;
 80010d4:	2302      	movs	r3, #2
 80010d6:	63bb      	str	r3, [r7, #56]	@ 0x38
  RCC_OscInitStruct.PLL.PLLSource = RCC_PLLSOURCE_HSI;
 80010d8:	2300      	movs	r3, #0
 80010da:	63fb      	str	r3, [r7, #60]	@ 0x3c
  RCC_OscInitStruct.PLL.PLLM = 16;
 80010dc:	2310      	movs	r3, #16
 80010de:	643b      	str	r3, [r7, #64]	@ 0x40
  RCC_OscInitStruct.PLL.PLLN = 336;
 80010e0:	f44f 73a8 	mov.w	r3, #336	@ 0x150
 80010e4:	647b      	str	r3, [r7, #68]	@ 0x44
  RCC_OscInitStruct.PLL.PLLP = RCC_PLLP_DIV4;
 80010e6:	2304      	movs	r3, #4
 80010e8:	64bb      	str	r3, [r7, #72]	@ 0x48
  RCC_OscInitStruct.PLL.PLLQ = 4;
 80010ea:	2304      	movs	r3, #4
 80010ec:	64fb      	str	r3, [r7, #76]	@ 0x4c
  if (HAL_RCC_OscConfig(&RCC_OscInitStruct) != HAL_OK)
 80010ee:	f107 0320 	add.w	r3, r7, #32
 80010f2:	4618      	mov	r0, r3
 80010f4:	f000 fd8e 	bl	8001c14 <HAL_RCC_OscConfig>
 80010f8:	4603      	mov	r3, r0
 80010fa:	2b00      	cmp	r3, #0
 80010fc:	d001      	beq.n	8001102 <SystemClock_Config+0x96>
  {
    Error_Handler();
 80010fe:	f000 f8b7 	bl	8001270 <Error_Handler>
  }

  /** Initializes the CPU, AHB and APB buses clocks
  */
  RCC_ClkInitStruct.ClockType = RCC_CLOCKTYPE_HCLK|RCC_CLOCKTYPE_SYSCLK
 8001102:	230f      	movs	r3, #15
 8001104:	60fb      	str	r3, [r7, #12]
                              |RCC_CLOCKTYPE_PCLK1|RCC_CLOCKTYPE_PCLK2;
  RCC_ClkInitStruct.SYSCLKSource = RCC_SYSCLKSOURCE_PLLCLK;
 8001106:	2302      	movs	r3, #2
 8001108:	613b      	str	r3, [r7, #16]
  RCC_ClkInitStruct.AHBCLKDivider = RCC_SYSCLK_DIV1;
 800110a:	2300      	movs	r3, #0
 800110c:	617b      	str	r3, [r7, #20]
  RCC_ClkInitStruct.APB1CLKDivider = RCC_HCLK_DIV2;
 800110e:	f44f 5380 	mov.w	r3, #4096	@ 0x1000
 8001112:	61bb      	str	r3, [r7, #24]
  RCC_ClkInitStruct.APB2CLKDivider = RCC_HCLK_DIV1;
 8001114:	2300      	movs	r3, #0
 8001116:	61fb      	str	r3, [r7, #28]

  if (HAL_RCC_ClockConfig(&RCC_ClkInitStruct, FLASH_LATENCY_2) != HAL_OK)
 8001118:	f107 030c 	add.w	r3, r7, #12
 800111c:	2102      	movs	r1, #2
 800111e:	4618      	mov	r0, r3
 8001120:	f000 fff0 	bl	8002104 <HAL_RCC_ClockConfig>
 8001124:	4603      	mov	r3, r0
 8001126:	2b00      	cmp	r3, #0
 8001128:	d001      	beq.n	800112e <SystemClock_Config+0xc2>
  {
    Error_Handler();
 800112a:	f000 f8a1 	bl	8001270 <Error_Handler>
  }
}
 800112e:	bf00      	nop
 8001130:	3750      	adds	r7, #80	@ 0x50
 8001132:	46bd      	mov	sp, r7
 8001134:	bd80      	pop	{r7, pc}
 8001136:	bf00      	nop
 8001138:	40023800 	.word	0x40023800
 800113c:	40007000 	.word	0x40007000

08001140 <MX_USART1_UART_Init>:
  * @brief USART1 Initialization Function
  * @param None
  * @retval None
  */
static void MX_USART1_UART_Init(void)
{
 8001140:	b580      	push	{r7, lr}
 8001142:	af00      	add	r7, sp, #0
  /* USER CODE END USART1_Init 0 */

  /* USER CODE BEGIN USART1_Init 1 */

  /* USER CODE END USART1_Init 1 */
  huart1.Instance = USART1;
 8001144:	4b11      	ldr	r3, [pc, #68]	@ (800118c <MX_USART1_UART_Init+0x4c>)
 8001146:	4a12      	ldr	r2, [pc, #72]	@ (8001190 <MX_USART1_UART_Init+0x50>)
 8001148:	601a      	str	r2, [r3, #0]
  huart1.Init.BaudRate = 9600;
 800114a:	4b10      	ldr	r3, [pc, #64]	@ (800118c <MX_USART1_UART_Init+0x4c>)
 800114c:	f44f 5216 	mov.w	r2, #9600	@ 0x2580
 8001150:	605a      	str	r2, [r3, #4]
  huart1.Init.WordLength = UART_WORDLENGTH_8B;
 8001152:	4b0e      	ldr	r3, [pc, #56]	@ (800118c <MX_USART1_UART_Init+0x4c>)
 8001154:	2200      	movs	r2, #0
 8001156:	609a      	str	r2, [r3, #8]
  huart1.Init.StopBits = UART_STOPBITS_1;
 8001158:	4b0c      	ldr	r3, [pc, #48]	@ (800118c <MX_USART1_UART_Init+0x4c>)
 800115a:	2200      	movs	r2, #0
 800115c:	60da      	str	r2, [r3, #12]
  huart1.Init.Parity = UART_PARITY_NONE;
 800115e:	4b0b      	ldr	r3, [pc, #44]	@ (800118c <MX_USART1_UART_Init+0x4c>)
 8001160:	2200      	movs	r2, #0
 8001162:	611a      	str	r2, [r3, #16]
  huart1.Init.Mode = UART_MODE_TX_RX;
 8001164:	4b09      	ldr	r3, [pc, #36]	@ (800118c <MX_USART1_UART_Init+0x4c>)
 8001166:	220c      	movs	r2, #12
 8001168:	615a      	str	r2, [r3, #20]
  huart1.Init.HwFlowCtl = UART_HWCONTROL_NONE;
 800116a:	4b08      	ldr	r3, [pc, #32]	@ (800118c <MX_USART1_UART_Init+0x4c>)
 800116c:	2200      	movs	r2, #0
 800116e:	619a      	str	r2, [r3, #24]
  huart1.Init.OverSampling = UART_OVERSAMPLING_16;
 8001170:	4b06      	ldr	r3, [pc, #24]	@ (800118c <MX_USART1_UART_Init+0x4c>)
 8001172:	2200      	movs	r2, #0
 8001174:	61da      	str	r2, [r3, #28]
  if (HAL_UART_Init(&huart1) != HAL_OK)
 8001176:	4805      	ldr	r0, [pc, #20]	@ (800118c <MX_USART1_UART_Init+0x4c>)
 8001178:	f001 f9e4 	bl	8002544 <HAL_UART_Init>
 800117c:	4603      	mov	r3, r0
 800117e:	2b00      	cmp	r3, #0
 8001180:	d001      	beq.n	8001186 <MX_USART1_UART_Init+0x46>
  {
    Error_Handler();
 8001182:	f000 f875 	bl	8001270 <Error_Handler>
  }
  /* USER CODE BEGIN USART1_Init 2 */

  /* USER CODE END USART1_Init 2 */

}
 8001186:	bf00      	nop
 8001188:	bd80      	pop	{r7, pc}
 800118a:	bf00      	nop
 800118c:	2000032c 	.word	0x2000032c
 8001190:	40011000 	.word	0x40011000

08001194 <MX_GPIO_Init>:
/**
  * @param None
  * @retval None
  */
static void MX_GPIO_Init(void)
{
 8001194:	b580      	push	{r7, lr}
 8001196:	b08a      	sub	sp, #40	@ 0x28
 8001198:	af00      	add	r7, sp, #0
  GPIO_InitTypeDef GPIO_InitStruct = {0};
 800119a:	f107 0314 	add.w	r3, r7, #20
 800119e:	2200      	movs	r2, #0
 80011a0:	601a      	str	r2, [r3, #0]
 80011a2:	605a      	str	r2, [r3, #4]
 80011a4:	609a      	str	r2, [r3, #8]
 80011a6:	60da      	str	r2, [r3, #12]
 80011a8:	611a      	str	r2, [r3, #16]
/* USER CODE BEGIN MX_GPIO_Init_1 */
/* USER CODE END MX_GPIO_Init_1 */

  /* GPIO Ports Clock Enable */
  __HAL_RCC_GPIOC_CLK_ENABLE();
 80011aa:	2300      	movs	r3, #0
 80011ac:	613b      	str	r3, [r7, #16]
 80011ae:	4b2d      	ldr	r3, [pc, #180]	@ (8001264 <MX_GPIO_Init+0xd0>)
 80011b0:	6b1b      	ldr	r3, [r3, #48]	@ 0x30
 80011b2:	4a2c      	ldr	r2, [pc, #176]	@ (8001264 <MX_GPIO_Init+0xd0>)
 80011b4:	f043 0304 	orr.w	r3, r3, #4
 80011b8:	6313      	str	r3, [r2, #48]	@ 0x30
 80011ba:	4b2a      	ldr	r3, [pc, #168]	@ (8001264 <MX_GPIO_Init+0xd0>)
 80011bc:	6b1b      	ldr	r3, [r3, #48]	@ 0x30
 80011be:	f003 0304 	and.w	r3, r3, #4
 80011c2:	613b      	str	r3, [r7, #16]
 80011c4:	693b      	ldr	r3, [r7, #16]
  __HAL_RCC_GPIOH_CLK_ENABLE();
 80011c6:	2300      	movs	r3, #0
 80011c8:	60fb      	str	r3, [r7, #12]
 80011ca:	4b26      	ldr	r3, [pc, #152]	@ (8001264 <MX_GPIO_Init+0xd0>)
 80011cc:	6b1b      	ldr	r3, [r3, #48]	@ 0x30
 80011ce:	4a25      	ldr	r2, [pc, #148]	@ (8001264 <MX_GPIO_Init+0xd0>)
 80011d0:	f043 0380 	orr.w	r3, r3, #128	@ 0x80
 80011d4:	6313      	str	r3, [r2, #48]	@ 0x30
 80011d6:	4b23      	ldr	r3, [pc, #140]	@ (8001264 <MX_GPIO_Init+0xd0>)
 80011d8:	6b1b      	ldr	r3, [r3, #48]	@ 0x30
 80011da:	f003 0380 	and.w	r3, r3, #128	@ 0x80
 80011de:	60fb      	str	r3, [r7, #12]
 80011e0:	68fb      	ldr	r3, [r7, #12]
  __HAL_RCC_GPIOA_CLK_ENABLE();
 80011e2:	2300      	movs	r3, #0
 80011e4:	60bb      	str	r3, [r7, #8]
 80011e6:	4b1f      	ldr	r3, [pc, #124]	@ (8001264 <MX_GPIO_Init+0xd0>)
 80011e8:	6b1b      	ldr	r3, [r3, #48]	@ 0x30
 80011ea:	4a1e      	ldr	r2, [pc, #120]	@ (8001264 <MX_GPIO_Init+0xd0>)
 80011ec:	f043 0301 	orr.w	r3, r3, #1
 80011f0:	6313      	str	r3, [r2, #48]	@ 0x30
 80011f2:	4b1c      	ldr	r3, [pc, #112]	@ (8001264 <MX_GPIO_Init+0xd0>)
 80011f4:	6b1b      	ldr	r3, [r3, #48]	@ 0x30
 80011f6:	f003 0301 	and.w	r3, r3, #1
 80011fa:	60bb      	str	r3, [r7, #8]
 80011fc:	68bb      	ldr	r3, [r7, #8]
  __HAL_RCC_GPIOB_CLK_ENABLE();
 80011fe:	2300      	movs	r3, #0
 8001200:	607b      	str	r3, [r7, #4]
 8001202:	4b18      	ldr	r3, [pc, #96]	@ (8001264 <MX_GPIO_Init+0xd0>)
 8001204:	6b1b      	ldr	r3, [r3, #48]	@ 0x30
 8001206:	4a17      	ldr	r2, [pc, #92]	@ (8001264 <MX_GPIO_Init+0xd0>)
 8001208:	f043 0302 	orr.w	r3, r3, #2
 800120c:	6313      	str	r3, [r2, #48]	@ 0x30
 800120e:	4b15      	ldr	r3, [pc, #84]	@ (8001264 <MX_GPIO_Init+0xd0>)
 8001210:	6b1b      	ldr	r3, [r3, #48]	@ 0x30
 8001212:	f003 0302 	and.w	r3, r3, #2
 8001216:	607b      	str	r3, [r7, #4]
 8001218:	687b      	ldr	r3, [r7, #4]

  /*Configure GPIO pin Output Level */
  HAL_GPIO_WritePin(LD2_GPIO_Port, LD2_Pin, GPIO_PIN_RESET);
 800121a:	2200      	movs	r2, #0
 800121c:	2120      	movs	r1, #32
 800121e:	4812      	ldr	r0, [pc, #72]	@ (8001268 <MX_GPIO_Init+0xd4>)
 8001220:	f000 fcde 	bl	8001be0 <HAL_GPIO_WritePin>

  /*Configure GPIO pin : B1_Pin */
  GPIO_InitStruct.Pin = B1_Pin;
 8001224:	f44f 5300 	mov.w	r3, #8192	@ 0x2000
 8001228:	617b      	str	r3, [r7, #20]
  GPIO_InitStruct.Mode = GPIO_MODE_IT_FALLING;
 800122a:	f44f 1304 	mov.w	r3, #2162688	@ 0x210000
 800122e:	61bb      	str	r3, [r7, #24]
  GPIO_InitStruct.Pull = GPIO_NOPULL;
 8001230:	2300      	movs	r3, #0
 8001232:	61fb      	str	r3, [r7, #28]
  HAL_GPIO_Init(B1_GPIO_Port, &GPIO_InitStruct);
 8001234:	f107 0314 	add.w	r3, r7, #20
 8001238:	4619      	mov	r1, r3
 800123a:	480c      	ldr	r0, [pc, #48]	@ (800126c <MX_GPIO_Init+0xd8>)
 800123c:	f000 fb4c 	bl	80018d8 <HAL_GPIO_Init>

  /*Configure GPIO pin : LD2_Pin */
  GPIO_InitStruct.Pin = LD2_Pin;
 8001240:	2320      	movs	r3, #32
 8001242:	617b      	str	r3, [r7, #20]
  GPIO_InitStruct.Mode = GPIO_MODE_OUTPUT_PP;
 8001244:	2301      	movs	r3, #1
 8001246:	61bb      	str	r3, [r7, #24]
  GPIO_InitStruct.Pull = GPIO_NOPULL;
 8001248:	2300      	movs	r3, #0
 800124a:	61fb      	str	r3, [r7, #28]
  GPIO_InitStruct.Speed = GPIO_SPEED_FREQ_LOW;
 800124c:	2300      	movs	r3, #0
 800124e:	623b      	str	r3, [r7, #32]
  HAL_GPIO_Init(LD2_GPIO_Port, &GPIO_InitStruct);
 8001250:	f107 0314 	add.w	r3, r7, #20
 8001254:	4619      	mov	r1, r3
 8001256:	4804      	ldr	r0, [pc, #16]	@ (8001268 <MX_GPIO_Init+0xd4>)
 8001258:	f000 fb3e 	bl	80018d8 <HAL_GPIO_Init>

/* USER CODE BEGIN MX_GPIO_Init_2 */
/* USER CODE END MX_GPIO_Init_2 */
}
 800125c:	bf00      	nop
 800125e:	3728      	adds	r7, #40	@ 0x28
 8001260:	46bd      	mov	sp, r7
 8001262:	bd80      	pop	{r7, pc}
 8001264:	40023800 	.word	0x40023800
 8001268:	40020000 	.word	0x40020000
 800126c:	40020800 	.word	0x40020800

08001270 <Error_Handler>:
/**
  * @brief  This function is executed in case of error occurrence.
  * @retval None
  */
void Error_Handler(void)
{
 8001270:	b580      	push	{r7, lr}
 8001272:	af00      	add	r7, sp, #0
  \details Disables IRQ interrupts by setting the I-bit in the CPSR.
           Can only be executed in Privileged modes.
 */
__STATIC_FORCEINLINE void __disable_irq(void)
{
  __ASM volatile ("cpsid i" : : : "memory");
 8001274:	b672      	cpsid	i
}
 8001276:	bf00      	nop
  /* USER CODE BEGIN Error_Handler_Debug */
  /* User can add his own implementation to report the HAL error return state */
  __disable_irq();
  while (1)
  {
	  error_string = APC1_Get_Error_String();
 8001278:	f7ff fe00 	bl	8000e7c <APC1_Get_Error_String>
 800127c:	4603      	mov	r3, r0
 800127e:	4a01      	ldr	r2, [pc, #4]	@ (8001284 <Error_Handler+0x14>)
 8001280:	6013      	str	r3, [r2, #0]
 8001282:	e7f9      	b.n	8001278 <Error_Handler+0x8>
 8001284:	20000324 	.word	0x20000324

08001288 <HAL_MspInit>:
/* USER CODE END 0 */
/**
  * Initializes the Global MSP.
  */
void HAL_MspInit(void)
{
 8001288:	b580      	push	{r7, lr}
 800128a:	b082      	sub	sp, #8
 800128c:	af00      	add	r7, sp, #0
  /* USER CODE BEGIN MspInit 0 */

  /* USER CODE END MspInit 0 */

  __HAL_RCC_SYSCFG_CLK_ENABLE();
 800128e:	2300      	movs	r3, #0
 8001290:	607b      	str	r3, [r7, #4]
 8001292:	4b10      	ldr	r3, [pc, #64]	@ (80012d4 <HAL_MspInit+0x4c>)
 8001294:	6c5b      	ldr	r3, [r3, #68]	@ 0x44
 8001296:	4a0f      	ldr	r2, [pc, #60]	@ (80012d4 <HAL_MspInit+0x4c>)
 8001298:	f443 4380 	orr.w	r3, r3, #16384	@ 0x4000
 800129c:	6453      	str	r3, [r2, #68]	@ 0x44
 800129e:	4b0d      	ldr	r3, [pc, #52]	@ (80012d4 <HAL_MspInit+0x4c>)
 80012a0:	6c5b      	ldr	r3, [r3, #68]	@ 0x44
 80012a2:	f403 4380 	and.w	r3, r3, #16384	@ 0x4000
 80012a6:	607b      	str	r3, [r7, #4]
 80012a8:	687b      	ldr	r3, [r7, #4]
  __HAL_RCC_PWR_CLK_ENABLE();
 80012aa:	2300      	movs	r3, #0
 80012ac:	603b      	str	r3, [r7, #0]
 80012ae:	4b09      	ldr	r3, [pc, #36]	@ (80012d4 <HAL_MspInit+0x4c>)
 80012b0:	6c1b      	ldr	r3, [r3, #64]	@ 0x40
 80012b2:	4a08      	ldr	r2, [pc, #32]	@ (80012d4 <HAL_MspInit+0x4c>)
 80012b4:	f043 5380 	orr.w	r3, r3, #268435456	@ 0x10000000
 80012b8:	6413      	str	r3, [r2, #64]	@ 0x40
 80012ba:	4b06      	ldr	r3, [pc, #24]	@ (80012d4 <HAL_MspInit+0x4c>)
 80012bc:	6c1b      	ldr	r3, [r3, #64]	@ 0x40
 80012be:	f003 5380 	and.w	r3, r3, #268435456	@ 0x10000000
 80012c2:	603b      	str	r3, [r7, #0]
 80012c4:	683b      	ldr	r3, [r7, #0]

  HAL_NVIC_SetPriorityGrouping(NVIC_PRIORITYGROUP_0);
 80012c6:	2007      	movs	r0, #7
 80012c8:	f000 fa32 	bl	8001730 <HAL_NVIC_SetPriorityGrouping>
  /* System interrupt init*/

  /* USER CODE BEGIN MspInit 1 */

  /* USER CODE END MspInit 1 */
}
 80012cc:	bf00      	nop
 80012ce:	3708      	adds	r7, #8
 80012d0:	46bd      	mov	sp, r7
 80012d2:	bd80      	pop	{r7, pc}
 80012d4:	40023800 	.word	0x40023800

080012d8 <HAL_UART_MspInit>:
* This function configures the hardware resources used in this example
* @param huart: UART handle pointer
* @retval None
*/
void HAL_UART_MspInit(UART_HandleTypeDef* huart)
{
 80012d8:	b580      	push	{r7, lr}
 80012da:	b08a      	sub	sp, #40	@ 0x28
 80012dc:	af00      	add	r7, sp, #0
 80012de:	6078      	str	r0, [r7, #4]
  GPIO_InitTypeDef GPIO_InitStruct = {0};
 80012e0:	f107 0314 	add.w	r3, r7, #20
 80012e4:	2200      	movs	r2, #0
 80012e6:	601a      	str	r2, [r3, #0]
 80012e8:	605a      	str	r2, [r3, #4]
 80012ea:	609a      	str	r2, [r3, #8]
 80012ec:	60da      	str	r2, [r3, #12]
 80012ee:	611a      	str	r2, [r3, #16]
  if(huart->Instance==USART1)
 80012f0:	687b      	ldr	r3, [r7, #4]
 80012f2:	681b      	ldr	r3, [r3, #0]
 80012f4:	4a1d      	ldr	r2, [pc, #116]	@ (800136c <HAL_UART_MspInit+0x94>)
 80012f6:	4293      	cmp	r3, r2
 80012f8:	d134      	bne.n	8001364 <HAL_UART_MspInit+0x8c>
  {
  /* USER CODE BEGIN USART1_MspInit 0 */

  /* USER CODE END USART1_MspInit 0 */
    /* Peripheral clock enable */
    __HAL_RCC_USART1_CLK_ENABLE();
 80012fa:	2300      	movs	r3, #0
 80012fc:	613b      	str	r3, [r7, #16]
 80012fe:	4b1c      	ldr	r3, [pc, #112]	@ (8001370 <HAL_UART_MspInit+0x98>)
 8001300:	6c5b      	ldr	r3, [r3, #68]	@ 0x44
 8001302:	4a1b      	ldr	r2, [pc, #108]	@ (8001370 <HAL_UART_MspInit+0x98>)
 8001304:	f043 0310 	orr.w	r3, r3, #16
 8001308:	6453      	str	r3, [r2, #68]	@ 0x44
 800130a:	4b19      	ldr	r3, [pc, #100]	@ (8001370 <HAL_UART_MspInit+0x98>)
 800130c:	6c5b      	ldr	r3, [r3, #68]	@ 0x44
 800130e:	f003 0310 	and.w	r3, r3, #16
 8001312:	613b      	str	r3, [r7, #16]
 8001314:	693b      	ldr	r3, [r7, #16]

    __HAL_RCC_GPIOA_CLK_ENABLE();
 8001316:	2300      	movs	r3, #0
 8001318:	60fb      	str	r3, [r7, #12]
 800131a:	4b15      	ldr	r3, [pc, #84]	@ (8001370 <HAL_UART_MspInit+0x98>)
 800131c:	6b1b      	ldr	r3, [r3, #48]	@ 0x30
 800131e:	4a14      	ldr	r2, [pc, #80]	@ (8001370 <HAL_UART_MspInit+0x98>)
 8001320:	f043 0301 	orr.w	r3, r3, #1
 8001324:	6313      	str	r3, [r2, #48]	@ 0x30
 8001326:	4b12      	ldr	r3, [pc, #72]	@ (8001370 <HAL_UART_MspInit+0x98>)
 8001328:	6b1b      	ldr	r3, [r3, #48]	@ 0x30
 800132a:	f003 0301 	and.w	r3, r3, #1
 800132e:	60fb      	str	r3, [r7, #12]
 8001330:	68fb      	ldr	r3, [r7, #12]
    /**USART1 GPIO Configuration
    PA9     ------> USART1_TX
    PA10     ------> USART1_RX
    */
    GPIO_InitStruct.Pin = GPIO_PIN_9|GPIO_PIN_10;
 8001332:	f44f 63c0 	mov.w	r3, #1536	@ 0x600
 8001336:	617b      	str	r3, [r7, #20]
    GPIO_InitStruct.Mode = GPIO_MODE_AF_PP;
 8001338:	2302      	movs	r3, #2
 800133a:	61bb      	str	r3, [r7, #24]
    GPIO_InitStruct.Pull = GPIO_NOPULL;
 800133c:	2300      	movs	r3, #0
 800133e:	61fb      	str	r3, [r7, #28]
    GPIO_InitStruct.Speed = GPIO_SPEED_FREQ_VERY_HIGH;
 8001340:	2303      	movs	r3, #3
 8001342:	623b      	str	r3, [r7, #32]
    GPIO_InitStruct.Alternate = GPIO_AF7_USART1;
 8001344:	2307      	movs	r3, #7
 8001346:	627b      	str	r3, [r7, #36]	@ 0x24
    HAL_GPIO_Init(GPIOA, &GPIO_InitStruct);
 8001348:	f107 0314 	add.w	r3, r7, #20
 800134c:	4619      	mov	r1, r3
 800134e:	4809      	ldr	r0, [pc, #36]	@ (8001374 <HAL_UART_MspInit+0x9c>)
 8001350:	f000 fac2 	bl	80018d8 <HAL_GPIO_Init>

    /* USART1 interrupt Init */
    HAL_NVIC_SetPriority(USART1_IRQn, 0, 0);
 8001354:	2200      	movs	r2, #0
 8001356:	2100      	movs	r1, #0
 8001358:	2025      	movs	r0, #37	@ 0x25
 800135a:	f000 f9f4 	bl	8001746 <HAL_NVIC_SetPriority>
    HAL_NVIC_EnableIRQ(USART1_IRQn);
 800135e:	2025      	movs	r0, #37	@ 0x25
 8001360:	f000 fa0d 	bl	800177e <HAL_NVIC_EnableIRQ>
  /* USER CODE BEGIN USART1_MspInit 1 */

  /* USER CODE END USART1_MspInit 1 */
  }

}
 8001364:	bf00      	nop
 8001366:	3728      	adds	r7, #40	@ 0x28
 8001368:	46bd      	mov	sp, r7
 800136a:	bd80      	pop	{r7, pc}
 800136c:	40011000 	.word	0x40011000
 8001370:	40023800 	.word	0x40023800
 8001374:	40020000 	.word	0x40020000

08001378 <NMI_Handler>:
/******************************************************************************/
/**
  * @brief This function handles Non maskable interrupt.
  */
void NMI_Handler(void)
{
 8001378:	b480      	push	{r7}
 800137a:	af00      	add	r7, sp, #0
  /* USER CODE BEGIN NonMaskableInt_IRQn 0 */

  /* USER CODE END NonMaskableInt_IRQn 0 */
  /* USER CODE BEGIN NonMaskableInt_IRQn 1 */
  while (1)
 800137c:	bf00      	nop
 800137e:	e7fd      	b.n	800137c <NMI_Handler+0x4>

08001380 <HardFault_Handler>:

/**
  * @brief This function handles Hard fault interrupt.
  */
void HardFault_Handler(void)
{
 8001380:	b480      	push	{r7}
 8001382:	af00      	add	r7, sp, #0
  /* USER CODE BEGIN HardFault_IRQn 0 */

  /* USER CODE END HardFault_IRQn 0 */
  while (1)
 8001384:	bf00      	nop
 8001386:	e7fd      	b.n	8001384 <HardFault_Handler+0x4>

08001388 <MemManage_Handler>:

/**
  * @brief This function handles Memory management fault.
  */
void MemManage_Handler(void)
{
 8001388:	b480      	push	{r7}
 800138a:	af00      	add	r7, sp, #0
  /* USER CODE BEGIN MemoryManagement_IRQn 0 */

  /* USER CODE END MemoryManagement_IRQn 0 */
  while (1)
 800138c:	bf00      	nop
 800138e:	e7fd      	b.n	800138c <MemManage_Handler+0x4>

08001390 <BusFault_Handler>:

/**
  * @brief This function handles Pre-fetch fault, memory access fault.
  */
void BusFault_Handler(void)
{
 8001390:	b480      	push	{r7}
 8001392:	af00      	add	r7, sp, #0
  /* USER CODE BEGIN BusFault_IRQn 0 */

  /* USER CODE END BusFault_IRQn 0 */
  while (1)
 8001394:	bf00      	nop
 8001396:	e7fd      	b.n	8001394 <BusFault_Handler+0x4>

08001398 <UsageFault_Handler>:

/**
  * @brief This function handles Undefined instruction or illegal state.
  */
void UsageFault_Handler(void)
{
 8001398:	b480      	push	{r7}
 800139a:	af00      	add	r7, sp, #0
  /* USER CODE BEGIN UsageFault_IRQn 0 */

  /* USER CODE END UsageFault_IRQn 0 */
  while (1)
 800139c:	bf00      	nop
 800139e:	e7fd      	b.n	800139c <UsageFault_Handler+0x4>

080013a0 <SVC_Handler>:

/**
  * @brief This function handles System service call via SWI instruction.
  */
void SVC_Handler(void)
{
 80013a0:	b480      	push	{r7}
 80013a2:	af00      	add	r7, sp, #0

  /* USER CODE END SVCall_IRQn 0 */
  /* USER CODE BEGIN SVCall_IRQn 1 */

  /* USER CODE END SVCall_IRQn 1 */
}
 80013a4:	bf00      	nop
 80013a6:	46bd      	mov	sp, r7
 80013a8:	f85d 7b04 	ldr.w	r7, [sp], #4
 80013ac:	4770      	bx	lr

080013ae <DebugMon_Handler>:

/**
  * @brief This function handles Debug monitor.
  */
void DebugMon_Handler(void)
{
 80013ae:	b480      	push	{r7}
 80013b0:	af00      	add	r7, sp, #0

  /* USER CODE END DebugMonitor_IRQn 0 */
  /* USER CODE BEGIN DebugMonitor_IRQn 1 */

  /* USER CODE END DebugMonitor_IRQn 1 */
}
 80013b2:	bf00      	nop
 80013b4:	46bd      	mov	sp, r7
 80013b6:	f85d 7b04 	ldr.w	r7, [sp], #4
 80013ba:	4770      	bx	lr

080013bc <PendSV_Handler>:

/**
  * @brief This function handles Pendable request for system service.
  */
void PendSV_Handler(void)
{
 80013bc:	b480      	push	{r7}
 80013be:	af00      	add	r7, sp, #0

  /* USER CODE END PendSV_IRQn 0 */
  /* USER CODE BEGIN PendSV_IRQn 1 */

  /* USER CODE END PendSV_IRQn 1 */
}
 80013c0:	bf00      	nop
 80013c2:	46bd      	mov	sp, r7
 80013c4:	f85d 7b04 	ldr.w	r7, [sp], #4
 80013c8:	4770      	bx	lr

080013ca <SysTick_Handler>:

/**
  * @brief This function handles System tick timer.
  */
void SysTick_Handler(void)
{
 80013ca:	b580      	push	{r7, lr}
 80013cc:	af00      	add	r7, sp, #0
  /* USER CODE BEGIN SysTick_IRQn 0 */

  /* USER CODE END SysTick_IRQn 0 */
  HAL_IncTick();
 80013ce:	f000 f89b 	bl	8001508 <HAL_IncTick>
  /* USER CODE BEGIN SysTick_IRQn 1 */

  /* USER CODE END SysTick_IRQn 1 */
}
 80013d2:	bf00      	nop
 80013d4:	bd80      	pop	{r7, pc}
	...

080013d8 <USART1_IRQHandler>:

/**
  * @brief This function handles USART1 global interrupt.
  */
void USART1_IRQHandler(void)
{
 80013d8:	b580      	push	{r7, lr}
 80013da:	af00      	add	r7, sp, #0
	//	// uint8_t new_c = USART1->DR;
	//	rx[my_index++] = USART1->DR;
	//}

  /* USER CODE END USART1_IRQn 0 */
  HAL_UART_IRQHandler(&huart1);
 80013dc:	4802      	ldr	r0, [pc, #8]	@ (80013e8 <USART1_IRQHandler+0x10>)
 80013de:	f001 f9c1 	bl	8002764 <HAL_UART_IRQHandler>
  /* USER CODE BEGIN USART1_IRQn 1 */

  /* USER CODE END USART1_IRQn 1 */
}
 80013e2:	bf00      	nop
 80013e4:	bd80      	pop	{r7, pc}
 80013e6:	bf00      	nop
 80013e8:	2000032c 	.word	0x2000032c

080013ec <SystemInit>:
  *         configuration.
  * @param  None
  * @retval None
  */
void SystemInit(void)
{
 80013ec:	b480      	push	{r7}
 80013ee:	af00      	add	r7, sp, #0
  /* FPU settings ------------------------------------------------------------*/
  #if (__FPU_PRESENT == 1) && (__FPU_USED == 1)
    SCB->CPACR |= ((3UL << 10*2)|(3UL << 11*2));  /* set CP10 and CP11 Full Access */
 80013f0:	4b06      	ldr	r3, [pc, #24]	@ (800140c <SystemInit+0x20>)
 80013f2:	f8d3 3088 	ldr.w	r3, [r3, #136]	@ 0x88
 80013f6:	4a05      	ldr	r2, [pc, #20]	@ (800140c <SystemInit+0x20>)
 80013f8:	f443 0370 	orr.w	r3, r3, #15728640	@ 0xf00000
 80013fc:	f8c2 3088 	str.w	r3, [r2, #136]	@ 0x88

  /* Configure the Vector Table location -------------------------------------*/
#if defined(USER_VECT_TAB_ADDRESS)
  SCB->VTOR = VECT_TAB_BASE_ADDRESS | VECT_TAB_OFFSET; /* Vector Table Relocation in Internal SRAM */
#endif /* USER_VECT_TAB_ADDRESS */
}
 8001400:	bf00      	nop
 8001402:	46bd      	mov	sp, r7
 8001404:	f85d 7b04 	ldr.w	r7, [sp], #4
 8001408:	4770      	bx	lr
 800140a:	bf00      	nop
 800140c:	e000ed00 	.word	0xe000ed00

08001410 <Reset_Handler>:

    .section  .text.Reset_Handler
  .weak  Reset_Handler
  .type  Reset_Handler, %function
Reset_Handler:  
  ldr   sp, =_estack    		 /* set stack pointer */
 8001410:	f8df d034 	ldr.w	sp, [pc, #52]	@ 8001448 <LoopFillZerobss+0x12>

/* Copy the data segment initializers from flash to SRAM */  
  ldr r0, =_sdata
 8001414:	480d      	ldr	r0, [pc, #52]	@ (800144c <LoopFillZerobss+0x16>)
  ldr r1, =_edata
 8001416:	490e      	ldr	r1, [pc, #56]	@ (8001450 <LoopFillZerobss+0x1a>)
  ldr r2, =_sidata
 8001418:	4a0e      	ldr	r2, [pc, #56]	@ (8001454 <LoopFillZerobss+0x1e>)
  movs r3, #0
 800141a:	2300      	movs	r3, #0
  b LoopCopyDataInit
 800141c:	e002      	b.n	8001424 <LoopCopyDataInit>

0800141e <CopyDataInit>:

CopyDataInit:
  ldr r4, [r2, r3]
 800141e:	58d4      	ldr	r4, [r2, r3]
  str r4, [r0, r3]
 8001420:	50c4      	str	r4, [r0, r3]
  adds r3, r3, #4
 8001422:	3304      	adds	r3, #4

08001424 <LoopCopyDataInit>:

LoopCopyDataInit:
  adds r4, r0, r3
 8001424:	18c4      	adds	r4, r0, r3
  cmp r4, r1
 8001426:	428c      	cmp	r4, r1
  bcc CopyDataInit
 8001428:	d3f9      	bcc.n	800141e <CopyDataInit>
  
/* Zero fill the bss segment. */
  ldr r2, =_sbss
 800142a:	4a0b      	ldr	r2, [pc, #44]	@ (8001458 <LoopFillZerobss+0x22>)
  ldr r4, =_ebss
 800142c:	4c0b      	ldr	r4, [pc, #44]	@ (800145c <LoopFillZerobss+0x26>)
  movs r3, #0
 800142e:	2300      	movs	r3, #0
  b LoopFillZerobss
 8001430:	e001      	b.n	8001436 <LoopFillZerobss>

08001432 <FillZerobss>:

FillZerobss:
  str  r3, [r2]
 8001432:	6013      	str	r3, [r2, #0]
  adds r2, r2, #4
 8001434:	3204      	adds	r2, #4

08001436 <LoopFillZerobss>:

LoopFillZerobss:
  cmp r2, r4
 8001436:	42a2      	cmp	r2, r4
  bcc FillZerobss
 8001438:	d3fb      	bcc.n	8001432 <FillZerobss>

/* Call the clock system initialization function.*/
  bl  SystemInit   
 800143a:	f7ff ffd7 	bl	80013ec <SystemInit>
/* Call static constructors */
    bl __libc_init_array
 800143e:	f002 f911 	bl	8003664 <__libc_init_array>
/* Call the application's entry point.*/
  bl  main
 8001442:	f7ff fd39 	bl	8000eb8 <main>
  bx  lr    
 8001446:	4770      	bx	lr
  ldr   sp, =_estack    		 /* set stack pointer */
 8001448:	20020000 	.word	0x20020000
  ldr r0, =_sdata
 800144c:	20000000 	.word	0x20000000
  ldr r1, =_edata
 8001450:	20000090 	.word	0x20000090
  ldr r2, =_sidata
 8001454:	0800382c 	.word	0x0800382c
  ldr r2, =_sbss
 8001458:	20000090 	.word	0x20000090
  ldr r4, =_ebss
 800145c:	20000374 	.word	0x20000374

08001460 <ADC_IRQHandler>:
 * @retval None       
*/
    .section  .text.Default_Handler,"ax",%progbits
Default_Handler:
Infinite_Loop:
  b  Infinite_Loop
 8001460:	e7fe      	b.n	8001460 <ADC_IRQHandler>
	...

08001464 <HAL_Init>:
  *         need to ensure that the SysTick time base is always set to 1 millisecond
  *         to have correct HAL operation.
  * @retval HAL status
  */
HAL_StatusTypeDef HAL_Init(void)
{
 8001464:	b580      	push	{r7, lr}
 8001466:	af00      	add	r7, sp, #0
  /* Configure Flash prefetch, Instruction cache, Data cache */ 
#if (INSTRUCTION_CACHE_ENABLE != 0U)
  __HAL_FLASH_INSTRUCTION_CACHE_ENABLE();
 8001468:	4b0e      	ldr	r3, [pc, #56]	@ (80014a4 <HAL_Init+0x40>)
 800146a:	681b      	ldr	r3, [r3, #0]
 800146c:	4a0d      	ldr	r2, [pc, #52]	@ (80014a4 <HAL_Init+0x40>)
 800146e:	f443 7300 	orr.w	r3, r3, #512	@ 0x200
 8001472:	6013      	str	r3, [r2, #0]
#endif /* INSTRUCTION_CACHE_ENABLE */

#if (DATA_CACHE_ENABLE != 0U)
  __HAL_FLASH_DATA_CACHE_ENABLE();
 8001474:	4b0b      	ldr	r3, [pc, #44]	@ (80014a4 <HAL_Init+0x40>)
 8001476:	681b      	ldr	r3, [r3, #0]
 8001478:	4a0a      	ldr	r2, [pc, #40]	@ (80014a4 <HAL_Init+0x40>)
 800147a:	f443 6380 	orr.w	r3, r3, #1024	@ 0x400
 800147e:	6013      	str	r3, [r2, #0]
#endif /* DATA_CACHE_ENABLE */

#if (PREFETCH_ENABLE != 0U)
  __HAL_FLASH_PREFETCH_BUFFER_ENABLE();
 8001480:	4b08      	ldr	r3, [pc, #32]	@ (80014a4 <HAL_Init+0x40>)
 8001482:	681b      	ldr	r3, [r3, #0]
 8001484:	4a07      	ldr	r2, [pc, #28]	@ (80014a4 <HAL_Init+0x40>)
 8001486:	f443 7380 	orr.w	r3, r3, #256	@ 0x100
 800148a:	6013      	str	r3, [r2, #0]
#endif /* PREFETCH_ENABLE */

  /* Set Interrupt Group Priority */
  HAL_NVIC_SetPriorityGrouping(NVIC_PRIORITYGROUP_4);
 800148c:	2003      	movs	r0, #3
 800148e:	f000 f94f 	bl	8001730 <HAL_NVIC_SetPriorityGrouping>

  /* Use systick as time base source and configure 1ms tick (default clock after Reset is HSI) */
  HAL_InitTick(TICK_INT_PRIORITY);
 8001492:	2000      	movs	r0, #0
 8001494:	f000 f808 	bl	80014a8 <HAL_InitTick>

  /* Init the low level hardware */
  HAL_MspInit();
 8001498:	f7ff fef6 	bl	8001288 <HAL_MspInit>

  /* Return function status */
  return HAL_OK;
 800149c:	2300      	movs	r3, #0
}
 800149e:	4618      	mov	r0, r3
 80014a0:	bd80      	pop	{r7, pc}
 80014a2:	bf00      	nop
 80014a4:	40023c00 	.word	0x40023c00

080014a8 <HAL_InitTick>:
  *       implementation  in user file.
  * @param TickPriority Tick interrupt priority.
  * @retval HAL status
  */
__weak HAL_StatusTypeDef HAL_InitTick(uint32_t TickPriority)
{
 80014a8:	b580      	push	{r7, lr}
 80014aa:	b082      	sub	sp, #8
 80014ac:	af00      	add	r7, sp, #0
 80014ae:	6078      	str	r0, [r7, #4]
  /* Configure the SysTick to have interrupt in 1ms time basis*/
  if (HAL_SYSTICK_Config(SystemCoreClock / (1000U / uwTickFreq)) > 0U)
 80014b0:	4b12      	ldr	r3, [pc, #72]	@ (80014fc <HAL_InitTick+0x54>)
 80014b2:	681a      	ldr	r2, [r3, #0]
 80014b4:	4b12      	ldr	r3, [pc, #72]	@ (8001500 <HAL_InitTick+0x58>)
 80014b6:	781b      	ldrb	r3, [r3, #0]
 80014b8:	4619      	mov	r1, r3
 80014ba:	f44f 737a 	mov.w	r3, #1000	@ 0x3e8
 80014be:	fbb3 f3f1 	udiv	r3, r3, r1
 80014c2:	fbb2 f3f3 	udiv	r3, r2, r3
 80014c6:	4618      	mov	r0, r3
 80014c8:	f000 f967 	bl	800179a <HAL_SYSTICK_Config>
 80014cc:	4603      	mov	r3, r0
 80014ce:	2b00      	cmp	r3, #0
 80014d0:	d001      	beq.n	80014d6 <HAL_InitTick+0x2e>
  {
    return HAL_ERROR;
 80014d2:	2301      	movs	r3, #1
 80014d4:	e00e      	b.n	80014f4 <HAL_InitTick+0x4c>
  }

  /* Configure the SysTick IRQ priority */
  if (TickPriority < (1UL << __NVIC_PRIO_BITS))
 80014d6:	687b      	ldr	r3, [r7, #4]
 80014d8:	2b0f      	cmp	r3, #15
 80014da:	d80a      	bhi.n	80014f2 <HAL_InitTick+0x4a>
  {
    HAL_NVIC_SetPriority(SysTick_IRQn, TickPriority, 0U);
 80014dc:	2200      	movs	r2, #0
 80014de:	6879      	ldr	r1, [r7, #4]
 80014e0:	f04f 30ff 	mov.w	r0, #4294967295
 80014e4:	f000 f92f 	bl	8001746 <HAL_NVIC_SetPriority>
    uwTickPrio = TickPriority;
 80014e8:	4a06      	ldr	r2, [pc, #24]	@ (8001504 <HAL_InitTick+0x5c>)
 80014ea:	687b      	ldr	r3, [r7, #4]
 80014ec:	6013      	str	r3, [r2, #0]
  {
    return HAL_ERROR;
  }

  /* Return function status */
  return HAL_OK;
 80014ee:	2300      	movs	r3, #0
 80014f0:	e000      	b.n	80014f4 <HAL_InitTick+0x4c>
    return HAL_ERROR;
 80014f2:	2301      	movs	r3, #1
}
 80014f4:	4618      	mov	r0, r3
 80014f6:	3708      	adds	r7, #8
 80014f8:	46bd      	mov	sp, r7
 80014fa:	bd80      	pop	{r7, pc}
 80014fc:	20000084 	.word	0x20000084
 8001500:	2000008c 	.word	0x2000008c
 8001504:	20000088 	.word	0x20000088

08001508 <HAL_IncTick>:
 * @note This function is declared as __weak to be overwritten in case of other 
  *      implementations in user file.
  * @retval None
  */
__weak void HAL_IncTick(void)
{
 8001508:	b480      	push	{r7}
 800150a:	af00      	add	r7, sp, #0
  uwTick += uwTickFreq;
 800150c:	4b06      	ldr	r3, [pc, #24]	@ (8001528 <HAL_IncTick+0x20>)
 800150e:	781b      	ldrb	r3, [r3, #0]
 8001510:	461a      	mov	r2, r3
 8001512:	4b06      	ldr	r3, [pc, #24]	@ (800152c <HAL_IncTick+0x24>)
 8001514:	681b      	ldr	r3, [r3, #0]
 8001516:	4413      	add	r3, r2
 8001518:	4a04      	ldr	r2, [pc, #16]	@ (800152c <HAL_IncTick+0x24>)
 800151a:	6013      	str	r3, [r2, #0]
}
 800151c:	bf00      	nop
 800151e:	46bd      	mov	sp, r7
 8001520:	f85d 7b04 	ldr.w	r7, [sp], #4
 8001524:	4770      	bx	lr
 8001526:	bf00      	nop
 8001528:	2000008c 	.word	0x2000008c
 800152c:	20000370 	.word	0x20000370

08001530 <HAL_GetTick>:
  * @note This function is declared as __weak to be overwritten in case of other 
  *       implementations in user file.
  * @retval tick value
  */
__weak uint32_t HAL_GetTick(void)
{
 8001530:	b480      	push	{r7}
 8001532:	af00      	add	r7, sp, #0
  return uwTick;
 8001534:	4b03      	ldr	r3, [pc, #12]	@ (8001544 <HAL_GetTick+0x14>)
 8001536:	681b      	ldr	r3, [r3, #0]
}
 8001538:	4618      	mov	r0, r3
 800153a:	46bd      	mov	sp, r7
 800153c:	f85d 7b04 	ldr.w	r7, [sp], #4
 8001540:	4770      	bx	lr
 8001542:	bf00      	nop
 8001544:	20000370 	.word	0x20000370

08001548 <HAL_Delay>:
  *       implementations in user file.
  * @param Delay specifies the delay time length, in milliseconds.
  * @retval None
  */
__weak void HAL_Delay(uint32_t Delay)
{
 8001548:	b580      	push	{r7, lr}
 800154a:	b084      	sub	sp, #16
 800154c:	af00      	add	r7, sp, #0
 800154e:	6078      	str	r0, [r7, #4]
  uint32_t tickstart = HAL_GetTick();
 8001550:	f7ff ffee 	bl	8001530 <HAL_GetTick>
 8001554:	60b8      	str	r0, [r7, #8]
  uint32_t wait = Delay;
 8001556:	687b      	ldr	r3, [r7, #4]
 8001558:	60fb      	str	r3, [r7, #12]

  /* Add a freq to guarantee minimum wait */
  if (wait < HAL_MAX_DELAY)
 800155a:	68fb      	ldr	r3, [r7, #12]
 800155c:	f1b3 3fff 	cmp.w	r3, #4294967295
 8001560:	d005      	beq.n	800156e <HAL_Delay+0x26>
  {
    wait += (uint32_t)(uwTickFreq);
 8001562:	4b0a      	ldr	r3, [pc, #40]	@ (800158c <HAL_Delay+0x44>)
 8001564:	781b      	ldrb	r3, [r3, #0]
 8001566:	461a      	mov	r2, r3
 8001568:	68fb      	ldr	r3, [r7, #12]
 800156a:	4413      	add	r3, r2
 800156c:	60fb      	str	r3, [r7, #12]
  }

  while((HAL_GetTick() - tickstart) < wait)
 800156e:	bf00      	nop
 8001570:	f7ff ffde 	bl	8001530 <HAL_GetTick>
 8001574:	4602      	mov	r2, r0
 8001576:	68bb      	ldr	r3, [r7, #8]
 8001578:	1ad3      	subs	r3, r2, r3
 800157a:	68fa      	ldr	r2, [r7, #12]
 800157c:	429a      	cmp	r2, r3
 800157e:	d8f7      	bhi.n	8001570 <HAL_Delay+0x28>
  {
  }
}
 8001580:	bf00      	nop
 8001582:	bf00      	nop
 8001584:	3710      	adds	r7, #16
 8001586:	46bd      	mov	sp, r7
 8001588:	bd80      	pop	{r7, pc}
 800158a:	bf00      	nop
 800158c:	2000008c 	.word	0x2000008c

08001590 <__NVIC_SetPriorityGrouping>:
           In case of a conflict between priority grouping and available
           priority bits (__NVIC_PRIO_BITS), the smallest possible priority group is set.
  \param [in]      PriorityGroup  Priority grouping field.
 */
__STATIC_INLINE void __NVIC_SetPriorityGrouping(uint32_t PriorityGroup)
{
 8001590:	b480      	push	{r7}
 8001592:	b085      	sub	sp, #20
 8001594:	af00      	add	r7, sp, #0
 8001596:	6078      	str	r0, [r7, #4]
  uint32_t reg_value;
  uint32_t PriorityGroupTmp = (PriorityGroup & (uint32_t)0x07UL);             /* only values 0..7 are used          */
 8001598:	687b      	ldr	r3, [r7, #4]
 800159a:	f003 0307 	and.w	r3, r3, #7
 800159e:	60fb      	str	r3, [r7, #12]

  reg_value  =  SCB->AIRCR;                                                   /* read old register configuration    */
 80015a0:	4b0c      	ldr	r3, [pc, #48]	@ (80015d4 <__NVIC_SetPriorityGrouping+0x44>)
 80015a2:	68db      	ldr	r3, [r3, #12]
 80015a4:	60bb      	str	r3, [r7, #8]
  reg_value &= ~((uint32_t)(SCB_AIRCR_VECTKEY_Msk | SCB_AIRCR_PRIGROUP_Msk)); /* clear bits to change               */
 80015a6:	68ba      	ldr	r2, [r7, #8]
 80015a8:	f64f 03ff 	movw	r3, #63743	@ 0xf8ff
 80015ac:	4013      	ands	r3, r2
 80015ae:	60bb      	str	r3, [r7, #8]
  reg_value  =  (reg_value                                   |
                ((uint32_t)0x5FAUL << SCB_AIRCR_VECTKEY_Pos) |
                (PriorityGroupTmp << SCB_AIRCR_PRIGROUP_Pos)  );              /* Insert write key and priority group */
 80015b0:	68fb      	ldr	r3, [r7, #12]
 80015b2:	021a      	lsls	r2, r3, #8
                ((uint32_t)0x5FAUL << SCB_AIRCR_VECTKEY_Pos) |
 80015b4:	68bb      	ldr	r3, [r7, #8]
 80015b6:	4313      	orrs	r3, r2
  reg_value  =  (reg_value                                   |
 80015b8:	f043 63bf 	orr.w	r3, r3, #100139008	@ 0x5f80000
 80015bc:	f443 3300 	orr.w	r3, r3, #131072	@ 0x20000
 80015c0:	60bb      	str	r3, [r7, #8]
  SCB->AIRCR =  reg_value;
 80015c2:	4a04      	ldr	r2, [pc, #16]	@ (80015d4 <__NVIC_SetPriorityGrouping+0x44>)
 80015c4:	68bb      	ldr	r3, [r7, #8]
 80015c6:	60d3      	str	r3, [r2, #12]
}
 80015c8:	bf00      	nop
 80015ca:	3714      	adds	r7, #20
 80015cc:	46bd      	mov	sp, r7
 80015ce:	f85d 7b04 	ldr.w	r7, [sp], #4
 80015d2:	4770      	bx	lr
 80015d4:	e000ed00 	.word	0xe000ed00

080015d8 <__NVIC_GetPriorityGrouping>:
  \brief   Get Priority Grouping
  \details Reads the priority grouping field from the NVIC Interrupt Controller.
  \return                Priority grouping field (SCB->AIRCR [10:8] PRIGROUP field).
 */
__STATIC_INLINE uint32_t __NVIC_GetPriorityGrouping(void)
{
 80015d8:	b480      	push	{r7}
 80015da:	af00      	add	r7, sp, #0
  return ((uint32_t)((SCB->AIRCR & SCB_AIRCR_PRIGROUP_Msk) >> SCB_AIRCR_PRIGROUP_Pos));
 80015dc:	4b04      	ldr	r3, [pc, #16]	@ (80015f0 <__NVIC_GetPriorityGrouping+0x18>)
 80015de:	68db      	ldr	r3, [r3, #12]
 80015e0:	0a1b      	lsrs	r3, r3, #8
 80015e2:	f003 0307 	and.w	r3, r3, #7
}
 80015e6:	4618      	mov	r0, r3
 80015e8:	46bd      	mov	sp, r7
 80015ea:	f85d 7b04 	ldr.w	r7, [sp], #4
 80015ee:	4770      	bx	lr
 80015f0:	e000ed00 	.word	0xe000ed00

080015f4 <__NVIC_EnableIRQ>:
  \details Enables a device specific interrupt in the NVIC interrupt controller.
  \param [in]      IRQn  Device specific interrupt number.
  \note    IRQn must not be negative.
 */
__STATIC_INLINE void __NVIC_EnableIRQ(IRQn_Type IRQn)
{
 80015f4:	b480      	push	{r7}
 80015f6:	b083      	sub	sp, #12
 80015f8:	af00      	add	r7, sp, #0
 80015fa:	4603      	mov	r3, r0
 80015fc:	71fb      	strb	r3, [r7, #7]
  if ((int32_t)(IRQn) >= 0)
 80015fe:	f997 3007 	ldrsb.w	r3, [r7, #7]
 8001602:	2b00      	cmp	r3, #0
 8001604:	db0b      	blt.n	800161e <__NVIC_EnableIRQ+0x2a>
  {
    NVIC->ISER[(((uint32_t)IRQn) >> 5UL)] = (uint32_t)(1UL << (((uint32_t)IRQn) & 0x1FUL));
 8001606:	79fb      	ldrb	r3, [r7, #7]
 8001608:	f003 021f 	and.w	r2, r3, #31
 800160c:	4907      	ldr	r1, [pc, #28]	@ (800162c <__NVIC_EnableIRQ+0x38>)
 800160e:	f997 3007 	ldrsb.w	r3, [r7, #7]
 8001612:	095b      	lsrs	r3, r3, #5
 8001614:	2001      	movs	r0, #1
 8001616:	fa00 f202 	lsl.w	r2, r0, r2
 800161a:	f841 2023 	str.w	r2, [r1, r3, lsl #2]
  }
}
 800161e:	bf00      	nop
 8001620:	370c      	adds	r7, #12
 8001622:	46bd      	mov	sp, r7
 8001624:	f85d 7b04 	ldr.w	r7, [sp], #4
 8001628:	4770      	bx	lr
 800162a:	bf00      	nop
 800162c:	e000e100 	.word	0xe000e100

08001630 <__NVIC_SetPriority>:
  \param [in]      IRQn  Interrupt number.
  \param [in]  priority  Priority to set.
  \note    The priority cannot be set for every processor exception.
 */
__STATIC_INLINE void __NVIC_SetPriority(IRQn_Type IRQn, uint32_t priority)
{
 8001630:	b480      	push	{r7}
 8001632:	b083      	sub	sp, #12
 8001634:	af00      	add	r7, sp, #0
 8001636:	4603      	mov	r3, r0
 8001638:	6039      	str	r1, [r7, #0]
 800163a:	71fb      	strb	r3, [r7, #7]
  if ((int32_t)(IRQn) >= 0)
 800163c:	f997 3007 	ldrsb.w	r3, [r7, #7]
 8001640:	2b00      	cmp	r3, #0
 8001642:	db0a      	blt.n	800165a <__NVIC_SetPriority+0x2a>
  {
    NVIC->IP[((uint32_t)IRQn)]               = (uint8_t)((priority << (8U - __NVIC_PRIO_BITS)) & (uint32_t)0xFFUL);
 8001644:	683b      	ldr	r3, [r7, #0]
 8001646:	b2da      	uxtb	r2, r3
 8001648:	490c      	ldr	r1, [pc, #48]	@ (800167c <__NVIC_SetPriority+0x4c>)
 800164a:	f997 3007 	ldrsb.w	r3, [r7, #7]
 800164e:	0112      	lsls	r2, r2, #4
 8001650:	b2d2      	uxtb	r2, r2
 8001652:	440b      	add	r3, r1
 8001654:	f883 2300 	strb.w	r2, [r3, #768]	@ 0x300
  }
  else
  {
    SCB->SHP[(((uint32_t)IRQn) & 0xFUL)-4UL] = (uint8_t)((priority << (8U - __NVIC_PRIO_BITS)) & (uint32_t)0xFFUL);
  }
}
 8001658:	e00a      	b.n	8001670 <__NVIC_SetPriority+0x40>
    SCB->SHP[(((uint32_t)IRQn) & 0xFUL)-4UL] = (uint8_t)((priority << (8U - __NVIC_PRIO_BITS)) & (uint32_t)0xFFUL);
 800165a:	683b      	ldr	r3, [r7, #0]
 800165c:	b2da      	uxtb	r2, r3
 800165e:	4908      	ldr	r1, [pc, #32]	@ (8001680 <__NVIC_SetPriority+0x50>)
 8001660:	79fb      	ldrb	r3, [r7, #7]
 8001662:	f003 030f 	and.w	r3, r3, #15
 8001666:	3b04      	subs	r3, #4
 8001668:	0112      	lsls	r2, r2, #4
 800166a:	b2d2      	uxtb	r2, r2
 800166c:	440b      	add	r3, r1
 800166e:	761a      	strb	r2, [r3, #24]
}
 8001670:	bf00      	nop
 8001672:	370c      	adds	r7, #12
 8001674:	46bd      	mov	sp, r7
 8001676:	f85d 7b04 	ldr.w	r7, [sp], #4
 800167a:	4770      	bx	lr
 800167c:	e000e100 	.word	0xe000e100
 8001680:	e000ed00 	.word	0xe000ed00

08001684 <NVIC_EncodePriority>:
  \param [in]   PreemptPriority  Preemptive priority value (starting from 0).
  \param [in]       SubPriority  Subpriority value (starting from 0).
  \return                        Encoded priority. Value can be used in the function \ref NVIC_SetPriority().
 */
__STATIC_INLINE uint32_t NVIC_EncodePriority (uint32_t PriorityGroup, uint32_t PreemptPriority, uint32_t SubPriority)
{
 8001684:	b480      	push	{r7}
 8001686:	b089      	sub	sp, #36	@ 0x24
 8001688:	af00      	add	r7, sp, #0
 800168a:	60f8      	str	r0, [r7, #12]
 800168c:	60b9      	str	r1, [r7, #8]
 800168e:	607a      	str	r2, [r7, #4]
  uint32_t PriorityGroupTmp = (PriorityGroup & (uint32_t)0x07UL);   /* only values 0..7 are used          */
 8001690:	68fb      	ldr	r3, [r7, #12]
 8001692:	f003 0307 	and.w	r3, r3, #7
 8001696:	61fb      	str	r3, [r7, #28]
  uint32_t PreemptPriorityBits;
  uint32_t SubPriorityBits;

  PreemptPriorityBits = ((7UL - PriorityGroupTmp) > (uint32_t)(__NVIC_PRIO_BITS)) ? (uint32_t)(__NVIC_PRIO_BITS) : (uint32_t)(7UL - PriorityGroupTmp);
 8001698:	69fb      	ldr	r3, [r7, #28]
 800169a:	f1c3 0307 	rsb	r3, r3, #7
 800169e:	2b04      	cmp	r3, #4
 80016a0:	bf28      	it	cs
 80016a2:	2304      	movcs	r3, #4
 80016a4:	61bb      	str	r3, [r7, #24]
  SubPriorityBits     = ((PriorityGroupTmp + (uint32_t)(__NVIC_PRIO_BITS)) < (uint32_t)7UL) ? (uint32_t)0UL : (uint32_t)((PriorityGroupTmp - 7UL) + (uint32_t)(__NVIC_PRIO_BITS));
 80016a6:	69fb      	ldr	r3, [r7, #28]
 80016a8:	3304      	adds	r3, #4
 80016aa:	2b06      	cmp	r3, #6
 80016ac:	d902      	bls.n	80016b4 <NVIC_EncodePriority+0x30>
 80016ae:	69fb      	ldr	r3, [r7, #28]
 80016b0:	3b03      	subs	r3, #3
 80016b2:	e000      	b.n	80016b6 <NVIC_EncodePriority+0x32>
 80016b4:	2300      	movs	r3, #0
 80016b6:	617b      	str	r3, [r7, #20]

  return (
           ((PreemptPriority & (uint32_t)((1UL << (PreemptPriorityBits)) - 1UL)) << SubPriorityBits) |
 80016b8:	f04f 32ff 	mov.w	r2, #4294967295
 80016bc:	69bb      	ldr	r3, [r7, #24]
 80016be:	fa02 f303 	lsl.w	r3, r2, r3
 80016c2:	43da      	mvns	r2, r3
 80016c4:	68bb      	ldr	r3, [r7, #8]
 80016c6:	401a      	ands	r2, r3
 80016c8:	697b      	ldr	r3, [r7, #20]
 80016ca:	409a      	lsls	r2, r3
           ((SubPriority     & (uint32_t)((1UL << (SubPriorityBits    )) - 1UL)))
 80016cc:	f04f 31ff 	mov.w	r1, #4294967295
 80016d0:	697b      	ldr	r3, [r7, #20]
 80016d2:	fa01 f303 	lsl.w	r3, r1, r3
 80016d6:	43d9      	mvns	r1, r3
 80016d8:	687b      	ldr	r3, [r7, #4]
 80016da:	400b      	ands	r3, r1
           ((PreemptPriority & (uint32_t)((1UL << (PreemptPriorityBits)) - 1UL)) << SubPriorityBits) |
 80016dc:	4313      	orrs	r3, r2
         );
}
 80016de:	4618      	mov	r0, r3
 80016e0:	3724      	adds	r7, #36	@ 0x24
 80016e2:	46bd      	mov	sp, r7
 80016e4:	f85d 7b04 	ldr.w	r7, [sp], #4
 80016e8:	4770      	bx	lr
	...

080016ec <SysTick_Config>:
  \note    When the variable <b>__Vendor_SysTickConfig</b> is set to 1, then the
           function <b>SysTick_Config</b> is not included. In this case, the file <b><i>device</i>.h</b>
           must contain a vendor-specific implementation of this function.
 */
__STATIC_INLINE uint32_t SysTick_Config(uint32_t ticks)
{
 80016ec:	b580      	push	{r7, lr}
 80016ee:	b082      	sub	sp, #8
 80016f0:	af00      	add	r7, sp, #0
 80016f2:	6078      	str	r0, [r7, #4]
  if ((ticks - 1UL) > SysTick_LOAD_RELOAD_Msk)
 80016f4:	687b      	ldr	r3, [r7, #4]
 80016f6:	3b01      	subs	r3, #1
 80016f8:	f1b3 7f80 	cmp.w	r3, #16777216	@ 0x1000000
 80016fc:	d301      	bcc.n	8001702 <SysTick_Config+0x16>
  {
    return (1UL);                                                   /* Reload value impossible */
 80016fe:	2301      	movs	r3, #1
 8001700:	e00f      	b.n	8001722 <SysTick_Config+0x36>
  }

  SysTick->LOAD  = (uint32_t)(ticks - 1UL);                         /* set reload register */
 8001702:	4a0a      	ldr	r2, [pc, #40]	@ (800172c <SysTick_Config+0x40>)
 8001704:	687b      	ldr	r3, [r7, #4]
 8001706:	3b01      	subs	r3, #1
 8001708:	6053      	str	r3, [r2, #4]
  NVIC_SetPriority (SysTick_IRQn, (1UL << __NVIC_PRIO_BITS) - 1UL); /* set Priority for Systick Interrupt */
 800170a:	210f      	movs	r1, #15
 800170c:	f04f 30ff 	mov.w	r0, #4294967295
 8001710:	f7ff ff8e 	bl	8001630 <__NVIC_SetPriority>
  SysTick->VAL   = 0UL;                                             /* Load the SysTick Counter Value */
 8001714:	4b05      	ldr	r3, [pc, #20]	@ (800172c <SysTick_Config+0x40>)
 8001716:	2200      	movs	r2, #0
 8001718:	609a      	str	r2, [r3, #8]
  SysTick->CTRL  = SysTick_CTRL_CLKSOURCE_Msk |
 800171a:	4b04      	ldr	r3, [pc, #16]	@ (800172c <SysTick_Config+0x40>)
 800171c:	2207      	movs	r2, #7
 800171e:	601a      	str	r2, [r3, #0]
                   SysTick_CTRL_TICKINT_Msk   |
                   SysTick_CTRL_ENABLE_Msk;                         /* Enable SysTick IRQ and SysTick Timer */
  return (0UL);                                                     /* Function successful */
 8001720:	2300      	movs	r3, #0
}
 8001722:	4618      	mov	r0, r3
 8001724:	3708      	adds	r7, #8
 8001726:	46bd      	mov	sp, r7
 8001728:	bd80      	pop	{r7, pc}
 800172a:	bf00      	nop
 800172c:	e000e010 	.word	0xe000e010

08001730 <HAL_NVIC_SetPriorityGrouping>:
  * @note   When the NVIC_PriorityGroup_0 is selected, IRQ preemption is no more possible. 
  *         The pending IRQ priority will be managed only by the subpriority. 
  * @retval None
  */
void HAL_NVIC_SetPriorityGrouping(uint32_t PriorityGroup)
{
 8001730:	b580      	push	{r7, lr}
 8001732:	b082      	sub	sp, #8
 8001734:	af00      	add	r7, sp, #0
 8001736:	6078      	str	r0, [r7, #4]
  /* Check the parameters */
  assert_param(IS_NVIC_PRIORITY_GROUP(PriorityGroup));
  
  /* Set the PRIGROUP[10:8] bits according to the PriorityGroup parameter value */
  NVIC_SetPriorityGrouping(PriorityGroup);
 8001738:	6878      	ldr	r0, [r7, #4]
 800173a:	f7ff ff29 	bl	8001590 <__NVIC_SetPriorityGrouping>
}
 800173e:	bf00      	nop
 8001740:	3708      	adds	r7, #8
 8001742:	46bd      	mov	sp, r7
 8001744:	bd80      	pop	{r7, pc}

08001746 <HAL_NVIC_SetPriority>:
  *         This parameter can be a value between 0 and 15
  *         A lower priority value indicates a higher priority.          
  * @retval None
  */
void HAL_NVIC_SetPriority(IRQn_Type IRQn, uint32_t PreemptPriority, uint32_t SubPriority)
{ 
 8001746:	b580      	push	{r7, lr}
 8001748:	b086      	sub	sp, #24
 800174a:	af00      	add	r7, sp, #0
 800174c:	4603      	mov	r3, r0
 800174e:	60b9      	str	r1, [r7, #8]
 8001750:	607a      	str	r2, [r7, #4]
 8001752:	73fb      	strb	r3, [r7, #15]
  uint32_t prioritygroup = 0x00U;
 8001754:	2300      	movs	r3, #0
 8001756:	617b      	str	r3, [r7, #20]
  
  /* Check the parameters */
  assert_param(IS_NVIC_SUB_PRIORITY(SubPriority));
  assert_param(IS_NVIC_PREEMPTION_PRIORITY(PreemptPriority));
  
  prioritygroup = NVIC_GetPriorityGrouping();
 8001758:	f7ff ff3e 	bl	80015d8 <__NVIC_GetPriorityGrouping>
 800175c:	6178      	str	r0, [r7, #20]
  
  NVIC_SetPriority(IRQn, NVIC_EncodePriority(prioritygroup, PreemptPriority, SubPriority));
 800175e:	687a      	ldr	r2, [r7, #4]
 8001760:	68b9      	ldr	r1, [r7, #8]
 8001762:	6978      	ldr	r0, [r7, #20]
 8001764:	f7ff ff8e 	bl	8001684 <NVIC_EncodePriority>
 8001768:	4602      	mov	r2, r0
 800176a:	f997 300f 	ldrsb.w	r3, [r7, #15]
 800176e:	4611      	mov	r1, r2
 8001770:	4618      	mov	r0, r3
 8001772:	f7ff ff5d 	bl	8001630 <__NVIC_SetPriority>
}
 8001776:	bf00      	nop
 8001778:	3718      	adds	r7, #24
 800177a:	46bd      	mov	sp, r7
 800177c:	bd80      	pop	{r7, pc}

0800177e <HAL_NVIC_EnableIRQ>:
  *         This parameter can be an enumerator of IRQn_Type enumeration
  *         (For the complete STM32 Devices IRQ Channels list, please refer to the appropriate CMSIS device file (stm32f4xxxx.h))
  * @retval None
  */
void HAL_NVIC_EnableIRQ(IRQn_Type IRQn)
{
 800177e:	b580      	push	{r7, lr}
 8001780:	b082      	sub	sp, #8
 8001782:	af00      	add	r7, sp, #0
 8001784:	4603      	mov	r3, r0
 8001786:	71fb      	strb	r3, [r7, #7]
  /* Check the parameters */
  assert_param(IS_NVIC_DEVICE_IRQ(IRQn));
  
  /* Enable interrupt */
  NVIC_EnableIRQ(IRQn);
 8001788:	f997 3007 	ldrsb.w	r3, [r7, #7]
 800178c:	4618      	mov	r0, r3
 800178e:	f7ff ff31 	bl	80015f4 <__NVIC_EnableIRQ>
}
 8001792:	bf00      	nop
 8001794:	3708      	adds	r7, #8
 8001796:	46bd      	mov	sp, r7
 8001798:	bd80      	pop	{r7, pc}

0800179a <HAL_SYSTICK_Config>:
  * @param  TicksNumb Specifies the ticks Number of ticks between two interrupts.
  * @retval status:  - 0  Function succeeded.
  *                  - 1  Function failed.
  */
uint32_t HAL_SYSTICK_Config(uint32_t TicksNumb)
{
 800179a:	b580      	push	{r7, lr}
 800179c:	b082      	sub	sp, #8
 800179e:	af00      	add	r7, sp, #0
 80017a0:	6078      	str	r0, [r7, #4]
   return SysTick_Config(TicksNumb);
 80017a2:	6878      	ldr	r0, [r7, #4]
 80017a4:	f7ff ffa2 	bl	80016ec <SysTick_Config>
 80017a8:	4603      	mov	r3, r0
}
 80017aa:	4618      	mov	r0, r3
 80017ac:	3708      	adds	r7, #8
 80017ae:	46bd      	mov	sp, r7
 80017b0:	bd80      	pop	{r7, pc}

080017b2 <HAL_DMA_Abort>:
  *        and the Stream will be effectively disabled only after the transfer of
  *        this single data is finished.  
  * @retval HAL status
  */
HAL_StatusTypeDef HAL_DMA_Abort(DMA_HandleTypeDef *hdma)
{
 80017b2:	b580      	push	{r7, lr}
 80017b4:	b084      	sub	sp, #16
 80017b6:	af00      	add	r7, sp, #0
 80017b8:	6078      	str	r0, [r7, #4]
  /* calculate DMA base and stream number */
  DMA_Base_Registers *regs = (DMA_Base_Registers *)hdma->StreamBaseAddress;
 80017ba:	687b      	ldr	r3, [r7, #4]
 80017bc:	6d9b      	ldr	r3, [r3, #88]	@ 0x58
 80017be:	60fb      	str	r3, [r7, #12]
  
  uint32_t tickstart = HAL_GetTick();
 80017c0:	f7ff feb6 	bl	8001530 <HAL_GetTick>
 80017c4:	60b8      	str	r0, [r7, #8]
  
  if(hdma->State != HAL_DMA_STATE_BUSY)
 80017c6:	687b      	ldr	r3, [r7, #4]
 80017c8:	f893 3035 	ldrb.w	r3, [r3, #53]	@ 0x35
 80017cc:	b2db      	uxtb	r3, r3
 80017ce:	2b02      	cmp	r3, #2
 80017d0:	d008      	beq.n	80017e4 <HAL_DMA_Abort+0x32>
  {
    hdma->ErrorCode = HAL_DMA_ERROR_NO_XFER;
 80017d2:	687b      	ldr	r3, [r7, #4]
 80017d4:	2280      	movs	r2, #128	@ 0x80
 80017d6:	655a      	str	r2, [r3, #84]	@ 0x54
    
    /* Process Unlocked */
    __HAL_UNLOCK(hdma);
 80017d8:	687b      	ldr	r3, [r7, #4]
 80017da:	2200      	movs	r2, #0
 80017dc:	f883 2034 	strb.w	r2, [r3, #52]	@ 0x34
    
    return HAL_ERROR;
 80017e0:	2301      	movs	r3, #1
 80017e2:	e052      	b.n	800188a <HAL_DMA_Abort+0xd8>
  }
  else
  {
    /* Disable all the transfer interrupts */
    hdma->Instance->CR  &= ~(DMA_IT_TC | DMA_IT_TE | DMA_IT_DME);
 80017e4:	687b      	ldr	r3, [r7, #4]
 80017e6:	681b      	ldr	r3, [r3, #0]
 80017e8:	681a      	ldr	r2, [r3, #0]
 80017ea:	687b      	ldr	r3, [r7, #4]
 80017ec:	681b      	ldr	r3, [r3, #0]
 80017ee:	f022 0216 	bic.w	r2, r2, #22
 80017f2:	601a      	str	r2, [r3, #0]
    hdma->Instance->FCR &= ~(DMA_IT_FE);
 80017f4:	687b      	ldr	r3, [r7, #4]
 80017f6:	681b      	ldr	r3, [r3, #0]
 80017f8:	695a      	ldr	r2, [r3, #20]
 80017fa:	687b      	ldr	r3, [r7, #4]
 80017fc:	681b      	ldr	r3, [r3, #0]
 80017fe:	f022 0280 	bic.w	r2, r2, #128	@ 0x80
 8001802:	615a      	str	r2, [r3, #20]
    
    if((hdma->XferHalfCpltCallback != NULL) || (hdma->XferM1HalfCpltCallback != NULL))
 8001804:	687b      	ldr	r3, [r7, #4]
 8001806:	6c1b      	ldr	r3, [r3, #64]	@ 0x40
 8001808:	2b00      	cmp	r3, #0
 800180a:	d103      	bne.n	8001814 <HAL_DMA_Abort+0x62>
 800180c:	687b      	ldr	r3, [r7, #4]
 800180e:	6c9b      	ldr	r3, [r3, #72]	@ 0x48
 8001810:	2b00      	cmp	r3, #0
 8001812:	d007      	beq.n	8001824 <HAL_DMA_Abort+0x72>
    {
      hdma->Instance->CR  &= ~(DMA_IT_HT);
 8001814:	687b      	ldr	r3, [r7, #4]
 8001816:	681b      	ldr	r3, [r3, #0]
 8001818:	681a      	ldr	r2, [r3, #0]
 800181a:	687b      	ldr	r3, [r7, #4]
 800181c:	681b      	ldr	r3, [r3, #0]
 800181e:	f022 0208 	bic.w	r2, r2, #8
 8001822:	601a      	str	r2, [r3, #0]
    }
    
    /* Disable the stream */
    __HAL_DMA_DISABLE(hdma);
 8001824:	687b      	ldr	r3, [r7, #4]
 8001826:	681b      	ldr	r3, [r3, #0]
 8001828:	681a      	ldr	r2, [r3, #0]
 800182a:	687b      	ldr	r3, [r7, #4]
 800182c:	681b      	ldr	r3, [r3, #0]
 800182e:	f022 0201 	bic.w	r2, r2, #1
 8001832:	601a      	str	r2, [r3, #0]
    
    /* Check if the DMA Stream is effectively disabled */
    while((hdma->Instance->CR & DMA_SxCR_EN) != RESET)
 8001834:	e013      	b.n	800185e <HAL_DMA_Abort+0xac>
    {
      /* Check for the Timeout */
      if((HAL_GetTick() - tickstart ) > HAL_TIMEOUT_DMA_ABORT)
 8001836:	f7ff fe7b 	bl	8001530 <HAL_GetTick>
 800183a:	4602      	mov	r2, r0
 800183c:	68bb      	ldr	r3, [r7, #8]
 800183e:	1ad3      	subs	r3, r2, r3
 8001840:	2b05      	cmp	r3, #5
 8001842:	d90c      	bls.n	800185e <HAL_DMA_Abort+0xac>
      {
        /* Update error code */
        hdma->ErrorCode = HAL_DMA_ERROR_TIMEOUT;
 8001844:	687b      	ldr	r3, [r7, #4]
 8001846:	2220      	movs	r2, #32
 8001848:	655a      	str	r2, [r3, #84]	@ 0x54
        
        /* Change the DMA state */
        hdma->State = HAL_DMA_STATE_TIMEOUT;
 800184a:	687b      	ldr	r3, [r7, #4]
 800184c:	2203      	movs	r2, #3
 800184e:	f883 2035 	strb.w	r2, [r3, #53]	@ 0x35
        
        /* Process Unlocked */
        __HAL_UNLOCK(hdma);
 8001852:	687b      	ldr	r3, [r7, #4]
 8001854:	2200      	movs	r2, #0
 8001856:	f883 2034 	strb.w	r2, [r3, #52]	@ 0x34
        
        return HAL_TIMEOUT;
 800185a:	2303      	movs	r3, #3
 800185c:	e015      	b.n	800188a <HAL_DMA_Abort+0xd8>
    while((hdma->Instance->CR & DMA_SxCR_EN) != RESET)
 800185e:	687b      	ldr	r3, [r7, #4]
 8001860:	681b      	ldr	r3, [r3, #0]
 8001862:	681b      	ldr	r3, [r3, #0]
 8001864:	f003 0301 	and.w	r3, r3, #1
 8001868:	2b00      	cmp	r3, #0
 800186a:	d1e4      	bne.n	8001836 <HAL_DMA_Abort+0x84>
      }
    }
    
    /* Clear all interrupt flags at correct offset within the register */
    regs->IFCR = 0x3FU << hdma->StreamIndex;
 800186c:	687b      	ldr	r3, [r7, #4]
 800186e:	6ddb      	ldr	r3, [r3, #92]	@ 0x5c
 8001870:	223f      	movs	r2, #63	@ 0x3f
 8001872:	409a      	lsls	r2, r3
 8001874:	68fb      	ldr	r3, [r7, #12]
 8001876:	609a      	str	r2, [r3, #8]
    
    /* Change the DMA state*/
    hdma->State = HAL_DMA_STATE_READY;
 8001878:	687b      	ldr	r3, [r7, #4]
 800187a:	2201      	movs	r2, #1
 800187c:	f883 2035 	strb.w	r2, [r3, #53]	@ 0x35
    
    /* Process Unlocked */
    __HAL_UNLOCK(hdma);
 8001880:	687b      	ldr	r3, [r7, #4]
 8001882:	2200      	movs	r2, #0
 8001884:	f883 2034 	strb.w	r2, [r3, #52]	@ 0x34
  }
  return HAL_OK;
 8001888:	2300      	movs	r3, #0
}
 800188a:	4618      	mov	r0, r3
 800188c:	3710      	adds	r7, #16
 800188e:	46bd      	mov	sp, r7
 8001890:	bd80      	pop	{r7, pc}

08001892 <HAL_DMA_Abort_IT>:
  * @param  hdma   pointer to a DMA_HandleTypeDef structure that contains
  *                 the configuration information for the specified DMA Stream.
  * @retval HAL status
  */
HAL_StatusTypeDef HAL_DMA_Abort_IT(DMA_HandleTypeDef *hdma)
{
 8001892:	b480      	push	{r7}
 8001894:	b083      	sub	sp, #12
 8001896:	af00      	add	r7, sp, #0
 8001898:	6078      	str	r0, [r7, #4]
  if(hdma->State != HAL_DMA_STATE_BUSY)
 800189a:	687b      	ldr	r3, [r7, #4]
 800189c:	f893 3035 	ldrb.w	r3, [r3, #53]	@ 0x35
 80018a0:	b2db      	uxtb	r3, r3
 80018a2:	2b02      	cmp	r3, #2
 80018a4:	d004      	beq.n	80018b0 <HAL_DMA_Abort_IT+0x1e>
  {
    hdma->ErrorCode = HAL_DMA_ERROR_NO_XFER;
 80018a6:	687b      	ldr	r3, [r7, #4]
 80018a8:	2280      	movs	r2, #128	@ 0x80
 80018aa:	655a      	str	r2, [r3, #84]	@ 0x54
    return HAL_ERROR;
 80018ac:	2301      	movs	r3, #1
 80018ae:	e00c      	b.n	80018ca <HAL_DMA_Abort_IT+0x38>
  }
  else
  {
    /* Set Abort State  */
    hdma->State = HAL_DMA_STATE_ABORT;
 80018b0:	687b      	ldr	r3, [r7, #4]
 80018b2:	2205      	movs	r2, #5
 80018b4:	f883 2035 	strb.w	r2, [r3, #53]	@ 0x35
    
    /* Disable the stream */
    __HAL_DMA_DISABLE(hdma);
 80018b8:	687b      	ldr	r3, [r7, #4]
 80018ba:	681b      	ldr	r3, [r3, #0]
 80018bc:	681a      	ldr	r2, [r3, #0]
 80018be:	687b      	ldr	r3, [r7, #4]
 80018c0:	681b      	ldr	r3, [r3, #0]
 80018c2:	f022 0201 	bic.w	r2, r2, #1
 80018c6:	601a      	str	r2, [r3, #0]
  }

  return HAL_OK;
 80018c8:	2300      	movs	r3, #0
}
 80018ca:	4618      	mov	r0, r3
 80018cc:	370c      	adds	r7, #12
 80018ce:	46bd      	mov	sp, r7
 80018d0:	f85d 7b04 	ldr.w	r7, [sp], #4
 80018d4:	4770      	bx	lr
	...

080018d8 <HAL_GPIO_Init>:
  * @param  GPIO_Init pointer to a GPIO_InitTypeDef structure that contains
  *         the configuration information for the specified GPIO peripheral.
  * @retval None
  */
void HAL_GPIO_Init(GPIO_TypeDef  *GPIOx, GPIO_InitTypeDef *GPIO_Init)
{
 80018d8:	b480      	push	{r7}
 80018da:	b089      	sub	sp, #36	@ 0x24
 80018dc:	af00      	add	r7, sp, #0
 80018de:	6078      	str	r0, [r7, #4]
 80018e0:	6039      	str	r1, [r7, #0]
  uint32_t position;
  uint32_t ioposition = 0x00U;
 80018e2:	2300      	movs	r3, #0
 80018e4:	617b      	str	r3, [r7, #20]
  uint32_t iocurrent = 0x00U;
 80018e6:	2300      	movs	r3, #0
 80018e8:	613b      	str	r3, [r7, #16]
  uint32_t temp = 0x00U;
 80018ea:	2300      	movs	r3, #0
 80018ec:	61bb      	str	r3, [r7, #24]
  assert_param(IS_GPIO_ALL_INSTANCE(GPIOx));
  assert_param(IS_GPIO_PIN(GPIO_Init->Pin));
  assert_param(IS_GPIO_MODE(GPIO_Init->Mode));

  /* Configure the port pins */
  for(position = 0U; position < GPIO_NUMBER; position++)
 80018ee:	2300      	movs	r3, #0
 80018f0:	61fb      	str	r3, [r7, #28]
 80018f2:	e159      	b.n	8001ba8 <HAL_GPIO_Init+0x2d0>
  {
    /* Get the IO position */
    ioposition = 0x01U << position;
 80018f4:	2201      	movs	r2, #1
 80018f6:	69fb      	ldr	r3, [r7, #28]
 80018f8:	fa02 f303 	lsl.w	r3, r2, r3
 80018fc:	617b      	str	r3, [r7, #20]
    /* Get the current IO position */
    iocurrent = (uint32_t)(GPIO_Init->Pin) & ioposition;
 80018fe:	683b      	ldr	r3, [r7, #0]
 8001900:	681b      	ldr	r3, [r3, #0]
 8001902:	697a      	ldr	r2, [r7, #20]
 8001904:	4013      	ands	r3, r2
 8001906:	613b      	str	r3, [r7, #16]

    if(iocurrent == ioposition)
 8001908:	693a      	ldr	r2, [r7, #16]
 800190a:	697b      	ldr	r3, [r7, #20]
 800190c:	429a      	cmp	r2, r3
 800190e:	f040 8148 	bne.w	8001ba2 <HAL_GPIO_Init+0x2ca>
    {
      /*--------------------- GPIO Mode Configuration ------------------------*/
      /* In case of Output or Alternate function mode selection */
      if(((GPIO_Init->Mode & GPIO_MODE) == MODE_OUTPUT) || \
 8001912:	683b      	ldr	r3, [r7, #0]
 8001914:	685b      	ldr	r3, [r3, #4]
 8001916:	f003 0303 	and.w	r3, r3, #3
 800191a:	2b01      	cmp	r3, #1
 800191c:	d005      	beq.n	800192a <HAL_GPIO_Init+0x52>
          (GPIO_Init->Mode & GPIO_MODE) == MODE_AF)
 800191e:	683b      	ldr	r3, [r7, #0]
 8001920:	685b      	ldr	r3, [r3, #4]
 8001922:	f003 0303 	and.w	r3, r3, #3
      if(((GPIO_Init->Mode & GPIO_MODE) == MODE_OUTPUT) || \
 8001926:	2b02      	cmp	r3, #2
 8001928:	d130      	bne.n	800198c <HAL_GPIO_Init+0xb4>
      {
        /* Check the Speed parameter */
        assert_param(IS_GPIO_SPEED(GPIO_Init->Speed));
        /* Configure the IO Speed */
        temp = GPIOx->OSPEEDR; 
 800192a:	687b      	ldr	r3, [r7, #4]
 800192c:	689b      	ldr	r3, [r3, #8]
 800192e:	61bb      	str	r3, [r7, #24]
        temp &= ~(GPIO_OSPEEDER_OSPEEDR0 << (position * 2U));
 8001930:	69fb      	ldr	r3, [r7, #28]
 8001932:	005b      	lsls	r3, r3, #1
 8001934:	2203      	movs	r2, #3
 8001936:	fa02 f303 	lsl.w	r3, r2, r3
 800193a:	43db      	mvns	r3, r3
 800193c:	69ba      	ldr	r2, [r7, #24]
 800193e:	4013      	ands	r3, r2
 8001940:	61bb      	str	r3, [r7, #24]
        temp |= (GPIO_Init->Speed << (position * 2U));
 8001942:	683b      	ldr	r3, [r7, #0]
 8001944:	68da      	ldr	r2, [r3, #12]
 8001946:	69fb      	ldr	r3, [r7, #28]
 8001948:	005b      	lsls	r3, r3, #1
 800194a:	fa02 f303 	lsl.w	r3, r2, r3
 800194e:	69ba      	ldr	r2, [r7, #24]
 8001950:	4313      	orrs	r3, r2
 8001952:	61bb      	str	r3, [r7, #24]
        GPIOx->OSPEEDR = temp;
 8001954:	687b      	ldr	r3, [r7, #4]
 8001956:	69ba      	ldr	r2, [r7, #24]
 8001958:	609a      	str	r2, [r3, #8]

        /* Configure the IO Output Type */
        temp = GPIOx->OTYPER;
 800195a:	687b      	ldr	r3, [r7, #4]
 800195c:	685b      	ldr	r3, [r3, #4]
 800195e:	61bb      	str	r3, [r7, #24]
        temp &= ~(GPIO_OTYPER_OT_0 << position) ;
 8001960:	2201      	movs	r2, #1
 8001962:	69fb      	ldr	r3, [r7, #28]
 8001964:	fa02 f303 	lsl.w	r3, r2, r3
 8001968:	43db      	mvns	r3, r3
 800196a:	69ba      	ldr	r2, [r7, #24]
 800196c:	4013      	ands	r3, r2
 800196e:	61bb      	str	r3, [r7, #24]
        temp |= (((GPIO_Init->Mode & OUTPUT_TYPE) >> OUTPUT_TYPE_Pos) << position);
 8001970:	683b      	ldr	r3, [r7, #0]
 8001972:	685b      	ldr	r3, [r3, #4]
 8001974:	091b      	lsrs	r3, r3, #4
 8001976:	f003 0201 	and.w	r2, r3, #1
 800197a:	69fb      	ldr	r3, [r7, #28]
 800197c:	fa02 f303 	lsl.w	r3, r2, r3
 8001980:	69ba      	ldr	r2, [r7, #24]
 8001982:	4313      	orrs	r3, r2
 8001984:	61bb      	str	r3, [r7, #24]
        GPIOx->OTYPER = temp;
 8001986:	687b      	ldr	r3, [r7, #4]
 8001988:	69ba      	ldr	r2, [r7, #24]
 800198a:	605a      	str	r2, [r3, #4]
       }

      if((GPIO_Init->Mode & GPIO_MODE) != MODE_ANALOG)
 800198c:	683b      	ldr	r3, [r7, #0]
 800198e:	685b      	ldr	r3, [r3, #4]
 8001990:	f003 0303 	and.w	r3, r3, #3
 8001994:	2b03      	cmp	r3, #3
 8001996:	d017      	beq.n	80019c8 <HAL_GPIO_Init+0xf0>
      {
        /* Check the parameters */
        assert_param(IS_GPIO_PULL(GPIO_Init->Pull));
        
        /* Activate the Pull-up or Pull down resistor for the current IO */
        temp = GPIOx->PUPDR;
 8001998:	687b      	ldr	r3, [r7, #4]
 800199a:	68db      	ldr	r3, [r3, #12]
 800199c:	61bb      	str	r3, [r7, #24]
        temp &= ~(GPIO_PUPDR_PUPDR0 << (position * 2U));
 800199e:	69fb      	ldr	r3, [r7, #28]
 80019a0:	005b      	lsls	r3, r3, #1
 80019a2:	2203      	movs	r2, #3
 80019a4:	fa02 f303 	lsl.w	r3, r2, r3
 80019a8:	43db      	mvns	r3, r3
 80019aa:	69ba      	ldr	r2, [r7, #24]
 80019ac:	4013      	ands	r3, r2
 80019ae:	61bb      	str	r3, [r7, #24]
        temp |= ((GPIO_Init->Pull) << (position * 2U));
 80019b0:	683b      	ldr	r3, [r7, #0]
 80019b2:	689a      	ldr	r2, [r3, #8]
 80019b4:	69fb      	ldr	r3, [r7, #28]
 80019b6:	005b      	lsls	r3, r3, #1
 80019b8:	fa02 f303 	lsl.w	r3, r2, r3
 80019bc:	69ba      	ldr	r2, [r7, #24]
 80019be:	4313      	orrs	r3, r2
 80019c0:	61bb      	str	r3, [r7, #24]
        GPIOx->PUPDR = temp;
 80019c2:	687b      	ldr	r3, [r7, #4]
 80019c4:	69ba      	ldr	r2, [r7, #24]
 80019c6:	60da      	str	r2, [r3, #12]
      }

      /* In case of Alternate function mode selection */
      if((GPIO_Init->Mode & GPIO_MODE) == MODE_AF)
 80019c8:	683b      	ldr	r3, [r7, #0]
 80019ca:	685b      	ldr	r3, [r3, #4]
 80019cc:	f003 0303 	and.w	r3, r3, #3
 80019d0:	2b02      	cmp	r3, #2
 80019d2:	d123      	bne.n	8001a1c <HAL_GPIO_Init+0x144>
      {
        /* Check the Alternate function parameter */
        assert_param(IS_GPIO_AF(GPIO_Init->Alternate));
        /* Configure Alternate function mapped with the current IO */
        temp = GPIOx->AFR[position >> 3U];
 80019d4:	69fb      	ldr	r3, [r7, #28]
 80019d6:	08da      	lsrs	r2, r3, #3
 80019d8:	687b      	ldr	r3, [r7, #4]
 80019da:	3208      	adds	r2, #8
 80019dc:	f853 3022 	ldr.w	r3, [r3, r2, lsl #2]
 80019e0:	61bb      	str	r3, [r7, #24]
        temp &= ~(0xFU << ((uint32_t)(position & 0x07U) * 4U)) ;
 80019e2:	69fb      	ldr	r3, [r7, #28]
 80019e4:	f003 0307 	and.w	r3, r3, #7
 80019e8:	009b      	lsls	r3, r3, #2
 80019ea:	220f      	movs	r2, #15
 80019ec:	fa02 f303 	lsl.w	r3, r2, r3
 80019f0:	43db      	mvns	r3, r3
 80019f2:	69ba      	ldr	r2, [r7, #24]
 80019f4:	4013      	ands	r3, r2
 80019f6:	61bb      	str	r3, [r7, #24]
        temp |= ((uint32_t)(GPIO_Init->Alternate) << (((uint32_t)position & 0x07U) * 4U));
 80019f8:	683b      	ldr	r3, [r7, #0]
 80019fa:	691a      	ldr	r2, [r3, #16]
 80019fc:	69fb      	ldr	r3, [r7, #28]
 80019fe:	f003 0307 	and.w	r3, r3, #7
 8001a02:	009b      	lsls	r3, r3, #2
 8001a04:	fa02 f303 	lsl.w	r3, r2, r3
 8001a08:	69ba      	ldr	r2, [r7, #24]
 8001a0a:	4313      	orrs	r3, r2
 8001a0c:	61bb      	str	r3, [r7, #24]
        GPIOx->AFR[position >> 3U] = temp;
 8001a0e:	69fb      	ldr	r3, [r7, #28]
 8001a10:	08da      	lsrs	r2, r3, #3
 8001a12:	687b      	ldr	r3, [r7, #4]
 8001a14:	3208      	adds	r2, #8
 8001a16:	69b9      	ldr	r1, [r7, #24]
 8001a18:	f843 1022 	str.w	r1, [r3, r2, lsl #2]
      }

      /* Configure IO Direction mode (Input, Output, Alternate or Analog) */
      temp = GPIOx->MODER;
 8001a1c:	687b      	ldr	r3, [r7, #4]
 8001a1e:	681b      	ldr	r3, [r3, #0]
 8001a20:	61bb      	str	r3, [r7, #24]
      temp &= ~(GPIO_MODER_MODER0 << (position * 2U));
 8001a22:	69fb      	ldr	r3, [r7, #28]
 8001a24:	005b      	lsls	r3, r3, #1
 8001a26:	2203      	movs	r2, #3
 8001a28:	fa02 f303 	lsl.w	r3, r2, r3
 8001a2c:	43db      	mvns	r3, r3
 8001a2e:	69ba      	ldr	r2, [r7, #24]
 8001a30:	4013      	ands	r3, r2
 8001a32:	61bb      	str	r3, [r7, #24]
      temp |= ((GPIO_Init->Mode & GPIO_MODE) << (position * 2U));
 8001a34:	683b      	ldr	r3, [r7, #0]
 8001a36:	685b      	ldr	r3, [r3, #4]
 8001a38:	f003 0203 	and.w	r2, r3, #3
 8001a3c:	69fb      	ldr	r3, [r7, #28]
 8001a3e:	005b      	lsls	r3, r3, #1
 8001a40:	fa02 f303 	lsl.w	r3, r2, r3
 8001a44:	69ba      	ldr	r2, [r7, #24]
 8001a46:	4313      	orrs	r3, r2
 8001a48:	61bb      	str	r3, [r7, #24]
      GPIOx->MODER = temp;
 8001a4a:	687b      	ldr	r3, [r7, #4]
 8001a4c:	69ba      	ldr	r2, [r7, #24]
 8001a4e:	601a      	str	r2, [r3, #0]

      /*--------------------- EXTI Mode Configuration ------------------------*/
      /* Configure the External Interrupt or event for the current IO */
      if((GPIO_Init->Mode & EXTI_MODE) != 0x00U)
 8001a50:	683b      	ldr	r3, [r7, #0]
 8001a52:	685b      	ldr	r3, [r3, #4]
 8001a54:	f403 3340 	and.w	r3, r3, #196608	@ 0x30000
 8001a58:	2b00      	cmp	r3, #0
 8001a5a:	f000 80a2 	beq.w	8001ba2 <HAL_GPIO_Init+0x2ca>
      {
        /* Enable SYSCFG Clock */
        __HAL_RCC_SYSCFG_CLK_ENABLE();
 8001a5e:	2300      	movs	r3, #0
 8001a60:	60fb      	str	r3, [r7, #12]
 8001a62:	4b57      	ldr	r3, [pc, #348]	@ (8001bc0 <HAL_GPIO_Init+0x2e8>)
 8001a64:	6c5b      	ldr	r3, [r3, #68]	@ 0x44
 8001a66:	4a56      	ldr	r2, [pc, #344]	@ (8001bc0 <HAL_GPIO_Init+0x2e8>)
 8001a68:	f443 4380 	orr.w	r3, r3, #16384	@ 0x4000
 8001a6c:	6453      	str	r3, [r2, #68]	@ 0x44
 8001a6e:	4b54      	ldr	r3, [pc, #336]	@ (8001bc0 <HAL_GPIO_Init+0x2e8>)
 8001a70:	6c5b      	ldr	r3, [r3, #68]	@ 0x44
 8001a72:	f403 4380 	and.w	r3, r3, #16384	@ 0x4000
 8001a76:	60fb      	str	r3, [r7, #12]
 8001a78:	68fb      	ldr	r3, [r7, #12]

        temp = SYSCFG->EXTICR[position >> 2U];
 8001a7a:	4a52      	ldr	r2, [pc, #328]	@ (8001bc4 <HAL_GPIO_Init+0x2ec>)
 8001a7c:	69fb      	ldr	r3, [r7, #28]
 8001a7e:	089b      	lsrs	r3, r3, #2
 8001a80:	3302      	adds	r3, #2
 8001a82:	f852 3023 	ldr.w	r3, [r2, r3, lsl #2]
 8001a86:	61bb      	str	r3, [r7, #24]
        temp &= ~(0x0FU << (4U * (position & 0x03U)));
 8001a88:	69fb      	ldr	r3, [r7, #28]
 8001a8a:	f003 0303 	and.w	r3, r3, #3
 8001a8e:	009b      	lsls	r3, r3, #2
 8001a90:	220f      	movs	r2, #15
 8001a92:	fa02 f303 	lsl.w	r3, r2, r3
 8001a96:	43db      	mvns	r3, r3
 8001a98:	69ba      	ldr	r2, [r7, #24]
 8001a9a:	4013      	ands	r3, r2
 8001a9c:	61bb      	str	r3, [r7, #24]
        temp |= ((uint32_t)(GPIO_GET_INDEX(GPIOx)) << (4U * (position & 0x03U)));
 8001a9e:	687b      	ldr	r3, [r7, #4]
 8001aa0:	4a49      	ldr	r2, [pc, #292]	@ (8001bc8 <HAL_GPIO_Init+0x2f0>)
 8001aa2:	4293      	cmp	r3, r2
 8001aa4:	d019      	beq.n	8001ada <HAL_GPIO_Init+0x202>
 8001aa6:	687b      	ldr	r3, [r7, #4]
 8001aa8:	4a48      	ldr	r2, [pc, #288]	@ (8001bcc <HAL_GPIO_Init+0x2f4>)
 8001aaa:	4293      	cmp	r3, r2
 8001aac:	d013      	beq.n	8001ad6 <HAL_GPIO_Init+0x1fe>
 8001aae:	687b      	ldr	r3, [r7, #4]
 8001ab0:	4a47      	ldr	r2, [pc, #284]	@ (8001bd0 <HAL_GPIO_Init+0x2f8>)
 8001ab2:	4293      	cmp	r3, r2
 8001ab4:	d00d      	beq.n	8001ad2 <HAL_GPIO_Init+0x1fa>
 8001ab6:	687b      	ldr	r3, [r7, #4]
 8001ab8:	4a46      	ldr	r2, [pc, #280]	@ (8001bd4 <HAL_GPIO_Init+0x2fc>)
 8001aba:	4293      	cmp	r3, r2
 8001abc:	d007      	beq.n	8001ace <HAL_GPIO_Init+0x1f6>
 8001abe:	687b      	ldr	r3, [r7, #4]
 8001ac0:	4a45      	ldr	r2, [pc, #276]	@ (8001bd8 <HAL_GPIO_Init+0x300>)
 8001ac2:	4293      	cmp	r3, r2
 8001ac4:	d101      	bne.n	8001aca <HAL_GPIO_Init+0x1f2>
 8001ac6:	2304      	movs	r3, #4
 8001ac8:	e008      	b.n	8001adc <HAL_GPIO_Init+0x204>
 8001aca:	2307      	movs	r3, #7
 8001acc:	e006      	b.n	8001adc <HAL_GPIO_Init+0x204>
 8001ace:	2303      	movs	r3, #3
 8001ad0:	e004      	b.n	8001adc <HAL_GPIO_Init+0x204>
 8001ad2:	2302      	movs	r3, #2
 8001ad4:	e002      	b.n	8001adc <HAL_GPIO_Init+0x204>
 8001ad6:	2301      	movs	r3, #1
 8001ad8:	e000      	b.n	8001adc <HAL_GPIO_Init+0x204>
 8001ada:	2300      	movs	r3, #0
 8001adc:	69fa      	ldr	r2, [r7, #28]
 8001ade:	f002 0203 	and.w	r2, r2, #3
 8001ae2:	0092      	lsls	r2, r2, #2
 8001ae4:	4093      	lsls	r3, r2
 8001ae6:	69ba      	ldr	r2, [r7, #24]
 8001ae8:	4313      	orrs	r3, r2
 8001aea:	61bb      	str	r3, [r7, #24]
        SYSCFG->EXTICR[position >> 2U] = temp;
 8001aec:	4935      	ldr	r1, [pc, #212]	@ (8001bc4 <HAL_GPIO_Init+0x2ec>)
 8001aee:	69fb      	ldr	r3, [r7, #28]
 8001af0:	089b      	lsrs	r3, r3, #2
 8001af2:	3302      	adds	r3, #2
 8001af4:	69ba      	ldr	r2, [r7, #24]
 8001af6:	f841 2023 	str.w	r2, [r1, r3, lsl #2]

        /* Clear Rising Falling edge configuration */
        temp = EXTI->RTSR;
 8001afa:	4b38      	ldr	r3, [pc, #224]	@ (8001bdc <HAL_GPIO_Init+0x304>)
 8001afc:	689b      	ldr	r3, [r3, #8]
 8001afe:	61bb      	str	r3, [r7, #24]
        temp &= ~((uint32_t)iocurrent);
 8001b00:	693b      	ldr	r3, [r7, #16]
 8001b02:	43db      	mvns	r3, r3
 8001b04:	69ba      	ldr	r2, [r7, #24]
 8001b06:	4013      	ands	r3, r2
 8001b08:	61bb      	str	r3, [r7, #24]
        if((GPIO_Init->Mode & TRIGGER_RISING) != 0x00U)
 8001b0a:	683b      	ldr	r3, [r7, #0]
 8001b0c:	685b      	ldr	r3, [r3, #4]
 8001b0e:	f403 1380 	and.w	r3, r3, #1048576	@ 0x100000
 8001b12:	2b00      	cmp	r3, #0
 8001b14:	d003      	beq.n	8001b1e <HAL_GPIO_Init+0x246>
        {
          temp |= iocurrent;
 8001b16:	69ba      	ldr	r2, [r7, #24]
 8001b18:	693b      	ldr	r3, [r7, #16]
 8001b1a:	4313      	orrs	r3, r2
 8001b1c:	61bb      	str	r3, [r7, #24]
        }
        EXTI->RTSR = temp;
 8001b1e:	4a2f      	ldr	r2, [pc, #188]	@ (8001bdc <HAL_GPIO_Init+0x304>)
 8001b20:	69bb      	ldr	r3, [r7, #24]
 8001b22:	6093      	str	r3, [r2, #8]

        temp = EXTI->FTSR;
 8001b24:	4b2d      	ldr	r3, [pc, #180]	@ (8001bdc <HAL_GPIO_Init+0x304>)
 8001b26:	68db      	ldr	r3, [r3, #12]
 8001b28:	61bb      	str	r3, [r7, #24]
        temp &= ~((uint32_t)iocurrent);
 8001b2a:	693b      	ldr	r3, [r7, #16]
 8001b2c:	43db      	mvns	r3, r3
 8001b2e:	69ba      	ldr	r2, [r7, #24]
 8001b30:	4013      	ands	r3, r2
 8001b32:	61bb      	str	r3, [r7, #24]
        if((GPIO_Init->Mode & TRIGGER_FALLING) != 0x00U)
 8001b34:	683b      	ldr	r3, [r7, #0]
 8001b36:	685b      	ldr	r3, [r3, #4]
 8001b38:	f403 1300 	and.w	r3, r3, #2097152	@ 0x200000
 8001b3c:	2b00      	cmp	r3, #0
 8001b3e:	d003      	beq.n	8001b48 <HAL_GPIO_Init+0x270>
        {
          temp |= iocurrent;
 8001b40:	69ba      	ldr	r2, [r7, #24]
 8001b42:	693b      	ldr	r3, [r7, #16]
 8001b44:	4313      	orrs	r3, r2
 8001b46:	61bb      	str	r3, [r7, #24]
        }
        EXTI->FTSR = temp;
 8001b48:	4a24      	ldr	r2, [pc, #144]	@ (8001bdc <HAL_GPIO_Init+0x304>)
 8001b4a:	69bb      	ldr	r3, [r7, #24]
 8001b4c:	60d3      	str	r3, [r2, #12]

        temp = EXTI->EMR;
 8001b4e:	4b23      	ldr	r3, [pc, #140]	@ (8001bdc <HAL_GPIO_Init+0x304>)
 8001b50:	685b      	ldr	r3, [r3, #4]
 8001b52:	61bb      	str	r3, [r7, #24]
        temp &= ~((uint32_t)iocurrent);
 8001b54:	693b      	ldr	r3, [r7, #16]
 8001b56:	43db      	mvns	r3, r3
 8001b58:	69ba      	ldr	r2, [r7, #24]
 8001b5a:	4013      	ands	r3, r2
 8001b5c:	61bb      	str	r3, [r7, #24]
        if((GPIO_Init->Mode & EXTI_EVT) != 0x00U)
 8001b5e:	683b      	ldr	r3, [r7, #0]
 8001b60:	685b      	ldr	r3, [r3, #4]
 8001b62:	f403 3300 	and.w	r3, r3, #131072	@ 0x20000
 8001b66:	2b00      	cmp	r3, #0
 8001b68:	d003      	beq.n	8001b72 <HAL_GPIO_Init+0x29a>
        {
          temp |= iocurrent;
 8001b6a:	69ba      	ldr	r2, [r7, #24]
 8001b6c:	693b      	ldr	r3, [r7, #16]
 8001b6e:	4313      	orrs	r3, r2
 8001b70:	61bb      	str	r3, [r7, #24]
        }
        EXTI->EMR = temp;
 8001b72:	4a1a      	ldr	r2, [pc, #104]	@ (8001bdc <HAL_GPIO_Init+0x304>)
 8001b74:	69bb      	ldr	r3, [r7, #24]
 8001b76:	6053      	str	r3, [r2, #4]

        /* Clear EXTI line configuration */
        temp = EXTI->IMR;
 8001b78:	4b18      	ldr	r3, [pc, #96]	@ (8001bdc <HAL_GPIO_Init+0x304>)
 8001b7a:	681b      	ldr	r3, [r3, #0]
 8001b7c:	61bb      	str	r3, [r7, #24]
        temp &= ~((uint32_t)iocurrent);
 8001b7e:	693b      	ldr	r3, [r7, #16]
 8001b80:	43db      	mvns	r3, r3
 8001b82:	69ba      	ldr	r2, [r7, #24]
 8001b84:	4013      	ands	r3, r2
 8001b86:	61bb      	str	r3, [r7, #24]
        if((GPIO_Init->Mode & EXTI_IT) != 0x00U)
 8001b88:	683b      	ldr	r3, [r7, #0]
 8001b8a:	685b      	ldr	r3, [r3, #4]
 8001b8c:	f403 3380 	and.w	r3, r3, #65536	@ 0x10000
 8001b90:	2b00      	cmp	r3, #0
 8001b92:	d003      	beq.n	8001b9c <HAL_GPIO_Init+0x2c4>
        {
          temp |= iocurrent;
 8001b94:	69ba      	ldr	r2, [r7, #24]
 8001b96:	693b      	ldr	r3, [r7, #16]
 8001b98:	4313      	orrs	r3, r2
 8001b9a:	61bb      	str	r3, [r7, #24]
        }
        EXTI->IMR = temp;
 8001b9c:	4a0f      	ldr	r2, [pc, #60]	@ (8001bdc <HAL_GPIO_Init+0x304>)
 8001b9e:	69bb      	ldr	r3, [r7, #24]
 8001ba0:	6013      	str	r3, [r2, #0]
  for(position = 0U; position < GPIO_NUMBER; position++)
 8001ba2:	69fb      	ldr	r3, [r7, #28]
 8001ba4:	3301      	adds	r3, #1
 8001ba6:	61fb      	str	r3, [r7, #28]
 8001ba8:	69fb      	ldr	r3, [r7, #28]
 8001baa:	2b0f      	cmp	r3, #15
 8001bac:	f67f aea2 	bls.w	80018f4 <HAL_GPIO_Init+0x1c>
      }
    }
  }
}
 8001bb0:	bf00      	nop
 8001bb2:	bf00      	nop
 8001bb4:	3724      	adds	r7, #36	@ 0x24
 8001bb6:	46bd      	mov	sp, r7
 8001bb8:	f85d 7b04 	ldr.w	r7, [sp], #4
 8001bbc:	4770      	bx	lr
 8001bbe:	bf00      	nop
 8001bc0:	40023800 	.word	0x40023800
 8001bc4:	40013800 	.word	0x40013800
 8001bc8:	40020000 	.word	0x40020000
 8001bcc:	40020400 	.word	0x40020400
 8001bd0:	40020800 	.word	0x40020800
 8001bd4:	40020c00 	.word	0x40020c00
 8001bd8:	40021000 	.word	0x40021000
 8001bdc:	40013c00 	.word	0x40013c00

08001be0 <HAL_GPIO_WritePin>:
  *            @arg GPIO_PIN_RESET: to clear the port pin
  *            @arg GPIO_PIN_SET: to set the port pin
  * @retval None
  */
void HAL_GPIO_WritePin(GPIO_TypeDef* GPIOx, uint16_t GPIO_Pin, GPIO_PinState PinState)
{
 8001be0:	b480      	push	{r7}
 8001be2:	b083      	sub	sp, #12
 8001be4:	af00      	add	r7, sp, #0
 8001be6:	6078      	str	r0, [r7, #4]
 8001be8:	460b      	mov	r3, r1
 8001bea:	807b      	strh	r3, [r7, #2]
 8001bec:	4613      	mov	r3, r2
 8001bee:	707b      	strb	r3, [r7, #1]
  /* Check the parameters */
  assert_param(IS_GPIO_PIN(GPIO_Pin));
  assert_param(IS_GPIO_PIN_ACTION(PinState));

  if(PinState != GPIO_PIN_RESET)
 8001bf0:	787b      	ldrb	r3, [r7, #1]
 8001bf2:	2b00      	cmp	r3, #0
 8001bf4:	d003      	beq.n	8001bfe <HAL_GPIO_WritePin+0x1e>
  {
    GPIOx->BSRR = GPIO_Pin;
 8001bf6:	887a      	ldrh	r2, [r7, #2]
 8001bf8:	687b      	ldr	r3, [r7, #4]
 8001bfa:	619a      	str	r2, [r3, #24]
  }
  else
  {
    GPIOx->BSRR = (uint32_t)GPIO_Pin << 16U;
  }
}
 8001bfc:	e003      	b.n	8001c06 <HAL_GPIO_WritePin+0x26>
    GPIOx->BSRR = (uint32_t)GPIO_Pin << 16U;
 8001bfe:	887b      	ldrh	r3, [r7, #2]
 8001c00:	041a      	lsls	r2, r3, #16
 8001c02:	687b      	ldr	r3, [r7, #4]
 8001c04:	619a      	str	r2, [r3, #24]
}
 8001c06:	bf00      	nop
 8001c08:	370c      	adds	r7, #12
 8001c0a:	46bd      	mov	sp, r7
 8001c0c:	f85d 7b04 	ldr.w	r7, [sp], #4
 8001c10:	4770      	bx	lr
	...

08001c14 <HAL_RCC_OscConfig>:
  *         supported by this API. User should request a transition to HSE Off
  *         first and then HSE On or HSE Bypass.
  * @retval HAL status
  */
__weak HAL_StatusTypeDef HAL_RCC_OscConfig(RCC_OscInitTypeDef  *RCC_OscInitStruct)
{
 8001c14:	b580      	push	{r7, lr}
 8001c16:	b086      	sub	sp, #24
 8001c18:	af00      	add	r7, sp, #0
 8001c1a:	6078      	str	r0, [r7, #4]
  uint32_t tickstart, pll_config;

  /* Check Null pointer */
  if(RCC_OscInitStruct == NULL)
 8001c1c:	687b      	ldr	r3, [r7, #4]
 8001c1e:	2b00      	cmp	r3, #0
 8001c20:	d101      	bne.n	8001c26 <HAL_RCC_OscConfig+0x12>
  {
    return HAL_ERROR;
 8001c22:	2301      	movs	r3, #1
 8001c24:	e267      	b.n	80020f6 <HAL_RCC_OscConfig+0x4e2>
  }

  /* Check the parameters */
  assert_param(IS_RCC_OSCILLATORTYPE(RCC_OscInitStruct->OscillatorType));
  /*------------------------------- HSE Configuration ------------------------*/
  if(((RCC_OscInitStruct->OscillatorType) & RCC_OSCILLATORTYPE_HSE) == RCC_OSCILLATORTYPE_HSE)
 8001c26:	687b      	ldr	r3, [r7, #4]
 8001c28:	681b      	ldr	r3, [r3, #0]
 8001c2a:	f003 0301 	and.w	r3, r3, #1
 8001c2e:	2b00      	cmp	r3, #0
 8001c30:	d075      	beq.n	8001d1e <HAL_RCC_OscConfig+0x10a>
  {
    /* Check the parameters */
    assert_param(IS_RCC_HSE(RCC_OscInitStruct->HSEState));
    /* When the HSE is used as system clock or clock source for PLL in these cases HSE will not disabled */
    if((__HAL_RCC_GET_SYSCLK_SOURCE() == RCC_CFGR_SWS_HSE) ||\
 8001c32:	4b88      	ldr	r3, [pc, #544]	@ (8001e54 <HAL_RCC_OscConfig+0x240>)
 8001c34:	689b      	ldr	r3, [r3, #8]
 8001c36:	f003 030c 	and.w	r3, r3, #12
 8001c3a:	2b04      	cmp	r3, #4
 8001c3c:	d00c      	beq.n	8001c58 <HAL_RCC_OscConfig+0x44>
      ((__HAL_RCC_GET_SYSCLK_SOURCE() == RCC_CFGR_SWS_PLL) && ((RCC->PLLCFGR & RCC_PLLCFGR_PLLSRC) == RCC_PLLCFGR_PLLSRC_HSE)))
 8001c3e:	4b85      	ldr	r3, [pc, #532]	@ (8001e54 <HAL_RCC_OscConfig+0x240>)
 8001c40:	689b      	ldr	r3, [r3, #8]
 8001c42:	f003 030c 	and.w	r3, r3, #12
    if((__HAL_RCC_GET_SYSCLK_SOURCE() == RCC_CFGR_SWS_HSE) ||\
 8001c46:	2b08      	cmp	r3, #8
 8001c48:	d112      	bne.n	8001c70 <HAL_RCC_OscConfig+0x5c>
      ((__HAL_RCC_GET_SYSCLK_SOURCE() == RCC_CFGR_SWS_PLL) && ((RCC->PLLCFGR & RCC_PLLCFGR_PLLSRC) == RCC_PLLCFGR_PLLSRC_HSE)))
 8001c4a:	4b82      	ldr	r3, [pc, #520]	@ (8001e54 <HAL_RCC_OscConfig+0x240>)
 8001c4c:	685b      	ldr	r3, [r3, #4]
 8001c4e:	f403 0380 	and.w	r3, r3, #4194304	@ 0x400000
 8001c52:	f5b3 0f80 	cmp.w	r3, #4194304	@ 0x400000
 8001c56:	d10b      	bne.n	8001c70 <HAL_RCC_OscConfig+0x5c>
    {
      if((__HAL_RCC_GET_FLAG(RCC_FLAG_HSERDY) != RESET) && (RCC_OscInitStruct->HSEState == RCC_HSE_OFF))
 8001c58:	4b7e      	ldr	r3, [pc, #504]	@ (8001e54 <HAL_RCC_OscConfig+0x240>)
 8001c5a:	681b      	ldr	r3, [r3, #0]
 8001c5c:	f403 3300 	and.w	r3, r3, #131072	@ 0x20000
 8001c60:	2b00      	cmp	r3, #0
 8001c62:	d05b      	beq.n	8001d1c <HAL_RCC_OscConfig+0x108>
 8001c64:	687b      	ldr	r3, [r7, #4]
 8001c66:	685b      	ldr	r3, [r3, #4]
 8001c68:	2b00      	cmp	r3, #0
 8001c6a:	d157      	bne.n	8001d1c <HAL_RCC_OscConfig+0x108>
      {
        return HAL_ERROR;
 8001c6c:	2301      	movs	r3, #1
 8001c6e:	e242      	b.n	80020f6 <HAL_RCC_OscConfig+0x4e2>
      }
    }
    else
    {
      /* Set the new HSE configuration ---------------------------------------*/
      __HAL_RCC_HSE_CONFIG(RCC_OscInitStruct->HSEState);
 8001c70:	687b      	ldr	r3, [r7, #4]
 8001c72:	685b      	ldr	r3, [r3, #4]
 8001c74:	f5b3 3f80 	cmp.w	r3, #65536	@ 0x10000
 8001c78:	d106      	bne.n	8001c88 <HAL_RCC_OscConfig+0x74>
 8001c7a:	4b76      	ldr	r3, [pc, #472]	@ (8001e54 <HAL_RCC_OscConfig+0x240>)
 8001c7c:	681b      	ldr	r3, [r3, #0]
 8001c7e:	4a75      	ldr	r2, [pc, #468]	@ (8001e54 <HAL_RCC_OscConfig+0x240>)
 8001c80:	f443 3380 	orr.w	r3, r3, #65536	@ 0x10000
 8001c84:	6013      	str	r3, [r2, #0]
 8001c86:	e01d      	b.n	8001cc4 <HAL_RCC_OscConfig+0xb0>
 8001c88:	687b      	ldr	r3, [r7, #4]
 8001c8a:	685b      	ldr	r3, [r3, #4]
 8001c8c:	f5b3 2fa0 	cmp.w	r3, #327680	@ 0x50000
 8001c90:	d10c      	bne.n	8001cac <HAL_RCC_OscConfig+0x98>
 8001c92:	4b70      	ldr	r3, [pc, #448]	@ (8001e54 <HAL_RCC_OscConfig+0x240>)
 8001c94:	681b      	ldr	r3, [r3, #0]
 8001c96:	4a6f      	ldr	r2, [pc, #444]	@ (8001e54 <HAL_RCC_OscConfig+0x240>)
 8001c98:	f443 2380 	orr.w	r3, r3, #262144	@ 0x40000
 8001c9c:	6013      	str	r3, [r2, #0]
 8001c9e:	4b6d      	ldr	r3, [pc, #436]	@ (8001e54 <HAL_RCC_OscConfig+0x240>)
 8001ca0:	681b      	ldr	r3, [r3, #0]
 8001ca2:	4a6c      	ldr	r2, [pc, #432]	@ (8001e54 <HAL_RCC_OscConfig+0x240>)
 8001ca4:	f443 3380 	orr.w	r3, r3, #65536	@ 0x10000
 8001ca8:	6013      	str	r3, [r2, #0]
 8001caa:	e00b      	b.n	8001cc4 <HAL_RCC_OscConfig+0xb0>
 8001cac:	4b69      	ldr	r3, [pc, #420]	@ (8001e54 <HAL_RCC_OscConfig+0x240>)
 8001cae:	681b      	ldr	r3, [r3, #0]
 8001cb0:	4a68      	ldr	r2, [pc, #416]	@ (8001e54 <HAL_RCC_OscConfig+0x240>)
 8001cb2:	f423 3380 	bic.w	r3, r3, #65536	@ 0x10000
 8001cb6:	6013      	str	r3, [r2, #0]
 8001cb8:	4b66      	ldr	r3, [pc, #408]	@ (8001e54 <HAL_RCC_OscConfig+0x240>)
 8001cba:	681b      	ldr	r3, [r3, #0]
 8001cbc:	4a65      	ldr	r2, [pc, #404]	@ (8001e54 <HAL_RCC_OscConfig+0x240>)
 8001cbe:	f423 2380 	bic.w	r3, r3, #262144	@ 0x40000
 8001cc2:	6013      	str	r3, [r2, #0]

      /* Check the HSE State */
      if((RCC_OscInitStruct->HSEState) != RCC_HSE_OFF)
 8001cc4:	687b      	ldr	r3, [r7, #4]
 8001cc6:	685b      	ldr	r3, [r3, #4]
 8001cc8:	2b00      	cmp	r3, #0
 8001cca:	d013      	beq.n	8001cf4 <HAL_RCC_OscConfig+0xe0>
      {
        /* Get Start Tick */
        tickstart = HAL_GetTick();
 8001ccc:	f7ff fc30 	bl	8001530 <HAL_GetTick>
 8001cd0:	6138      	str	r0, [r7, #16]

        /* Wait till HSE is ready */
        while(__HAL_RCC_GET_FLAG(RCC_FLAG_HSERDY) == RESET)
 8001cd2:	e008      	b.n	8001ce6 <HAL_RCC_OscConfig+0xd2>
        {
          if((HAL_GetTick() - tickstart ) > HSE_TIMEOUT_VALUE)
 8001cd4:	f7ff fc2c 	bl	8001530 <HAL_GetTick>
 8001cd8:	4602      	mov	r2, r0
 8001cda:	693b      	ldr	r3, [r7, #16]
 8001cdc:	1ad3      	subs	r3, r2, r3
 8001cde:	2b64      	cmp	r3, #100	@ 0x64
 8001ce0:	d901      	bls.n	8001ce6 <HAL_RCC_OscConfig+0xd2>
          {
            return HAL_TIMEOUT;
 8001ce2:	2303      	movs	r3, #3
 8001ce4:	e207      	b.n	80020f6 <HAL_RCC_OscConfig+0x4e2>
        while(__HAL_RCC_GET_FLAG(RCC_FLAG_HSERDY) == RESET)
 8001ce6:	4b5b      	ldr	r3, [pc, #364]	@ (8001e54 <HAL_RCC_OscConfig+0x240>)
 8001ce8:	681b      	ldr	r3, [r3, #0]
 8001cea:	f403 3300 	and.w	r3, r3, #131072	@ 0x20000
 8001cee:	2b00      	cmp	r3, #0
 8001cf0:	d0f0      	beq.n	8001cd4 <HAL_RCC_OscConfig+0xc0>
 8001cf2:	e014      	b.n	8001d1e <HAL_RCC_OscConfig+0x10a>
        }
      }
      else
      {
        /* Get Start Tick */
        tickstart = HAL_GetTick();
 8001cf4:	f7ff fc1c 	bl	8001530 <HAL_GetTick>
 8001cf8:	6138      	str	r0, [r7, #16]

        /* Wait till HSE is bypassed or disabled */
        while(__HAL_RCC_GET_FLAG(RCC_FLAG_HSERDY) != RESET)
 8001cfa:	e008      	b.n	8001d0e <HAL_RCC_OscConfig+0xfa>
        {
          if((HAL_GetTick() - tickstart ) > HSE_TIMEOUT_VALUE)
 8001cfc:	f7ff fc18 	bl	8001530 <HAL_GetTick>
 8001d00:	4602      	mov	r2, r0
 8001d02:	693b      	ldr	r3, [r7, #16]
 8001d04:	1ad3      	subs	r3, r2, r3
 8001d06:	2b64      	cmp	r3, #100	@ 0x64
 8001d08:	d901      	bls.n	8001d0e <HAL_RCC_OscConfig+0xfa>
          {
            return HAL_TIMEOUT;
 8001d0a:	2303      	movs	r3, #3
 8001d0c:	e1f3      	b.n	80020f6 <HAL_RCC_OscConfig+0x4e2>
        while(__HAL_RCC_GET_FLAG(RCC_FLAG_HSERDY) != RESET)
 8001d0e:	4b51      	ldr	r3, [pc, #324]	@ (8001e54 <HAL_RCC_OscConfig+0x240>)
 8001d10:	681b      	ldr	r3, [r3, #0]
 8001d12:	f403 3300 	and.w	r3, r3, #131072	@ 0x20000
 8001d16:	2b00      	cmp	r3, #0
 8001d18:	d1f0      	bne.n	8001cfc <HAL_RCC_OscConfig+0xe8>
 8001d1a:	e000      	b.n	8001d1e <HAL_RCC_OscConfig+0x10a>
      if((__HAL_RCC_GET_FLAG(RCC_FLAG_HSERDY) != RESET) && (RCC_OscInitStruct->HSEState == RCC_HSE_OFF))
 8001d1c:	bf00      	nop
        }
      }
    }
  }
  /*----------------------------- HSI Configuration --------------------------*/
  if(((RCC_OscInitStruct->OscillatorType) & RCC_OSCILLATORTYPE_HSI) == RCC_OSCILLATORTYPE_HSI)
 8001d1e:	687b      	ldr	r3, [r7, #4]
 8001d20:	681b      	ldr	r3, [r3, #0]
 8001d22:	f003 0302 	and.w	r3, r3, #2
 8001d26:	2b00      	cmp	r3, #0
 8001d28:	d063      	beq.n	8001df2 <HAL_RCC_OscConfig+0x1de>
    /* Check the parameters */
    assert_param(IS_RCC_HSI(RCC_OscInitStruct->HSIState));
    assert_param(IS_RCC_CALIBRATION_VALUE(RCC_OscInitStruct->HSICalibrationValue));

    /* Check if HSI is used as system clock or as PLL source when PLL is selected as system clock */
    if((__HAL_RCC_GET_SYSCLK_SOURCE() == RCC_CFGR_SWS_HSI) ||\
 8001d2a:	4b4a      	ldr	r3, [pc, #296]	@ (8001e54 <HAL_RCC_OscConfig+0x240>)
 8001d2c:	689b      	ldr	r3, [r3, #8]
 8001d2e:	f003 030c 	and.w	r3, r3, #12
 8001d32:	2b00      	cmp	r3, #0
 8001d34:	d00b      	beq.n	8001d4e <HAL_RCC_OscConfig+0x13a>
      ((__HAL_RCC_GET_SYSCLK_SOURCE() == RCC_CFGR_SWS_PLL) && ((RCC->PLLCFGR & RCC_PLLCFGR_PLLSRC) == RCC_PLLCFGR_PLLSRC_HSI)))
 8001d36:	4b47      	ldr	r3, [pc, #284]	@ (8001e54 <HAL_RCC_OscConfig+0x240>)
 8001d38:	689b      	ldr	r3, [r3, #8]
 8001d3a:	f003 030c 	and.w	r3, r3, #12
    if((__HAL_RCC_GET_SYSCLK_SOURCE() == RCC_CFGR_SWS_HSI) ||\
 8001d3e:	2b08      	cmp	r3, #8
 8001d40:	d11c      	bne.n	8001d7c <HAL_RCC_OscConfig+0x168>
      ((__HAL_RCC_GET_SYSCLK_SOURCE() == RCC_CFGR_SWS_PLL) && ((RCC->PLLCFGR & RCC_PLLCFGR_PLLSRC) == RCC_PLLCFGR_PLLSRC_HSI)))
 8001d42:	4b44      	ldr	r3, [pc, #272]	@ (8001e54 <HAL_RCC_OscConfig+0x240>)
 8001d44:	685b      	ldr	r3, [r3, #4]
 8001d46:	f403 0380 	and.w	r3, r3, #4194304	@ 0x400000
 8001d4a:	2b00      	cmp	r3, #0
 8001d4c:	d116      	bne.n	8001d7c <HAL_RCC_OscConfig+0x168>
    {
      /* When HSI is used as system clock it will not disabled */
      if((__HAL_RCC_GET_FLAG(RCC_FLAG_HSIRDY) != RESET) && (RCC_OscInitStruct->HSIState != RCC_HSI_ON))
 8001d4e:	4b41      	ldr	r3, [pc, #260]	@ (8001e54 <HAL_RCC_OscConfig+0x240>)
 8001d50:	681b      	ldr	r3, [r3, #0]
 8001d52:	f003 0302 	and.w	r3, r3, #2
 8001d56:	2b00      	cmp	r3, #0
 8001d58:	d005      	beq.n	8001d66 <HAL_RCC_OscConfig+0x152>
 8001d5a:	687b      	ldr	r3, [r7, #4]
 8001d5c:	68db      	ldr	r3, [r3, #12]
 8001d5e:	2b01      	cmp	r3, #1
 8001d60:	d001      	beq.n	8001d66 <HAL_RCC_OscConfig+0x152>
      {
        return HAL_ERROR;
 8001d62:	2301      	movs	r3, #1
 8001d64:	e1c7      	b.n	80020f6 <HAL_RCC_OscConfig+0x4e2>
      }
      /* Otherwise, just the calibration is allowed */
      else
      {
        /* Adjusts the Internal High Speed oscillator (HSI) calibration value.*/
        __HAL_RCC_HSI_CALIBRATIONVALUE_ADJUST(RCC_OscInitStruct->HSICalibrationValue);
 8001d66:	4b3b      	ldr	r3, [pc, #236]	@ (8001e54 <HAL_RCC_OscConfig+0x240>)
 8001d68:	681b      	ldr	r3, [r3, #0]
 8001d6a:	f023 02f8 	bic.w	r2, r3, #248	@ 0xf8
 8001d6e:	687b      	ldr	r3, [r7, #4]
 8001d70:	691b      	ldr	r3, [r3, #16]
 8001d72:	00db      	lsls	r3, r3, #3
 8001d74:	4937      	ldr	r1, [pc, #220]	@ (8001e54 <HAL_RCC_OscConfig+0x240>)
 8001d76:	4313      	orrs	r3, r2
 8001d78:	600b      	str	r3, [r1, #0]
      if((__HAL_RCC_GET_FLAG(RCC_FLAG_HSIRDY) != RESET) && (RCC_OscInitStruct->HSIState != RCC_HSI_ON))
 8001d7a:	e03a      	b.n	8001df2 <HAL_RCC_OscConfig+0x1de>
      }
    }
    else
    {
      /* Check the HSI State */
      if((RCC_OscInitStruct->HSIState)!= RCC_HSI_OFF)
 8001d7c:	687b      	ldr	r3, [r7, #4]
 8001d7e:	68db      	ldr	r3, [r3, #12]
 8001d80:	2b00      	cmp	r3, #0
 8001d82:	d020      	beq.n	8001dc6 <HAL_RCC_OscConfig+0x1b2>
      {
        /* Enable the Internal High Speed oscillator (HSI). */
        __HAL_RCC_HSI_ENABLE();
 8001d84:	4b34      	ldr	r3, [pc, #208]	@ (8001e58 <HAL_RCC_OscConfig+0x244>)
 8001d86:	2201      	movs	r2, #1
 8001d88:	601a      	str	r2, [r3, #0]

        /* Get Start Tick*/
        tickstart = HAL_GetTick();
 8001d8a:	f7ff fbd1 	bl	8001530 <HAL_GetTick>
 8001d8e:	6138      	str	r0, [r7, #16]

        /* Wait till HSI is ready */
        while(__HAL_RCC_GET_FLAG(RCC_FLAG_HSIRDY) == RESET)
 8001d90:	e008      	b.n	8001da4 <HAL_RCC_OscConfig+0x190>
        {
          if((HAL_GetTick() - tickstart ) > HSI_TIMEOUT_VALUE)
 8001d92:	f7ff fbcd 	bl	8001530 <HAL_GetTick>
 8001d96:	4602      	mov	r2, r0
 8001d98:	693b      	ldr	r3, [r7, #16]
 8001d9a:	1ad3      	subs	r3, r2, r3
 8001d9c:	2b02      	cmp	r3, #2
 8001d9e:	d901      	bls.n	8001da4 <HAL_RCC_OscConfig+0x190>
          {
            return HAL_TIMEOUT;
 8001da0:	2303      	movs	r3, #3
 8001da2:	e1a8      	b.n	80020f6 <HAL_RCC_OscConfig+0x4e2>
        while(__HAL_RCC_GET_FLAG(RCC_FLAG_HSIRDY) == RESET)
 8001da4:	4b2b      	ldr	r3, [pc, #172]	@ (8001e54 <HAL_RCC_OscConfig+0x240>)
 8001da6:	681b      	ldr	r3, [r3, #0]
 8001da8:	f003 0302 	and.w	r3, r3, #2
 8001dac:	2b00      	cmp	r3, #0
 8001dae:	d0f0      	beq.n	8001d92 <HAL_RCC_OscConfig+0x17e>
          }
        }

        /* Adjusts the Internal High Speed oscillator (HSI) calibration value. */
        __HAL_RCC_HSI_CALIBRATIONVALUE_ADJUST(RCC_OscInitStruct->HSICalibrationValue);
 8001db0:	4b28      	ldr	r3, [pc, #160]	@ (8001e54 <HAL_RCC_OscConfig+0x240>)
 8001db2:	681b      	ldr	r3, [r3, #0]
 8001db4:	f023 02f8 	bic.w	r2, r3, #248	@ 0xf8
 8001db8:	687b      	ldr	r3, [r7, #4]
 8001dba:	691b      	ldr	r3, [r3, #16]
 8001dbc:	00db      	lsls	r3, r3, #3
 8001dbe:	4925      	ldr	r1, [pc, #148]	@ (8001e54 <HAL_RCC_OscConfig+0x240>)
 8001dc0:	4313      	orrs	r3, r2
 8001dc2:	600b      	str	r3, [r1, #0]
 8001dc4:	e015      	b.n	8001df2 <HAL_RCC_OscConfig+0x1de>
      }
      else
      {
        /* Disable the Internal High Speed oscillator (HSI). */
        __HAL_RCC_HSI_DISABLE();
 8001dc6:	4b24      	ldr	r3, [pc, #144]	@ (8001e58 <HAL_RCC_OscConfig+0x244>)
 8001dc8:	2200      	movs	r2, #0
 8001dca:	601a      	str	r2, [r3, #0]

        /* Get Start Tick*/
        tickstart = HAL_GetTick();
 8001dcc:	f7ff fbb0 	bl	8001530 <HAL_GetTick>
 8001dd0:	6138      	str	r0, [r7, #16]

        /* Wait till HSI is ready */
        while(__HAL_RCC_GET_FLAG(RCC_FLAG_HSIRDY) != RESET)
 8001dd2:	e008      	b.n	8001de6 <HAL_RCC_OscConfig+0x1d2>
        {
          if((HAL_GetTick() - tickstart ) > HSI_TIMEOUT_VALUE)
 8001dd4:	f7ff fbac 	bl	8001530 <HAL_GetTick>
 8001dd8:	4602      	mov	r2, r0
 8001dda:	693b      	ldr	r3, [r7, #16]
 8001ddc:	1ad3      	subs	r3, r2, r3
 8001dde:	2b02      	cmp	r3, #2
 8001de0:	d901      	bls.n	8001de6 <HAL_RCC_OscConfig+0x1d2>
          {
            return HAL_TIMEOUT;
 8001de2:	2303      	movs	r3, #3
 8001de4:	e187      	b.n	80020f6 <HAL_RCC_OscConfig+0x4e2>
        while(__HAL_RCC_GET_FLAG(RCC_FLAG_HSIRDY) != RESET)
 8001de6:	4b1b      	ldr	r3, [pc, #108]	@ (8001e54 <HAL_RCC_OscConfig+0x240>)
 8001de8:	681b      	ldr	r3, [r3, #0]
 8001dea:	f003 0302 	and.w	r3, r3, #2
 8001dee:	2b00      	cmp	r3, #0
 8001df0:	d1f0      	bne.n	8001dd4 <HAL_RCC_OscConfig+0x1c0>
        }
      }
    }
  }
  /*------------------------------ LSI Configuration -------------------------*/
  if(((RCC_OscInitStruct->OscillatorType) & RCC_OSCILLATORTYPE_LSI) == RCC_OSCILLATORTYPE_LSI)
 8001df2:	687b      	ldr	r3, [r7, #4]
 8001df4:	681b      	ldr	r3, [r3, #0]
 8001df6:	f003 0308 	and.w	r3, r3, #8
 8001dfa:	2b00      	cmp	r3, #0
 8001dfc:	d036      	beq.n	8001e6c <HAL_RCC_OscConfig+0x258>
  {
    /* Check the parameters */
    assert_param(IS_RCC_LSI(RCC_OscInitStruct->LSIState));

    /* Check the LSI State */
    if((RCC_OscInitStruct->LSIState)!= RCC_LSI_OFF)
 8001dfe:	687b      	ldr	r3, [r7, #4]
 8001e00:	695b      	ldr	r3, [r3, #20]
 8001e02:	2b00      	cmp	r3, #0
 8001e04:	d016      	beq.n	8001e34 <HAL_RCC_OscConfig+0x220>
    {
      /* Enable the Internal Low Speed oscillator (LSI). */
      __HAL_RCC_LSI_ENABLE();
 8001e06:	4b15      	ldr	r3, [pc, #84]	@ (8001e5c <HAL_RCC_OscConfig+0x248>)
 8001e08:	2201      	movs	r2, #1
 8001e0a:	601a      	str	r2, [r3, #0]

      /* Get Start Tick*/
      tickstart = HAL_GetTick();
 8001e0c:	f7ff fb90 	bl	8001530 <HAL_GetTick>
 8001e10:	6138      	str	r0, [r7, #16]

      /* Wait till LSI is ready */
      while(__HAL_RCC_GET_FLAG(RCC_FLAG_LSIRDY) == RESET)
 8001e12:	e008      	b.n	8001e26 <HAL_RCC_OscConfig+0x212>
      {
        if((HAL_GetTick() - tickstart ) > LSI_TIMEOUT_VALUE)
 8001e14:	f7ff fb8c 	bl	8001530 <HAL_GetTick>
 8001e18:	4602      	mov	r2, r0
 8001e1a:	693b      	ldr	r3, [r7, #16]
 8001e1c:	1ad3      	subs	r3, r2, r3
 8001e1e:	2b02      	cmp	r3, #2
 8001e20:	d901      	bls.n	8001e26 <HAL_RCC_OscConfig+0x212>
        {
          return HAL_TIMEOUT;
 8001e22:	2303      	movs	r3, #3
 8001e24:	e167      	b.n	80020f6 <HAL_RCC_OscConfig+0x4e2>
      while(__HAL_RCC_GET_FLAG(RCC_FLAG_LSIRDY) == RESET)
 8001e26:	4b0b      	ldr	r3, [pc, #44]	@ (8001e54 <HAL_RCC_OscConfig+0x240>)
 8001e28:	6f5b      	ldr	r3, [r3, #116]	@ 0x74
 8001e2a:	f003 0302 	and.w	r3, r3, #2
 8001e2e:	2b00      	cmp	r3, #0
 8001e30:	d0f0      	beq.n	8001e14 <HAL_RCC_OscConfig+0x200>
 8001e32:	e01b      	b.n	8001e6c <HAL_RCC_OscConfig+0x258>
      }
    }
    else
    {
      /* Disable the Internal Low Speed oscillator (LSI). */
      __HAL_RCC_LSI_DISABLE();
 8001e34:	4b09      	ldr	r3, [pc, #36]	@ (8001e5c <HAL_RCC_OscConfig+0x248>)
 8001e36:	2200      	movs	r2, #0
 8001e38:	601a      	str	r2, [r3, #0]

      /* Get Start Tick */
      tickstart = HAL_GetTick();
 8001e3a:	f7ff fb79 	bl	8001530 <HAL_GetTick>
 8001e3e:	6138      	str	r0, [r7, #16]

      /* Wait till LSI is ready */
      while(__HAL_RCC_GET_FLAG(RCC_FLAG_LSIRDY) != RESET)
 8001e40:	e00e      	b.n	8001e60 <HAL_RCC_OscConfig+0x24c>
      {
        if((HAL_GetTick() - tickstart ) > LSI_TIMEOUT_VALUE)
 8001e42:	f7ff fb75 	bl	8001530 <HAL_GetTick>
 8001e46:	4602      	mov	r2, r0
 8001e48:	693b      	ldr	r3, [r7, #16]
 8001e4a:	1ad3      	subs	r3, r2, r3
 8001e4c:	2b02      	cmp	r3, #2
 8001e4e:	d907      	bls.n	8001e60 <HAL_RCC_OscConfig+0x24c>
        {
          return HAL_TIMEOUT;
 8001e50:	2303      	movs	r3, #3
 8001e52:	e150      	b.n	80020f6 <HAL_RCC_OscConfig+0x4e2>
 8001e54:	40023800 	.word	0x40023800
 8001e58:	42470000 	.word	0x42470000
 8001e5c:	42470e80 	.word	0x42470e80
      while(__HAL_RCC_GET_FLAG(RCC_FLAG_LSIRDY) != RESET)
 8001e60:	4b88      	ldr	r3, [pc, #544]	@ (8002084 <HAL_RCC_OscConfig+0x470>)
 8001e62:	6f5b      	ldr	r3, [r3, #116]	@ 0x74
 8001e64:	f003 0302 	and.w	r3, r3, #2
 8001e68:	2b00      	cmp	r3, #0
 8001e6a:	d1ea      	bne.n	8001e42 <HAL_RCC_OscConfig+0x22e>
        }
      }
    }
  }
  /*------------------------------ LSE Configuration -------------------------*/
  if(((RCC_OscInitStruct->OscillatorType) & RCC_OSCILLATORTYPE_LSE) == RCC_OSCILLATORTYPE_LSE)
 8001e6c:	687b      	ldr	r3, [r7, #4]
 8001e6e:	681b      	ldr	r3, [r3, #0]
 8001e70:	f003 0304 	and.w	r3, r3, #4
 8001e74:	2b00      	cmp	r3, #0
 8001e76:	f000 8097 	beq.w	8001fa8 <HAL_RCC_OscConfig+0x394>
  {
    FlagStatus       pwrclkchanged = RESET;
 8001e7a:	2300      	movs	r3, #0
 8001e7c:	75fb      	strb	r3, [r7, #23]
    /* Check the parameters */
    assert_param(IS_RCC_LSE(RCC_OscInitStruct->LSEState));

    /* Update LSE configuration in Backup Domain control register    */
    /* Requires to enable write access to Backup Domain of necessary */
    if(__HAL_RCC_PWR_IS_CLK_DISABLED())
 8001e7e:	4b81      	ldr	r3, [pc, #516]	@ (8002084 <HAL_RCC_OscConfig+0x470>)
 8001e80:	6c1b      	ldr	r3, [r3, #64]	@ 0x40
 8001e82:	f003 5380 	and.w	r3, r3, #268435456	@ 0x10000000
 8001e86:	2b00      	cmp	r3, #0
 8001e88:	d10f      	bne.n	8001eaa <HAL_RCC_OscConfig+0x296>
    {
      __HAL_RCC_PWR_CLK_ENABLE();
 8001e8a:	2300      	movs	r3, #0
 8001e8c:	60bb      	str	r3, [r7, #8]
 8001e8e:	4b7d      	ldr	r3, [pc, #500]	@ (8002084 <HAL_RCC_OscConfig+0x470>)
 8001e90:	6c1b      	ldr	r3, [r3, #64]	@ 0x40
 8001e92:	4a7c      	ldr	r2, [pc, #496]	@ (8002084 <HAL_RCC_OscConfig+0x470>)
 8001e94:	f043 5380 	orr.w	r3, r3, #268435456	@ 0x10000000
 8001e98:	6413      	str	r3, [r2, #64]	@ 0x40
 8001e9a:	4b7a      	ldr	r3, [pc, #488]	@ (8002084 <HAL_RCC_OscConfig+0x470>)
 8001e9c:	6c1b      	ldr	r3, [r3, #64]	@ 0x40
 8001e9e:	f003 5380 	and.w	r3, r3, #268435456	@ 0x10000000
 8001ea2:	60bb      	str	r3, [r7, #8]
 8001ea4:	68bb      	ldr	r3, [r7, #8]
      pwrclkchanged = SET;
 8001ea6:	2301      	movs	r3, #1
 8001ea8:	75fb      	strb	r3, [r7, #23]
    }

    if(HAL_IS_BIT_CLR(PWR->CR, PWR_CR_DBP))
 8001eaa:	4b77      	ldr	r3, [pc, #476]	@ (8002088 <HAL_RCC_OscConfig+0x474>)
 8001eac:	681b      	ldr	r3, [r3, #0]
 8001eae:	f403 7380 	and.w	r3, r3, #256	@ 0x100
 8001eb2:	2b00      	cmp	r3, #0
 8001eb4:	d118      	bne.n	8001ee8 <HAL_RCC_OscConfig+0x2d4>
    {
      /* Enable write access to Backup domain */
      SET_BIT(PWR->CR, PWR_CR_DBP);
 8001eb6:	4b74      	ldr	r3, [pc, #464]	@ (8002088 <HAL_RCC_OscConfig+0x474>)
 8001eb8:	681b      	ldr	r3, [r3, #0]
 8001eba:	4a73      	ldr	r2, [pc, #460]	@ (8002088 <HAL_RCC_OscConfig+0x474>)
 8001ebc:	f443 7380 	orr.w	r3, r3, #256	@ 0x100
 8001ec0:	6013      	str	r3, [r2, #0]

      /* Wait for Backup domain Write protection disable */
      tickstart = HAL_GetTick();
 8001ec2:	f7ff fb35 	bl	8001530 <HAL_GetTick>
 8001ec6:	6138      	str	r0, [r7, #16]

      while(HAL_IS_BIT_CLR(PWR->CR, PWR_CR_DBP))
 8001ec8:	e008      	b.n	8001edc <HAL_RCC_OscConfig+0x2c8>
      {
        if((HAL_GetTick() - tickstart) > RCC_DBP_TIMEOUT_VALUE)
 8001eca:	f7ff fb31 	bl	8001530 <HAL_GetTick>
 8001ece:	4602      	mov	r2, r0
 8001ed0:	693b      	ldr	r3, [r7, #16]
 8001ed2:	1ad3      	subs	r3, r2, r3
 8001ed4:	2b02      	cmp	r3, #2
 8001ed6:	d901      	bls.n	8001edc <HAL_RCC_OscConfig+0x2c8>
        {
          return HAL_TIMEOUT;
 8001ed8:	2303      	movs	r3, #3
 8001eda:	e10c      	b.n	80020f6 <HAL_RCC_OscConfig+0x4e2>
      while(HAL_IS_BIT_CLR(PWR->CR, PWR_CR_DBP))
 8001edc:	4b6a      	ldr	r3, [pc, #424]	@ (8002088 <HAL_RCC_OscConfig+0x474>)
 8001ede:	681b      	ldr	r3, [r3, #0]
 8001ee0:	f403 7380 	and.w	r3, r3, #256	@ 0x100
 8001ee4:	2b00      	cmp	r3, #0
 8001ee6:	d0f0      	beq.n	8001eca <HAL_RCC_OscConfig+0x2b6>
        }
      }
    }

    /* Set the new LSE configuration -----------------------------------------*/
    __HAL_RCC_LSE_CONFIG(RCC_OscInitStruct->LSEState);
 8001ee8:	687b      	ldr	r3, [r7, #4]
 8001eea:	689b      	ldr	r3, [r3, #8]
 8001eec:	2b01      	cmp	r3, #1
 8001eee:	d106      	bne.n	8001efe <HAL_RCC_OscConfig+0x2ea>
 8001ef0:	4b64      	ldr	r3, [pc, #400]	@ (8002084 <HAL_RCC_OscConfig+0x470>)
 8001ef2:	6f1b      	ldr	r3, [r3, #112]	@ 0x70
 8001ef4:	4a63      	ldr	r2, [pc, #396]	@ (8002084 <HAL_RCC_OscConfig+0x470>)
 8001ef6:	f043 0301 	orr.w	r3, r3, #1
 8001efa:	6713      	str	r3, [r2, #112]	@ 0x70
 8001efc:	e01c      	b.n	8001f38 <HAL_RCC_OscConfig+0x324>
 8001efe:	687b      	ldr	r3, [r7, #4]
 8001f00:	689b      	ldr	r3, [r3, #8]
 8001f02:	2b05      	cmp	r3, #5
 8001f04:	d10c      	bne.n	8001f20 <HAL_RCC_OscConfig+0x30c>
 8001f06:	4b5f      	ldr	r3, [pc, #380]	@ (8002084 <HAL_RCC_OscConfig+0x470>)
 8001f08:	6f1b      	ldr	r3, [r3, #112]	@ 0x70
 8001f0a:	4a5e      	ldr	r2, [pc, #376]	@ (8002084 <HAL_RCC_OscConfig+0x470>)
 8001f0c:	f043 0304 	orr.w	r3, r3, #4
 8001f10:	6713      	str	r3, [r2, #112]	@ 0x70
 8001f12:	4b5c      	ldr	r3, [pc, #368]	@ (8002084 <HAL_RCC_OscConfig+0x470>)
 8001f14:	6f1b      	ldr	r3, [r3, #112]	@ 0x70
 8001f16:	4a5b      	ldr	r2, [pc, #364]	@ (8002084 <HAL_RCC_OscConfig+0x470>)
 8001f18:	f043 0301 	orr.w	r3, r3, #1
 8001f1c:	6713      	str	r3, [r2, #112]	@ 0x70
 8001f1e:	e00b      	b.n	8001f38 <HAL_RCC_OscConfig+0x324>
 8001f20:	4b58      	ldr	r3, [pc, #352]	@ (8002084 <HAL_RCC_OscConfig+0x470>)
 8001f22:	6f1b      	ldr	r3, [r3, #112]	@ 0x70
 8001f24:	4a57      	ldr	r2, [pc, #348]	@ (8002084 <HAL_RCC_OscConfig+0x470>)
 8001f26:	f023 0301 	bic.w	r3, r3, #1
 8001f2a:	6713      	str	r3, [r2, #112]	@ 0x70
 8001f2c:	4b55      	ldr	r3, [pc, #340]	@ (8002084 <HAL_RCC_OscConfig+0x470>)
 8001f2e:	6f1b      	ldr	r3, [r3, #112]	@ 0x70
 8001f30:	4a54      	ldr	r2, [pc, #336]	@ (8002084 <HAL_RCC_OscConfig+0x470>)
 8001f32:	f023 0304 	bic.w	r3, r3, #4
 8001f36:	6713      	str	r3, [r2, #112]	@ 0x70
    /* Check the LSE State */
    if((RCC_OscInitStruct->LSEState) != RCC_LSE_OFF)
 8001f38:	687b      	ldr	r3, [r7, #4]
 8001f3a:	689b      	ldr	r3, [r3, #8]
 8001f3c:	2b00      	cmp	r3, #0
 8001f3e:	d015      	beq.n	8001f6c <HAL_RCC_OscConfig+0x358>
    {
      /* Get Start Tick*/
      tickstart = HAL_GetTick();
 8001f40:	f7ff faf6 	bl	8001530 <HAL_GetTick>
 8001f44:	6138      	str	r0, [r7, #16]

      /* Wait till LSE is ready */
      while(__HAL_RCC_GET_FLAG(RCC_FLAG_LSERDY) == RESET)
 8001f46:	e00a      	b.n	8001f5e <HAL_RCC_OscConfig+0x34a>
      {
        if((HAL_GetTick() - tickstart ) > RCC_LSE_TIMEOUT_VALUE)
 8001f48:	f7ff faf2 	bl	8001530 <HAL_GetTick>
 8001f4c:	4602      	mov	r2, r0
 8001f4e:	693b      	ldr	r3, [r7, #16]
 8001f50:	1ad3      	subs	r3, r2, r3
 8001f52:	f241 3288 	movw	r2, #5000	@ 0x1388
 8001f56:	4293      	cmp	r3, r2
 8001f58:	d901      	bls.n	8001f5e <HAL_RCC_OscConfig+0x34a>
        {
          return HAL_TIMEOUT;
 8001f5a:	2303      	movs	r3, #3
 8001f5c:	e0cb      	b.n	80020f6 <HAL_RCC_OscConfig+0x4e2>
      while(__HAL_RCC_GET_FLAG(RCC_FLAG_LSERDY) == RESET)
 8001f5e:	4b49      	ldr	r3, [pc, #292]	@ (8002084 <HAL_RCC_OscConfig+0x470>)
 8001f60:	6f1b      	ldr	r3, [r3, #112]	@ 0x70
 8001f62:	f003 0302 	and.w	r3, r3, #2
 8001f66:	2b00      	cmp	r3, #0
 8001f68:	d0ee      	beq.n	8001f48 <HAL_RCC_OscConfig+0x334>
 8001f6a:	e014      	b.n	8001f96 <HAL_RCC_OscConfig+0x382>
      }
    }
    else
    {
      /* Get Start Tick */
      tickstart = HAL_GetTick();
 8001f6c:	f7ff fae0 	bl	8001530 <HAL_GetTick>
 8001f70:	6138      	str	r0, [r7, #16]

      /* Wait till LSE is ready */
      while(__HAL_RCC_GET_FLAG(RCC_FLAG_LSERDY) != RESET)
 8001f72:	e00a      	b.n	8001f8a <HAL_RCC_OscConfig+0x376>
      {
        if((HAL_GetTick() - tickstart ) > RCC_LSE_TIMEOUT_VALUE)
 8001f74:	f7ff fadc 	bl	8001530 <HAL_GetTick>
 8001f78:	4602      	mov	r2, r0
 8001f7a:	693b      	ldr	r3, [r7, #16]
 8001f7c:	1ad3      	subs	r3, r2, r3
 8001f7e:	f241 3288 	movw	r2, #5000	@ 0x1388
 8001f82:	4293      	cmp	r3, r2
 8001f84:	d901      	bls.n	8001f8a <HAL_RCC_OscConfig+0x376>
        {
          return HAL_TIMEOUT;
 8001f86:	2303      	movs	r3, #3
 8001f88:	e0b5      	b.n	80020f6 <HAL_RCC_OscConfig+0x4e2>
      while(__HAL_RCC_GET_FLAG(RCC_FLAG_LSERDY) != RESET)
 8001f8a:	4b3e      	ldr	r3, [pc, #248]	@ (8002084 <HAL_RCC_OscConfig+0x470>)
 8001f8c:	6f1b      	ldr	r3, [r3, #112]	@ 0x70
 8001f8e:	f003 0302 	and.w	r3, r3, #2
 8001f92:	2b00      	cmp	r3, #0
 8001f94:	d1ee      	bne.n	8001f74 <HAL_RCC_OscConfig+0x360>
        }
      }
    }

    /* Restore clock configuration if changed */
    if(pwrclkchanged == SET)
 8001f96:	7dfb      	ldrb	r3, [r7, #23]
 8001f98:	2b01      	cmp	r3, #1
 8001f9a:	d105      	bne.n	8001fa8 <HAL_RCC_OscConfig+0x394>
    {
      __HAL_RCC_PWR_CLK_DISABLE();
 8001f9c:	4b39      	ldr	r3, [pc, #228]	@ (8002084 <HAL_RCC_OscConfig+0x470>)
 8001f9e:	6c1b      	ldr	r3, [r3, #64]	@ 0x40
 8001fa0:	4a38      	ldr	r2, [pc, #224]	@ (8002084 <HAL_RCC_OscConfig+0x470>)
 8001fa2:	f023 5380 	bic.w	r3, r3, #268435456	@ 0x10000000
 8001fa6:	6413      	str	r3, [r2, #64]	@ 0x40
    }
  }
  /*-------------------------------- PLL Configuration -----------------------*/
  /* Check the parameters */
  assert_param(IS_RCC_PLL(RCC_OscInitStruct->PLL.PLLState));
  if ((RCC_OscInitStruct->PLL.PLLState) != RCC_PLL_NONE)
 8001fa8:	687b      	ldr	r3, [r7, #4]
 8001faa:	699b      	ldr	r3, [r3, #24]
 8001fac:	2b00      	cmp	r3, #0
 8001fae:	f000 80a1 	beq.w	80020f4 <HAL_RCC_OscConfig+0x4e0>
  {
    /* Check if the PLL is used as system clock or not */
    if(__HAL_RCC_GET_SYSCLK_SOURCE() != RCC_CFGR_SWS_PLL)
 8001fb2:	4b34      	ldr	r3, [pc, #208]	@ (8002084 <HAL_RCC_OscConfig+0x470>)
 8001fb4:	689b      	ldr	r3, [r3, #8]
 8001fb6:	f003 030c 	and.w	r3, r3, #12
 8001fba:	2b08      	cmp	r3, #8
 8001fbc:	d05c      	beq.n	8002078 <HAL_RCC_OscConfig+0x464>
    {
      if((RCC_OscInitStruct->PLL.PLLState) == RCC_PLL_ON)
 8001fbe:	687b      	ldr	r3, [r7, #4]
 8001fc0:	699b      	ldr	r3, [r3, #24]
 8001fc2:	2b02      	cmp	r3, #2
 8001fc4:	d141      	bne.n	800204a <HAL_RCC_OscConfig+0x436>
        assert_param(IS_RCC_PLLN_VALUE(RCC_OscInitStruct->PLL.PLLN));
        assert_param(IS_RCC_PLLP_VALUE(RCC_OscInitStruct->PLL.PLLP));
        assert_param(IS_RCC_PLLQ_VALUE(RCC_OscInitStruct->PLL.PLLQ));

        /* Disable the main PLL. */
        __HAL_RCC_PLL_DISABLE();
 8001fc6:	4b31      	ldr	r3, [pc, #196]	@ (800208c <HAL_RCC_OscConfig+0x478>)
 8001fc8:	2200      	movs	r2, #0
 8001fca:	601a      	str	r2, [r3, #0]

        /* Get Start Tick */
        tickstart = HAL_GetTick();
 8001fcc:	f7ff fab0 	bl	8001530 <HAL_GetTick>
 8001fd0:	6138      	str	r0, [r7, #16]

        /* Wait till PLL is ready */
        while(__HAL_RCC_GET_FLAG(RCC_FLAG_PLLRDY) != RESET)
 8001fd2:	e008      	b.n	8001fe6 <HAL_RCC_OscConfig+0x3d2>
        {
          if((HAL_GetTick() - tickstart ) > PLL_TIMEOUT_VALUE)
 8001fd4:	f7ff faac 	bl	8001530 <HAL_GetTick>
 8001fd8:	4602      	mov	r2, r0
 8001fda:	693b      	ldr	r3, [r7, #16]
 8001fdc:	1ad3      	subs	r3, r2, r3
 8001fde:	2b02      	cmp	r3, #2
 8001fe0:	d901      	bls.n	8001fe6 <HAL_RCC_OscConfig+0x3d2>
          {
            return HAL_TIMEOUT;
 8001fe2:	2303      	movs	r3, #3
 8001fe4:	e087      	b.n	80020f6 <HAL_RCC_OscConfig+0x4e2>
        while(__HAL_RCC_GET_FLAG(RCC_FLAG_PLLRDY) != RESET)
 8001fe6:	4b27      	ldr	r3, [pc, #156]	@ (8002084 <HAL_RCC_OscConfig+0x470>)
 8001fe8:	681b      	ldr	r3, [r3, #0]
 8001fea:	f003 7300 	and.w	r3, r3, #33554432	@ 0x2000000
 8001fee:	2b00      	cmp	r3, #0
 8001ff0:	d1f0      	bne.n	8001fd4 <HAL_RCC_OscConfig+0x3c0>
          }
        }

        /* Configure the main PLL clock source, multiplication and division factors. */
        WRITE_REG(RCC->PLLCFGR, (RCC_OscInitStruct->PLL.PLLSource                                            | \
 8001ff2:	687b      	ldr	r3, [r7, #4]
 8001ff4:	69da      	ldr	r2, [r3, #28]
 8001ff6:	687b      	ldr	r3, [r7, #4]
 8001ff8:	6a1b      	ldr	r3, [r3, #32]
 8001ffa:	431a      	orrs	r2, r3
 8001ffc:	687b      	ldr	r3, [r7, #4]
 8001ffe:	6a5b      	ldr	r3, [r3, #36]	@ 0x24
 8002000:	019b      	lsls	r3, r3, #6
 8002002:	431a      	orrs	r2, r3
 8002004:	687b      	ldr	r3, [r7, #4]
 8002006:	6a9b      	ldr	r3, [r3, #40]	@ 0x28
 8002008:	085b      	lsrs	r3, r3, #1
 800200a:	3b01      	subs	r3, #1
 800200c:	041b      	lsls	r3, r3, #16
 800200e:	431a      	orrs	r2, r3
 8002010:	687b      	ldr	r3, [r7, #4]
 8002012:	6adb      	ldr	r3, [r3, #44]	@ 0x2c
 8002014:	061b      	lsls	r3, r3, #24
 8002016:	491b      	ldr	r1, [pc, #108]	@ (8002084 <HAL_RCC_OscConfig+0x470>)
 8002018:	4313      	orrs	r3, r2
 800201a:	604b      	str	r3, [r1, #4]
                                 RCC_OscInitStruct->PLL.PLLM                                                 | \
                                 (RCC_OscInitStruct->PLL.PLLN << RCC_PLLCFGR_PLLN_Pos)             | \
                                 (((RCC_OscInitStruct->PLL.PLLP >> 1U) - 1U) << RCC_PLLCFGR_PLLP_Pos) | \
                                 (RCC_OscInitStruct->PLL.PLLQ << RCC_PLLCFGR_PLLQ_Pos)));
        /* Enable the main PLL. */
        __HAL_RCC_PLL_ENABLE();
 800201c:	4b1b      	ldr	r3, [pc, #108]	@ (800208c <HAL_RCC_OscConfig+0x478>)
 800201e:	2201      	movs	r2, #1
 8002020:	601a      	str	r2, [r3, #0]

        /* Get Start Tick */
        tickstart = HAL_GetTick();
 8002022:	f7ff fa85 	bl	8001530 <HAL_GetTick>
 8002026:	6138      	str	r0, [r7, #16]

        /* Wait till PLL is ready */
        while(__HAL_RCC_GET_FLAG(RCC_FLAG_PLLRDY) == RESET)
 8002028:	e008      	b.n	800203c <HAL_RCC_OscConfig+0x428>
        {
          if((HAL_GetTick() - tickstart ) > PLL_TIMEOUT_VALUE)
 800202a:	f7ff fa81 	bl	8001530 <HAL_GetTick>
 800202e:	4602      	mov	r2, r0
 8002030:	693b      	ldr	r3, [r7, #16]
 8002032:	1ad3      	subs	r3, r2, r3
 8002034:	2b02      	cmp	r3, #2
 8002036:	d901      	bls.n	800203c <HAL_RCC_OscConfig+0x428>
          {
            return HAL_TIMEOUT;
 8002038:	2303      	movs	r3, #3
 800203a:	e05c      	b.n	80020f6 <HAL_RCC_OscConfig+0x4e2>
        while(__HAL_RCC_GET_FLAG(RCC_FLAG_PLLRDY) == RESET)
 800203c:	4b11      	ldr	r3, [pc, #68]	@ (8002084 <HAL_RCC_OscConfig+0x470>)
 800203e:	681b      	ldr	r3, [r3, #0]
 8002040:	f003 7300 	and.w	r3, r3, #33554432	@ 0x2000000
 8002044:	2b00      	cmp	r3, #0
 8002046:	d0f0      	beq.n	800202a <HAL_RCC_OscConfig+0x416>
 8002048:	e054      	b.n	80020f4 <HAL_RCC_OscConfig+0x4e0>
        }
      }
      else
      {
        /* Disable the main PLL. */
        __HAL_RCC_PLL_DISABLE();
 800204a:	4b10      	ldr	r3, [pc, #64]	@ (800208c <HAL_RCC_OscConfig+0x478>)
 800204c:	2200      	movs	r2, #0
 800204e:	601a      	str	r2, [r3, #0]

        /* Get Start Tick */
        tickstart = HAL_GetTick();
 8002050:	f7ff fa6e 	bl	8001530 <HAL_GetTick>
 8002054:	6138      	str	r0, [r7, #16]

        /* Wait till PLL is ready */
        while(__HAL_RCC_GET_FLAG(RCC_FLAG_PLLRDY) != RESET)
 8002056:	e008      	b.n	800206a <HAL_RCC_OscConfig+0x456>
        {
          if((HAL_GetTick() - tickstart ) > PLL_TIMEOUT_VALUE)
 8002058:	f7ff fa6a 	bl	8001530 <HAL_GetTick>
 800205c:	4602      	mov	r2, r0
 800205e:	693b      	ldr	r3, [r7, #16]
 8002060:	1ad3      	subs	r3, r2, r3
 8002062:	2b02      	cmp	r3, #2
 8002064:	d901      	bls.n	800206a <HAL_RCC_OscConfig+0x456>
          {
            return HAL_TIMEOUT;
 8002066:	2303      	movs	r3, #3
 8002068:	e045      	b.n	80020f6 <HAL_RCC_OscConfig+0x4e2>
        while(__HAL_RCC_GET_FLAG(RCC_FLAG_PLLRDY) != RESET)
 800206a:	4b06      	ldr	r3, [pc, #24]	@ (8002084 <HAL_RCC_OscConfig+0x470>)
 800206c:	681b      	ldr	r3, [r3, #0]
 800206e:	f003 7300 	and.w	r3, r3, #33554432	@ 0x2000000
 8002072:	2b00      	cmp	r3, #0
 8002074:	d1f0      	bne.n	8002058 <HAL_RCC_OscConfig+0x444>
 8002076:	e03d      	b.n	80020f4 <HAL_RCC_OscConfig+0x4e0>
      }
    }
    else
    {
      /* Check if there is a request to disable the PLL used as System clock source */
      if((RCC_OscInitStruct->PLL.PLLState) == RCC_PLL_OFF)
 8002078:	687b      	ldr	r3, [r7, #4]
 800207a:	699b      	ldr	r3, [r3, #24]
 800207c:	2b01      	cmp	r3, #1
 800207e:	d107      	bne.n	8002090 <HAL_RCC_OscConfig+0x47c>
      {
        return HAL_ERROR;
 8002080:	2301      	movs	r3, #1
 8002082:	e038      	b.n	80020f6 <HAL_RCC_OscConfig+0x4e2>
 8002084:	40023800 	.word	0x40023800
 8002088:	40007000 	.word	0x40007000
 800208c:	42470060 	.word	0x42470060
      }
      else
      {
        /* Do not return HAL_ERROR if request repeats the current configuration */
        pll_config = RCC->PLLCFGR;
 8002090:	4b1b      	ldr	r3, [pc, #108]	@ (8002100 <HAL_RCC_OscConfig+0x4ec>)
 8002092:	685b      	ldr	r3, [r3, #4]
 8002094:	60fb      	str	r3, [r7, #12]
            (READ_BIT(pll_config, RCC_PLLCFGR_PLLN) != (RCC_OscInitStruct->PLL.PLLN) << RCC_PLLCFGR_PLLN_Pos) ||
            (READ_BIT(pll_config, RCC_PLLCFGR_PLLP) != (((RCC_OscInitStruct->PLL.PLLP >> 1U) - 1U)) << RCC_PLLCFGR_PLLP_Pos) ||
            (READ_BIT(pll_config, RCC_PLLCFGR_PLLQ) != (RCC_OscInitStruct->PLL.PLLQ << RCC_PLLCFGR_PLLQ_Pos)) ||
            (READ_BIT(pll_config, RCC_PLLCFGR_PLLR) != (RCC_OscInitStruct->PLL.PLLR << RCC_PLLCFGR_PLLR_Pos)))
#else
        if (((RCC_OscInitStruct->PLL.PLLState) == RCC_PLL_OFF) ||
 8002096:	687b      	ldr	r3, [r7, #4]
 8002098:	699b      	ldr	r3, [r3, #24]
 800209a:	2b01      	cmp	r3, #1
 800209c:	d028      	beq.n	80020f0 <HAL_RCC_OscConfig+0x4dc>
            (READ_BIT(pll_config, RCC_PLLCFGR_PLLSRC) != RCC_OscInitStruct->PLL.PLLSource) ||
 800209e:	68fb      	ldr	r3, [r7, #12]
 80020a0:	f403 0280 	and.w	r2, r3, #4194304	@ 0x400000
 80020a4:	687b      	ldr	r3, [r7, #4]
 80020a6:	69db      	ldr	r3, [r3, #28]
        if (((RCC_OscInitStruct->PLL.PLLState) == RCC_PLL_OFF) ||
 80020a8:	429a      	cmp	r2, r3
 80020aa:	d121      	bne.n	80020f0 <HAL_RCC_OscConfig+0x4dc>
            (READ_BIT(pll_config, RCC_PLLCFGR_PLLM) != (RCC_OscInitStruct->PLL.PLLM) << RCC_PLLCFGR_PLLM_Pos) ||
 80020ac:	68fb      	ldr	r3, [r7, #12]
 80020ae:	f003 023f 	and.w	r2, r3, #63	@ 0x3f
 80020b2:	687b      	ldr	r3, [r7, #4]
 80020b4:	6a1b      	ldr	r3, [r3, #32]
            (READ_BIT(pll_config, RCC_PLLCFGR_PLLSRC) != RCC_OscInitStruct->PLL.PLLSource) ||
 80020b6:	429a      	cmp	r2, r3
 80020b8:	d11a      	bne.n	80020f0 <HAL_RCC_OscConfig+0x4dc>
            (READ_BIT(pll_config, RCC_PLLCFGR_PLLN) != (RCC_OscInitStruct->PLL.PLLN) << RCC_PLLCFGR_PLLN_Pos) ||
 80020ba:	68fa      	ldr	r2, [r7, #12]
 80020bc:	f647 73c0 	movw	r3, #32704	@ 0x7fc0
 80020c0:	4013      	ands	r3, r2
 80020c2:	687a      	ldr	r2, [r7, #4]
 80020c4:	6a52      	ldr	r2, [r2, #36]	@ 0x24
 80020c6:	0192      	lsls	r2, r2, #6
            (READ_BIT(pll_config, RCC_PLLCFGR_PLLM) != (RCC_OscInitStruct->PLL.PLLM) << RCC_PLLCFGR_PLLM_Pos) ||
 80020c8:	4293      	cmp	r3, r2
 80020ca:	d111      	bne.n	80020f0 <HAL_RCC_OscConfig+0x4dc>
            (READ_BIT(pll_config, RCC_PLLCFGR_PLLP) != (((RCC_OscInitStruct->PLL.PLLP >> 1U) - 1U)) << RCC_PLLCFGR_PLLP_Pos) ||
 80020cc:	68fb      	ldr	r3, [r7, #12]
 80020ce:	f403 3240 	and.w	r2, r3, #196608	@ 0x30000
 80020d2:	687b      	ldr	r3, [r7, #4]
 80020d4:	6a9b      	ldr	r3, [r3, #40]	@ 0x28
 80020d6:	085b      	lsrs	r3, r3, #1
 80020d8:	3b01      	subs	r3, #1
 80020da:	041b      	lsls	r3, r3, #16
            (READ_BIT(pll_config, RCC_PLLCFGR_PLLN) != (RCC_OscInitStruct->PLL.PLLN) << RCC_PLLCFGR_PLLN_Pos) ||
 80020dc:	429a      	cmp	r2, r3
 80020de:	d107      	bne.n	80020f0 <HAL_RCC_OscConfig+0x4dc>
            (READ_BIT(pll_config, RCC_PLLCFGR_PLLQ) != (RCC_OscInitStruct->PLL.PLLQ << RCC_PLLCFGR_PLLQ_Pos)))
 80020e0:	68fb      	ldr	r3, [r7, #12]
 80020e2:	f003 6270 	and.w	r2, r3, #251658240	@ 0xf000000
 80020e6:	687b      	ldr	r3, [r7, #4]
 80020e8:	6adb      	ldr	r3, [r3, #44]	@ 0x2c
 80020ea:	061b      	lsls	r3, r3, #24
            (READ_BIT(pll_config, RCC_PLLCFGR_PLLP) != (((RCC_OscInitStruct->PLL.PLLP >> 1U) - 1U)) << RCC_PLLCFGR_PLLP_Pos) ||
 80020ec:	429a      	cmp	r2, r3
 80020ee:	d001      	beq.n	80020f4 <HAL_RCC_OscConfig+0x4e0>
#endif
        {
          return HAL_ERROR;
 80020f0:	2301      	movs	r3, #1
 80020f2:	e000      	b.n	80020f6 <HAL_RCC_OscConfig+0x4e2>
        }
      }
    }
  }
  return HAL_OK;
 80020f4:	2300      	movs	r3, #0
}
 80020f6:	4618      	mov	r0, r3
 80020f8:	3718      	adds	r7, #24
 80020fa:	46bd      	mov	sp, r7
 80020fc:	bd80      	pop	{r7, pc}
 80020fe:	bf00      	nop
 8002100:	40023800 	.word	0x40023800

08002104 <HAL_RCC_ClockConfig>:
  *         HPRE[3:0] bits to ensure that HCLK not exceed the maximum allowed frequency
  *         (for more details refer to section above "Initialization/de-initialization functions")
  * @retval None
  */
HAL_StatusTypeDef HAL_RCC_ClockConfig(RCC_ClkInitTypeDef  *RCC_ClkInitStruct, uint32_t FLatency)
{
 8002104:	b580      	push	{r7, lr}
 8002106:	b084      	sub	sp, #16
 8002108:	af00      	add	r7, sp, #0
 800210a:	6078      	str	r0, [r7, #4]
 800210c:	6039      	str	r1, [r7, #0]
  uint32_t tickstart;

  /* Check Null pointer */
  if(RCC_ClkInitStruct == NULL)
 800210e:	687b      	ldr	r3, [r7, #4]
 8002110:	2b00      	cmp	r3, #0
 8002112:	d101      	bne.n	8002118 <HAL_RCC_ClockConfig+0x14>
  {
    return HAL_ERROR;
 8002114:	2301      	movs	r3, #1
 8002116:	e0cc      	b.n	80022b2 <HAL_RCC_ClockConfig+0x1ae>
  /* To correctly read data from FLASH memory, the number of wait states (LATENCY)
    must be correctly programmed according to the frequency of the CPU clock
    (HCLK) and the supply voltage of the device. */

  /* Increasing the number of wait states because of higher CPU frequency */
  if(FLatency > __HAL_FLASH_GET_LATENCY())
 8002118:	4b68      	ldr	r3, [pc, #416]	@ (80022bc <HAL_RCC_ClockConfig+0x1b8>)
 800211a:	681b      	ldr	r3, [r3, #0]
 800211c:	f003 0307 	and.w	r3, r3, #7
 8002120:	683a      	ldr	r2, [r7, #0]
 8002122:	429a      	cmp	r2, r3
 8002124:	d90c      	bls.n	8002140 <HAL_RCC_ClockConfig+0x3c>
  {
    /* Program the new number of wait states to the LATENCY bits in the FLASH_ACR register */
    __HAL_FLASH_SET_LATENCY(FLatency);
 8002126:	4b65      	ldr	r3, [pc, #404]	@ (80022bc <HAL_RCC_ClockConfig+0x1b8>)
 8002128:	683a      	ldr	r2, [r7, #0]
 800212a:	b2d2      	uxtb	r2, r2
 800212c:	701a      	strb	r2, [r3, #0]

    /* Check that the new number of wait states is taken into account to access the Flash
    memory by reading the FLASH_ACR register */
    if(__HAL_FLASH_GET_LATENCY() != FLatency)
 800212e:	4b63      	ldr	r3, [pc, #396]	@ (80022bc <HAL_RCC_ClockConfig+0x1b8>)
 8002130:	681b      	ldr	r3, [r3, #0]
 8002132:	f003 0307 	and.w	r3, r3, #7
 8002136:	683a      	ldr	r2, [r7, #0]
 8002138:	429a      	cmp	r2, r3
 800213a:	d001      	beq.n	8002140 <HAL_RCC_ClockConfig+0x3c>
    {
      return HAL_ERROR;
 800213c:	2301      	movs	r3, #1
 800213e:	e0b8      	b.n	80022b2 <HAL_RCC_ClockConfig+0x1ae>
    }
  }

  /*-------------------------- HCLK Configuration --------------------------*/
  if(((RCC_ClkInitStruct->ClockType) & RCC_CLOCKTYPE_HCLK) == RCC_CLOCKTYPE_HCLK)
 8002140:	687b      	ldr	r3, [r7, #4]
 8002142:	681b      	ldr	r3, [r3, #0]
 8002144:	f003 0302 	and.w	r3, r3, #2
 8002148:	2b00      	cmp	r3, #0
 800214a:	d020      	beq.n	800218e <HAL_RCC_ClockConfig+0x8a>
  {
    /* Set the highest APBx dividers in order to ensure that we do not go through
       a non-spec phase whatever we decrease or increase HCLK. */
    if(((RCC_ClkInitStruct->ClockType) & RCC_CLOCKTYPE_PCLK1) == RCC_CLOCKTYPE_PCLK1)
 800214c:	687b      	ldr	r3, [r7, #4]
 800214e:	681b      	ldr	r3, [r3, #0]
 8002150:	f003 0304 	and.w	r3, r3, #4
 8002154:	2b00      	cmp	r3, #0
 8002156:	d005      	beq.n	8002164 <HAL_RCC_ClockConfig+0x60>
    {
      MODIFY_REG(RCC->CFGR, RCC_CFGR_PPRE1, RCC_HCLK_DIV16);
 8002158:	4b59      	ldr	r3, [pc, #356]	@ (80022c0 <HAL_RCC_ClockConfig+0x1bc>)
 800215a:	689b      	ldr	r3, [r3, #8]
 800215c:	4a58      	ldr	r2, [pc, #352]	@ (80022c0 <HAL_RCC_ClockConfig+0x1bc>)
 800215e:	f443 53e0 	orr.w	r3, r3, #7168	@ 0x1c00
 8002162:	6093      	str	r3, [r2, #8]
    }

    if(((RCC_ClkInitStruct->ClockType) & RCC_CLOCKTYPE_PCLK2) == RCC_CLOCKTYPE_PCLK2)
 8002164:	687b      	ldr	r3, [r7, #4]
 8002166:	681b      	ldr	r3, [r3, #0]
 8002168:	f003 0308 	and.w	r3, r3, #8
 800216c:	2b00      	cmp	r3, #0
 800216e:	d005      	beq.n	800217c <HAL_RCC_ClockConfig+0x78>
    {
      MODIFY_REG(RCC->CFGR, RCC_CFGR_PPRE2, (RCC_HCLK_DIV16 << 3));
 8002170:	4b53      	ldr	r3, [pc, #332]	@ (80022c0 <HAL_RCC_ClockConfig+0x1bc>)
 8002172:	689b      	ldr	r3, [r3, #8]
 8002174:	4a52      	ldr	r2, [pc, #328]	@ (80022c0 <HAL_RCC_ClockConfig+0x1bc>)
 8002176:	f443 4360 	orr.w	r3, r3, #57344	@ 0xe000
 800217a:	6093      	str	r3, [r2, #8]
    }

    assert_param(IS_RCC_HCLK(RCC_ClkInitStruct->AHBCLKDivider));
    MODIFY_REG(RCC->CFGR, RCC_CFGR_HPRE, RCC_ClkInitStruct->AHBCLKDivider);
 800217c:	4b50      	ldr	r3, [pc, #320]	@ (80022c0 <HAL_RCC_ClockConfig+0x1bc>)
 800217e:	689b      	ldr	r3, [r3, #8]
 8002180:	f023 02f0 	bic.w	r2, r3, #240	@ 0xf0
 8002184:	687b      	ldr	r3, [r7, #4]
 8002186:	689b      	ldr	r3, [r3, #8]
 8002188:	494d      	ldr	r1, [pc, #308]	@ (80022c0 <HAL_RCC_ClockConfig+0x1bc>)
 800218a:	4313      	orrs	r3, r2
 800218c:	608b      	str	r3, [r1, #8]
  }

  /*------------------------- SYSCLK Configuration ---------------------------*/
  if(((RCC_ClkInitStruct->ClockType) & RCC_CLOCKTYPE_SYSCLK) == RCC_CLOCKTYPE_SYSCLK)
 800218e:	687b      	ldr	r3, [r7, #4]
 8002190:	681b      	ldr	r3, [r3, #0]
 8002192:	f003 0301 	and.w	r3, r3, #1
 8002196:	2b00      	cmp	r3, #0
 8002198:	d044      	beq.n	8002224 <HAL_RCC_ClockConfig+0x120>
  {
    assert_param(IS_RCC_SYSCLKSOURCE(RCC_ClkInitStruct->SYSCLKSource));

    /* HSE is selected as System Clock Source */
    if(RCC_ClkInitStruct->SYSCLKSource == RCC_SYSCLKSOURCE_HSE)
 800219a:	687b      	ldr	r3, [r7, #4]
 800219c:	685b      	ldr	r3, [r3, #4]
 800219e:	2b01      	cmp	r3, #1
 80021a0:	d107      	bne.n	80021b2 <HAL_RCC_ClockConfig+0xae>
    {
      /* Check the HSE ready flag */
      if(__HAL_RCC_GET_FLAG(RCC_FLAG_HSERDY) == RESET)
 80021a2:	4b47      	ldr	r3, [pc, #284]	@ (80022c0 <HAL_RCC_ClockConfig+0x1bc>)
 80021a4:	681b      	ldr	r3, [r3, #0]
 80021a6:	f403 3300 	and.w	r3, r3, #131072	@ 0x20000
 80021aa:	2b00      	cmp	r3, #0
 80021ac:	d119      	bne.n	80021e2 <HAL_RCC_ClockConfig+0xde>
      {
        return HAL_ERROR;
 80021ae:	2301      	movs	r3, #1
 80021b0:	e07f      	b.n	80022b2 <HAL_RCC_ClockConfig+0x1ae>
      }
    }
    /* PLL is selected as System Clock Source */
    else if((RCC_ClkInitStruct->SYSCLKSource == RCC_SYSCLKSOURCE_PLLCLK)   ||
 80021b2:	687b      	ldr	r3, [r7, #4]
 80021b4:	685b      	ldr	r3, [r3, #4]
 80021b6:	2b02      	cmp	r3, #2
 80021b8:	d003      	beq.n	80021c2 <HAL_RCC_ClockConfig+0xbe>
            (RCC_ClkInitStruct->SYSCLKSource == RCC_SYSCLKSOURCE_PLLRCLK))
 80021ba:	687b      	ldr	r3, [r7, #4]
 80021bc:	685b      	ldr	r3, [r3, #4]
    else if((RCC_ClkInitStruct->SYSCLKSource == RCC_SYSCLKSOURCE_PLLCLK)   ||
 80021be:	2b03      	cmp	r3, #3
 80021c0:	d107      	bne.n	80021d2 <HAL_RCC_ClockConfig+0xce>
    {
      /* Check the PLL ready flag */
      if(__HAL_RCC_GET_FLAG(RCC_FLAG_PLLRDY) == RESET)
 80021c2:	4b3f      	ldr	r3, [pc, #252]	@ (80022c0 <HAL_RCC_ClockConfig+0x1bc>)
 80021c4:	681b      	ldr	r3, [r3, #0]
 80021c6:	f003 7300 	and.w	r3, r3, #33554432	@ 0x2000000
 80021ca:	2b00      	cmp	r3, #0
 80021cc:	d109      	bne.n	80021e2 <HAL_RCC_ClockConfig+0xde>
      {
        return HAL_ERROR;
 80021ce:	2301      	movs	r3, #1
 80021d0:	e06f      	b.n	80022b2 <HAL_RCC_ClockConfig+0x1ae>
    }
    /* HSI is selected as System Clock Source */
    else
    {
      /* Check the HSI ready flag */
      if(__HAL_RCC_GET_FLAG(RCC_FLAG_HSIRDY) == RESET)
 80021d2:	4b3b      	ldr	r3, [pc, #236]	@ (80022c0 <HAL_RCC_ClockConfig+0x1bc>)
 80021d4:	681b      	ldr	r3, [r3, #0]
 80021d6:	f003 0302 	and.w	r3, r3, #2
 80021da:	2b00      	cmp	r3, #0
 80021dc:	d101      	bne.n	80021e2 <HAL_RCC_ClockConfig+0xde>
      {
        return HAL_ERROR;
 80021de:	2301      	movs	r3, #1
 80021e0:	e067      	b.n	80022b2 <HAL_RCC_ClockConfig+0x1ae>
      }
    }

    __HAL_RCC_SYSCLK_CONFIG(RCC_ClkInitStruct->SYSCLKSource);
 80021e2:	4b37      	ldr	r3, [pc, #220]	@ (80022c0 <HAL_RCC_ClockConfig+0x1bc>)
 80021e4:	689b      	ldr	r3, [r3, #8]
 80021e6:	f023 0203 	bic.w	r2, r3, #3
 80021ea:	687b      	ldr	r3, [r7, #4]
 80021ec:	685b      	ldr	r3, [r3, #4]
 80021ee:	4934      	ldr	r1, [pc, #208]	@ (80022c0 <HAL_RCC_ClockConfig+0x1bc>)
 80021f0:	4313      	orrs	r3, r2
 80021f2:	608b      	str	r3, [r1, #8]

    /* Get Start Tick */
    tickstart = HAL_GetTick();
 80021f4:	f7ff f99c 	bl	8001530 <HAL_GetTick>
 80021f8:	60f8      	str	r0, [r7, #12]

    while (__HAL_RCC_GET_SYSCLK_SOURCE() != (RCC_ClkInitStruct->SYSCLKSource << RCC_CFGR_SWS_Pos))
 80021fa:	e00a      	b.n	8002212 <HAL_RCC_ClockConfig+0x10e>
    {
      if ((HAL_GetTick() - tickstart) > CLOCKSWITCH_TIMEOUT_VALUE)
 80021fc:	f7ff f998 	bl	8001530 <HAL_GetTick>
 8002200:	4602      	mov	r2, r0
 8002202:	68fb      	ldr	r3, [r7, #12]
 8002204:	1ad3      	subs	r3, r2, r3
 8002206:	f241 3288 	movw	r2, #5000	@ 0x1388
 800220a:	4293      	cmp	r3, r2
 800220c:	d901      	bls.n	8002212 <HAL_RCC_ClockConfig+0x10e>
      {
        return HAL_TIMEOUT;
 800220e:	2303      	movs	r3, #3
 8002210:	e04f      	b.n	80022b2 <HAL_RCC_ClockConfig+0x1ae>
    while (__HAL_RCC_GET_SYSCLK_SOURCE() != (RCC_ClkInitStruct->SYSCLKSource << RCC_CFGR_SWS_Pos))
 8002212:	4b2b      	ldr	r3, [pc, #172]	@ (80022c0 <HAL_RCC_ClockConfig+0x1bc>)
 8002214:	689b      	ldr	r3, [r3, #8]
 8002216:	f003 020c 	and.w	r2, r3, #12
 800221a:	687b      	ldr	r3, [r7, #4]
 800221c:	685b      	ldr	r3, [r3, #4]
 800221e:	009b      	lsls	r3, r3, #2
 8002220:	429a      	cmp	r2, r3
 8002222:	d1eb      	bne.n	80021fc <HAL_RCC_ClockConfig+0xf8>
      }
    }
  }

  /* Decreasing the number of wait states because of lower CPU frequency */
  if(FLatency < __HAL_FLASH_GET_LATENCY())
 8002224:	4b25      	ldr	r3, [pc, #148]	@ (80022bc <HAL_RCC_ClockConfig+0x1b8>)
 8002226:	681b      	ldr	r3, [r3, #0]
 8002228:	f003 0307 	and.w	r3, r3, #7
 800222c:	683a      	ldr	r2, [r7, #0]
 800222e:	429a      	cmp	r2, r3
 8002230:	d20c      	bcs.n	800224c <HAL_RCC_ClockConfig+0x148>
  {
     /* Program the new number of wait states to the LATENCY bits in the FLASH_ACR register */
    __HAL_FLASH_SET_LATENCY(FLatency);
 8002232:	4b22      	ldr	r3, [pc, #136]	@ (80022bc <HAL_RCC_ClockConfig+0x1b8>)
 8002234:	683a      	ldr	r2, [r7, #0]
 8002236:	b2d2      	uxtb	r2, r2
 8002238:	701a      	strb	r2, [r3, #0]

    /* Check that the new number of wait states is taken into account to access the Flash
    memory by reading the FLASH_ACR register */
    if(__HAL_FLASH_GET_LATENCY() != FLatency)
 800223a:	4b20      	ldr	r3, [pc, #128]	@ (80022bc <HAL_RCC_ClockConfig+0x1b8>)
 800223c:	681b      	ldr	r3, [r3, #0]
 800223e:	f003 0307 	and.w	r3, r3, #7
 8002242:	683a      	ldr	r2, [r7, #0]
 8002244:	429a      	cmp	r2, r3
 8002246:	d001      	beq.n	800224c <HAL_RCC_ClockConfig+0x148>
    {
      return HAL_ERROR;
 8002248:	2301      	movs	r3, #1
 800224a:	e032      	b.n	80022b2 <HAL_RCC_ClockConfig+0x1ae>
    }
  }

  /*-------------------------- PCLK1 Configuration ---------------------------*/
  if(((RCC_ClkInitStruct->ClockType) & RCC_CLOCKTYPE_PCLK1) == RCC_CLOCKTYPE_PCLK1)
 800224c:	687b      	ldr	r3, [r7, #4]
 800224e:	681b      	ldr	r3, [r3, #0]
 8002250:	f003 0304 	and.w	r3, r3, #4
 8002254:	2b00      	cmp	r3, #0
 8002256:	d008      	beq.n	800226a <HAL_RCC_ClockConfig+0x166>
  {
    assert_param(IS_RCC_PCLK(RCC_ClkInitStruct->APB1CLKDivider));
    MODIFY_REG(RCC->CFGR, RCC_CFGR_PPRE1, RCC_ClkInitStruct->APB1CLKDivider);
 8002258:	4b19      	ldr	r3, [pc, #100]	@ (80022c0 <HAL_RCC_ClockConfig+0x1bc>)
 800225a:	689b      	ldr	r3, [r3, #8]
 800225c:	f423 52e0 	bic.w	r2, r3, #7168	@ 0x1c00
 8002260:	687b      	ldr	r3, [r7, #4]
 8002262:	68db      	ldr	r3, [r3, #12]
 8002264:	4916      	ldr	r1, [pc, #88]	@ (80022c0 <HAL_RCC_ClockConfig+0x1bc>)
 8002266:	4313      	orrs	r3, r2
 8002268:	608b      	str	r3, [r1, #8]
  }

  /*-------------------------- PCLK2 Configuration ---------------------------*/
  if(((RCC_ClkInitStruct->ClockType) & RCC_CLOCKTYPE_PCLK2) == RCC_CLOCKTYPE_PCLK2)
 800226a:	687b      	ldr	r3, [r7, #4]
 800226c:	681b      	ldr	r3, [r3, #0]
 800226e:	f003 0308 	and.w	r3, r3, #8
 8002272:	2b00      	cmp	r3, #0
 8002274:	d009      	beq.n	800228a <HAL_RCC_ClockConfig+0x186>
  {
    assert_param(IS_RCC_PCLK(RCC_ClkInitStruct->APB2CLKDivider));
    MODIFY_REG(RCC->CFGR, RCC_CFGR_PPRE2, ((RCC_ClkInitStruct->APB2CLKDivider) << 3U));
 8002276:	4b12      	ldr	r3, [pc, #72]	@ (80022c0 <HAL_RCC_ClockConfig+0x1bc>)
 8002278:	689b      	ldr	r3, [r3, #8]
 800227a:	f423 4260 	bic.w	r2, r3, #57344	@ 0xe000
 800227e:	687b      	ldr	r3, [r7, #4]
 8002280:	691b      	ldr	r3, [r3, #16]
 8002282:	00db      	lsls	r3, r3, #3
 8002284:	490e      	ldr	r1, [pc, #56]	@ (80022c0 <HAL_RCC_ClockConfig+0x1bc>)
 8002286:	4313      	orrs	r3, r2
 8002288:	608b      	str	r3, [r1, #8]
  }

  /* Update the SystemCoreClock global variable */
  SystemCoreClock = HAL_RCC_GetSysClockFreq() >> AHBPrescTable[(RCC->CFGR & RCC_CFGR_HPRE)>> RCC_CFGR_HPRE_Pos];
 800228a:	f000 f821 	bl	80022d0 <HAL_RCC_GetSysClockFreq>
 800228e:	4602      	mov	r2, r0
 8002290:	4b0b      	ldr	r3, [pc, #44]	@ (80022c0 <HAL_RCC_ClockConfig+0x1bc>)
 8002292:	689b      	ldr	r3, [r3, #8]
 8002294:	091b      	lsrs	r3, r3, #4
 8002296:	f003 030f 	and.w	r3, r3, #15
 800229a:	490a      	ldr	r1, [pc, #40]	@ (80022c4 <HAL_RCC_ClockConfig+0x1c0>)
 800229c:	5ccb      	ldrb	r3, [r1, r3]
 800229e:	fa22 f303 	lsr.w	r3, r2, r3
 80022a2:	4a09      	ldr	r2, [pc, #36]	@ (80022c8 <HAL_RCC_ClockConfig+0x1c4>)
 80022a4:	6013      	str	r3, [r2, #0]

  /* Configure the source of time base considering new system clocks settings */
  HAL_InitTick (uwTickPrio);
 80022a6:	4b09      	ldr	r3, [pc, #36]	@ (80022cc <HAL_RCC_ClockConfig+0x1c8>)
 80022a8:	681b      	ldr	r3, [r3, #0]
 80022aa:	4618      	mov	r0, r3
 80022ac:	f7ff f8fc 	bl	80014a8 <HAL_InitTick>

  return HAL_OK;
 80022b0:	2300      	movs	r3, #0
}
 80022b2:	4618      	mov	r0, r3
 80022b4:	3710      	adds	r7, #16
 80022b6:	46bd      	mov	sp, r7
 80022b8:	bd80      	pop	{r7, pc}
 80022ba:	bf00      	nop
 80022bc:	40023c00 	.word	0x40023c00
 80022c0:	40023800 	.word	0x40023800
 80022c4:	08003804 	.word	0x08003804
 80022c8:	20000084 	.word	0x20000084
 80022cc:	20000088 	.word	0x20000088

080022d0 <HAL_RCC_GetSysClockFreq>:
  *
  *
  * @retval SYSCLK frequency
  */
__weak uint32_t HAL_RCC_GetSysClockFreq(void)
{
 80022d0:	e92d 4fb0 	stmdb	sp!, {r4, r5, r7, r8, r9, sl, fp, lr}
 80022d4:	b094      	sub	sp, #80	@ 0x50
 80022d6:	af00      	add	r7, sp, #0
  uint32_t pllm = 0U, pllvco = 0U, pllp = 0U;
 80022d8:	2300      	movs	r3, #0
 80022da:	647b      	str	r3, [r7, #68]	@ 0x44
 80022dc:	2300      	movs	r3, #0
 80022de:	64fb      	str	r3, [r7, #76]	@ 0x4c
 80022e0:	2300      	movs	r3, #0
 80022e2:	643b      	str	r3, [r7, #64]	@ 0x40
  uint32_t sysclockfreq = 0U;
 80022e4:	2300      	movs	r3, #0
 80022e6:	64bb      	str	r3, [r7, #72]	@ 0x48

  /* Get SYSCLK source -------------------------------------------------------*/
  switch (RCC->CFGR & RCC_CFGR_SWS)
 80022e8:	4b79      	ldr	r3, [pc, #484]	@ (80024d0 <HAL_RCC_GetSysClockFreq+0x200>)
 80022ea:	689b      	ldr	r3, [r3, #8]
 80022ec:	f003 030c 	and.w	r3, r3, #12
 80022f0:	2b08      	cmp	r3, #8
 80022f2:	d00d      	beq.n	8002310 <HAL_RCC_GetSysClockFreq+0x40>
 80022f4:	2b08      	cmp	r3, #8
 80022f6:	f200 80e1 	bhi.w	80024bc <HAL_RCC_GetSysClockFreq+0x1ec>
 80022fa:	2b00      	cmp	r3, #0
 80022fc:	d002      	beq.n	8002304 <HAL_RCC_GetSysClockFreq+0x34>
 80022fe:	2b04      	cmp	r3, #4
 8002300:	d003      	beq.n	800230a <HAL_RCC_GetSysClockFreq+0x3a>
 8002302:	e0db      	b.n	80024bc <HAL_RCC_GetSysClockFreq+0x1ec>
  {
    case RCC_CFGR_SWS_HSI:  /* HSI used as system clock source */
    {
      sysclockfreq = HSI_VALUE;
 8002304:	4b73      	ldr	r3, [pc, #460]	@ (80024d4 <HAL_RCC_GetSysClockFreq+0x204>)
 8002306:	64bb      	str	r3, [r7, #72]	@ 0x48
       break;
 8002308:	e0db      	b.n	80024c2 <HAL_RCC_GetSysClockFreq+0x1f2>
    }
    case RCC_CFGR_SWS_HSE:  /* HSE used as system clock  source */
    {
      sysclockfreq = HSE_VALUE;
 800230a:	4b73      	ldr	r3, [pc, #460]	@ (80024d8 <HAL_RCC_GetSysClockFreq+0x208>)
 800230c:	64bb      	str	r3, [r7, #72]	@ 0x48
      break;
 800230e:	e0d8      	b.n	80024c2 <HAL_RCC_GetSysClockFreq+0x1f2>
    }
    case RCC_CFGR_SWS_PLL:  /* PLL used as system clock  source */
    {
      /* PLL_VCO = (HSE_VALUE or HSI_VALUE / PLLM) * PLLN
      SYSCLK = PLL_VCO / PLLP */
      pllm = RCC->PLLCFGR & RCC_PLLCFGR_PLLM;
 8002310:	4b6f      	ldr	r3, [pc, #444]	@ (80024d0 <HAL_RCC_GetSysClockFreq+0x200>)
 8002312:	685b      	ldr	r3, [r3, #4]
 8002314:	f003 033f 	and.w	r3, r3, #63	@ 0x3f
 8002318:	647b      	str	r3, [r7, #68]	@ 0x44
      if(__HAL_RCC_GET_PLL_OSCSOURCE() != RCC_PLLSOURCE_HSI)
 800231a:	4b6d      	ldr	r3, [pc, #436]	@ (80024d0 <HAL_RCC_GetSysClockFreq+0x200>)
 800231c:	685b      	ldr	r3, [r3, #4]
 800231e:	f403 0380 	and.w	r3, r3, #4194304	@ 0x400000
 8002322:	2b00      	cmp	r3, #0
 8002324:	d063      	beq.n	80023ee <HAL_RCC_GetSysClockFreq+0x11e>
      {
        /* HSE used as PLL clock source */
        pllvco = (uint32_t) ((((uint64_t) HSE_VALUE * ((uint64_t) ((RCC->PLLCFGR & RCC_PLLCFGR_PLLN) >> RCC_PLLCFGR_PLLN_Pos)))) / (uint64_t)pllm);
 8002326:	4b6a      	ldr	r3, [pc, #424]	@ (80024d0 <HAL_RCC_GetSysClockFreq+0x200>)
 8002328:	685b      	ldr	r3, [r3, #4]
 800232a:	099b      	lsrs	r3, r3, #6
 800232c:	2200      	movs	r2, #0
 800232e:	63bb      	str	r3, [r7, #56]	@ 0x38
 8002330:	63fa      	str	r2, [r7, #60]	@ 0x3c
 8002332:	6bbb      	ldr	r3, [r7, #56]	@ 0x38
 8002334:	f3c3 0308 	ubfx	r3, r3, #0, #9
 8002338:	633b      	str	r3, [r7, #48]	@ 0x30
 800233a:	2300      	movs	r3, #0
 800233c:	637b      	str	r3, [r7, #52]	@ 0x34
 800233e:	e9d7 450c 	ldrd	r4, r5, [r7, #48]	@ 0x30
 8002342:	4622      	mov	r2, r4
 8002344:	462b      	mov	r3, r5
 8002346:	f04f 0000 	mov.w	r0, #0
 800234a:	f04f 0100 	mov.w	r1, #0
 800234e:	0159      	lsls	r1, r3, #5
 8002350:	ea41 61d2 	orr.w	r1, r1, r2, lsr #27
 8002354:	0150      	lsls	r0, r2, #5
 8002356:	4602      	mov	r2, r0
 8002358:	460b      	mov	r3, r1
 800235a:	4621      	mov	r1, r4
 800235c:	1a51      	subs	r1, r2, r1
 800235e:	6139      	str	r1, [r7, #16]
 8002360:	4629      	mov	r1, r5
 8002362:	eb63 0301 	sbc.w	r3, r3, r1
 8002366:	617b      	str	r3, [r7, #20]
 8002368:	f04f 0200 	mov.w	r2, #0
 800236c:	f04f 0300 	mov.w	r3, #0
 8002370:	e9d7 ab04 	ldrd	sl, fp, [r7, #16]
 8002374:	4659      	mov	r1, fp
 8002376:	018b      	lsls	r3, r1, #6
 8002378:	4651      	mov	r1, sl
 800237a:	ea43 6391 	orr.w	r3, r3, r1, lsr #26
 800237e:	4651      	mov	r1, sl
 8002380:	018a      	lsls	r2, r1, #6
 8002382:	4651      	mov	r1, sl
 8002384:	ebb2 0801 	subs.w	r8, r2, r1
 8002388:	4659      	mov	r1, fp
 800238a:	eb63 0901 	sbc.w	r9, r3, r1
 800238e:	f04f 0200 	mov.w	r2, #0
 8002392:	f04f 0300 	mov.w	r3, #0
 8002396:	ea4f 03c9 	mov.w	r3, r9, lsl #3
 800239a:	ea43 7358 	orr.w	r3, r3, r8, lsr #29
 800239e:	ea4f 02c8 	mov.w	r2, r8, lsl #3
 80023a2:	4690      	mov	r8, r2
 80023a4:	4699      	mov	r9, r3
 80023a6:	4623      	mov	r3, r4
 80023a8:	eb18 0303 	adds.w	r3, r8, r3
 80023ac:	60bb      	str	r3, [r7, #8]
 80023ae:	462b      	mov	r3, r5
 80023b0:	eb49 0303 	adc.w	r3, r9, r3
 80023b4:	60fb      	str	r3, [r7, #12]
 80023b6:	f04f 0200 	mov.w	r2, #0
 80023ba:	f04f 0300 	mov.w	r3, #0
 80023be:	e9d7 4502 	ldrd	r4, r5, [r7, #8]
 80023c2:	4629      	mov	r1, r5
 80023c4:	024b      	lsls	r3, r1, #9
 80023c6:	4621      	mov	r1, r4
 80023c8:	ea43 53d1 	orr.w	r3, r3, r1, lsr #23
 80023cc:	4621      	mov	r1, r4
 80023ce:	024a      	lsls	r2, r1, #9
 80023d0:	4610      	mov	r0, r2
 80023d2:	4619      	mov	r1, r3
 80023d4:	6c7b      	ldr	r3, [r7, #68]	@ 0x44
 80023d6:	2200      	movs	r2, #0
 80023d8:	62bb      	str	r3, [r7, #40]	@ 0x28
 80023da:	62fa      	str	r2, [r7, #44]	@ 0x2c
 80023dc:	e9d7 230a 	ldrd	r2, r3, [r7, #40]	@ 0x28
 80023e0:	f7fe f8be 	bl	8000560 <__aeabi_uldivmod>
 80023e4:	4602      	mov	r2, r0
 80023e6:	460b      	mov	r3, r1
 80023e8:	4613      	mov	r3, r2
 80023ea:	64fb      	str	r3, [r7, #76]	@ 0x4c
 80023ec:	e058      	b.n	80024a0 <HAL_RCC_GetSysClockFreq+0x1d0>
      }
      else
      {
        /* HSI used as PLL clock source */
        pllvco = (uint32_t) ((((uint64_t) HSI_VALUE * ((uint64_t) ((RCC->PLLCFGR & RCC_PLLCFGR_PLLN) >> RCC_PLLCFGR_PLLN_Pos)))) / (uint64_t)pllm);
 80023ee:	4b38      	ldr	r3, [pc, #224]	@ (80024d0 <HAL_RCC_GetSysClockFreq+0x200>)
 80023f0:	685b      	ldr	r3, [r3, #4]
 80023f2:	099b      	lsrs	r3, r3, #6
 80023f4:	2200      	movs	r2, #0
 80023f6:	4618      	mov	r0, r3
 80023f8:	4611      	mov	r1, r2
 80023fa:	f3c0 0308 	ubfx	r3, r0, #0, #9
 80023fe:	623b      	str	r3, [r7, #32]
 8002400:	2300      	movs	r3, #0
 8002402:	627b      	str	r3, [r7, #36]	@ 0x24
 8002404:	e9d7 8908 	ldrd	r8, r9, [r7, #32]
 8002408:	4642      	mov	r2, r8
 800240a:	464b      	mov	r3, r9
 800240c:	f04f 0000 	mov.w	r0, #0
 8002410:	f04f 0100 	mov.w	r1, #0
 8002414:	0159      	lsls	r1, r3, #5
 8002416:	ea41 61d2 	orr.w	r1, r1, r2, lsr #27
 800241a:	0150      	lsls	r0, r2, #5
 800241c:	4602      	mov	r2, r0
 800241e:	460b      	mov	r3, r1
 8002420:	4641      	mov	r1, r8
 8002422:	ebb2 0a01 	subs.w	sl, r2, r1
 8002426:	4649      	mov	r1, r9
 8002428:	eb63 0b01 	sbc.w	fp, r3, r1
 800242c:	f04f 0200 	mov.w	r2, #0
 8002430:	f04f 0300 	mov.w	r3, #0
 8002434:	ea4f 138b 	mov.w	r3, fp, lsl #6
 8002438:	ea43 639a 	orr.w	r3, r3, sl, lsr #26
 800243c:	ea4f 128a 	mov.w	r2, sl, lsl #6
 8002440:	ebb2 040a 	subs.w	r4, r2, sl
 8002444:	eb63 050b 	sbc.w	r5, r3, fp
 8002448:	f04f 0200 	mov.w	r2, #0
 800244c:	f04f 0300 	mov.w	r3, #0
 8002450:	00eb      	lsls	r3, r5, #3
 8002452:	ea43 7354 	orr.w	r3, r3, r4, lsr #29
 8002456:	00e2      	lsls	r2, r4, #3
 8002458:	4614      	mov	r4, r2
 800245a:	461d      	mov	r5, r3
 800245c:	4643      	mov	r3, r8
 800245e:	18e3      	adds	r3, r4, r3
 8002460:	603b      	str	r3, [r7, #0]
 8002462:	464b      	mov	r3, r9
 8002464:	eb45 0303 	adc.w	r3, r5, r3
 8002468:	607b      	str	r3, [r7, #4]
 800246a:	f04f 0200 	mov.w	r2, #0
 800246e:	f04f 0300 	mov.w	r3, #0
 8002472:	e9d7 4500 	ldrd	r4, r5, [r7]
 8002476:	4629      	mov	r1, r5
 8002478:	028b      	lsls	r3, r1, #10
 800247a:	4621      	mov	r1, r4
 800247c:	ea43 5391 	orr.w	r3, r3, r1, lsr #22
 8002480:	4621      	mov	r1, r4
 8002482:	028a      	lsls	r2, r1, #10
 8002484:	4610      	mov	r0, r2
 8002486:	4619      	mov	r1, r3
 8002488:	6c7b      	ldr	r3, [r7, #68]	@ 0x44
 800248a:	2200      	movs	r2, #0
 800248c:	61bb      	str	r3, [r7, #24]
 800248e:	61fa      	str	r2, [r7, #28]
 8002490:	e9d7 2306 	ldrd	r2, r3, [r7, #24]
 8002494:	f7fe f864 	bl	8000560 <__aeabi_uldivmod>
 8002498:	4602      	mov	r2, r0
 800249a:	460b      	mov	r3, r1
 800249c:	4613      	mov	r3, r2
 800249e:	64fb      	str	r3, [r7, #76]	@ 0x4c
      }
      pllp = ((((RCC->PLLCFGR & RCC_PLLCFGR_PLLP) >> RCC_PLLCFGR_PLLP_Pos) + 1U) *2U);
 80024a0:	4b0b      	ldr	r3, [pc, #44]	@ (80024d0 <HAL_RCC_GetSysClockFreq+0x200>)
 80024a2:	685b      	ldr	r3, [r3, #4]
 80024a4:	0c1b      	lsrs	r3, r3, #16
 80024a6:	f003 0303 	and.w	r3, r3, #3
 80024aa:	3301      	adds	r3, #1
 80024ac:	005b      	lsls	r3, r3, #1
 80024ae:	643b      	str	r3, [r7, #64]	@ 0x40

      sysclockfreq = pllvco/pllp;
 80024b0:	6cfa      	ldr	r2, [r7, #76]	@ 0x4c
 80024b2:	6c3b      	ldr	r3, [r7, #64]	@ 0x40
 80024b4:	fbb2 f3f3 	udiv	r3, r2, r3
 80024b8:	64bb      	str	r3, [r7, #72]	@ 0x48
      break;
 80024ba:	e002      	b.n	80024c2 <HAL_RCC_GetSysClockFreq+0x1f2>
    }
    default:
    {
      sysclockfreq = HSI_VALUE;
 80024bc:	4b05      	ldr	r3, [pc, #20]	@ (80024d4 <HAL_RCC_GetSysClockFreq+0x204>)
 80024be:	64bb      	str	r3, [r7, #72]	@ 0x48
      break;
 80024c0:	bf00      	nop
    }
  }
  return sysclockfreq;
 80024c2:	6cbb      	ldr	r3, [r7, #72]	@ 0x48
}
 80024c4:	4618      	mov	r0, r3
 80024c6:	3750      	adds	r7, #80	@ 0x50
 80024c8:	46bd      	mov	sp, r7
 80024ca:	e8bd 8fb0 	ldmia.w	sp!, {r4, r5, r7, r8, r9, sl, fp, pc}
 80024ce:	bf00      	nop
 80024d0:	40023800 	.word	0x40023800
 80024d4:	00f42400 	.word	0x00f42400
 80024d8:	007a1200 	.word	0x007a1200

080024dc <HAL_RCC_GetHCLKFreq>:
  * @note   The SystemCoreClock CMSIS variable is used to store System Clock Frequency
  *         and updated within this function
  * @retval HCLK frequency
  */
uint32_t HAL_RCC_GetHCLKFreq(void)
{
 80024dc:	b480      	push	{r7}
 80024de:	af00      	add	r7, sp, #0
  return SystemCoreClock;
 80024e0:	4b03      	ldr	r3, [pc, #12]	@ (80024f0 <HAL_RCC_GetHCLKFreq+0x14>)
 80024e2:	681b      	ldr	r3, [r3, #0]
}
 80024e4:	4618      	mov	r0, r3
 80024e6:	46bd      	mov	sp, r7
 80024e8:	f85d 7b04 	ldr.w	r7, [sp], #4
 80024ec:	4770      	bx	lr
 80024ee:	bf00      	nop
 80024f0:	20000084 	.word	0x20000084

080024f4 <HAL_RCC_GetPCLK1Freq>:
  * @note   Each time PCLK1 changes, this function must be called to update the
  *         right PCLK1 value. Otherwise, any configuration based on this function will be incorrect.
  * @retval PCLK1 frequency
  */
uint32_t HAL_RCC_GetPCLK1Freq(void)
{
 80024f4:	b580      	push	{r7, lr}
 80024f6:	af00      	add	r7, sp, #0
  /* Get HCLK source and Compute PCLK1 frequency ---------------------------*/
  return (HAL_RCC_GetHCLKFreq() >> APBPrescTable[(RCC->CFGR & RCC_CFGR_PPRE1)>> RCC_CFGR_PPRE1_Pos]);
 80024f8:	f7ff fff0 	bl	80024dc <HAL_RCC_GetHCLKFreq>
 80024fc:	4602      	mov	r2, r0
 80024fe:	4b05      	ldr	r3, [pc, #20]	@ (8002514 <HAL_RCC_GetPCLK1Freq+0x20>)
 8002500:	689b      	ldr	r3, [r3, #8]
 8002502:	0a9b      	lsrs	r3, r3, #10
 8002504:	f003 0307 	and.w	r3, r3, #7
 8002508:	4903      	ldr	r1, [pc, #12]	@ (8002518 <HAL_RCC_GetPCLK1Freq+0x24>)
 800250a:	5ccb      	ldrb	r3, [r1, r3]
 800250c:	fa22 f303 	lsr.w	r3, r2, r3
}
 8002510:	4618      	mov	r0, r3
 8002512:	bd80      	pop	{r7, pc}
 8002514:	40023800 	.word	0x40023800
 8002518:	08003814 	.word	0x08003814

0800251c <HAL_RCC_GetPCLK2Freq>:
  * @note   Each time PCLK2 changes, this function must be called to update the
  *         right PCLK2 value. Otherwise, any configuration based on this function will be incorrect.
  * @retval PCLK2 frequency
  */
uint32_t HAL_RCC_GetPCLK2Freq(void)
{
 800251c:	b580      	push	{r7, lr}
 800251e:	af00      	add	r7, sp, #0
  /* Get HCLK source and Compute PCLK2 frequency ---------------------------*/
  return (HAL_RCC_GetHCLKFreq()>> APBPrescTable[(RCC->CFGR & RCC_CFGR_PPRE2)>> RCC_CFGR_PPRE2_Pos]);
 8002520:	f7ff ffdc 	bl	80024dc <HAL_RCC_GetHCLKFreq>
 8002524:	4602      	mov	r2, r0
 8002526:	4b05      	ldr	r3, [pc, #20]	@ (800253c <HAL_RCC_GetPCLK2Freq+0x20>)
 8002528:	689b      	ldr	r3, [r3, #8]
 800252a:	0b5b      	lsrs	r3, r3, #13
 800252c:	f003 0307 	and.w	r3, r3, #7
 8002530:	4903      	ldr	r1, [pc, #12]	@ (8002540 <HAL_RCC_GetPCLK2Freq+0x24>)
 8002532:	5ccb      	ldrb	r3, [r1, r3]
 8002534:	fa22 f303 	lsr.w	r3, r2, r3
}
 8002538:	4618      	mov	r0, r3
 800253a:	bd80      	pop	{r7, pc}
 800253c:	40023800 	.word	0x40023800
 8002540:	08003814 	.word	0x08003814

08002544 <HAL_UART_Init>:
  * @param  huart  Pointer to a UART_HandleTypeDef structure that contains
  *                the configuration information for the specified UART module.
  * @retval HAL status
  */
HAL_StatusTypeDef HAL_UART_Init(UART_HandleTypeDef *huart)
{
 8002544:	b580      	push	{r7, lr}
 8002546:	b082      	sub	sp, #8
 8002548:	af00      	add	r7, sp, #0
 800254a:	6078      	str	r0, [r7, #4]
  /* Check the UART handle allocation */
  if (huart == NULL)
 800254c:	687b      	ldr	r3, [r7, #4]
 800254e:	2b00      	cmp	r3, #0
 8002550:	d101      	bne.n	8002556 <HAL_UART_Init+0x12>
  {
    return HAL_ERROR;
 8002552:	2301      	movs	r3, #1
 8002554:	e03f      	b.n	80025d6 <HAL_UART_Init+0x92>
    assert_param(IS_UART_INSTANCE(huart->Instance));
  }
  assert_param(IS_UART_WORD_LENGTH(huart->Init.WordLength));
  assert_param(IS_UART_OVERSAMPLING(huart->Init.OverSampling));

  if (huart->gState == HAL_UART_STATE_RESET)
 8002556:	687b      	ldr	r3, [r7, #4]
 8002558:	f893 303d 	ldrb.w	r3, [r3, #61]	@ 0x3d
 800255c:	b2db      	uxtb	r3, r3
 800255e:	2b00      	cmp	r3, #0
 8002560:	d106      	bne.n	8002570 <HAL_UART_Init+0x2c>
  {
    /* Allocate lock resource and initialize it */
    huart->Lock = HAL_UNLOCKED;
 8002562:	687b      	ldr	r3, [r7, #4]
 8002564:	2200      	movs	r2, #0
 8002566:	f883 203c 	strb.w	r2, [r3, #60]	@ 0x3c

    /* Init the low level hardware */
    huart->MspInitCallback(huart);
#else
    /* Init the low level hardware : GPIO, CLOCK */
    HAL_UART_MspInit(huart);
 800256a:	6878      	ldr	r0, [r7, #4]
 800256c:	f7fe feb4 	bl	80012d8 <HAL_UART_MspInit>
#endif /* (USE_HAL_UART_REGISTER_CALLBACKS) */
  }

  huart->gState = HAL_UART_STATE_BUSY;
 8002570:	687b      	ldr	r3, [r7, #4]
 8002572:	2224      	movs	r2, #36	@ 0x24
 8002574:	f883 203d 	strb.w	r2, [r3, #61]	@ 0x3d

  /* Disable the peripheral */
  __HAL_UART_DISABLE(huart);
 8002578:	687b      	ldr	r3, [r7, #4]
 800257a:	681b      	ldr	r3, [r3, #0]
 800257c:	68da      	ldr	r2, [r3, #12]
 800257e:	687b      	ldr	r3, [r7, #4]
 8002580:	681b      	ldr	r3, [r3, #0]
 8002582:	f422 5200 	bic.w	r2, r2, #8192	@ 0x2000
 8002586:	60da      	str	r2, [r3, #12]

  /* Set the UART Communication parameters */
  UART_SetConfig(huart);
 8002588:	6878      	ldr	r0, [r7, #4]
 800258a:	f000 fddf 	bl	800314c <UART_SetConfig>

  /* In asynchronous mode, the following bits must be kept cleared:
     - LINEN and CLKEN bits in the USART_CR2 register,
     - SCEN, HDSEL and IREN  bits in the USART_CR3 register.*/
  CLEAR_BIT(huart->Instance->CR2, (USART_CR2_LINEN | USART_CR2_CLKEN));
 800258e:	687b      	ldr	r3, [r7, #4]
 8002590:	681b      	ldr	r3, [r3, #0]
 8002592:	691a      	ldr	r2, [r3, #16]
 8002594:	687b      	ldr	r3, [r7, #4]
 8002596:	681b      	ldr	r3, [r3, #0]
 8002598:	f422 4290 	bic.w	r2, r2, #18432	@ 0x4800
 800259c:	611a      	str	r2, [r3, #16]
  CLEAR_BIT(huart->Instance->CR3, (USART_CR3_SCEN | USART_CR3_HDSEL | USART_CR3_IREN));
 800259e:	687b      	ldr	r3, [r7, #4]
 80025a0:	681b      	ldr	r3, [r3, #0]
 80025a2:	695a      	ldr	r2, [r3, #20]
 80025a4:	687b      	ldr	r3, [r7, #4]
 80025a6:	681b      	ldr	r3, [r3, #0]
 80025a8:	f022 022a 	bic.w	r2, r2, #42	@ 0x2a
 80025ac:	615a      	str	r2, [r3, #20]

  /* Enable the peripheral */
  __HAL_UART_ENABLE(huart);
 80025ae:	687b      	ldr	r3, [r7, #4]
 80025b0:	681b      	ldr	r3, [r3, #0]
 80025b2:	68da      	ldr	r2, [r3, #12]
 80025b4:	687b      	ldr	r3, [r7, #4]
 80025b6:	681b      	ldr	r3, [r3, #0]
 80025b8:	f442 5200 	orr.w	r2, r2, #8192	@ 0x2000
 80025bc:	60da      	str	r2, [r3, #12]

  /* Initialize the UART state */
  huart->ErrorCode = HAL_UART_ERROR_NONE;
 80025be:	687b      	ldr	r3, [r7, #4]
 80025c0:	2200      	movs	r2, #0
 80025c2:	641a      	str	r2, [r3, #64]	@ 0x40
  huart->gState = HAL_UART_STATE_READY;
 80025c4:	687b      	ldr	r3, [r7, #4]
 80025c6:	2220      	movs	r2, #32
 80025c8:	f883 203d 	strb.w	r2, [r3, #61]	@ 0x3d
  huart->RxState = HAL_UART_STATE_READY;
 80025cc:	687b      	ldr	r3, [r7, #4]
 80025ce:	2220      	movs	r2, #32
 80025d0:	f883 203e 	strb.w	r2, [r3, #62]	@ 0x3e

  return HAL_OK;
 80025d4:	2300      	movs	r3, #0
}
 80025d6:	4618      	mov	r0, r3
 80025d8:	3708      	adds	r7, #8
 80025da:	46bd      	mov	sp, r7
 80025dc:	bd80      	pop	{r7, pc}

080025de <HAL_UART_Transmit>:
  * @param  Size  Amount of data elements (u8 or u16) to be sent
  * @param  Timeout Timeout duration
  * @retval HAL status
  */
HAL_StatusTypeDef HAL_UART_Transmit(UART_HandleTypeDef *huart, const uint8_t *pData, uint16_t Size, uint32_t Timeout)
{
 80025de:	b580      	push	{r7, lr}
 80025e0:	b08a      	sub	sp, #40	@ 0x28
 80025e2:	af02      	add	r7, sp, #8
 80025e4:	60f8      	str	r0, [r7, #12]
 80025e6:	60b9      	str	r1, [r7, #8]
 80025e8:	603b      	str	r3, [r7, #0]
 80025ea:	4613      	mov	r3, r2
 80025ec:	80fb      	strh	r3, [r7, #6]
  const uint8_t  *pdata8bits;
  const uint16_t *pdata16bits;
  uint32_t tickstart = 0U;
 80025ee:	2300      	movs	r3, #0
 80025f0:	617b      	str	r3, [r7, #20]

  /* Check that a Tx process is not already ongoing */
  if (huart->gState == HAL_UART_STATE_READY)
 80025f2:	68fb      	ldr	r3, [r7, #12]
 80025f4:	f893 303d 	ldrb.w	r3, [r3, #61]	@ 0x3d
 80025f8:	b2db      	uxtb	r3, r3
 80025fa:	2b20      	cmp	r3, #32
 80025fc:	d17c      	bne.n	80026f8 <HAL_UART_Transmit+0x11a>
  {
    if ((pData == NULL) || (Size == 0U))
 80025fe:	68bb      	ldr	r3, [r7, #8]
 8002600:	2b00      	cmp	r3, #0
 8002602:	d002      	beq.n	800260a <HAL_UART_Transmit+0x2c>
 8002604:	88fb      	ldrh	r3, [r7, #6]
 8002606:	2b00      	cmp	r3, #0
 8002608:	d101      	bne.n	800260e <HAL_UART_Transmit+0x30>
    {
      return  HAL_ERROR;
 800260a:	2301      	movs	r3, #1
 800260c:	e075      	b.n	80026fa <HAL_UART_Transmit+0x11c>
    }

    /* Process Locked */
    __HAL_LOCK(huart);
 800260e:	68fb      	ldr	r3, [r7, #12]
 8002610:	f893 303c 	ldrb.w	r3, [r3, #60]	@ 0x3c
 8002614:	2b01      	cmp	r3, #1
 8002616:	d101      	bne.n	800261c <HAL_UART_Transmit+0x3e>
 8002618:	2302      	movs	r3, #2
 800261a:	e06e      	b.n	80026fa <HAL_UART_Transmit+0x11c>
 800261c:	68fb      	ldr	r3, [r7, #12]
 800261e:	2201      	movs	r2, #1
 8002620:	f883 203c 	strb.w	r2, [r3, #60]	@ 0x3c

    huart->ErrorCode = HAL_UART_ERROR_NONE;
 8002624:	68fb      	ldr	r3, [r7, #12]
 8002626:	2200      	movs	r2, #0
 8002628:	641a      	str	r2, [r3, #64]	@ 0x40
    huart->gState = HAL_UART_STATE_BUSY_TX;
 800262a:	68fb      	ldr	r3, [r7, #12]
 800262c:	2221      	movs	r2, #33	@ 0x21
 800262e:	f883 203d 	strb.w	r2, [r3, #61]	@ 0x3d

    /* Init tickstart for timeout management */
    tickstart = HAL_GetTick();
 8002632:	f7fe ff7d 	bl	8001530 <HAL_GetTick>
 8002636:	6178      	str	r0, [r7, #20]

    huart->TxXferSize = Size;
 8002638:	68fb      	ldr	r3, [r7, #12]
 800263a:	88fa      	ldrh	r2, [r7, #6]
 800263c:	849a      	strh	r2, [r3, #36]	@ 0x24
    huart->TxXferCount = Size;
 800263e:	68fb      	ldr	r3, [r7, #12]
 8002640:	88fa      	ldrh	r2, [r7, #6]
 8002642:	84da      	strh	r2, [r3, #38]	@ 0x26

    /* In case of 9bits/No Parity transfer, pData needs to be handled as a uint16_t pointer */
    if ((huart->Init.WordLength == UART_WORDLENGTH_9B) && (huart->Init.Parity == UART_PARITY_NONE))
 8002644:	68fb      	ldr	r3, [r7, #12]
 8002646:	689b      	ldr	r3, [r3, #8]
 8002648:	f5b3 5f80 	cmp.w	r3, #4096	@ 0x1000
 800264c:	d108      	bne.n	8002660 <HAL_UART_Transmit+0x82>
 800264e:	68fb      	ldr	r3, [r7, #12]
 8002650:	691b      	ldr	r3, [r3, #16]
 8002652:	2b00      	cmp	r3, #0
 8002654:	d104      	bne.n	8002660 <HAL_UART_Transmit+0x82>
    {
      pdata8bits  = NULL;
 8002656:	2300      	movs	r3, #0
 8002658:	61fb      	str	r3, [r7, #28]
      pdata16bits = (const uint16_t *) pData;
 800265a:	68bb      	ldr	r3, [r7, #8]
 800265c:	61bb      	str	r3, [r7, #24]
 800265e:	e003      	b.n	8002668 <HAL_UART_Transmit+0x8a>
    }
    else
    {
      pdata8bits  = pData;
 8002660:	68bb      	ldr	r3, [r7, #8]
 8002662:	61fb      	str	r3, [r7, #28]
      pdata16bits = NULL;
 8002664:	2300      	movs	r3, #0
 8002666:	61bb      	str	r3, [r7, #24]
    }

    /* Process Unlocked */
    __HAL_UNLOCK(huart);
 8002668:	68fb      	ldr	r3, [r7, #12]
 800266a:	2200      	movs	r2, #0
 800266c:	f883 203c 	strb.w	r2, [r3, #60]	@ 0x3c

    while (huart->TxXferCount > 0U)
 8002670:	e02a      	b.n	80026c8 <HAL_UART_Transmit+0xea>
    {
      if (UART_WaitOnFlagUntilTimeout(huart, UART_FLAG_TXE, RESET, tickstart, Timeout) != HAL_OK)
 8002672:	683b      	ldr	r3, [r7, #0]
 8002674:	9300      	str	r3, [sp, #0]
 8002676:	697b      	ldr	r3, [r7, #20]
 8002678:	2200      	movs	r2, #0
 800267a:	2180      	movs	r1, #128	@ 0x80
 800267c:	68f8      	ldr	r0, [r7, #12]
 800267e:	f000 fb1f 	bl	8002cc0 <UART_WaitOnFlagUntilTimeout>
 8002682:	4603      	mov	r3, r0
 8002684:	2b00      	cmp	r3, #0
 8002686:	d001      	beq.n	800268c <HAL_UART_Transmit+0xae>
      {
        return HAL_TIMEOUT;
 8002688:	2303      	movs	r3, #3
 800268a:	e036      	b.n	80026fa <HAL_UART_Transmit+0x11c>
      }
      if (pdata8bits == NULL)
 800268c:	69fb      	ldr	r3, [r7, #28]
 800268e:	2b00      	cmp	r3, #0
 8002690:	d10b      	bne.n	80026aa <HAL_UART_Transmit+0xcc>
      {
        huart->Instance->DR = (uint16_t)(*pdata16bits & 0x01FFU);
 8002692:	69bb      	ldr	r3, [r7, #24]
 8002694:	881b      	ldrh	r3, [r3, #0]
 8002696:	461a      	mov	r2, r3
 8002698:	68fb      	ldr	r3, [r7, #12]
 800269a:	681b      	ldr	r3, [r3, #0]
 800269c:	f3c2 0208 	ubfx	r2, r2, #0, #9
 80026a0:	605a      	str	r2, [r3, #4]
        pdata16bits++;
 80026a2:	69bb      	ldr	r3, [r7, #24]
 80026a4:	3302      	adds	r3, #2
 80026a6:	61bb      	str	r3, [r7, #24]
 80026a8:	e007      	b.n	80026ba <HAL_UART_Transmit+0xdc>
      }
      else
      {
        huart->Instance->DR = (uint8_t)(*pdata8bits & 0xFFU);
 80026aa:	69fb      	ldr	r3, [r7, #28]
 80026ac:	781a      	ldrb	r2, [r3, #0]
 80026ae:	68fb      	ldr	r3, [r7, #12]
 80026b0:	681b      	ldr	r3, [r3, #0]
 80026b2:	605a      	str	r2, [r3, #4]
        pdata8bits++;
 80026b4:	69fb      	ldr	r3, [r7, #28]
 80026b6:	3301      	adds	r3, #1
 80026b8:	61fb      	str	r3, [r7, #28]
      }
      huart->TxXferCount--;
 80026ba:	68fb      	ldr	r3, [r7, #12]
 80026bc:	8cdb      	ldrh	r3, [r3, #38]	@ 0x26
 80026be:	b29b      	uxth	r3, r3
 80026c0:	3b01      	subs	r3, #1
 80026c2:	b29a      	uxth	r2, r3
 80026c4:	68fb      	ldr	r3, [r7, #12]
 80026c6:	84da      	strh	r2, [r3, #38]	@ 0x26
    while (huart->TxXferCount > 0U)
 80026c8:	68fb      	ldr	r3, [r7, #12]
 80026ca:	8cdb      	ldrh	r3, [r3, #38]	@ 0x26
 80026cc:	b29b      	uxth	r3, r3
 80026ce:	2b00      	cmp	r3, #0
 80026d0:	d1cf      	bne.n	8002672 <HAL_UART_Transmit+0x94>
    }

    if (UART_WaitOnFlagUntilTimeout(huart, UART_FLAG_TC, RESET, tickstart, Timeout) != HAL_OK)
 80026d2:	683b      	ldr	r3, [r7, #0]
 80026d4:	9300      	str	r3, [sp, #0]
 80026d6:	697b      	ldr	r3, [r7, #20]
 80026d8:	2200      	movs	r2, #0
 80026da:	2140      	movs	r1, #64	@ 0x40
 80026dc:	68f8      	ldr	r0, [r7, #12]
 80026de:	f000 faef 	bl	8002cc0 <UART_WaitOnFlagUntilTimeout>
 80026e2:	4603      	mov	r3, r0
 80026e4:	2b00      	cmp	r3, #0
 80026e6:	d001      	beq.n	80026ec <HAL_UART_Transmit+0x10e>
    {
      return HAL_TIMEOUT;
 80026e8:	2303      	movs	r3, #3
 80026ea:	e006      	b.n	80026fa <HAL_UART_Transmit+0x11c>
    }

    /* At end of Tx process, restore huart->gState to Ready */
    huart->gState = HAL_UART_STATE_READY;
 80026ec:	68fb      	ldr	r3, [r7, #12]
 80026ee:	2220      	movs	r2, #32
 80026f0:	f883 203d 	strb.w	r2, [r3, #61]	@ 0x3d

    return HAL_OK;
 80026f4:	2300      	movs	r3, #0
 80026f6:	e000      	b.n	80026fa <HAL_UART_Transmit+0x11c>
  }
  else
  {
    return HAL_BUSY;
 80026f8:	2302      	movs	r3, #2
  }
}
 80026fa:	4618      	mov	r0, r3
 80026fc:	3720      	adds	r7, #32
 80026fe:	46bd      	mov	sp, r7
 8002700:	bd80      	pop	{r7, pc}

08002702 <HAL_UART_Receive_IT>:
  * @param  pData Pointer to data buffer (u8 or u16 data elements).
  * @param  Size  Amount of data elements (u8 or u16) to be received.
  * @retval HAL status
  */
HAL_StatusTypeDef HAL_UART_Receive_IT(UART_HandleTypeDef *huart, uint8_t *pData, uint16_t Size)
{
 8002702:	b580      	push	{r7, lr}
 8002704:	b084      	sub	sp, #16
 8002706:	af00      	add	r7, sp, #0
 8002708:	60f8      	str	r0, [r7, #12]
 800270a:	60b9      	str	r1, [r7, #8]
 800270c:	4613      	mov	r3, r2
 800270e:	80fb      	strh	r3, [r7, #6]
  /* Check that a Rx process is not already ongoing */
  if (huart->RxState == HAL_UART_STATE_READY)
 8002710:	68fb      	ldr	r3, [r7, #12]
 8002712:	f893 303e 	ldrb.w	r3, [r3, #62]	@ 0x3e
 8002716:	b2db      	uxtb	r3, r3
 8002718:	2b20      	cmp	r3, #32
 800271a:	d11d      	bne.n	8002758 <HAL_UART_Receive_IT+0x56>
  {
    if ((pData == NULL) || (Size == 0U))
 800271c:	68bb      	ldr	r3, [r7, #8]
 800271e:	2b00      	cmp	r3, #0
 8002720:	d002      	beq.n	8002728 <HAL_UART_Receive_IT+0x26>
 8002722:	88fb      	ldrh	r3, [r7, #6]
 8002724:	2b00      	cmp	r3, #0
 8002726:	d101      	bne.n	800272c <HAL_UART_Receive_IT+0x2a>
    {
      return HAL_ERROR;
 8002728:	2301      	movs	r3, #1
 800272a:	e016      	b.n	800275a <HAL_UART_Receive_IT+0x58>
    }

    /* Process Locked */
    __HAL_LOCK(huart);
 800272c:	68fb      	ldr	r3, [r7, #12]
 800272e:	f893 303c 	ldrb.w	r3, [r3, #60]	@ 0x3c
 8002732:	2b01      	cmp	r3, #1
 8002734:	d101      	bne.n	800273a <HAL_UART_Receive_IT+0x38>
 8002736:	2302      	movs	r3, #2
 8002738:	e00f      	b.n	800275a <HAL_UART_Receive_IT+0x58>
 800273a:	68fb      	ldr	r3, [r7, #12]
 800273c:	2201      	movs	r2, #1
 800273e:	f883 203c 	strb.w	r2, [r3, #60]	@ 0x3c

    /* Set Reception type to Standard reception */
    huart->ReceptionType = HAL_UART_RECEPTION_STANDARD;
 8002742:	68fb      	ldr	r3, [r7, #12]
 8002744:	2200      	movs	r2, #0
 8002746:	631a      	str	r2, [r3, #48]	@ 0x30

    return (UART_Start_Receive_IT(huart, pData, Size));
 8002748:	88fb      	ldrh	r3, [r7, #6]
 800274a:	461a      	mov	r2, r3
 800274c:	68b9      	ldr	r1, [r7, #8]
 800274e:	68f8      	ldr	r0, [r7, #12]
 8002750:	f000 fb24 	bl	8002d9c <UART_Start_Receive_IT>
 8002754:	4603      	mov	r3, r0
 8002756:	e000      	b.n	800275a <HAL_UART_Receive_IT+0x58>
  }
  else
  {
    return HAL_BUSY;
 8002758:	2302      	movs	r3, #2
  }
}
 800275a:	4618      	mov	r0, r3
 800275c:	3710      	adds	r7, #16
 800275e:	46bd      	mov	sp, r7
 8002760:	bd80      	pop	{r7, pc}
	...

08002764 <HAL_UART_IRQHandler>:
  * @param  huart  Pointer to a UART_HandleTypeDef structure that contains
  *                the configuration information for the specified UART module.
  * @retval None
  */
void HAL_UART_IRQHandler(UART_HandleTypeDef *huart)
{
 8002764:	b580      	push	{r7, lr}
 8002766:	b0ba      	sub	sp, #232	@ 0xe8
 8002768:	af00      	add	r7, sp, #0
 800276a:	6078      	str	r0, [r7, #4]
  uint32_t isrflags   = READ_REG(huart->Instance->SR);
 800276c:	687b      	ldr	r3, [r7, #4]
 800276e:	681b      	ldr	r3, [r3, #0]
 8002770:	681b      	ldr	r3, [r3, #0]
 8002772:	f8c7 30e4 	str.w	r3, [r7, #228]	@ 0xe4
  uint32_t cr1its     = READ_REG(huart->Instance->CR1);
 8002776:	687b      	ldr	r3, [r7, #4]
 8002778:	681b      	ldr	r3, [r3, #0]
 800277a:	68db      	ldr	r3, [r3, #12]
 800277c:	f8c7 30e0 	str.w	r3, [r7, #224]	@ 0xe0
  uint32_t cr3its     = READ_REG(huart->Instance->CR3);
 8002780:	687b      	ldr	r3, [r7, #4]
 8002782:	681b      	ldr	r3, [r3, #0]
 8002784:	695b      	ldr	r3, [r3, #20]
 8002786:	f8c7 30dc 	str.w	r3, [r7, #220]	@ 0xdc
  uint32_t errorflags = 0x00U;
 800278a:	2300      	movs	r3, #0
 800278c:	f8c7 30d8 	str.w	r3, [r7, #216]	@ 0xd8
  uint32_t dmarequest = 0x00U;
 8002790:	2300      	movs	r3, #0
 8002792:	f8c7 30d4 	str.w	r3, [r7, #212]	@ 0xd4

  /* If no error occurs */
  errorflags = (isrflags & (uint32_t)(USART_SR_PE | USART_SR_FE | USART_SR_ORE | USART_SR_NE));
 8002796:	f8d7 30e4 	ldr.w	r3, [r7, #228]	@ 0xe4
 800279a:	f003 030f 	and.w	r3, r3, #15
 800279e:	f8c7 30d8 	str.w	r3, [r7, #216]	@ 0xd8
  if (errorflags == RESET)
 80027a2:	f8d7 30d8 	ldr.w	r3, [r7, #216]	@ 0xd8
 80027a6:	2b00      	cmp	r3, #0
 80027a8:	d10f      	bne.n	80027ca <HAL_UART_IRQHandler+0x66>
  {
    /* UART in mode Receiver -------------------------------------------------*/
    if (((isrflags & USART_SR_RXNE) != RESET) && ((cr1its & USART_CR1_RXNEIE) != RESET))
 80027aa:	f8d7 30e4 	ldr.w	r3, [r7, #228]	@ 0xe4
 80027ae:	f003 0320 	and.w	r3, r3, #32
 80027b2:	2b00      	cmp	r3, #0
 80027b4:	d009      	beq.n	80027ca <HAL_UART_IRQHandler+0x66>
 80027b6:	f8d7 30e0 	ldr.w	r3, [r7, #224]	@ 0xe0
 80027ba:	f003 0320 	and.w	r3, r3, #32
 80027be:	2b00      	cmp	r3, #0
 80027c0:	d003      	beq.n	80027ca <HAL_UART_IRQHandler+0x66>
    {
      UART_Receive_IT(huart);
 80027c2:	6878      	ldr	r0, [r7, #4]
 80027c4:	f000 fc07 	bl	8002fd6 <UART_Receive_IT>
      return;
 80027c8:	e256      	b.n	8002c78 <HAL_UART_IRQHandler+0x514>
    }
  }

  /* If some errors occur */
  if ((errorflags != RESET) && (((cr3its & USART_CR3_EIE) != RESET)
 80027ca:	f8d7 30d8 	ldr.w	r3, [r7, #216]	@ 0xd8
 80027ce:	2b00      	cmp	r3, #0
 80027d0:	f000 80de 	beq.w	8002990 <HAL_UART_IRQHandler+0x22c>
 80027d4:	f8d7 30dc 	ldr.w	r3, [r7, #220]	@ 0xdc
 80027d8:	f003 0301 	and.w	r3, r3, #1
 80027dc:	2b00      	cmp	r3, #0
 80027de:	d106      	bne.n	80027ee <HAL_UART_IRQHandler+0x8a>
                                || ((cr1its & (USART_CR1_RXNEIE | USART_CR1_PEIE)) != RESET)))
 80027e0:	f8d7 30e0 	ldr.w	r3, [r7, #224]	@ 0xe0
 80027e4:	f403 7390 	and.w	r3, r3, #288	@ 0x120
 80027e8:	2b00      	cmp	r3, #0
 80027ea:	f000 80d1 	beq.w	8002990 <HAL_UART_IRQHandler+0x22c>
  {
    /* UART parity error interrupt occurred ----------------------------------*/
    if (((isrflags & USART_SR_PE) != RESET) && ((cr1its & USART_CR1_PEIE) != RESET))
 80027ee:	f8d7 30e4 	ldr.w	r3, [r7, #228]	@ 0xe4
 80027f2:	f003 0301 	and.w	r3, r3, #1
 80027f6:	2b00      	cmp	r3, #0
 80027f8:	d00b      	beq.n	8002812 <HAL_UART_IRQHandler+0xae>
 80027fa:	f8d7 30e0 	ldr.w	r3, [r7, #224]	@ 0xe0
 80027fe:	f403 7380 	and.w	r3, r3, #256	@ 0x100
 8002802:	2b00      	cmp	r3, #0
 8002804:	d005      	beq.n	8002812 <HAL_UART_IRQHandler+0xae>
    {
      huart->ErrorCode |= HAL_UART_ERROR_PE;
 8002806:	687b      	ldr	r3, [r7, #4]
 8002808:	6c1b      	ldr	r3, [r3, #64]	@ 0x40
 800280a:	f043 0201 	orr.w	r2, r3, #1
 800280e:	687b      	ldr	r3, [r7, #4]
 8002810:	641a      	str	r2, [r3, #64]	@ 0x40
    }

    /* UART noise error interrupt occurred -----------------------------------*/
    if (((isrflags & USART_SR_NE) != RESET) && ((cr3its & USART_CR3_EIE) != RESET))
 8002812:	f8d7 30e4 	ldr.w	r3, [r7, #228]	@ 0xe4
 8002816:	f003 0304 	and.w	r3, r3, #4
 800281a:	2b00      	cmp	r3, #0
 800281c:	d00b      	beq.n	8002836 <HAL_UART_IRQHandler+0xd2>
 800281e:	f8d7 30dc 	ldr.w	r3, [r7, #220]	@ 0xdc
 8002822:	f003 0301 	and.w	r3, r3, #1
 8002826:	2b00      	cmp	r3, #0
 8002828:	d005      	beq.n	8002836 <HAL_UART_IRQHandler+0xd2>
    {
      huart->ErrorCode |= HAL_UART_ERROR_NE;
 800282a:	687b      	ldr	r3, [r7, #4]
 800282c:	6c1b      	ldr	r3, [r3, #64]	@ 0x40
 800282e:	f043 0202 	orr.w	r2, r3, #2
 8002832:	687b      	ldr	r3, [r7, #4]
 8002834:	641a      	str	r2, [r3, #64]	@ 0x40
    }

    /* UART frame error interrupt occurred -----------------------------------*/
    if (((isrflags & USART_SR_FE) != RESET) && ((cr3its & USART_CR3_EIE) != RESET))
 8002836:	f8d7 30e4 	ldr.w	r3, [r7, #228]	@ 0xe4
 800283a:	f003 0302 	and.w	r3, r3, #2
 800283e:	2b00      	cmp	r3, #0
 8002840:	d00b      	beq.n	800285a <HAL_UART_IRQHandler+0xf6>
 8002842:	f8d7 30dc 	ldr.w	r3, [r7, #220]	@ 0xdc
 8002846:	f003 0301 	and.w	r3, r3, #1
 800284a:	2b00      	cmp	r3, #0
 800284c:	d005      	beq.n	800285a <HAL_UART_IRQHandler+0xf6>
    {
      huart->ErrorCode |= HAL_UART_ERROR_FE;
 800284e:	687b      	ldr	r3, [r7, #4]
 8002850:	6c1b      	ldr	r3, [r3, #64]	@ 0x40
 8002852:	f043 0204 	orr.w	r2, r3, #4
 8002856:	687b      	ldr	r3, [r7, #4]
 8002858:	641a      	str	r2, [r3, #64]	@ 0x40
    }

    /* UART Over-Run interrupt occurred --------------------------------------*/
    if (((isrflags & USART_SR_ORE) != RESET) && (((cr1its & USART_CR1_RXNEIE) != RESET)
 800285a:	f8d7 30e4 	ldr.w	r3, [r7, #228]	@ 0xe4
 800285e:	f003 0308 	and.w	r3, r3, #8
 8002862:	2b00      	cmp	r3, #0
 8002864:	d011      	beq.n	800288a <HAL_UART_IRQHandler+0x126>
 8002866:	f8d7 30e0 	ldr.w	r3, [r7, #224]	@ 0xe0
 800286a:	f003 0320 	and.w	r3, r3, #32
 800286e:	2b00      	cmp	r3, #0
 8002870:	d105      	bne.n	800287e <HAL_UART_IRQHandler+0x11a>
                                                 || ((cr3its & USART_CR3_EIE) != RESET)))
 8002872:	f8d7 30dc 	ldr.w	r3, [r7, #220]	@ 0xdc
 8002876:	f003 0301 	and.w	r3, r3, #1
 800287a:	2b00      	cmp	r3, #0
 800287c:	d005      	beq.n	800288a <HAL_UART_IRQHandler+0x126>
    {
      huart->ErrorCode |= HAL_UART_ERROR_ORE;
 800287e:	687b      	ldr	r3, [r7, #4]
 8002880:	6c1b      	ldr	r3, [r3, #64]	@ 0x40
 8002882:	f043 0208 	orr.w	r2, r3, #8
 8002886:	687b      	ldr	r3, [r7, #4]
 8002888:	641a      	str	r2, [r3, #64]	@ 0x40
    }

    /* Call UART Error Call back function if need be --------------------------*/
    if (huart->ErrorCode != HAL_UART_ERROR_NONE)
 800288a:	687b      	ldr	r3, [r7, #4]
 800288c:	6c1b      	ldr	r3, [r3, #64]	@ 0x40
 800288e:	2b00      	cmp	r3, #0
 8002890:	f000 81ed 	beq.w	8002c6e <HAL_UART_IRQHandler+0x50a>
    {
      /* UART in mode Receiver -----------------------------------------------*/
      if (((isrflags & USART_SR_RXNE) != RESET) && ((cr1its & USART_CR1_RXNEIE) != RESET))
 8002894:	f8d7 30e4 	ldr.w	r3, [r7, #228]	@ 0xe4
 8002898:	f003 0320 	and.w	r3, r3, #32
 800289c:	2b00      	cmp	r3, #0
 800289e:	d008      	beq.n	80028b2 <HAL_UART_IRQHandler+0x14e>
 80028a0:	f8d7 30e0 	ldr.w	r3, [r7, #224]	@ 0xe0
 80028a4:	f003 0320 	and.w	r3, r3, #32
 80028a8:	2b00      	cmp	r3, #0
 80028aa:	d002      	beq.n	80028b2 <HAL_UART_IRQHandler+0x14e>
      {
        UART_Receive_IT(huart);
 80028ac:	6878      	ldr	r0, [r7, #4]
 80028ae:	f000 fb92 	bl	8002fd6 <UART_Receive_IT>
      }

      /* If Overrun error occurs, or if any error occurs in DMA mode reception,
         consider error as blocking */
      dmarequest = HAL_IS_BIT_SET(huart->Instance->CR3, USART_CR3_DMAR);
 80028b2:	687b      	ldr	r3, [r7, #4]
 80028b4:	681b      	ldr	r3, [r3, #0]
 80028b6:	695b      	ldr	r3, [r3, #20]
 80028b8:	f003 0340 	and.w	r3, r3, #64	@ 0x40
 80028bc:	2b40      	cmp	r3, #64	@ 0x40
 80028be:	bf0c      	ite	eq
 80028c0:	2301      	moveq	r3, #1
 80028c2:	2300      	movne	r3, #0
 80028c4:	b2db      	uxtb	r3, r3
 80028c6:	f8c7 30d4 	str.w	r3, [r7, #212]	@ 0xd4
      if (((huart->ErrorCode & HAL_UART_ERROR_ORE) != RESET) || dmarequest)
 80028ca:	687b      	ldr	r3, [r7, #4]
 80028cc:	6c1b      	ldr	r3, [r3, #64]	@ 0x40
 80028ce:	f003 0308 	and.w	r3, r3, #8
 80028d2:	2b00      	cmp	r3, #0
 80028d4:	d103      	bne.n	80028de <HAL_UART_IRQHandler+0x17a>
 80028d6:	f8d7 30d4 	ldr.w	r3, [r7, #212]	@ 0xd4
 80028da:	2b00      	cmp	r3, #0
 80028dc:	d04f      	beq.n	800297e <HAL_UART_IRQHandler+0x21a>
      {
        /* Blocking error : transfer is aborted
           Set the UART state ready to be able to start again the process,
           Disable Rx Interrupts, and disable Rx DMA request, if ongoing */
        UART_EndRxTransfer(huart);
 80028de:	6878      	ldr	r0, [r7, #4]
 80028e0:	f000 fa9a 	bl	8002e18 <UART_EndRxTransfer>

        /* Disable the UART DMA Rx request if enabled */
        if (HAL_IS_BIT_SET(huart->Instance->CR3, USART_CR3_DMAR))
 80028e4:	687b      	ldr	r3, [r7, #4]
 80028e6:	681b      	ldr	r3, [r3, #0]
 80028e8:	695b      	ldr	r3, [r3, #20]
 80028ea:	f003 0340 	and.w	r3, r3, #64	@ 0x40
 80028ee:	2b40      	cmp	r3, #64	@ 0x40
 80028f0:	d141      	bne.n	8002976 <HAL_UART_IRQHandler+0x212>
        {
          ATOMIC_CLEAR_BIT(huart->Instance->CR3, USART_CR3_DMAR);
 80028f2:	687b      	ldr	r3, [r7, #4]
 80028f4:	681b      	ldr	r3, [r3, #0]
 80028f6:	3314      	adds	r3, #20
 80028f8:	f8c7 309c 	str.w	r3, [r7, #156]	@ 0x9c
 */
__STATIC_FORCEINLINE uint32_t __LDREXW(volatile uint32_t *addr)
{
    uint32_t result;

   __ASM volatile ("ldrex %0, %1" : "=r" (result) : "Q" (*addr) );
 80028fc:	f8d7 309c 	ldr.w	r3, [r7, #156]	@ 0x9c
 8002900:	e853 3f00 	ldrex	r3, [r3]
 8002904:	f8c7 3098 	str.w	r3, [r7, #152]	@ 0x98
   return(result);
 8002908:	f8d7 3098 	ldr.w	r3, [r7, #152]	@ 0x98
 800290c:	f023 0340 	bic.w	r3, r3, #64	@ 0x40
 8002910:	f8c7 30d0 	str.w	r3, [r7, #208]	@ 0xd0
 8002914:	687b      	ldr	r3, [r7, #4]
 8002916:	681b      	ldr	r3, [r3, #0]
 8002918:	3314      	adds	r3, #20
 800291a:	f8d7 20d0 	ldr.w	r2, [r7, #208]	@ 0xd0
 800291e:	f8c7 20a8 	str.w	r2, [r7, #168]	@ 0xa8
 8002922:	f8c7 30a4 	str.w	r3, [r7, #164]	@ 0xa4
 */
__STATIC_FORCEINLINE uint32_t __STREXW(uint32_t value, volatile uint32_t *addr)
{
   uint32_t result;

   __ASM volatile ("strex %0, %2, %1" : "=&r" (result), "=Q" (*addr) : "r" (value) );
 8002926:	f8d7 10a4 	ldr.w	r1, [r7, #164]	@ 0xa4
 800292a:	f8d7 20a8 	ldr.w	r2, [r7, #168]	@ 0xa8
 800292e:	e841 2300 	strex	r3, r2, [r1]
 8002932:	f8c7 30a0 	str.w	r3, [r7, #160]	@ 0xa0
   return(result);
 8002936:	f8d7 30a0 	ldr.w	r3, [r7, #160]	@ 0xa0
 800293a:	2b00      	cmp	r3, #0
 800293c:	d1d9      	bne.n	80028f2 <HAL_UART_IRQHandler+0x18e>

          /* Abort the UART DMA Rx stream */
          if (huart->hdmarx != NULL)
 800293e:	687b      	ldr	r3, [r7, #4]
 8002940:	6b9b      	ldr	r3, [r3, #56]	@ 0x38
 8002942:	2b00      	cmp	r3, #0
 8002944:	d013      	beq.n	800296e <HAL_UART_IRQHandler+0x20a>
          {
            /* Set the UART DMA Abort callback :
               will lead to call HAL_UART_ErrorCallback() at end of DMA abort procedure */
            huart->hdmarx->XferAbortCallback = UART_DMAAbortOnError;
 8002946:	687b      	ldr	r3, [r7, #4]
 8002948:	6b9b      	ldr	r3, [r3, #56]	@ 0x38
 800294a:	4a7d      	ldr	r2, [pc, #500]	@ (8002b40 <HAL_UART_IRQHandler+0x3dc>)
 800294c:	651a      	str	r2, [r3, #80]	@ 0x50
            if (HAL_DMA_Abort_IT(huart->hdmarx) != HAL_OK)
 800294e:	687b      	ldr	r3, [r7, #4]
 8002950:	6b9b      	ldr	r3, [r3, #56]	@ 0x38
 8002952:	4618      	mov	r0, r3
 8002954:	f7fe ff9d 	bl	8001892 <HAL_DMA_Abort_IT>
 8002958:	4603      	mov	r3, r0
 800295a:	2b00      	cmp	r3, #0
 800295c:	d016      	beq.n	800298c <HAL_UART_IRQHandler+0x228>
            {
              /* Call Directly XferAbortCallback function in case of error */
              huart->hdmarx->XferAbortCallback(huart->hdmarx);
 800295e:	687b      	ldr	r3, [r7, #4]
 8002960:	6b9b      	ldr	r3, [r3, #56]	@ 0x38
 8002962:	6d1b      	ldr	r3, [r3, #80]	@ 0x50
 8002964:	687a      	ldr	r2, [r7, #4]
 8002966:	6b92      	ldr	r2, [r2, #56]	@ 0x38
 8002968:	4610      	mov	r0, r2
 800296a:	4798      	blx	r3
        if (HAL_IS_BIT_SET(huart->Instance->CR3, USART_CR3_DMAR))
 800296c:	e00e      	b.n	800298c <HAL_UART_IRQHandler+0x228>
#if (USE_HAL_UART_REGISTER_CALLBACKS == 1)
            /*Call registered error callback*/
            huart->ErrorCallback(huart);
#else
            /*Call legacy weak error callback*/
            HAL_UART_ErrorCallback(huart);
 800296e:	6878      	ldr	r0, [r7, #4]
 8002970:	f000 f990 	bl	8002c94 <HAL_UART_ErrorCallback>
        if (HAL_IS_BIT_SET(huart->Instance->CR3, USART_CR3_DMAR))
 8002974:	e00a      	b.n	800298c <HAL_UART_IRQHandler+0x228>
#if (USE_HAL_UART_REGISTER_CALLBACKS == 1)
          /*Call registered error callback*/
          huart->ErrorCallback(huart);
#else
          /*Call legacy weak error callback*/
          HAL_UART_ErrorCallback(huart);
 8002976:	6878      	ldr	r0, [r7, #4]
 8002978:	f000 f98c 	bl	8002c94 <HAL_UART_ErrorCallback>
        if (HAL_IS_BIT_SET(huart->Instance->CR3, USART_CR3_DMAR))
 800297c:	e006      	b.n	800298c <HAL_UART_IRQHandler+0x228>
#if (USE_HAL_UART_REGISTER_CALLBACKS == 1)
        /*Call registered error callback*/
        huart->ErrorCallback(huart);
#else
        /*Call legacy weak error callback*/
        HAL_UART_ErrorCallback(huart);
 800297e:	6878      	ldr	r0, [r7, #4]
 8002980:	f000 f988 	bl	8002c94 <HAL_UART_ErrorCallback>
#endif /* USE_HAL_UART_REGISTER_CALLBACKS */

        huart->ErrorCode = HAL_UART_ERROR_NONE;
 8002984:	687b      	ldr	r3, [r7, #4]
 8002986:	2200      	movs	r2, #0
 8002988:	641a      	str	r2, [r3, #64]	@ 0x40
      }
    }
    return;
 800298a:	e170      	b.n	8002c6e <HAL_UART_IRQHandler+0x50a>
        if (HAL_IS_BIT_SET(huart->Instance->CR3, USART_CR3_DMAR))
 800298c:	bf00      	nop
    return;
 800298e:	e16e      	b.n	8002c6e <HAL_UART_IRQHandler+0x50a>
  } /* End if some error occurs */

  /* Check current reception Mode :
     If Reception till IDLE event has been selected : */
  if ((huart->ReceptionType == HAL_UART_RECEPTION_TOIDLE)
 8002990:	687b      	ldr	r3, [r7, #4]
 8002992:	6b1b      	ldr	r3, [r3, #48]	@ 0x30
 8002994:	2b01      	cmp	r3, #1
 8002996:	f040 814a 	bne.w	8002c2e <HAL_UART_IRQHandler+0x4ca>
      && ((isrflags & USART_SR_IDLE) != 0U)
 800299a:	f8d7 30e4 	ldr.w	r3, [r7, #228]	@ 0xe4
 800299e:	f003 0310 	and.w	r3, r3, #16
 80029a2:	2b00      	cmp	r3, #0
 80029a4:	f000 8143 	beq.w	8002c2e <HAL_UART_IRQHandler+0x4ca>
      && ((cr1its & USART_SR_IDLE) != 0U))
 80029a8:	f8d7 30e0 	ldr.w	r3, [r7, #224]	@ 0xe0
 80029ac:	f003 0310 	and.w	r3, r3, #16
 80029b0:	2b00      	cmp	r3, #0
 80029b2:	f000 813c 	beq.w	8002c2e <HAL_UART_IRQHandler+0x4ca>
  {
    __HAL_UART_CLEAR_IDLEFLAG(huart);
 80029b6:	2300      	movs	r3, #0
 80029b8:	60bb      	str	r3, [r7, #8]
 80029ba:	687b      	ldr	r3, [r7, #4]
 80029bc:	681b      	ldr	r3, [r3, #0]
 80029be:	681b      	ldr	r3, [r3, #0]
 80029c0:	60bb      	str	r3, [r7, #8]
 80029c2:	687b      	ldr	r3, [r7, #4]
 80029c4:	681b      	ldr	r3, [r3, #0]
 80029c6:	685b      	ldr	r3, [r3, #4]
 80029c8:	60bb      	str	r3, [r7, #8]
 80029ca:	68bb      	ldr	r3, [r7, #8]

    /* Check if DMA mode is enabled in UART */
    if (HAL_IS_BIT_SET(huart->Instance->CR3, USART_CR3_DMAR))
 80029cc:	687b      	ldr	r3, [r7, #4]
 80029ce:	681b      	ldr	r3, [r3, #0]
 80029d0:	695b      	ldr	r3, [r3, #20]
 80029d2:	f003 0340 	and.w	r3, r3, #64	@ 0x40
 80029d6:	2b40      	cmp	r3, #64	@ 0x40
 80029d8:	f040 80b4 	bne.w	8002b44 <HAL_UART_IRQHandler+0x3e0>
    {
      /* DMA mode enabled */
      /* Check received length : If all expected data are received, do nothing,
         (DMA cplt callback will be called).
         Otherwise, if at least one data has already been received, IDLE event is to be notified to user */
      uint16_t nb_remaining_rx_data = (uint16_t) __HAL_DMA_GET_COUNTER(huart->hdmarx);
 80029dc:	687b      	ldr	r3, [r7, #4]
 80029de:	6b9b      	ldr	r3, [r3, #56]	@ 0x38
 80029e0:	681b      	ldr	r3, [r3, #0]
 80029e2:	685b      	ldr	r3, [r3, #4]
 80029e4:	f8a7 30be 	strh.w	r3, [r7, #190]	@ 0xbe
      if ((nb_remaining_rx_data > 0U)
 80029e8:	f8b7 30be 	ldrh.w	r3, [r7, #190]	@ 0xbe
 80029ec:	2b00      	cmp	r3, #0
 80029ee:	f000 8140 	beq.w	8002c72 <HAL_UART_IRQHandler+0x50e>
          && (nb_remaining_rx_data < huart->RxXferSize))
 80029f2:	687b      	ldr	r3, [r7, #4]
 80029f4:	8d9b      	ldrh	r3, [r3, #44]	@ 0x2c
 80029f6:	f8b7 20be 	ldrh.w	r2, [r7, #190]	@ 0xbe
 80029fa:	429a      	cmp	r2, r3
 80029fc:	f080 8139 	bcs.w	8002c72 <HAL_UART_IRQHandler+0x50e>
      {
        /* Reception is not complete */
        huart->RxXferCount = nb_remaining_rx_data;
 8002a00:	687b      	ldr	r3, [r7, #4]
 8002a02:	f8b7 20be 	ldrh.w	r2, [r7, #190]	@ 0xbe
 8002a06:	85da      	strh	r2, [r3, #46]	@ 0x2e

        /* In Normal mode, end DMA xfer and HAL UART Rx process*/
        if (huart->hdmarx->Init.Mode != DMA_CIRCULAR)
 8002a08:	687b      	ldr	r3, [r7, #4]
 8002a0a:	6b9b      	ldr	r3, [r3, #56]	@ 0x38
 8002a0c:	69db      	ldr	r3, [r3, #28]
 8002a0e:	f5b3 7f80 	cmp.w	r3, #256	@ 0x100
 8002a12:	f000 8088 	beq.w	8002b26 <HAL_UART_IRQHandler+0x3c2>
        {
          /* Disable PE and ERR (Frame error, noise error, overrun error) interrupts */
          ATOMIC_CLEAR_BIT(huart->Instance->CR1, USART_CR1_PEIE);
 8002a16:	687b      	ldr	r3, [r7, #4]
 8002a18:	681b      	ldr	r3, [r3, #0]
 8002a1a:	330c      	adds	r3, #12
 8002a1c:	f8c7 3088 	str.w	r3, [r7, #136]	@ 0x88
   __ASM volatile ("ldrex %0, %1" : "=r" (result) : "Q" (*addr) );
 8002a20:	f8d7 3088 	ldr.w	r3, [r7, #136]	@ 0x88
 8002a24:	e853 3f00 	ldrex	r3, [r3]
 8002a28:	f8c7 3084 	str.w	r3, [r7, #132]	@ 0x84
   return(result);
 8002a2c:	f8d7 3084 	ldr.w	r3, [r7, #132]	@ 0x84
 8002a30:	f423 7380 	bic.w	r3, r3, #256	@ 0x100
 8002a34:	f8c7 30b8 	str.w	r3, [r7, #184]	@ 0xb8
 8002a38:	687b      	ldr	r3, [r7, #4]
 8002a3a:	681b      	ldr	r3, [r3, #0]
 8002a3c:	330c      	adds	r3, #12
 8002a3e:	f8d7 20b8 	ldr.w	r2, [r7, #184]	@ 0xb8
 8002a42:	f8c7 2094 	str.w	r2, [r7, #148]	@ 0x94
 8002a46:	f8c7 3090 	str.w	r3, [r7, #144]	@ 0x90
   __ASM volatile ("strex %0, %2, %1" : "=&r" (result), "=Q" (*addr) : "r" (value) );
 8002a4a:	f8d7 1090 	ldr.w	r1, [r7, #144]	@ 0x90
 8002a4e:	f8d7 2094 	ldr.w	r2, [r7, #148]	@ 0x94
 8002a52:	e841 2300 	strex	r3, r2, [r1]
 8002a56:	f8c7 308c 	str.w	r3, [r7, #140]	@ 0x8c
   return(result);
 8002a5a:	f8d7 308c 	ldr.w	r3, [r7, #140]	@ 0x8c
 8002a5e:	2b00      	cmp	r3, #0
 8002a60:	d1d9      	bne.n	8002a16 <HAL_UART_IRQHandler+0x2b2>
          ATOMIC_CLEAR_BIT(huart->Instance->CR3, USART_CR3_EIE);
 8002a62:	687b      	ldr	r3, [r7, #4]
 8002a64:	681b      	ldr	r3, [r3, #0]
 8002a66:	3314      	adds	r3, #20
 8002a68:	677b      	str	r3, [r7, #116]	@ 0x74
   __ASM volatile ("ldrex %0, %1" : "=r" (result) : "Q" (*addr) );
 8002a6a:	6f7b      	ldr	r3, [r7, #116]	@ 0x74
 8002a6c:	e853 3f00 	ldrex	r3, [r3]
 8002a70:	673b      	str	r3, [r7, #112]	@ 0x70
   return(result);
 8002a72:	6f3b      	ldr	r3, [r7, #112]	@ 0x70
 8002a74:	f023 0301 	bic.w	r3, r3, #1
 8002a78:	f8c7 30b4 	str.w	r3, [r7, #180]	@ 0xb4
 8002a7c:	687b      	ldr	r3, [r7, #4]
 8002a7e:	681b      	ldr	r3, [r3, #0]
 8002a80:	3314      	adds	r3, #20
 8002a82:	f8d7 20b4 	ldr.w	r2, [r7, #180]	@ 0xb4
 8002a86:	f8c7 2080 	str.w	r2, [r7, #128]	@ 0x80
 8002a8a:	67fb      	str	r3, [r7, #124]	@ 0x7c
   __ASM volatile ("strex %0, %2, %1" : "=&r" (result), "=Q" (*addr) : "r" (value) );
 8002a8c:	6ff9      	ldr	r1, [r7, #124]	@ 0x7c
 8002a8e:	f8d7 2080 	ldr.w	r2, [r7, #128]	@ 0x80
 8002a92:	e841 2300 	strex	r3, r2, [r1]
 8002a96:	67bb      	str	r3, [r7, #120]	@ 0x78
   return(result);
 8002a98:	6fbb      	ldr	r3, [r7, #120]	@ 0x78
 8002a9a:	2b00      	cmp	r3, #0
 8002a9c:	d1e1      	bne.n	8002a62 <HAL_UART_IRQHandler+0x2fe>

          /* Disable the DMA transfer for the receiver request by resetting the DMAR bit
             in the UART CR3 register */
          ATOMIC_CLEAR_BIT(huart->Instance->CR3, USART_CR3_DMAR);
 8002a9e:	687b      	ldr	r3, [r7, #4]
 8002aa0:	681b      	ldr	r3, [r3, #0]
 8002aa2:	3314      	adds	r3, #20
 8002aa4:	663b      	str	r3, [r7, #96]	@ 0x60
   __ASM volatile ("ldrex %0, %1" : "=r" (result) : "Q" (*addr) );
 8002aa6:	6e3b      	ldr	r3, [r7, #96]	@ 0x60
 8002aa8:	e853 3f00 	ldrex	r3, [r3]
 8002aac:	65fb      	str	r3, [r7, #92]	@ 0x5c
   return(result);
 8002aae:	6dfb      	ldr	r3, [r7, #92]	@ 0x5c
 8002ab0:	f023 0340 	bic.w	r3, r3, #64	@ 0x40
 8002ab4:	f8c7 30b0 	str.w	r3, [r7, #176]	@ 0xb0
 8002ab8:	687b      	ldr	r3, [r7, #4]
 8002aba:	681b      	ldr	r3, [r3, #0]
 8002abc:	3314      	adds	r3, #20
 8002abe:	f8d7 20b0 	ldr.w	r2, [r7, #176]	@ 0xb0
 8002ac2:	66fa      	str	r2, [r7, #108]	@ 0x6c
 8002ac4:	66bb      	str	r3, [r7, #104]	@ 0x68
   __ASM volatile ("strex %0, %2, %1" : "=&r" (result), "=Q" (*addr) : "r" (value) );
 8002ac6:	6eb9      	ldr	r1, [r7, #104]	@ 0x68
 8002ac8:	6efa      	ldr	r2, [r7, #108]	@ 0x6c
 8002aca:	e841 2300 	strex	r3, r2, [r1]
 8002ace:	667b      	str	r3, [r7, #100]	@ 0x64
   return(result);
 8002ad0:	6e7b      	ldr	r3, [r7, #100]	@ 0x64
 8002ad2:	2b00      	cmp	r3, #0
 8002ad4:	d1e3      	bne.n	8002a9e <HAL_UART_IRQHandler+0x33a>

          /* At end of Rx process, restore huart->RxState to Ready */
          huart->RxState = HAL_UART_STATE_READY;
 8002ad6:	687b      	ldr	r3, [r7, #4]
 8002ad8:	2220      	movs	r2, #32
 8002ada:	f883 203e 	strb.w	r2, [r3, #62]	@ 0x3e
          huart->ReceptionType = HAL_UART_RECEPTION_STANDARD;
 8002ade:	687b      	ldr	r3, [r7, #4]
 8002ae0:	2200      	movs	r2, #0
 8002ae2:	631a      	str	r2, [r3, #48]	@ 0x30

          ATOMIC_CLEAR_BIT(huart->Instance->CR1, USART_CR1_IDLEIE);
 8002ae4:	687b      	ldr	r3, [r7, #4]
 8002ae6:	681b      	ldr	r3, [r3, #0]
 8002ae8:	330c      	adds	r3, #12
 8002aea:	64fb      	str	r3, [r7, #76]	@ 0x4c
   __ASM volatile ("ldrex %0, %1" : "=r" (result) : "Q" (*addr) );
 8002aec:	6cfb      	ldr	r3, [r7, #76]	@ 0x4c
 8002aee:	e853 3f00 	ldrex	r3, [r3]
 8002af2:	64bb      	str	r3, [r7, #72]	@ 0x48
   return(result);
 8002af4:	6cbb      	ldr	r3, [r7, #72]	@ 0x48
 8002af6:	f023 0310 	bic.w	r3, r3, #16
 8002afa:	f8c7 30ac 	str.w	r3, [r7, #172]	@ 0xac
 8002afe:	687b      	ldr	r3, [r7, #4]
 8002b00:	681b      	ldr	r3, [r3, #0]
 8002b02:	330c      	adds	r3, #12
 8002b04:	f8d7 20ac 	ldr.w	r2, [r7, #172]	@ 0xac
 8002b08:	65ba      	str	r2, [r7, #88]	@ 0x58
 8002b0a:	657b      	str	r3, [r7, #84]	@ 0x54
   __ASM volatile ("strex %0, %2, %1" : "=&r" (result), "=Q" (*addr) : "r" (value) );
 8002b0c:	6d79      	ldr	r1, [r7, #84]	@ 0x54
 8002b0e:	6dba      	ldr	r2, [r7, #88]	@ 0x58
 8002b10:	e841 2300 	strex	r3, r2, [r1]
 8002b14:	653b      	str	r3, [r7, #80]	@ 0x50
   return(result);
 8002b16:	6d3b      	ldr	r3, [r7, #80]	@ 0x50
 8002b18:	2b00      	cmp	r3, #0
 8002b1a:	d1e3      	bne.n	8002ae4 <HAL_UART_IRQHandler+0x380>

          /* Last bytes received, so no need as the abort is immediate */
          (void)HAL_DMA_Abort(huart->hdmarx);
 8002b1c:	687b      	ldr	r3, [r7, #4]
 8002b1e:	6b9b      	ldr	r3, [r3, #56]	@ 0x38
 8002b20:	4618      	mov	r0, r3
 8002b22:	f7fe fe46 	bl	80017b2 <HAL_DMA_Abort>
#if (USE_HAL_UART_REGISTER_CALLBACKS == 1)
        /*Call registered Rx Event callback*/
        huart->RxEventCallback(huart, (huart->RxXferSize - huart->RxXferCount));
#else
        /*Call legacy weak Rx Event callback*/
        HAL_UARTEx_RxEventCallback(huart, (huart->RxXferSize - huart->RxXferCount));
 8002b26:	687b      	ldr	r3, [r7, #4]
 8002b28:	8d9a      	ldrh	r2, [r3, #44]	@ 0x2c
 8002b2a:	687b      	ldr	r3, [r7, #4]
 8002b2c:	8ddb      	ldrh	r3, [r3, #46]	@ 0x2e
 8002b2e:	b29b      	uxth	r3, r3
 8002b30:	1ad3      	subs	r3, r2, r3
 8002b32:	b29b      	uxth	r3, r3
 8002b34:	4619      	mov	r1, r3
 8002b36:	6878      	ldr	r0, [r7, #4]
 8002b38:	f000 f8b6 	bl	8002ca8 <HAL_UARTEx_RxEventCallback>
#endif /* USE_HAL_UART_REGISTER_CALLBACKS */
      }
      return;
 8002b3c:	e099      	b.n	8002c72 <HAL_UART_IRQHandler+0x50e>
 8002b3e:	bf00      	nop
 8002b40:	08002edf 	.word	0x08002edf
    else
    {
      /* DMA mode not enabled */
      /* Check received length : If all expected data are received, do nothing.
         Otherwise, if at least one data has already been received, IDLE event is to be notified to user */
      uint16_t nb_rx_data = huart->RxXferSize - huart->RxXferCount;
 8002b44:	687b      	ldr	r3, [r7, #4]
 8002b46:	8d9a      	ldrh	r2, [r3, #44]	@ 0x2c
 8002b48:	687b      	ldr	r3, [r7, #4]
 8002b4a:	8ddb      	ldrh	r3, [r3, #46]	@ 0x2e
 8002b4c:	b29b      	uxth	r3, r3
 8002b4e:	1ad3      	subs	r3, r2, r3
 8002b50:	f8a7 30ce 	strh.w	r3, [r7, #206]	@ 0xce
      if ((huart->RxXferCount > 0U)
 8002b54:	687b      	ldr	r3, [r7, #4]
 8002b56:	8ddb      	ldrh	r3, [r3, #46]	@ 0x2e
 8002b58:	b29b      	uxth	r3, r3
 8002b5a:	2b00      	cmp	r3, #0
 8002b5c:	f000 808b 	beq.w	8002c76 <HAL_UART_IRQHandler+0x512>
          && (nb_rx_data > 0U))
 8002b60:	f8b7 30ce 	ldrh.w	r3, [r7, #206]	@ 0xce
 8002b64:	2b00      	cmp	r3, #0
 8002b66:	f000 8086 	beq.w	8002c76 <HAL_UART_IRQHandler+0x512>
      {
        /* Disable the UART Parity Error Interrupt and RXNE interrupts */
        ATOMIC_CLEAR_BIT(huart->Instance->CR1, (USART_CR1_RXNEIE | USART_CR1_PEIE));
 8002b6a:	687b      	ldr	r3, [r7, #4]
 8002b6c:	681b      	ldr	r3, [r3, #0]
 8002b6e:	330c      	adds	r3, #12
 8002b70:	63bb      	str	r3, [r7, #56]	@ 0x38
   __ASM volatile ("ldrex %0, %1" : "=r" (result) : "Q" (*addr) );
 8002b72:	6bbb      	ldr	r3, [r7, #56]	@ 0x38
 8002b74:	e853 3f00 	ldrex	r3, [r3]
 8002b78:	637b      	str	r3, [r7, #52]	@ 0x34
   return(result);
 8002b7a:	6b7b      	ldr	r3, [r7, #52]	@ 0x34
 8002b7c:	f423 7390 	bic.w	r3, r3, #288	@ 0x120
 8002b80:	f8c7 30c8 	str.w	r3, [r7, #200]	@ 0xc8
 8002b84:	687b      	ldr	r3, [r7, #4]
 8002b86:	681b      	ldr	r3, [r3, #0]
 8002b88:	330c      	adds	r3, #12
 8002b8a:	f8d7 20c8 	ldr.w	r2, [r7, #200]	@ 0xc8
 8002b8e:	647a      	str	r2, [r7, #68]	@ 0x44
 8002b90:	643b      	str	r3, [r7, #64]	@ 0x40
   __ASM volatile ("strex %0, %2, %1" : "=&r" (result), "=Q" (*addr) : "r" (value) );
 8002b92:	6c39      	ldr	r1, [r7, #64]	@ 0x40
 8002b94:	6c7a      	ldr	r2, [r7, #68]	@ 0x44
 8002b96:	e841 2300 	strex	r3, r2, [r1]
 8002b9a:	63fb      	str	r3, [r7, #60]	@ 0x3c
   return(result);
 8002b9c:	6bfb      	ldr	r3, [r7, #60]	@ 0x3c
 8002b9e:	2b00      	cmp	r3, #0
 8002ba0:	d1e3      	bne.n	8002b6a <HAL_UART_IRQHandler+0x406>

        /* Disable the UART Error Interrupt: (Frame error, noise error, overrun error) */
        ATOMIC_CLEAR_BIT(huart->Instance->CR3, USART_CR3_EIE);
 8002ba2:	687b      	ldr	r3, [r7, #4]
 8002ba4:	681b      	ldr	r3, [r3, #0]
 8002ba6:	3314      	adds	r3, #20
 8002ba8:	627b      	str	r3, [r7, #36]	@ 0x24
   __ASM volatile ("ldrex %0, %1" : "=r" (result) : "Q" (*addr) );
 8002baa:	6a7b      	ldr	r3, [r7, #36]	@ 0x24
 8002bac:	e853 3f00 	ldrex	r3, [r3]
 8002bb0:	623b      	str	r3, [r7, #32]
   return(result);
 8002bb2:	6a3b      	ldr	r3, [r7, #32]
 8002bb4:	f023 0301 	bic.w	r3, r3, #1
 8002bb8:	f8c7 30c4 	str.w	r3, [r7, #196]	@ 0xc4
 8002bbc:	687b      	ldr	r3, [r7, #4]
 8002bbe:	681b      	ldr	r3, [r3, #0]
 8002bc0:	3314      	adds	r3, #20
 8002bc2:	f8d7 20c4 	ldr.w	r2, [r7, #196]	@ 0xc4
 8002bc6:	633a      	str	r2, [r7, #48]	@ 0x30
 8002bc8:	62fb      	str	r3, [r7, #44]	@ 0x2c
   __ASM volatile ("strex %0, %2, %1" : "=&r" (result), "=Q" (*addr) : "r" (value) );
 8002bca:	6af9      	ldr	r1, [r7, #44]	@ 0x2c
 8002bcc:	6b3a      	ldr	r2, [r7, #48]	@ 0x30
 8002bce:	e841 2300 	strex	r3, r2, [r1]
 8002bd2:	62bb      	str	r3, [r7, #40]	@ 0x28
   return(result);
 8002bd4:	6abb      	ldr	r3, [r7, #40]	@ 0x28
 8002bd6:	2b00      	cmp	r3, #0
 8002bd8:	d1e3      	bne.n	8002ba2 <HAL_UART_IRQHandler+0x43e>

        /* Rx process is completed, restore huart->RxState to Ready */
        huart->RxState = HAL_UART_STATE_READY;
 8002bda:	687b      	ldr	r3, [r7, #4]
 8002bdc:	2220      	movs	r2, #32
 8002bde:	f883 203e 	strb.w	r2, [r3, #62]	@ 0x3e
        huart->ReceptionType = HAL_UART_RECEPTION_STANDARD;
 8002be2:	687b      	ldr	r3, [r7, #4]
 8002be4:	2200      	movs	r2, #0
 8002be6:	631a      	str	r2, [r3, #48]	@ 0x30

        ATOMIC_CLEAR_BIT(huart->Instance->CR1, USART_CR1_IDLEIE);
 8002be8:	687b      	ldr	r3, [r7, #4]
 8002bea:	681b      	ldr	r3, [r3, #0]
 8002bec:	330c      	adds	r3, #12
 8002bee:	613b      	str	r3, [r7, #16]
   __ASM volatile ("ldrex %0, %1" : "=r" (result) : "Q" (*addr) );
 8002bf0:	693b      	ldr	r3, [r7, #16]
 8002bf2:	e853 3f00 	ldrex	r3, [r3]
 8002bf6:	60fb      	str	r3, [r7, #12]
   return(result);
 8002bf8:	68fb      	ldr	r3, [r7, #12]
 8002bfa:	f023 0310 	bic.w	r3, r3, #16
 8002bfe:	f8c7 30c0 	str.w	r3, [r7, #192]	@ 0xc0
 8002c02:	687b      	ldr	r3, [r7, #4]
 8002c04:	681b      	ldr	r3, [r3, #0]
 8002c06:	330c      	adds	r3, #12
 8002c08:	f8d7 20c0 	ldr.w	r2, [r7, #192]	@ 0xc0
 8002c0c:	61fa      	str	r2, [r7, #28]
 8002c0e:	61bb      	str	r3, [r7, #24]
   __ASM volatile ("strex %0, %2, %1" : "=&r" (result), "=Q" (*addr) : "r" (value) );
 8002c10:	69b9      	ldr	r1, [r7, #24]
 8002c12:	69fa      	ldr	r2, [r7, #28]
 8002c14:	e841 2300 	strex	r3, r2, [r1]
 8002c18:	617b      	str	r3, [r7, #20]
   return(result);
 8002c1a:	697b      	ldr	r3, [r7, #20]
 8002c1c:	2b00      	cmp	r3, #0
 8002c1e:	d1e3      	bne.n	8002be8 <HAL_UART_IRQHandler+0x484>
#if (USE_HAL_UART_REGISTER_CALLBACKS == 1)
        /*Call registered Rx complete callback*/
        huart->RxEventCallback(huart, nb_rx_data);
#else
        /*Call legacy weak Rx Event callback*/
        HAL_UARTEx_RxEventCallback(huart, nb_rx_data);
 8002c20:	f8b7 30ce 	ldrh.w	r3, [r7, #206]	@ 0xce
 8002c24:	4619      	mov	r1, r3
 8002c26:	6878      	ldr	r0, [r7, #4]
 8002c28:	f000 f83e 	bl	8002ca8 <HAL_UARTEx_RxEventCallback>
#endif /* USE_HAL_UART_REGISTER_CALLBACKS */
      }
      return;
 8002c2c:	e023      	b.n	8002c76 <HAL_UART_IRQHandler+0x512>
    }
  }

  /* UART in mode Transmitter ------------------------------------------------*/
  if (((isrflags & USART_SR_TXE) != RESET) && ((cr1its & USART_CR1_TXEIE) != RESET))
 8002c2e:	f8d7 30e4 	ldr.w	r3, [r7, #228]	@ 0xe4
 8002c32:	f003 0380 	and.w	r3, r3, #128	@ 0x80
 8002c36:	2b00      	cmp	r3, #0
 8002c38:	d009      	beq.n	8002c4e <HAL_UART_IRQHandler+0x4ea>
 8002c3a:	f8d7 30e0 	ldr.w	r3, [r7, #224]	@ 0xe0
 8002c3e:	f003 0380 	and.w	r3, r3, #128	@ 0x80
 8002c42:	2b00      	cmp	r3, #0
 8002c44:	d003      	beq.n	8002c4e <HAL_UART_IRQHandler+0x4ea>
  {
    UART_Transmit_IT(huart);
 8002c46:	6878      	ldr	r0, [r7, #4]
 8002c48:	f000 f95d 	bl	8002f06 <UART_Transmit_IT>
    return;
 8002c4c:	e014      	b.n	8002c78 <HAL_UART_IRQHandler+0x514>
  }

  /* UART in mode Transmitter end --------------------------------------------*/
  if (((isrflags & USART_SR_TC) != RESET) && ((cr1its & USART_CR1_TCIE) != RESET))
 8002c4e:	f8d7 30e4 	ldr.w	r3, [r7, #228]	@ 0xe4
 8002c52:	f003 0340 	and.w	r3, r3, #64	@ 0x40
 8002c56:	2b00      	cmp	r3, #0
 8002c58:	d00e      	beq.n	8002c78 <HAL_UART_IRQHandler+0x514>
 8002c5a:	f8d7 30e0 	ldr.w	r3, [r7, #224]	@ 0xe0
 8002c5e:	f003 0340 	and.w	r3, r3, #64	@ 0x40
 8002c62:	2b00      	cmp	r3, #0
 8002c64:	d008      	beq.n	8002c78 <HAL_UART_IRQHandler+0x514>
  {
    UART_EndTransmit_IT(huart);
 8002c66:	6878      	ldr	r0, [r7, #4]
 8002c68:	f000 f99d 	bl	8002fa6 <UART_EndTransmit_IT>
    return;
 8002c6c:	e004      	b.n	8002c78 <HAL_UART_IRQHandler+0x514>
    return;
 8002c6e:	bf00      	nop
 8002c70:	e002      	b.n	8002c78 <HAL_UART_IRQHandler+0x514>
      return;
 8002c72:	bf00      	nop
 8002c74:	e000      	b.n	8002c78 <HAL_UART_IRQHandler+0x514>
      return;
 8002c76:	bf00      	nop
  }
}
 8002c78:	37e8      	adds	r7, #232	@ 0xe8
 8002c7a:	46bd      	mov	sp, r7
 8002c7c:	bd80      	pop	{r7, pc}
 8002c7e:	bf00      	nop

08002c80 <HAL_UART_TxCpltCallback>:
  * @param  huart  Pointer to a UART_HandleTypeDef structure that contains
  *                the configuration information for the specified UART module.
  * @retval None
  */
__weak void HAL_UART_TxCpltCallback(UART_HandleTypeDef *huart)
{
 8002c80:	b480      	push	{r7}
 8002c82:	b083      	sub	sp, #12
 8002c84:	af00      	add	r7, sp, #0
 8002c86:	6078      	str	r0, [r7, #4]
  /* Prevent unused argument(s) compilation warning */
  UNUSED(huart);
  /* NOTE: This function should not be modified, when the callback is needed,
           the HAL_UART_TxCpltCallback could be implemented in the user file
   */
}
 8002c88:	bf00      	nop
 8002c8a:	370c      	adds	r7, #12
 8002c8c:	46bd      	mov	sp, r7
 8002c8e:	f85d 7b04 	ldr.w	r7, [sp], #4
 8002c92:	4770      	bx	lr

08002c94 <HAL_UART_ErrorCallback>:
  * @param  huart  Pointer to a UART_HandleTypeDef structure that contains
  *                the configuration information for the specified UART module.
  * @retval None
  */
__weak void HAL_UART_ErrorCallback(UART_HandleTypeDef *huart)
{
 8002c94:	b480      	push	{r7}
 8002c96:	b083      	sub	sp, #12
 8002c98:	af00      	add	r7, sp, #0
 8002c9a:	6078      	str	r0, [r7, #4]
  /* Prevent unused argument(s) compilation warning */
  UNUSED(huart);
  /* NOTE: This function should not be modified, when the callback is needed,
           the HAL_UART_ErrorCallback could be implemented in the user file
   */
}
 8002c9c:	bf00      	nop
 8002c9e:	370c      	adds	r7, #12
 8002ca0:	46bd      	mov	sp, r7
 8002ca2:	f85d 7b04 	ldr.w	r7, [sp], #4
 8002ca6:	4770      	bx	lr

08002ca8 <HAL_UARTEx_RxEventCallback>:
  * @param  Size  Number of data available in application reception buffer (indicates a position in
  *               reception buffer until which, data are available)
  * @retval None
  */
__weak void HAL_UARTEx_RxEventCallback(UART_HandleTypeDef *huart, uint16_t Size)
{
 8002ca8:	b480      	push	{r7}
 8002caa:	b083      	sub	sp, #12
 8002cac:	af00      	add	r7, sp, #0
 8002cae:	6078      	str	r0, [r7, #4]
 8002cb0:	460b      	mov	r3, r1
 8002cb2:	807b      	strh	r3, [r7, #2]
  UNUSED(Size);

  /* NOTE : This function should not be modified, when the callback is needed,
            the HAL_UARTEx_RxEventCallback can be implemented in the user file.
   */
}
 8002cb4:	bf00      	nop
 8002cb6:	370c      	adds	r7, #12
 8002cb8:	46bd      	mov	sp, r7
 8002cba:	f85d 7b04 	ldr.w	r7, [sp], #4
 8002cbe:	4770      	bx	lr

08002cc0 <UART_WaitOnFlagUntilTimeout>:
  * @param  Timeout Timeout duration
  * @retval HAL status
  */
static HAL_StatusTypeDef UART_WaitOnFlagUntilTimeout(UART_HandleTypeDef *huart, uint32_t Flag, FlagStatus Status,
                                                     uint32_t Tickstart, uint32_t Timeout)
{
 8002cc0:	b580      	push	{r7, lr}
 8002cc2:	b090      	sub	sp, #64	@ 0x40
 8002cc4:	af00      	add	r7, sp, #0
 8002cc6:	60f8      	str	r0, [r7, #12]
 8002cc8:	60b9      	str	r1, [r7, #8]
 8002cca:	603b      	str	r3, [r7, #0]
 8002ccc:	4613      	mov	r3, r2
 8002cce:	71fb      	strb	r3, [r7, #7]
  /* Wait until flag is set */
  while ((__HAL_UART_GET_FLAG(huart, Flag) ? SET : RESET) == Status)
 8002cd0:	e050      	b.n	8002d74 <UART_WaitOnFlagUntilTimeout+0xb4>
  {
    /* Check for the Timeout */
    if (Timeout != HAL_MAX_DELAY)
 8002cd2:	6cbb      	ldr	r3, [r7, #72]	@ 0x48
 8002cd4:	f1b3 3fff 	cmp.w	r3, #4294967295
 8002cd8:	d04c      	beq.n	8002d74 <UART_WaitOnFlagUntilTimeout+0xb4>
    {
      if ((Timeout == 0U) || ((HAL_GetTick() - Tickstart) > Timeout))
 8002cda:	6cbb      	ldr	r3, [r7, #72]	@ 0x48
 8002cdc:	2b00      	cmp	r3, #0
 8002cde:	d007      	beq.n	8002cf0 <UART_WaitOnFlagUntilTimeout+0x30>
 8002ce0:	f7fe fc26 	bl	8001530 <HAL_GetTick>
 8002ce4:	4602      	mov	r2, r0
 8002ce6:	683b      	ldr	r3, [r7, #0]
 8002ce8:	1ad3      	subs	r3, r2, r3
 8002cea:	6cba      	ldr	r2, [r7, #72]	@ 0x48
 8002cec:	429a      	cmp	r2, r3
 8002cee:	d241      	bcs.n	8002d74 <UART_WaitOnFlagUntilTimeout+0xb4>
      {
        /* Disable TXE, RXNE, PE and ERR (Frame error, noise error, overrun error) interrupts for the interrupt process */
        ATOMIC_CLEAR_BIT(huart->Instance->CR1, (USART_CR1_RXNEIE | USART_CR1_PEIE | USART_CR1_TXEIE));
 8002cf0:	68fb      	ldr	r3, [r7, #12]
 8002cf2:	681b      	ldr	r3, [r3, #0]
 8002cf4:	330c      	adds	r3, #12
 8002cf6:	62bb      	str	r3, [r7, #40]	@ 0x28
   __ASM volatile ("ldrex %0, %1" : "=r" (result) : "Q" (*addr) );
 8002cf8:	6abb      	ldr	r3, [r7, #40]	@ 0x28
 8002cfa:	e853 3f00 	ldrex	r3, [r3]
 8002cfe:	627b      	str	r3, [r7, #36]	@ 0x24
   return(result);
 8002d00:	6a7b      	ldr	r3, [r7, #36]	@ 0x24
 8002d02:	f423 73d0 	bic.w	r3, r3, #416	@ 0x1a0
 8002d06:	63fb      	str	r3, [r7, #60]	@ 0x3c
 8002d08:	68fb      	ldr	r3, [r7, #12]
 8002d0a:	681b      	ldr	r3, [r3, #0]
 8002d0c:	330c      	adds	r3, #12
 8002d0e:	6bfa      	ldr	r2, [r7, #60]	@ 0x3c
 8002d10:	637a      	str	r2, [r7, #52]	@ 0x34
 8002d12:	633b      	str	r3, [r7, #48]	@ 0x30
   __ASM volatile ("strex %0, %2, %1" : "=&r" (result), "=Q" (*addr) : "r" (value) );
 8002d14:	6b39      	ldr	r1, [r7, #48]	@ 0x30
 8002d16:	6b7a      	ldr	r2, [r7, #52]	@ 0x34
 8002d18:	e841 2300 	strex	r3, r2, [r1]
 8002d1c:	62fb      	str	r3, [r7, #44]	@ 0x2c
   return(result);
 8002d1e:	6afb      	ldr	r3, [r7, #44]	@ 0x2c
 8002d20:	2b00      	cmp	r3, #0
 8002d22:	d1e5      	bne.n	8002cf0 <UART_WaitOnFlagUntilTimeout+0x30>
        ATOMIC_CLEAR_BIT(huart->Instance->CR3, USART_CR3_EIE);
 8002d24:	68fb      	ldr	r3, [r7, #12]
 8002d26:	681b      	ldr	r3, [r3, #0]
 8002d28:	3314      	adds	r3, #20
 8002d2a:	617b      	str	r3, [r7, #20]
   __ASM volatile ("ldrex %0, %1" : "=r" (result) : "Q" (*addr) );
 8002d2c:	697b      	ldr	r3, [r7, #20]
 8002d2e:	e853 3f00 	ldrex	r3, [r3]
 8002d32:	613b      	str	r3, [r7, #16]
   return(result);
 8002d34:	693b      	ldr	r3, [r7, #16]
 8002d36:	f023 0301 	bic.w	r3, r3, #1
 8002d3a:	63bb      	str	r3, [r7, #56]	@ 0x38
 8002d3c:	68fb      	ldr	r3, [r7, #12]
 8002d3e:	681b      	ldr	r3, [r3, #0]
 8002d40:	3314      	adds	r3, #20
 8002d42:	6bba      	ldr	r2, [r7, #56]	@ 0x38
 8002d44:	623a      	str	r2, [r7, #32]
 8002d46:	61fb      	str	r3, [r7, #28]
   __ASM volatile ("strex %0, %2, %1" : "=&r" (result), "=Q" (*addr) : "r" (value) );
 8002d48:	69f9      	ldr	r1, [r7, #28]
 8002d4a:	6a3a      	ldr	r2, [r7, #32]
 8002d4c:	e841 2300 	strex	r3, r2, [r1]
 8002d50:	61bb      	str	r3, [r7, #24]
   return(result);
 8002d52:	69bb      	ldr	r3, [r7, #24]
 8002d54:	2b00      	cmp	r3, #0
 8002d56:	d1e5      	bne.n	8002d24 <UART_WaitOnFlagUntilTimeout+0x64>

        huart->gState  = HAL_UART_STATE_READY;
 8002d58:	68fb      	ldr	r3, [r7, #12]
 8002d5a:	2220      	movs	r2, #32
 8002d5c:	f883 203d 	strb.w	r2, [r3, #61]	@ 0x3d
        huart->RxState = HAL_UART_STATE_READY;
 8002d60:	68fb      	ldr	r3, [r7, #12]
 8002d62:	2220      	movs	r2, #32
 8002d64:	f883 203e 	strb.w	r2, [r3, #62]	@ 0x3e

        /* Process Unlocked */
        __HAL_UNLOCK(huart);
 8002d68:	68fb      	ldr	r3, [r7, #12]
 8002d6a:	2200      	movs	r2, #0
 8002d6c:	f883 203c 	strb.w	r2, [r3, #60]	@ 0x3c

        return HAL_TIMEOUT;
 8002d70:	2303      	movs	r3, #3
 8002d72:	e00f      	b.n	8002d94 <UART_WaitOnFlagUntilTimeout+0xd4>
  while ((__HAL_UART_GET_FLAG(huart, Flag) ? SET : RESET) == Status)
 8002d74:	68fb      	ldr	r3, [r7, #12]
 8002d76:	681b      	ldr	r3, [r3, #0]
 8002d78:	681a      	ldr	r2, [r3, #0]
 8002d7a:	68bb      	ldr	r3, [r7, #8]
 8002d7c:	4013      	ands	r3, r2
 8002d7e:	68ba      	ldr	r2, [r7, #8]
 8002d80:	429a      	cmp	r2, r3
 8002d82:	bf0c      	ite	eq
 8002d84:	2301      	moveq	r3, #1
 8002d86:	2300      	movne	r3, #0
 8002d88:	b2db      	uxtb	r3, r3
 8002d8a:	461a      	mov	r2, r3
 8002d8c:	79fb      	ldrb	r3, [r7, #7]
 8002d8e:	429a      	cmp	r2, r3
 8002d90:	d09f      	beq.n	8002cd2 <UART_WaitOnFlagUntilTimeout+0x12>
      }
    }
  }
  return HAL_OK;
 8002d92:	2300      	movs	r3, #0
}
 8002d94:	4618      	mov	r0, r3
 8002d96:	3740      	adds	r7, #64	@ 0x40
 8002d98:	46bd      	mov	sp, r7
 8002d9a:	bd80      	pop	{r7, pc}

08002d9c <UART_Start_Receive_IT>:
  * @param  pData Pointer to data buffer (u8 or u16 data elements).
  * @param  Size  Amount of data elements (u8 or u16) to be received.
  * @retval HAL status
  */
HAL_StatusTypeDef UART_Start_Receive_IT(UART_HandleTypeDef *huart, uint8_t *pData, uint16_t Size)
{
 8002d9c:	b480      	push	{r7}
 8002d9e:	b085      	sub	sp, #20
 8002da0:	af00      	add	r7, sp, #0
 8002da2:	60f8      	str	r0, [r7, #12]
 8002da4:	60b9      	str	r1, [r7, #8]
 8002da6:	4613      	mov	r3, r2
 8002da8:	80fb      	strh	r3, [r7, #6]
  huart->pRxBuffPtr = pData;
 8002daa:	68fb      	ldr	r3, [r7, #12]
 8002dac:	68ba      	ldr	r2, [r7, #8]
 8002dae:	629a      	str	r2, [r3, #40]	@ 0x28
  huart->RxXferSize = Size;
 8002db0:	68fb      	ldr	r3, [r7, #12]
 8002db2:	88fa      	ldrh	r2, [r7, #6]
 8002db4:	859a      	strh	r2, [r3, #44]	@ 0x2c
  huart->RxXferCount = Size;
 8002db6:	68fb      	ldr	r3, [r7, #12]
 8002db8:	88fa      	ldrh	r2, [r7, #6]
 8002dba:	85da      	strh	r2, [r3, #46]	@ 0x2e

  huart->ErrorCode = HAL_UART_ERROR_NONE;
 8002dbc:	68fb      	ldr	r3, [r7, #12]
 8002dbe:	2200      	movs	r2, #0
 8002dc0:	641a      	str	r2, [r3, #64]	@ 0x40
  huart->RxState = HAL_UART_STATE_BUSY_RX;
 8002dc2:	68fb      	ldr	r3, [r7, #12]
 8002dc4:	2222      	movs	r2, #34	@ 0x22
 8002dc6:	f883 203e 	strb.w	r2, [r3, #62]	@ 0x3e

  /* Process Unlocked */
  __HAL_UNLOCK(huart);
 8002dca:	68fb      	ldr	r3, [r7, #12]
 8002dcc:	2200      	movs	r2, #0
 8002dce:	f883 203c 	strb.w	r2, [r3, #60]	@ 0x3c

  if (huart->Init.Parity != UART_PARITY_NONE)
 8002dd2:	68fb      	ldr	r3, [r7, #12]
 8002dd4:	691b      	ldr	r3, [r3, #16]
 8002dd6:	2b00      	cmp	r3, #0
 8002dd8:	d007      	beq.n	8002dea <UART_Start_Receive_IT+0x4e>
  {
    /* Enable the UART Parity Error Interrupt */
    __HAL_UART_ENABLE_IT(huart, UART_IT_PE);
 8002dda:	68fb      	ldr	r3, [r7, #12]
 8002ddc:	681b      	ldr	r3, [r3, #0]
 8002dde:	68da      	ldr	r2, [r3, #12]
 8002de0:	68fb      	ldr	r3, [r7, #12]
 8002de2:	681b      	ldr	r3, [r3, #0]
 8002de4:	f442 7280 	orr.w	r2, r2, #256	@ 0x100
 8002de8:	60da      	str	r2, [r3, #12]
  }

  /* Enable the UART Error Interrupt: (Frame error, noise error, overrun error) */
  __HAL_UART_ENABLE_IT(huart, UART_IT_ERR);
 8002dea:	68fb      	ldr	r3, [r7, #12]
 8002dec:	681b      	ldr	r3, [r3, #0]
 8002dee:	695a      	ldr	r2, [r3, #20]
 8002df0:	68fb      	ldr	r3, [r7, #12]
 8002df2:	681b      	ldr	r3, [r3, #0]
 8002df4:	f042 0201 	orr.w	r2, r2, #1
 8002df8:	615a      	str	r2, [r3, #20]

  /* Enable the UART Data Register not empty Interrupt */
  __HAL_UART_ENABLE_IT(huart, UART_IT_RXNE);
 8002dfa:	68fb      	ldr	r3, [r7, #12]
 8002dfc:	681b      	ldr	r3, [r3, #0]
 8002dfe:	68da      	ldr	r2, [r3, #12]
 8002e00:	68fb      	ldr	r3, [r7, #12]
 8002e02:	681b      	ldr	r3, [r3, #0]
 8002e04:	f042 0220 	orr.w	r2, r2, #32
 8002e08:	60da      	str	r2, [r3, #12]

  return HAL_OK;
 8002e0a:	2300      	movs	r3, #0
}
 8002e0c:	4618      	mov	r0, r3
 8002e0e:	3714      	adds	r7, #20
 8002e10:	46bd      	mov	sp, r7
 8002e12:	f85d 7b04 	ldr.w	r7, [sp], #4
 8002e16:	4770      	bx	lr

08002e18 <UART_EndRxTransfer>:
  * @brief  End ongoing Rx transfer on UART peripheral (following error detection or Reception completion).
  * @param  huart UART handle.
  * @retval None
  */
static void UART_EndRxTransfer(UART_HandleTypeDef *huart)
{
 8002e18:	b480      	push	{r7}
 8002e1a:	b095      	sub	sp, #84	@ 0x54
 8002e1c:	af00      	add	r7, sp, #0
 8002e1e:	6078      	str	r0, [r7, #4]
  /* Disable RXNE, PE and ERR (Frame error, noise error, overrun error) interrupts */
  ATOMIC_CLEAR_BIT(huart->Instance->CR1, (USART_CR1_RXNEIE | USART_CR1_PEIE));
 8002e20:	687b      	ldr	r3, [r7, #4]
 8002e22:	681b      	ldr	r3, [r3, #0]
 8002e24:	330c      	adds	r3, #12
 8002e26:	637b      	str	r3, [r7, #52]	@ 0x34
   __ASM volatile ("ldrex %0, %1" : "=r" (result) : "Q" (*addr) );
 8002e28:	6b7b      	ldr	r3, [r7, #52]	@ 0x34
 8002e2a:	e853 3f00 	ldrex	r3, [r3]
 8002e2e:	633b      	str	r3, [r7, #48]	@ 0x30
   return(result);
 8002e30:	6b3b      	ldr	r3, [r7, #48]	@ 0x30
 8002e32:	f423 7390 	bic.w	r3, r3, #288	@ 0x120
 8002e36:	64fb      	str	r3, [r7, #76]	@ 0x4c
 8002e38:	687b      	ldr	r3, [r7, #4]
 8002e3a:	681b      	ldr	r3, [r3, #0]
 8002e3c:	330c      	adds	r3, #12
 8002e3e:	6cfa      	ldr	r2, [r7, #76]	@ 0x4c
 8002e40:	643a      	str	r2, [r7, #64]	@ 0x40
 8002e42:	63fb      	str	r3, [r7, #60]	@ 0x3c
   __ASM volatile ("strex %0, %2, %1" : "=&r" (result), "=Q" (*addr) : "r" (value) );
 8002e44:	6bf9      	ldr	r1, [r7, #60]	@ 0x3c
 8002e46:	6c3a      	ldr	r2, [r7, #64]	@ 0x40
 8002e48:	e841 2300 	strex	r3, r2, [r1]
 8002e4c:	63bb      	str	r3, [r7, #56]	@ 0x38
   return(result);
 8002e4e:	6bbb      	ldr	r3, [r7, #56]	@ 0x38
 8002e50:	2b00      	cmp	r3, #0
 8002e52:	d1e5      	bne.n	8002e20 <UART_EndRxTransfer+0x8>
  ATOMIC_CLEAR_BIT(huart->Instance->CR3, USART_CR3_EIE);
 8002e54:	687b      	ldr	r3, [r7, #4]
 8002e56:	681b      	ldr	r3, [r3, #0]
 8002e58:	3314      	adds	r3, #20
 8002e5a:	623b      	str	r3, [r7, #32]
   __ASM volatile ("ldrex %0, %1" : "=r" (result) : "Q" (*addr) );
 8002e5c:	6a3b      	ldr	r3, [r7, #32]
 8002e5e:	e853 3f00 	ldrex	r3, [r3]
 8002e62:	61fb      	str	r3, [r7, #28]
   return(result);
 8002e64:	69fb      	ldr	r3, [r7, #28]
 8002e66:	f023 0301 	bic.w	r3, r3, #1
 8002e6a:	64bb      	str	r3, [r7, #72]	@ 0x48
 8002e6c:	687b      	ldr	r3, [r7, #4]
 8002e6e:	681b      	ldr	r3, [r3, #0]
 8002e70:	3314      	adds	r3, #20
 8002e72:	6cba      	ldr	r2, [r7, #72]	@ 0x48
 8002e74:	62fa      	str	r2, [r7, #44]	@ 0x2c
 8002e76:	62bb      	str	r3, [r7, #40]	@ 0x28
   __ASM volatile ("strex %0, %2, %1" : "=&r" (result), "=Q" (*addr) : "r" (value) );
 8002e78:	6ab9      	ldr	r1, [r7, #40]	@ 0x28
 8002e7a:	6afa      	ldr	r2, [r7, #44]	@ 0x2c
 8002e7c:	e841 2300 	strex	r3, r2, [r1]
 8002e80:	627b      	str	r3, [r7, #36]	@ 0x24
   return(result);
 8002e82:	6a7b      	ldr	r3, [r7, #36]	@ 0x24
 8002e84:	2b00      	cmp	r3, #0
 8002e86:	d1e5      	bne.n	8002e54 <UART_EndRxTransfer+0x3c>

  /* In case of reception waiting for IDLE event, disable also the IDLE IE interrupt source */
  if (huart->ReceptionType == HAL_UART_RECEPTION_TOIDLE)
 8002e88:	687b      	ldr	r3, [r7, #4]
 8002e8a:	6b1b      	ldr	r3, [r3, #48]	@ 0x30
 8002e8c:	2b01      	cmp	r3, #1
 8002e8e:	d119      	bne.n	8002ec4 <UART_EndRxTransfer+0xac>
  {
    ATOMIC_CLEAR_BIT(huart->Instance->CR1, USART_CR1_IDLEIE);
 8002e90:	687b      	ldr	r3, [r7, #4]
 8002e92:	681b      	ldr	r3, [r3, #0]
 8002e94:	330c      	adds	r3, #12
 8002e96:	60fb      	str	r3, [r7, #12]
   __ASM volatile ("ldrex %0, %1" : "=r" (result) : "Q" (*addr) );
 8002e98:	68fb      	ldr	r3, [r7, #12]
 8002e9a:	e853 3f00 	ldrex	r3, [r3]
 8002e9e:	60bb      	str	r3, [r7, #8]
   return(result);
 8002ea0:	68bb      	ldr	r3, [r7, #8]
 8002ea2:	f023 0310 	bic.w	r3, r3, #16
 8002ea6:	647b      	str	r3, [r7, #68]	@ 0x44
 8002ea8:	687b      	ldr	r3, [r7, #4]
 8002eaa:	681b      	ldr	r3, [r3, #0]
 8002eac:	330c      	adds	r3, #12
 8002eae:	6c7a      	ldr	r2, [r7, #68]	@ 0x44
 8002eb0:	61ba      	str	r2, [r7, #24]
 8002eb2:	617b      	str	r3, [r7, #20]
   __ASM volatile ("strex %0, %2, %1" : "=&r" (result), "=Q" (*addr) : "r" (value) );
 8002eb4:	6979      	ldr	r1, [r7, #20]
 8002eb6:	69ba      	ldr	r2, [r7, #24]
 8002eb8:	e841 2300 	strex	r3, r2, [r1]
 8002ebc:	613b      	str	r3, [r7, #16]
   return(result);
 8002ebe:	693b      	ldr	r3, [r7, #16]
 8002ec0:	2b00      	cmp	r3, #0
 8002ec2:	d1e5      	bne.n	8002e90 <UART_EndRxTransfer+0x78>
  }

  /* At end of Rx process, restore huart->RxState to Ready */
  huart->RxState = HAL_UART_STATE_READY;
 8002ec4:	687b      	ldr	r3, [r7, #4]
 8002ec6:	2220      	movs	r2, #32
 8002ec8:	f883 203e 	strb.w	r2, [r3, #62]	@ 0x3e
  huart->ReceptionType = HAL_UART_RECEPTION_STANDARD;
 8002ecc:	687b      	ldr	r3, [r7, #4]
 8002ece:	2200      	movs	r2, #0
 8002ed0:	631a      	str	r2, [r3, #48]	@ 0x30
}
 8002ed2:	bf00      	nop
 8002ed4:	3754      	adds	r7, #84	@ 0x54
 8002ed6:	46bd      	mov	sp, r7
 8002ed8:	f85d 7b04 	ldr.w	r7, [sp], #4
 8002edc:	4770      	bx	lr

08002ede <UART_DMAAbortOnError>:
  * @param  hdma  Pointer to a DMA_HandleTypeDef structure that contains
  *               the configuration information for the specified DMA module.
  * @retval None
  */
static void UART_DMAAbortOnError(DMA_HandleTypeDef *hdma)
{
 8002ede:	b580      	push	{r7, lr}
 8002ee0:	b084      	sub	sp, #16
 8002ee2:	af00      	add	r7, sp, #0
 8002ee4:	6078      	str	r0, [r7, #4]
  UART_HandleTypeDef *huart = (UART_HandleTypeDef *)((DMA_HandleTypeDef *)hdma)->Parent;
 8002ee6:	687b      	ldr	r3, [r7, #4]
 8002ee8:	6b9b      	ldr	r3, [r3, #56]	@ 0x38
 8002eea:	60fb      	str	r3, [r7, #12]
  huart->RxXferCount = 0x00U;
 8002eec:	68fb      	ldr	r3, [r7, #12]
 8002eee:	2200      	movs	r2, #0
 8002ef0:	85da      	strh	r2, [r3, #46]	@ 0x2e
  huart->TxXferCount = 0x00U;
 8002ef2:	68fb      	ldr	r3, [r7, #12]
 8002ef4:	2200      	movs	r2, #0
 8002ef6:	84da      	strh	r2, [r3, #38]	@ 0x26
#if (USE_HAL_UART_REGISTER_CALLBACKS == 1)
  /*Call registered error callback*/
  huart->ErrorCallback(huart);
#else
  /*Call legacy weak error callback*/
  HAL_UART_ErrorCallback(huart);
 8002ef8:	68f8      	ldr	r0, [r7, #12]
 8002efa:	f7ff fecb 	bl	8002c94 <HAL_UART_ErrorCallback>
#endif /* USE_HAL_UART_REGISTER_CALLBACKS */
}
 8002efe:	bf00      	nop
 8002f00:	3710      	adds	r7, #16
 8002f02:	46bd      	mov	sp, r7
 8002f04:	bd80      	pop	{r7, pc}

08002f06 <UART_Transmit_IT>:
  * @param  huart  Pointer to a UART_HandleTypeDef structure that contains
  *                the configuration information for the specified UART module.
  * @retval HAL status
  */
static HAL_StatusTypeDef UART_Transmit_IT(UART_HandleTypeDef *huart)
{
 8002f06:	b480      	push	{r7}
 8002f08:	b085      	sub	sp, #20
 8002f0a:	af00      	add	r7, sp, #0
 8002f0c:	6078      	str	r0, [r7, #4]
  const uint16_t *tmp;

  /* Check that a Tx process is ongoing */
  if (huart->gState == HAL_UART_STATE_BUSY_TX)
 8002f0e:	687b      	ldr	r3, [r7, #4]
 8002f10:	f893 303d 	ldrb.w	r3, [r3, #61]	@ 0x3d
 8002f14:	b2db      	uxtb	r3, r3
 8002f16:	2b21      	cmp	r3, #33	@ 0x21
 8002f18:	d13e      	bne.n	8002f98 <UART_Transmit_IT+0x92>
  {
    if ((huart->Init.WordLength == UART_WORDLENGTH_9B) && (huart->Init.Parity == UART_PARITY_NONE))
 8002f1a:	687b      	ldr	r3, [r7, #4]
 8002f1c:	689b      	ldr	r3, [r3, #8]
 8002f1e:	f5b3 5f80 	cmp.w	r3, #4096	@ 0x1000
 8002f22:	d114      	bne.n	8002f4e <UART_Transmit_IT+0x48>
 8002f24:	687b      	ldr	r3, [r7, #4]
 8002f26:	691b      	ldr	r3, [r3, #16]
 8002f28:	2b00      	cmp	r3, #0
 8002f2a:	d110      	bne.n	8002f4e <UART_Transmit_IT+0x48>
    {
      tmp = (const uint16_t *) huart->pTxBuffPtr;
 8002f2c:	687b      	ldr	r3, [r7, #4]
 8002f2e:	6a1b      	ldr	r3, [r3, #32]
 8002f30:	60fb      	str	r3, [r7, #12]
      huart->Instance->DR = (uint16_t)(*tmp & (uint16_t)0x01FF);
 8002f32:	68fb      	ldr	r3, [r7, #12]
 8002f34:	881b      	ldrh	r3, [r3, #0]
 8002f36:	461a      	mov	r2, r3
 8002f38:	687b      	ldr	r3, [r7, #4]
 8002f3a:	681b      	ldr	r3, [r3, #0]
 8002f3c:	f3c2 0208 	ubfx	r2, r2, #0, #9
 8002f40:	605a      	str	r2, [r3, #4]
      huart->pTxBuffPtr += 2U;
 8002f42:	687b      	ldr	r3, [r7, #4]
 8002f44:	6a1b      	ldr	r3, [r3, #32]
 8002f46:	1c9a      	adds	r2, r3, #2
 8002f48:	687b      	ldr	r3, [r7, #4]
 8002f4a:	621a      	str	r2, [r3, #32]
 8002f4c:	e008      	b.n	8002f60 <UART_Transmit_IT+0x5a>
    }
    else
    {
      huart->Instance->DR = (uint8_t)(*huart->pTxBuffPtr++ & (uint8_t)0x00FF);
 8002f4e:	687b      	ldr	r3, [r7, #4]
 8002f50:	6a1b      	ldr	r3, [r3, #32]
 8002f52:	1c59      	adds	r1, r3, #1
 8002f54:	687a      	ldr	r2, [r7, #4]
 8002f56:	6211      	str	r1, [r2, #32]
 8002f58:	781a      	ldrb	r2, [r3, #0]
 8002f5a:	687b      	ldr	r3, [r7, #4]
 8002f5c:	681b      	ldr	r3, [r3, #0]
 8002f5e:	605a      	str	r2, [r3, #4]
    }

    if (--huart->TxXferCount == 0U)
 8002f60:	687b      	ldr	r3, [r7, #4]
 8002f62:	8cdb      	ldrh	r3, [r3, #38]	@ 0x26
 8002f64:	b29b      	uxth	r3, r3
 8002f66:	3b01      	subs	r3, #1
 8002f68:	b29b      	uxth	r3, r3
 8002f6a:	687a      	ldr	r2, [r7, #4]
 8002f6c:	4619      	mov	r1, r3
 8002f6e:	84d1      	strh	r1, [r2, #38]	@ 0x26
 8002f70:	2b00      	cmp	r3, #0
 8002f72:	d10f      	bne.n	8002f94 <UART_Transmit_IT+0x8e>
    {
      /* Disable the UART Transmit Data Register Empty Interrupt */
      __HAL_UART_DISABLE_IT(huart, UART_IT_TXE);
 8002f74:	687b      	ldr	r3, [r7, #4]
 8002f76:	681b      	ldr	r3, [r3, #0]
 8002f78:	68da      	ldr	r2, [r3, #12]
 8002f7a:	687b      	ldr	r3, [r7, #4]
 8002f7c:	681b      	ldr	r3, [r3, #0]
 8002f7e:	f022 0280 	bic.w	r2, r2, #128	@ 0x80
 8002f82:	60da      	str	r2, [r3, #12]

      /* Enable the UART Transmit Complete Interrupt */
      __HAL_UART_ENABLE_IT(huart, UART_IT_TC);
 8002f84:	687b      	ldr	r3, [r7, #4]
 8002f86:	681b      	ldr	r3, [r3, #0]
 8002f88:	68da      	ldr	r2, [r3, #12]
 8002f8a:	687b      	ldr	r3, [r7, #4]
 8002f8c:	681b      	ldr	r3, [r3, #0]
 8002f8e:	f042 0240 	orr.w	r2, r2, #64	@ 0x40
 8002f92:	60da      	str	r2, [r3, #12]
    }
    return HAL_OK;
 8002f94:	2300      	movs	r3, #0
 8002f96:	e000      	b.n	8002f9a <UART_Transmit_IT+0x94>
  }
  else
  {
    return HAL_BUSY;
 8002f98:	2302      	movs	r3, #2
  }
}
 8002f9a:	4618      	mov	r0, r3
 8002f9c:	3714      	adds	r7, #20
 8002f9e:	46bd      	mov	sp, r7
 8002fa0:	f85d 7b04 	ldr.w	r7, [sp], #4
 8002fa4:	4770      	bx	lr

08002fa6 <UART_EndTransmit_IT>:
  * @param  huart  Pointer to a UART_HandleTypeDef structure that contains
  *                the configuration information for the specified UART module.
  * @retval HAL status
  */
static HAL_StatusTypeDef UART_EndTransmit_IT(UART_HandleTypeDef *huart)
{
 8002fa6:	b580      	push	{r7, lr}
 8002fa8:	b082      	sub	sp, #8
 8002faa:	af00      	add	r7, sp, #0
 8002fac:	6078      	str	r0, [r7, #4]
  /* Disable the UART Transmit Complete Interrupt */
  __HAL_UART_DISABLE_IT(huart, UART_IT_TC);
 8002fae:	687b      	ldr	r3, [r7, #4]
 8002fb0:	681b      	ldr	r3, [r3, #0]
 8002fb2:	68da      	ldr	r2, [r3, #12]
 8002fb4:	687b      	ldr	r3, [r7, #4]
 8002fb6:	681b      	ldr	r3, [r3, #0]
 8002fb8:	f022 0240 	bic.w	r2, r2, #64	@ 0x40
 8002fbc:	60da      	str	r2, [r3, #12]

  /* Tx process is ended, restore huart->gState to Ready */
  huart->gState = HAL_UART_STATE_READY;
 8002fbe:	687b      	ldr	r3, [r7, #4]
 8002fc0:	2220      	movs	r2, #32
 8002fc2:	f883 203d 	strb.w	r2, [r3, #61]	@ 0x3d
#if (USE_HAL_UART_REGISTER_CALLBACKS == 1)
  /*Call registered Tx complete callback*/
  huart->TxCpltCallback(huart);
#else
  /*Call legacy weak Tx complete callback*/
  HAL_UART_TxCpltCallback(huart);
 8002fc6:	6878      	ldr	r0, [r7, #4]
 8002fc8:	f7ff fe5a 	bl	8002c80 <HAL_UART_TxCpltCallback>
#endif /* USE_HAL_UART_REGISTER_CALLBACKS */

  return HAL_OK;
 8002fcc:	2300      	movs	r3, #0
}
 8002fce:	4618      	mov	r0, r3
 8002fd0:	3708      	adds	r7, #8
 8002fd2:	46bd      	mov	sp, r7
 8002fd4:	bd80      	pop	{r7, pc}

08002fd6 <UART_Receive_IT>:
  * @param  huart  Pointer to a UART_HandleTypeDef structure that contains
  *                the configuration information for the specified UART module.
  * @retval HAL status
  */
static HAL_StatusTypeDef UART_Receive_IT(UART_HandleTypeDef *huart)
{
 8002fd6:	b580      	push	{r7, lr}
 8002fd8:	b08c      	sub	sp, #48	@ 0x30
 8002fda:	af00      	add	r7, sp, #0
 8002fdc:	6078      	str	r0, [r7, #4]
  uint8_t  *pdata8bits;
  uint16_t *pdata16bits;

  /* Check that a Rx process is ongoing */
  if (huart->RxState == HAL_UART_STATE_BUSY_RX)
 8002fde:	687b      	ldr	r3, [r7, #4]
 8002fe0:	f893 303e 	ldrb.w	r3, [r3, #62]	@ 0x3e
 8002fe4:	b2db      	uxtb	r3, r3
 8002fe6:	2b22      	cmp	r3, #34	@ 0x22
 8002fe8:	f040 80ab 	bne.w	8003142 <UART_Receive_IT+0x16c>
  {
    if ((huart->Init.WordLength == UART_WORDLENGTH_9B) && (huart->Init.Parity == UART_PARITY_NONE))
 8002fec:	687b      	ldr	r3, [r7, #4]
 8002fee:	689b      	ldr	r3, [r3, #8]
 8002ff0:	f5b3 5f80 	cmp.w	r3, #4096	@ 0x1000
 8002ff4:	d117      	bne.n	8003026 <UART_Receive_IT+0x50>
 8002ff6:	687b      	ldr	r3, [r7, #4]
 8002ff8:	691b      	ldr	r3, [r3, #16]
 8002ffa:	2b00      	cmp	r3, #0
 8002ffc:	d113      	bne.n	8003026 <UART_Receive_IT+0x50>
    {
      pdata8bits  = NULL;
 8002ffe:	2300      	movs	r3, #0
 8003000:	62fb      	str	r3, [r7, #44]	@ 0x2c
      pdata16bits = (uint16_t *) huart->pRxBuffPtr;
 8003002:	687b      	ldr	r3, [r7, #4]
 8003004:	6a9b      	ldr	r3, [r3, #40]	@ 0x28
 8003006:	62bb      	str	r3, [r7, #40]	@ 0x28
      *pdata16bits = (uint16_t)(huart->Instance->DR & (uint16_t)0x01FF);
 8003008:	687b      	ldr	r3, [r7, #4]
 800300a:	681b      	ldr	r3, [r3, #0]
 800300c:	685b      	ldr	r3, [r3, #4]
 800300e:	b29b      	uxth	r3, r3
 8003010:	f3c3 0308 	ubfx	r3, r3, #0, #9
 8003014:	b29a      	uxth	r2, r3
 8003016:	6abb      	ldr	r3, [r7, #40]	@ 0x28
 8003018:	801a      	strh	r2, [r3, #0]
      huart->pRxBuffPtr += 2U;
 800301a:	687b      	ldr	r3, [r7, #4]
 800301c:	6a9b      	ldr	r3, [r3, #40]	@ 0x28
 800301e:	1c9a      	adds	r2, r3, #2
 8003020:	687b      	ldr	r3, [r7, #4]
 8003022:	629a      	str	r2, [r3, #40]	@ 0x28
 8003024:	e026      	b.n	8003074 <UART_Receive_IT+0x9e>
    }
    else
    {
      pdata8bits = (uint8_t *) huart->pRxBuffPtr;
 8003026:	687b      	ldr	r3, [r7, #4]
 8003028:	6a9b      	ldr	r3, [r3, #40]	@ 0x28
 800302a:	62fb      	str	r3, [r7, #44]	@ 0x2c
      pdata16bits  = NULL;
 800302c:	2300      	movs	r3, #0
 800302e:	62bb      	str	r3, [r7, #40]	@ 0x28

      if ((huart->Init.WordLength == UART_WORDLENGTH_9B) || ((huart->Init.WordLength == UART_WORDLENGTH_8B) && (huart->Init.Parity == UART_PARITY_NONE)))
 8003030:	687b      	ldr	r3, [r7, #4]
 8003032:	689b      	ldr	r3, [r3, #8]
 8003034:	f5b3 5f80 	cmp.w	r3, #4096	@ 0x1000
 8003038:	d007      	beq.n	800304a <UART_Receive_IT+0x74>
 800303a:	687b      	ldr	r3, [r7, #4]
 800303c:	689b      	ldr	r3, [r3, #8]
 800303e:	2b00      	cmp	r3, #0
 8003040:	d10a      	bne.n	8003058 <UART_Receive_IT+0x82>
 8003042:	687b      	ldr	r3, [r7, #4]
 8003044:	691b      	ldr	r3, [r3, #16]
 8003046:	2b00      	cmp	r3, #0
 8003048:	d106      	bne.n	8003058 <UART_Receive_IT+0x82>
      {
        *pdata8bits = (uint8_t)(huart->Instance->DR & (uint8_t)0x00FF);
 800304a:	687b      	ldr	r3, [r7, #4]
 800304c:	681b      	ldr	r3, [r3, #0]
 800304e:	685b      	ldr	r3, [r3, #4]
 8003050:	b2da      	uxtb	r2, r3
 8003052:	6afb      	ldr	r3, [r7, #44]	@ 0x2c
 8003054:	701a      	strb	r2, [r3, #0]
 8003056:	e008      	b.n	800306a <UART_Receive_IT+0x94>
      }
      else
      {
        *pdata8bits = (uint8_t)(huart->Instance->DR & (uint8_t)0x007F);
 8003058:	687b      	ldr	r3, [r7, #4]
 800305a:	681b      	ldr	r3, [r3, #0]
 800305c:	685b      	ldr	r3, [r3, #4]
 800305e:	b2db      	uxtb	r3, r3
 8003060:	f003 037f 	and.w	r3, r3, #127	@ 0x7f
 8003064:	b2da      	uxtb	r2, r3
 8003066:	6afb      	ldr	r3, [r7, #44]	@ 0x2c
 8003068:	701a      	strb	r2, [r3, #0]
      }
      huart->pRxBuffPtr += 1U;
 800306a:	687b      	ldr	r3, [r7, #4]
 800306c:	6a9b      	ldr	r3, [r3, #40]	@ 0x28
 800306e:	1c5a      	adds	r2, r3, #1
 8003070:	687b      	ldr	r3, [r7, #4]
 8003072:	629a      	str	r2, [r3, #40]	@ 0x28
    }

    if (--huart->RxXferCount == 0U)
 8003074:	687b      	ldr	r3, [r7, #4]
 8003076:	8ddb      	ldrh	r3, [r3, #46]	@ 0x2e
 8003078:	b29b      	uxth	r3, r3
 800307a:	3b01      	subs	r3, #1
 800307c:	b29b      	uxth	r3, r3
 800307e:	687a      	ldr	r2, [r7, #4]
 8003080:	4619      	mov	r1, r3
 8003082:	85d1      	strh	r1, [r2, #46]	@ 0x2e
 8003084:	2b00      	cmp	r3, #0
 8003086:	d15a      	bne.n	800313e <UART_Receive_IT+0x168>
    {
      /* Disable the UART Data Register not empty Interrupt */
      __HAL_UART_DISABLE_IT(huart, UART_IT_RXNE);
 8003088:	687b      	ldr	r3, [r7, #4]
 800308a:	681b      	ldr	r3, [r3, #0]
 800308c:	68da      	ldr	r2, [r3, #12]
 800308e:	687b      	ldr	r3, [r7, #4]
 8003090:	681b      	ldr	r3, [r3, #0]
 8003092:	f022 0220 	bic.w	r2, r2, #32
 8003096:	60da      	str	r2, [r3, #12]

      /* Disable the UART Parity Error Interrupt */
      __HAL_UART_DISABLE_IT(huart, UART_IT_PE);
 8003098:	687b      	ldr	r3, [r7, #4]
 800309a:	681b      	ldr	r3, [r3, #0]
 800309c:	68da      	ldr	r2, [r3, #12]
 800309e:	687b      	ldr	r3, [r7, #4]
 80030a0:	681b      	ldr	r3, [r3, #0]
 80030a2:	f422 7280 	bic.w	r2, r2, #256	@ 0x100
 80030a6:	60da      	str	r2, [r3, #12]

      /* Disable the UART Error Interrupt: (Frame error, noise error, overrun error) */
      __HAL_UART_DISABLE_IT(huart, UART_IT_ERR);
 80030a8:	687b      	ldr	r3, [r7, #4]
 80030aa:	681b      	ldr	r3, [r3, #0]
 80030ac:	695a      	ldr	r2, [r3, #20]
 80030ae:	687b      	ldr	r3, [r7, #4]
 80030b0:	681b      	ldr	r3, [r3, #0]
 80030b2:	f022 0201 	bic.w	r2, r2, #1
 80030b6:	615a      	str	r2, [r3, #20]

      /* Rx process is completed, restore huart->RxState to Ready */
      huart->RxState = HAL_UART_STATE_READY;
 80030b8:	687b      	ldr	r3, [r7, #4]
 80030ba:	2220      	movs	r2, #32
 80030bc:	f883 203e 	strb.w	r2, [r3, #62]	@ 0x3e

      /* Check current reception Mode :
         If Reception till IDLE event has been selected : */
      if (huart->ReceptionType == HAL_UART_RECEPTION_TOIDLE)
 80030c0:	687b      	ldr	r3, [r7, #4]
 80030c2:	6b1b      	ldr	r3, [r3, #48]	@ 0x30
 80030c4:	2b01      	cmp	r3, #1
 80030c6:	d135      	bne.n	8003134 <UART_Receive_IT+0x15e>
      {
        /* Set reception type to Standard */
        huart->ReceptionType = HAL_UART_RECEPTION_STANDARD;
 80030c8:	687b      	ldr	r3, [r7, #4]
 80030ca:	2200      	movs	r2, #0
 80030cc:	631a      	str	r2, [r3, #48]	@ 0x30

        /* Disable IDLE interrupt */
        ATOMIC_CLEAR_BIT(huart->Instance->CR1, USART_CR1_IDLEIE);
 80030ce:	687b      	ldr	r3, [r7, #4]
 80030d0:	681b      	ldr	r3, [r3, #0]
 80030d2:	330c      	adds	r3, #12
 80030d4:	617b      	str	r3, [r7, #20]
   __ASM volatile ("ldrex %0, %1" : "=r" (result) : "Q" (*addr) );
 80030d6:	697b      	ldr	r3, [r7, #20]
 80030d8:	e853 3f00 	ldrex	r3, [r3]
 80030dc:	613b      	str	r3, [r7, #16]
   return(result);
 80030de:	693b      	ldr	r3, [r7, #16]
 80030e0:	f023 0310 	bic.w	r3, r3, #16
 80030e4:	627b      	str	r3, [r7, #36]	@ 0x24
 80030e6:	687b      	ldr	r3, [r7, #4]
 80030e8:	681b      	ldr	r3, [r3, #0]
 80030ea:	330c      	adds	r3, #12
 80030ec:	6a7a      	ldr	r2, [r7, #36]	@ 0x24
 80030ee:	623a      	str	r2, [r7, #32]
 80030f0:	61fb      	str	r3, [r7, #28]
   __ASM volatile ("strex %0, %2, %1" : "=&r" (result), "=Q" (*addr) : "r" (value) );
 80030f2:	69f9      	ldr	r1, [r7, #28]
 80030f4:	6a3a      	ldr	r2, [r7, #32]
 80030f6:	e841 2300 	strex	r3, r2, [r1]
 80030fa:	61bb      	str	r3, [r7, #24]
   return(result);
 80030fc:	69bb      	ldr	r3, [r7, #24]
 80030fe:	2b00      	cmp	r3, #0
 8003100:	d1e5      	bne.n	80030ce <UART_Receive_IT+0xf8>

        /* Check if IDLE flag is set */
        if (__HAL_UART_GET_FLAG(huart, UART_FLAG_IDLE))
 8003102:	687b      	ldr	r3, [r7, #4]
 8003104:	681b      	ldr	r3, [r3, #0]
 8003106:	681b      	ldr	r3, [r3, #0]
 8003108:	f003 0310 	and.w	r3, r3, #16
 800310c:	2b10      	cmp	r3, #16
 800310e:	d10a      	bne.n	8003126 <UART_Receive_IT+0x150>
        {
          /* Clear IDLE flag in ISR */
          __HAL_UART_CLEAR_IDLEFLAG(huart);
 8003110:	2300      	movs	r3, #0
 8003112:	60fb      	str	r3, [r7, #12]
 8003114:	687b      	ldr	r3, [r7, #4]
 8003116:	681b      	ldr	r3, [r3, #0]
 8003118:	681b      	ldr	r3, [r3, #0]
 800311a:	60fb      	str	r3, [r7, #12]
 800311c:	687b      	ldr	r3, [r7, #4]
 800311e:	681b      	ldr	r3, [r3, #0]
 8003120:	685b      	ldr	r3, [r3, #4]
 8003122:	60fb      	str	r3, [r7, #12]
 8003124:	68fb      	ldr	r3, [r7, #12]
#if (USE_HAL_UART_REGISTER_CALLBACKS == 1)
        /*Call registered Rx Event callback*/
        huart->RxEventCallback(huart, huart->RxXferSize);
#else
        /*Call legacy weak Rx Event callback*/
        HAL_UARTEx_RxEventCallback(huart, huart->RxXferSize);
 8003126:	687b      	ldr	r3, [r7, #4]
 8003128:	8d9b      	ldrh	r3, [r3, #44]	@ 0x2c
 800312a:	4619      	mov	r1, r3
 800312c:	6878      	ldr	r0, [r7, #4]
 800312e:	f7ff fdbb 	bl	8002ca8 <HAL_UARTEx_RxEventCallback>
 8003132:	e002      	b.n	800313a <UART_Receive_IT+0x164>
#if (USE_HAL_UART_REGISTER_CALLBACKS == 1)
        /*Call registered Rx complete callback*/
        huart->RxCpltCallback(huart);
#else
        /*Call legacy weak Rx complete callback*/
        HAL_UART_RxCpltCallback(huart);
 8003134:	6878      	ldr	r0, [r7, #4]
 8003136:	f7fd feab 	bl	8000e90 <HAL_UART_RxCpltCallback>
#endif /* USE_HAL_UART_REGISTER_CALLBACKS */
      }

      return HAL_OK;
 800313a:	2300      	movs	r3, #0
 800313c:	e002      	b.n	8003144 <UART_Receive_IT+0x16e>
    }
    return HAL_OK;
 800313e:	2300      	movs	r3, #0
 8003140:	e000      	b.n	8003144 <UART_Receive_IT+0x16e>
  }
  else
  {
    return HAL_BUSY;
 8003142:	2302      	movs	r3, #2
  }
}
 8003144:	4618      	mov	r0, r3
 8003146:	3730      	adds	r7, #48	@ 0x30
 8003148:	46bd      	mov	sp, r7
 800314a:	bd80      	pop	{r7, pc}

0800314c <UART_SetConfig>:
  * @param  huart  Pointer to a UART_HandleTypeDef structure that contains
  *                the configuration information for the specified UART module.
  * @retval None
  */
static void UART_SetConfig(UART_HandleTypeDef *huart)
{
 800314c:	e92d 4fb0 	stmdb	sp!, {r4, r5, r7, r8, r9, sl, fp, lr}
 8003150:	b0c0      	sub	sp, #256	@ 0x100
 8003152:	af00      	add	r7, sp, #0
 8003154:	f8c7 00f4 	str.w	r0, [r7, #244]	@ 0xf4
  assert_param(IS_UART_MODE(huart->Init.Mode));

  /*-------------------------- USART CR2 Configuration -----------------------*/
  /* Configure the UART Stop Bits: Set STOP[13:12] bits
     according to huart->Init.StopBits value */
  MODIFY_REG(huart->Instance->CR2, USART_CR2_STOP, huart->Init.StopBits);
 8003158:	f8d7 30f4 	ldr.w	r3, [r7, #244]	@ 0xf4
 800315c:	681b      	ldr	r3, [r3, #0]
 800315e:	691b      	ldr	r3, [r3, #16]
 8003160:	f423 5040 	bic.w	r0, r3, #12288	@ 0x3000
 8003164:	f8d7 30f4 	ldr.w	r3, [r7, #244]	@ 0xf4
 8003168:	68d9      	ldr	r1, [r3, #12]
 800316a:	f8d7 30f4 	ldr.w	r3, [r7, #244]	@ 0xf4
 800316e:	681a      	ldr	r2, [r3, #0]
 8003170:	ea40 0301 	orr.w	r3, r0, r1
 8003174:	6113      	str	r3, [r2, #16]
     Set the M bits according to huart->Init.WordLength value
     Set PCE and PS bits according to huart->Init.Parity value
     Set TE and RE bits according to huart->Init.Mode value
     Set OVER8 bit according to huart->Init.OverSampling value */

  tmpreg = (uint32_t)huart->Init.WordLength | huart->Init.Parity | huart->Init.Mode | huart->Init.OverSampling;
 8003176:	f8d7 30f4 	ldr.w	r3, [r7, #244]	@ 0xf4
 800317a:	689a      	ldr	r2, [r3, #8]
 800317c:	f8d7 30f4 	ldr.w	r3, [r7, #244]	@ 0xf4
 8003180:	691b      	ldr	r3, [r3, #16]
 8003182:	431a      	orrs	r2, r3
 8003184:	f8d7 30f4 	ldr.w	r3, [r7, #244]	@ 0xf4
 8003188:	695b      	ldr	r3, [r3, #20]
 800318a:	431a      	orrs	r2, r3
 800318c:	f8d7 30f4 	ldr.w	r3, [r7, #244]	@ 0xf4
 8003190:	69db      	ldr	r3, [r3, #28]
 8003192:	4313      	orrs	r3, r2
 8003194:	f8c7 30f8 	str.w	r3, [r7, #248]	@ 0xf8
  MODIFY_REG(huart->Instance->CR1,
 8003198:	f8d7 30f4 	ldr.w	r3, [r7, #244]	@ 0xf4
 800319c:	681b      	ldr	r3, [r3, #0]
 800319e:	68db      	ldr	r3, [r3, #12]
 80031a0:	f423 4116 	bic.w	r1, r3, #38400	@ 0x9600
 80031a4:	f021 010c 	bic.w	r1, r1, #12
 80031a8:	f8d7 30f4 	ldr.w	r3, [r7, #244]	@ 0xf4
 80031ac:	681a      	ldr	r2, [r3, #0]
 80031ae:	f8d7 30f8 	ldr.w	r3, [r7, #248]	@ 0xf8
 80031b2:	430b      	orrs	r3, r1
 80031b4:	60d3      	str	r3, [r2, #12]
             (uint32_t)(USART_CR1_M | USART_CR1_PCE | USART_CR1_PS | USART_CR1_TE | USART_CR1_RE | USART_CR1_OVER8),
             tmpreg);

  /*-------------------------- USART CR3 Configuration -----------------------*/
  /* Configure the UART HFC: Set CTSE and RTSE bits according to huart->Init.HwFlowCtl value */
  MODIFY_REG(huart->Instance->CR3, (USART_CR3_RTSE | USART_CR3_CTSE), huart->Init.HwFlowCtl);
 80031b6:	f8d7 30f4 	ldr.w	r3, [r7, #244]	@ 0xf4
 80031ba:	681b      	ldr	r3, [r3, #0]
 80031bc:	695b      	ldr	r3, [r3, #20]
 80031be:	f423 7040 	bic.w	r0, r3, #768	@ 0x300
 80031c2:	f8d7 30f4 	ldr.w	r3, [r7, #244]	@ 0xf4
 80031c6:	6999      	ldr	r1, [r3, #24]
 80031c8:	f8d7 30f4 	ldr.w	r3, [r7, #244]	@ 0xf4
 80031cc:	681a      	ldr	r2, [r3, #0]
 80031ce:	ea40 0301 	orr.w	r3, r0, r1
 80031d2:	6153      	str	r3, [r2, #20]
    if ((huart->Instance == USART1) || (huart->Instance == USART6) || (huart->Instance == UART9) || (huart->Instance == UART10))
    {
      pclk = HAL_RCC_GetPCLK2Freq();
    }
#elif defined(USART6)
    if ((huart->Instance == USART1) || (huart->Instance == USART6))
 80031d4:	f8d7 30f4 	ldr.w	r3, [r7, #244]	@ 0xf4
 80031d8:	681a      	ldr	r2, [r3, #0]
 80031da:	4b8f      	ldr	r3, [pc, #572]	@ (8003418 <UART_SetConfig+0x2cc>)
 80031dc:	429a      	cmp	r2, r3
 80031de:	d005      	beq.n	80031ec <UART_SetConfig+0xa0>
 80031e0:	f8d7 30f4 	ldr.w	r3, [r7, #244]	@ 0xf4
 80031e4:	681a      	ldr	r2, [r3, #0]
 80031e6:	4b8d      	ldr	r3, [pc, #564]	@ (800341c <UART_SetConfig+0x2d0>)
 80031e8:	429a      	cmp	r2, r3
 80031ea:	d104      	bne.n	80031f6 <UART_SetConfig+0xaa>
    {
      pclk = HAL_RCC_GetPCLK2Freq();
 80031ec:	f7ff f996 	bl	800251c <HAL_RCC_GetPCLK2Freq>
 80031f0:	f8c7 00fc 	str.w	r0, [r7, #252]	@ 0xfc
 80031f4:	e003      	b.n	80031fe <UART_SetConfig+0xb2>
      pclk = HAL_RCC_GetPCLK2Freq();
    }
#endif /* USART6 */
    else
    {
      pclk = HAL_RCC_GetPCLK1Freq();
 80031f6:	f7ff f97d 	bl	80024f4 <HAL_RCC_GetPCLK1Freq>
 80031fa:	f8c7 00fc 	str.w	r0, [r7, #252]	@ 0xfc
    }
  /*-------------------------- USART BRR Configuration ---------------------*/
  if (huart->Init.OverSampling == UART_OVERSAMPLING_8)
 80031fe:	f8d7 30f4 	ldr.w	r3, [r7, #244]	@ 0xf4
 8003202:	69db      	ldr	r3, [r3, #28]
 8003204:	f5b3 4f00 	cmp.w	r3, #32768	@ 0x8000
 8003208:	f040 810c 	bne.w	8003424 <UART_SetConfig+0x2d8>
  {
    huart->Instance->BRR = UART_BRR_SAMPLING8(pclk, huart->Init.BaudRate);
 800320c:	f8d7 30fc 	ldr.w	r3, [r7, #252]	@ 0xfc
 8003210:	2200      	movs	r2, #0
 8003212:	f8c7 30e8 	str.w	r3, [r7, #232]	@ 0xe8
 8003216:	f8c7 20ec 	str.w	r2, [r7, #236]	@ 0xec
 800321a:	e9d7 453a 	ldrd	r4, r5, [r7, #232]	@ 0xe8
 800321e:	4622      	mov	r2, r4
 8003220:	462b      	mov	r3, r5
 8003222:	1891      	adds	r1, r2, r2
 8003224:	65b9      	str	r1, [r7, #88]	@ 0x58
 8003226:	415b      	adcs	r3, r3
 8003228:	65fb      	str	r3, [r7, #92]	@ 0x5c
 800322a:	e9d7 2316 	ldrd	r2, r3, [r7, #88]	@ 0x58
 800322e:	4621      	mov	r1, r4
 8003230:	eb12 0801 	adds.w	r8, r2, r1
 8003234:	4629      	mov	r1, r5
 8003236:	eb43 0901 	adc.w	r9, r3, r1
 800323a:	f04f 0200 	mov.w	r2, #0
 800323e:	f04f 0300 	mov.w	r3, #0
 8003242:	ea4f 03c9 	mov.w	r3, r9, lsl #3
 8003246:	ea43 7358 	orr.w	r3, r3, r8, lsr #29
 800324a:	ea4f 02c8 	mov.w	r2, r8, lsl #3
 800324e:	4690      	mov	r8, r2
 8003250:	4699      	mov	r9, r3
 8003252:	4623      	mov	r3, r4
 8003254:	eb18 0303 	adds.w	r3, r8, r3
 8003258:	f8c7 30e0 	str.w	r3, [r7, #224]	@ 0xe0
 800325c:	462b      	mov	r3, r5
 800325e:	eb49 0303 	adc.w	r3, r9, r3
 8003262:	f8c7 30e4 	str.w	r3, [r7, #228]	@ 0xe4
 8003266:	f8d7 30f4 	ldr.w	r3, [r7, #244]	@ 0xf4
 800326a:	685b      	ldr	r3, [r3, #4]
 800326c:	2200      	movs	r2, #0
 800326e:	f8c7 30d8 	str.w	r3, [r7, #216]	@ 0xd8
 8003272:	f8c7 20dc 	str.w	r2, [r7, #220]	@ 0xdc
 8003276:	e9d7 1236 	ldrd	r1, r2, [r7, #216]	@ 0xd8
 800327a:	460b      	mov	r3, r1
 800327c:	18db      	adds	r3, r3, r3
 800327e:	653b      	str	r3, [r7, #80]	@ 0x50
 8003280:	4613      	mov	r3, r2
 8003282:	eb42 0303 	adc.w	r3, r2, r3
 8003286:	657b      	str	r3, [r7, #84]	@ 0x54
 8003288:	e9d7 2314 	ldrd	r2, r3, [r7, #80]	@ 0x50
 800328c:	e9d7 0138 	ldrd	r0, r1, [r7, #224]	@ 0xe0
 8003290:	f7fd f966 	bl	8000560 <__aeabi_uldivmod>
 8003294:	4602      	mov	r2, r0
 8003296:	460b      	mov	r3, r1
 8003298:	4b61      	ldr	r3, [pc, #388]	@ (8003420 <UART_SetConfig+0x2d4>)
 800329a:	fba3 2302 	umull	r2, r3, r3, r2
 800329e:	095b      	lsrs	r3, r3, #5
 80032a0:	011c      	lsls	r4, r3, #4
 80032a2:	f8d7 30fc 	ldr.w	r3, [r7, #252]	@ 0xfc
 80032a6:	2200      	movs	r2, #0
 80032a8:	f8c7 30d0 	str.w	r3, [r7, #208]	@ 0xd0
 80032ac:	f8c7 20d4 	str.w	r2, [r7, #212]	@ 0xd4
 80032b0:	e9d7 8934 	ldrd	r8, r9, [r7, #208]	@ 0xd0
 80032b4:	4642      	mov	r2, r8
 80032b6:	464b      	mov	r3, r9
 80032b8:	1891      	adds	r1, r2, r2
 80032ba:	64b9      	str	r1, [r7, #72]	@ 0x48
 80032bc:	415b      	adcs	r3, r3
 80032be:	64fb      	str	r3, [r7, #76]	@ 0x4c
 80032c0:	e9d7 2312 	ldrd	r2, r3, [r7, #72]	@ 0x48
 80032c4:	4641      	mov	r1, r8
 80032c6:	eb12 0a01 	adds.w	sl, r2, r1
 80032ca:	4649      	mov	r1, r9
 80032cc:	eb43 0b01 	adc.w	fp, r3, r1
 80032d0:	f04f 0200 	mov.w	r2, #0
 80032d4:	f04f 0300 	mov.w	r3, #0
 80032d8:	ea4f 03cb 	mov.w	r3, fp, lsl #3
 80032dc:	ea43 735a 	orr.w	r3, r3, sl, lsr #29
 80032e0:	ea4f 02ca 	mov.w	r2, sl, lsl #3
 80032e4:	4692      	mov	sl, r2
 80032e6:	469b      	mov	fp, r3
 80032e8:	4643      	mov	r3, r8
 80032ea:	eb1a 0303 	adds.w	r3, sl, r3
 80032ee:	f8c7 30c8 	str.w	r3, [r7, #200]	@ 0xc8
 80032f2:	464b      	mov	r3, r9
 80032f4:	eb4b 0303 	adc.w	r3, fp, r3
 80032f8:	f8c7 30cc 	str.w	r3, [r7, #204]	@ 0xcc
 80032fc:	f8d7 30f4 	ldr.w	r3, [r7, #244]	@ 0xf4
 8003300:	685b      	ldr	r3, [r3, #4]
 8003302:	2200      	movs	r2, #0
 8003304:	f8c7 30c0 	str.w	r3, [r7, #192]	@ 0xc0
 8003308:	f8c7 20c4 	str.w	r2, [r7, #196]	@ 0xc4
 800330c:	e9d7 1230 	ldrd	r1, r2, [r7, #192]	@ 0xc0
 8003310:	460b      	mov	r3, r1
 8003312:	18db      	adds	r3, r3, r3
 8003314:	643b      	str	r3, [r7, #64]	@ 0x40
 8003316:	4613      	mov	r3, r2
 8003318:	eb42 0303 	adc.w	r3, r2, r3
 800331c:	647b      	str	r3, [r7, #68]	@ 0x44
 800331e:	e9d7 2310 	ldrd	r2, r3, [r7, #64]	@ 0x40
 8003322:	e9d7 0132 	ldrd	r0, r1, [r7, #200]	@ 0xc8
 8003326:	f7fd f91b 	bl	8000560 <__aeabi_uldivmod>
 800332a:	4602      	mov	r2, r0
 800332c:	460b      	mov	r3, r1
 800332e:	4611      	mov	r1, r2
 8003330:	4b3b      	ldr	r3, [pc, #236]	@ (8003420 <UART_SetConfig+0x2d4>)
 8003332:	fba3 2301 	umull	r2, r3, r3, r1
 8003336:	095b      	lsrs	r3, r3, #5
 8003338:	2264      	movs	r2, #100	@ 0x64
 800333a:	fb02 f303 	mul.w	r3, r2, r3
 800333e:	1acb      	subs	r3, r1, r3
 8003340:	00db      	lsls	r3, r3, #3
 8003342:	f103 0232 	add.w	r2, r3, #50	@ 0x32
 8003346:	4b36      	ldr	r3, [pc, #216]	@ (8003420 <UART_SetConfig+0x2d4>)
 8003348:	fba3 2302 	umull	r2, r3, r3, r2
 800334c:	095b      	lsrs	r3, r3, #5
 800334e:	005b      	lsls	r3, r3, #1
 8003350:	f403 73f8 	and.w	r3, r3, #496	@ 0x1f0
 8003354:	441c      	add	r4, r3
 8003356:	f8d7 30fc 	ldr.w	r3, [r7, #252]	@ 0xfc
 800335a:	2200      	movs	r2, #0
 800335c:	f8c7 30b8 	str.w	r3, [r7, #184]	@ 0xb8
 8003360:	f8c7 20bc 	str.w	r2, [r7, #188]	@ 0xbc
 8003364:	e9d7 892e 	ldrd	r8, r9, [r7, #184]	@ 0xb8
 8003368:	4642      	mov	r2, r8
 800336a:	464b      	mov	r3, r9
 800336c:	1891      	adds	r1, r2, r2
 800336e:	63b9      	str	r1, [r7, #56]	@ 0x38
 8003370:	415b      	adcs	r3, r3
 8003372:	63fb      	str	r3, [r7, #60]	@ 0x3c
 8003374:	e9d7 230e 	ldrd	r2, r3, [r7, #56]	@ 0x38
 8003378:	4641      	mov	r1, r8
 800337a:	1851      	adds	r1, r2, r1
 800337c:	6339      	str	r1, [r7, #48]	@ 0x30
 800337e:	4649      	mov	r1, r9
 8003380:	414b      	adcs	r3, r1
 8003382:	637b      	str	r3, [r7, #52]	@ 0x34
 8003384:	f04f 0200 	mov.w	r2, #0
 8003388:	f04f 0300 	mov.w	r3, #0
 800338c:	e9d7 ab0c 	ldrd	sl, fp, [r7, #48]	@ 0x30
 8003390:	4659      	mov	r1, fp
 8003392:	00cb      	lsls	r3, r1, #3
 8003394:	4651      	mov	r1, sl
 8003396:	ea43 7351 	orr.w	r3, r3, r1, lsr #29
 800339a:	4651      	mov	r1, sl
 800339c:	00ca      	lsls	r2, r1, #3
 800339e:	4610      	mov	r0, r2
 80033a0:	4619      	mov	r1, r3
 80033a2:	4603      	mov	r3, r0
 80033a4:	4642      	mov	r2, r8
 80033a6:	189b      	adds	r3, r3, r2
 80033a8:	f8c7 30b0 	str.w	r3, [r7, #176]	@ 0xb0
 80033ac:	464b      	mov	r3, r9
 80033ae:	460a      	mov	r2, r1
 80033b0:	eb42 0303 	adc.w	r3, r2, r3
 80033b4:	f8c7 30b4 	str.w	r3, [r7, #180]	@ 0xb4
 80033b8:	f8d7 30f4 	ldr.w	r3, [r7, #244]	@ 0xf4
 80033bc:	685b      	ldr	r3, [r3, #4]
 80033be:	2200      	movs	r2, #0
 80033c0:	f8c7 30a8 	str.w	r3, [r7, #168]	@ 0xa8
 80033c4:	f8c7 20ac 	str.w	r2, [r7, #172]	@ 0xac
 80033c8:	e9d7 122a 	ldrd	r1, r2, [r7, #168]	@ 0xa8
 80033cc:	460b      	mov	r3, r1
 80033ce:	18db      	adds	r3, r3, r3
 80033d0:	62bb      	str	r3, [r7, #40]	@ 0x28
 80033d2:	4613      	mov	r3, r2
 80033d4:	eb42 0303 	adc.w	r3, r2, r3
 80033d8:	62fb      	str	r3, [r7, #44]	@ 0x2c
 80033da:	e9d7 230a 	ldrd	r2, r3, [r7, #40]	@ 0x28
 80033de:	e9d7 012c 	ldrd	r0, r1, [r7, #176]	@ 0xb0
 80033e2:	f7fd f8bd 	bl	8000560 <__aeabi_uldivmod>
 80033e6:	4602      	mov	r2, r0
 80033e8:	460b      	mov	r3, r1
 80033ea:	4b0d      	ldr	r3, [pc, #52]	@ (8003420 <UART_SetConfig+0x2d4>)
 80033ec:	fba3 1302 	umull	r1, r3, r3, r2
 80033f0:	095b      	lsrs	r3, r3, #5
 80033f2:	2164      	movs	r1, #100	@ 0x64
 80033f4:	fb01 f303 	mul.w	r3, r1, r3
 80033f8:	1ad3      	subs	r3, r2, r3
 80033fa:	00db      	lsls	r3, r3, #3
 80033fc:	3332      	adds	r3, #50	@ 0x32
 80033fe:	4a08      	ldr	r2, [pc, #32]	@ (8003420 <UART_SetConfig+0x2d4>)
 8003400:	fba2 2303 	umull	r2, r3, r2, r3
 8003404:	095b      	lsrs	r3, r3, #5
 8003406:	f003 0207 	and.w	r2, r3, #7
 800340a:	f8d7 30f4 	ldr.w	r3, [r7, #244]	@ 0xf4
 800340e:	681b      	ldr	r3, [r3, #0]
 8003410:	4422      	add	r2, r4
 8003412:	609a      	str	r2, [r3, #8]
  }
  else
  {
    huart->Instance->BRR = UART_BRR_SAMPLING16(pclk, huart->Init.BaudRate);
  }
}
 8003414:	e106      	b.n	8003624 <UART_SetConfig+0x4d8>
 8003416:	bf00      	nop
 8003418:	40011000 	.word	0x40011000
 800341c:	40011400 	.word	0x40011400
 8003420:	51eb851f 	.word	0x51eb851f
    huart->Instance->BRR = UART_BRR_SAMPLING16(pclk, huart->Init.BaudRate);
 8003424:	f8d7 30fc 	ldr.w	r3, [r7, #252]	@ 0xfc
 8003428:	2200      	movs	r2, #0
 800342a:	f8c7 30a0 	str.w	r3, [r7, #160]	@ 0xa0
 800342e:	f8c7 20a4 	str.w	r2, [r7, #164]	@ 0xa4
 8003432:	e9d7 8928 	ldrd	r8, r9, [r7, #160]	@ 0xa0
 8003436:	4642      	mov	r2, r8
 8003438:	464b      	mov	r3, r9
 800343a:	1891      	adds	r1, r2, r2
 800343c:	6239      	str	r1, [r7, #32]
 800343e:	415b      	adcs	r3, r3
 8003440:	627b      	str	r3, [r7, #36]	@ 0x24
 8003442:	e9d7 2308 	ldrd	r2, r3, [r7, #32]
 8003446:	4641      	mov	r1, r8
 8003448:	1854      	adds	r4, r2, r1
 800344a:	4649      	mov	r1, r9
 800344c:	eb43 0501 	adc.w	r5, r3, r1
 8003450:	f04f 0200 	mov.w	r2, #0
 8003454:	f04f 0300 	mov.w	r3, #0
 8003458:	00eb      	lsls	r3, r5, #3
 800345a:	ea43 7354 	orr.w	r3, r3, r4, lsr #29
 800345e:	00e2      	lsls	r2, r4, #3
 8003460:	4614      	mov	r4, r2
 8003462:	461d      	mov	r5, r3
 8003464:	4643      	mov	r3, r8
 8003466:	18e3      	adds	r3, r4, r3
 8003468:	f8c7 3098 	str.w	r3, [r7, #152]	@ 0x98
 800346c:	464b      	mov	r3, r9
 800346e:	eb45 0303 	adc.w	r3, r5, r3
 8003472:	f8c7 309c 	str.w	r3, [r7, #156]	@ 0x9c
 8003476:	f8d7 30f4 	ldr.w	r3, [r7, #244]	@ 0xf4
 800347a:	685b      	ldr	r3, [r3, #4]
 800347c:	2200      	movs	r2, #0
 800347e:	f8c7 3090 	str.w	r3, [r7, #144]	@ 0x90
 8003482:	f8c7 2094 	str.w	r2, [r7, #148]	@ 0x94
 8003486:	f04f 0200 	mov.w	r2, #0
 800348a:	f04f 0300 	mov.w	r3, #0
 800348e:	e9d7 4524 	ldrd	r4, r5, [r7, #144]	@ 0x90
 8003492:	4629      	mov	r1, r5
 8003494:	008b      	lsls	r3, r1, #2
 8003496:	4621      	mov	r1, r4
 8003498:	ea43 7391 	orr.w	r3, r3, r1, lsr #30
 800349c:	4621      	mov	r1, r4
 800349e:	008a      	lsls	r2, r1, #2
 80034a0:	e9d7 0126 	ldrd	r0, r1, [r7, #152]	@ 0x98
 80034a4:	f7fd f85c 	bl	8000560 <__aeabi_uldivmod>
 80034a8:	4602      	mov	r2, r0
 80034aa:	460b      	mov	r3, r1
 80034ac:	4b60      	ldr	r3, [pc, #384]	@ (8003630 <UART_SetConfig+0x4e4>)
 80034ae:	fba3 2302 	umull	r2, r3, r3, r2
 80034b2:	095b      	lsrs	r3, r3, #5
 80034b4:	011c      	lsls	r4, r3, #4
 80034b6:	f8d7 30fc 	ldr.w	r3, [r7, #252]	@ 0xfc
 80034ba:	2200      	movs	r2, #0
 80034bc:	f8c7 3088 	str.w	r3, [r7, #136]	@ 0x88
 80034c0:	f8c7 208c 	str.w	r2, [r7, #140]	@ 0x8c
 80034c4:	e9d7 8922 	ldrd	r8, r9, [r7, #136]	@ 0x88
 80034c8:	4642      	mov	r2, r8
 80034ca:	464b      	mov	r3, r9
 80034cc:	1891      	adds	r1, r2, r2
 80034ce:	61b9      	str	r1, [r7, #24]
 80034d0:	415b      	adcs	r3, r3
 80034d2:	61fb      	str	r3, [r7, #28]
 80034d4:	e9d7 2306 	ldrd	r2, r3, [r7, #24]
 80034d8:	4641      	mov	r1, r8
 80034da:	1851      	adds	r1, r2, r1
 80034dc:	6139      	str	r1, [r7, #16]
 80034de:	4649      	mov	r1, r9
 80034e0:	414b      	adcs	r3, r1
 80034e2:	617b      	str	r3, [r7, #20]
 80034e4:	f04f 0200 	mov.w	r2, #0
 80034e8:	f04f 0300 	mov.w	r3, #0
 80034ec:	e9d7 ab04 	ldrd	sl, fp, [r7, #16]
 80034f0:	4659      	mov	r1, fp
 80034f2:	00cb      	lsls	r3, r1, #3
 80034f4:	4651      	mov	r1, sl
 80034f6:	ea43 7351 	orr.w	r3, r3, r1, lsr #29
 80034fa:	4651      	mov	r1, sl
 80034fc:	00ca      	lsls	r2, r1, #3
 80034fe:	4610      	mov	r0, r2
 8003500:	4619      	mov	r1, r3
 8003502:	4603      	mov	r3, r0
 8003504:	4642      	mov	r2, r8
 8003506:	189b      	adds	r3, r3, r2
 8003508:	f8c7 3080 	str.w	r3, [r7, #128]	@ 0x80
 800350c:	464b      	mov	r3, r9
 800350e:	460a      	mov	r2, r1
 8003510:	eb42 0303 	adc.w	r3, r2, r3
 8003514:	f8c7 3084 	str.w	r3, [r7, #132]	@ 0x84
 8003518:	f8d7 30f4 	ldr.w	r3, [r7, #244]	@ 0xf4
 800351c:	685b      	ldr	r3, [r3, #4]
 800351e:	2200      	movs	r2, #0
 8003520:	67bb      	str	r3, [r7, #120]	@ 0x78
 8003522:	67fa      	str	r2, [r7, #124]	@ 0x7c
 8003524:	f04f 0200 	mov.w	r2, #0
 8003528:	f04f 0300 	mov.w	r3, #0
 800352c:	e9d7 891e 	ldrd	r8, r9, [r7, #120]	@ 0x78
 8003530:	4649      	mov	r1, r9
 8003532:	008b      	lsls	r3, r1, #2
 8003534:	4641      	mov	r1, r8
 8003536:	ea43 7391 	orr.w	r3, r3, r1, lsr #30
 800353a:	4641      	mov	r1, r8
 800353c:	008a      	lsls	r2, r1, #2
 800353e:	e9d7 0120 	ldrd	r0, r1, [r7, #128]	@ 0x80
 8003542:	f7fd f80d 	bl	8000560 <__aeabi_uldivmod>
 8003546:	4602      	mov	r2, r0
 8003548:	460b      	mov	r3, r1
 800354a:	4611      	mov	r1, r2
 800354c:	4b38      	ldr	r3, [pc, #224]	@ (8003630 <UART_SetConfig+0x4e4>)
 800354e:	fba3 2301 	umull	r2, r3, r3, r1
 8003552:	095b      	lsrs	r3, r3, #5
 8003554:	2264      	movs	r2, #100	@ 0x64
 8003556:	fb02 f303 	mul.w	r3, r2, r3
 800355a:	1acb      	subs	r3, r1, r3
 800355c:	011b      	lsls	r3, r3, #4
 800355e:	3332      	adds	r3, #50	@ 0x32
 8003560:	4a33      	ldr	r2, [pc, #204]	@ (8003630 <UART_SetConfig+0x4e4>)
 8003562:	fba2 2303 	umull	r2, r3, r2, r3
 8003566:	095b      	lsrs	r3, r3, #5
 8003568:	f003 03f0 	and.w	r3, r3, #240	@ 0xf0
 800356c:	441c      	add	r4, r3
 800356e:	f8d7 30fc 	ldr.w	r3, [r7, #252]	@ 0xfc
 8003572:	2200      	movs	r2, #0
 8003574:	673b      	str	r3, [r7, #112]	@ 0x70
 8003576:	677a      	str	r2, [r7, #116]	@ 0x74
 8003578:	e9d7 891c 	ldrd	r8, r9, [r7, #112]	@ 0x70
 800357c:	4642      	mov	r2, r8
 800357e:	464b      	mov	r3, r9
 8003580:	1891      	adds	r1, r2, r2
 8003582:	60b9      	str	r1, [r7, #8]
 8003584:	415b      	adcs	r3, r3
 8003586:	60fb      	str	r3, [r7, #12]
 8003588:	e9d7 2302 	ldrd	r2, r3, [r7, #8]
 800358c:	4641      	mov	r1, r8
 800358e:	1851      	adds	r1, r2, r1
 8003590:	6039      	str	r1, [r7, #0]
 8003592:	4649      	mov	r1, r9
 8003594:	414b      	adcs	r3, r1
 8003596:	607b      	str	r3, [r7, #4]
 8003598:	f04f 0200 	mov.w	r2, #0
 800359c:	f04f 0300 	mov.w	r3, #0
 80035a0:	e9d7 ab00 	ldrd	sl, fp, [r7]
 80035a4:	4659      	mov	r1, fp
 80035a6:	00cb      	lsls	r3, r1, #3
 80035a8:	4651      	mov	r1, sl
 80035aa:	ea43 7351 	orr.w	r3, r3, r1, lsr #29
 80035ae:	4651      	mov	r1, sl
 80035b0:	00ca      	lsls	r2, r1, #3
 80035b2:	4610      	mov	r0, r2
 80035b4:	4619      	mov	r1, r3
 80035b6:	4603      	mov	r3, r0
 80035b8:	4642      	mov	r2, r8
 80035ba:	189b      	adds	r3, r3, r2
 80035bc:	66bb      	str	r3, [r7, #104]	@ 0x68
 80035be:	464b      	mov	r3, r9
 80035c0:	460a      	mov	r2, r1
 80035c2:	eb42 0303 	adc.w	r3, r2, r3
 80035c6:	66fb      	str	r3, [r7, #108]	@ 0x6c
 80035c8:	f8d7 30f4 	ldr.w	r3, [r7, #244]	@ 0xf4
 80035cc:	685b      	ldr	r3, [r3, #4]
 80035ce:	2200      	movs	r2, #0
 80035d0:	663b      	str	r3, [r7, #96]	@ 0x60
 80035d2:	667a      	str	r2, [r7, #100]	@ 0x64
 80035d4:	f04f 0200 	mov.w	r2, #0
 80035d8:	f04f 0300 	mov.w	r3, #0
 80035dc:	e9d7 8918 	ldrd	r8, r9, [r7, #96]	@ 0x60
 80035e0:	4649      	mov	r1, r9
 80035e2:	008b      	lsls	r3, r1, #2
 80035e4:	4641      	mov	r1, r8
 80035e6:	ea43 7391 	orr.w	r3, r3, r1, lsr #30
 80035ea:	4641      	mov	r1, r8
 80035ec:	008a      	lsls	r2, r1, #2
 80035ee:	e9d7 011a 	ldrd	r0, r1, [r7, #104]	@ 0x68
 80035f2:	f7fc ffb5 	bl	8000560 <__aeabi_uldivmod>
 80035f6:	4602      	mov	r2, r0
 80035f8:	460b      	mov	r3, r1
 80035fa:	4b0d      	ldr	r3, [pc, #52]	@ (8003630 <UART_SetConfig+0x4e4>)
 80035fc:	fba3 1302 	umull	r1, r3, r3, r2
 8003600:	095b      	lsrs	r3, r3, #5
 8003602:	2164      	movs	r1, #100	@ 0x64
 8003604:	fb01 f303 	mul.w	r3, r1, r3
 8003608:	1ad3      	subs	r3, r2, r3
 800360a:	011b      	lsls	r3, r3, #4
 800360c:	3332      	adds	r3, #50	@ 0x32
 800360e:	4a08      	ldr	r2, [pc, #32]	@ (8003630 <UART_SetConfig+0x4e4>)
 8003610:	fba2 2303 	umull	r2, r3, r2, r3
 8003614:	095b      	lsrs	r3, r3, #5
 8003616:	f003 020f 	and.w	r2, r3, #15
 800361a:	f8d7 30f4 	ldr.w	r3, [r7, #244]	@ 0xf4
 800361e:	681b      	ldr	r3, [r3, #0]
 8003620:	4422      	add	r2, r4
 8003622:	609a      	str	r2, [r3, #8]
}
 8003624:	bf00      	nop
 8003626:	f507 7780 	add.w	r7, r7, #256	@ 0x100
 800362a:	46bd      	mov	sp, r7
 800362c:	e8bd 8fb0 	ldmia.w	sp!, {r4, r5, r7, r8, r9, sl, fp, pc}
 8003630:	51eb851f 	.word	0x51eb851f

08003634 <memset>:
 8003634:	4402      	add	r2, r0
 8003636:	4603      	mov	r3, r0
 8003638:	4293      	cmp	r3, r2
 800363a:	d100      	bne.n	800363e <memset+0xa>
 800363c:	4770      	bx	lr
 800363e:	f803 1b01 	strb.w	r1, [r3], #1
 8003642:	e7f9      	b.n	8003638 <memset+0x4>

08003644 <strcat>:
 8003644:	b510      	push	{r4, lr}
 8003646:	4602      	mov	r2, r0
 8003648:	7814      	ldrb	r4, [r2, #0]
 800364a:	4613      	mov	r3, r2
 800364c:	3201      	adds	r2, #1
 800364e:	2c00      	cmp	r4, #0
 8003650:	d1fa      	bne.n	8003648 <strcat+0x4>
 8003652:	3b01      	subs	r3, #1
 8003654:	f811 2b01 	ldrb.w	r2, [r1], #1
 8003658:	f803 2f01 	strb.w	r2, [r3, #1]!
 800365c:	2a00      	cmp	r2, #0
 800365e:	d1f9      	bne.n	8003654 <strcat+0x10>
 8003660:	bd10      	pop	{r4, pc}
	...

08003664 <__libc_init_array>:
 8003664:	b570      	push	{r4, r5, r6, lr}
 8003666:	4d0d      	ldr	r5, [pc, #52]	@ (800369c <__libc_init_array+0x38>)
 8003668:	4c0d      	ldr	r4, [pc, #52]	@ (80036a0 <__libc_init_array+0x3c>)
 800366a:	1b64      	subs	r4, r4, r5
 800366c:	10a4      	asrs	r4, r4, #2
 800366e:	2600      	movs	r6, #0
 8003670:	42a6      	cmp	r6, r4
 8003672:	d109      	bne.n	8003688 <__libc_init_array+0x24>
 8003674:	4d0b      	ldr	r5, [pc, #44]	@ (80036a4 <__libc_init_array+0x40>)
 8003676:	4c0c      	ldr	r4, [pc, #48]	@ (80036a8 <__libc_init_array+0x44>)
 8003678:	f000 f818 	bl	80036ac <_init>
 800367c:	1b64      	subs	r4, r4, r5
 800367e:	10a4      	asrs	r4, r4, #2
 8003680:	2600      	movs	r6, #0
 8003682:	42a6      	cmp	r6, r4
 8003684:	d105      	bne.n	8003692 <__libc_init_array+0x2e>
 8003686:	bd70      	pop	{r4, r5, r6, pc}
 8003688:	f855 3b04 	ldr.w	r3, [r5], #4
 800368c:	4798      	blx	r3
 800368e:	3601      	adds	r6, #1
 8003690:	e7ee      	b.n	8003670 <__libc_init_array+0xc>
 8003692:	f855 3b04 	ldr.w	r3, [r5], #4
 8003696:	4798      	blx	r3
 8003698:	3601      	adds	r6, #1
 800369a:	e7f2      	b.n	8003682 <__libc_init_array+0x1e>
 800369c:	08003824 	.word	0x08003824
 80036a0:	08003824 	.word	0x08003824
 80036a4:	08003824 	.word	0x08003824
 80036a8:	08003828 	.word	0x08003828

080036ac <_init>:
 80036ac:	b5f8      	push	{r3, r4, r5, r6, r7, lr}
 80036ae:	bf00      	nop
 80036b0:	bcf8      	pop	{r3, r4, r5, r6, r7}
 80036b2:	bc08      	pop	{r3}
 80036b4:	469e      	mov	lr, r3
 80036b6:	4770      	bx	lr

080036b8 <_fini>:
 80036b8:	b5f8      	push	{r3, r4, r5, r6, r7, lr}
 80036ba:	bf00      	nop
 80036bc:	bcf8      	pop	{r3, r4, r5, r6, r7}
 80036be:	bc08      	pop	{r3}
 80036c0:	469e      	mov	lr, r3
 80036c2:	4770      	bx	lr
