
APC1.elf:     file format elf32-littlearm

Sections:
Idx Name          Size      VMA       LMA       File off  Algn
  0 .isr_vector   00000198  08000000  08000000  00010000  2**0
                  CONTENTS, ALLOC, LOAD, READONLY, DATA
  1 .text         0000348c  08000198  08000198  00010198  2**2
                  CONTENTS, ALLOC, LOAD, READONLY, CODE
  2 .rodata       00000110  08003624  08003624  00013624  2**2
                  CONTENTS, ALLOC, LOAD, READONLY, DATA
  3 .ARM.extab    00000000  08003734  08003734  00020088  2**0
                  CONTENTS
  4 .ARM          00000008  08003734  08003734  00013734  2**2
                  CONTENTS, ALLOC, LOAD, READONLY, DATA
  5 .preinit_array 00000000  0800373c  0800373c  00020088  2**0
                  CONTENTS, ALLOC, LOAD, DATA
  6 .init_array   00000004  0800373c  0800373c  0001373c  2**2
                  CONTENTS, ALLOC, LOAD, DATA
  7 .fini_array   00000004  08003740  08003740  00013740  2**2
                  CONTENTS, ALLOC, LOAD, DATA
  8 .data         00000088  20000000  08003744  00020000  2**2
                  CONTENTS, ALLOC, LOAD, DATA
  9 .bss          00000144  20000088  080037cc  00020088  2**3
                  ALLOC
 10 ._user_heap_stack 00000604  200001cc  080037cc  000201cc  2**0
                  ALLOC
 11 .ARM.attributes 00000030  00000000  00000000  00020088  2**0
                  CONTENTS, READONLY
 12 .comment      00000043  00000000  00000000  000200b8  2**0
                  CONTENTS, READONLY
 13 .debug_info   00008f89  00000000  00000000  000200fb  2**0
                  CONTENTS, READONLY, DEBUGGING, OCTETS
 14 .debug_abbrev 00001956  00000000  00000000  00029084  2**0
                  CONTENTS, READONLY, DEBUGGING, OCTETS
 15 .debug_aranges 000007b8  00000000  00000000  0002a9e0  2**3
                  CONTENTS, READONLY, DEBUGGING, OCTETS
 16 .debug_rnglists 000005e3  00000000  00000000  0002b198  2**0
                  CONTENTS, READONLY, DEBUGGING, OCTETS
 17 .debug_macro  000155c2  00000000  00000000  0002b77b  2**0
                  CONTENTS, READONLY, DEBUGGING, OCTETS
 18 .debug_line   00009825  00000000  00000000  00040d3d  2**0
                  CONTENTS, READONLY, DEBUGGING, OCTETS
 19 .debug_str    00085457  00000000  00000000  0004a562  2**0
                  CONTENTS, READONLY, DEBUGGING, OCTETS
 20 .debug_frame  00001ed8  00000000  00000000  000cf9bc  2**2
                  CONTENTS, READONLY, DEBUGGING, OCTETS
 21 .debug_line_str 00000079  00000000  00000000  000d1894  2**0
                  CONTENTS, READONLY, DEBUGGING, OCTETS

Disassembly of section .text:

08000198 <__do_global_dtors_aux>:
 8000198:	b510      	push	{r4, lr}
 800019a:	4c05      	ldr	r4, [pc, #20]	; (80001b0 <__do_global_dtors_aux+0x18>)
 800019c:	7823      	ldrb	r3, [r4, #0]
 800019e:	b933      	cbnz	r3, 80001ae <__do_global_dtors_aux+0x16>
 80001a0:	4b04      	ldr	r3, [pc, #16]	; (80001b4 <__do_global_dtors_aux+0x1c>)
 80001a2:	b113      	cbz	r3, 80001aa <__do_global_dtors_aux+0x12>
 80001a4:	4804      	ldr	r0, [pc, #16]	; (80001b8 <__do_global_dtors_aux+0x20>)
 80001a6:	f3af 8000 	nop.w
 80001aa:	2301      	movs	r3, #1
 80001ac:	7023      	strb	r3, [r4, #0]
 80001ae:	bd10      	pop	{r4, pc}
 80001b0:	20000088 	.word	0x20000088
 80001b4:	00000000 	.word	0x00000000
 80001b8:	0800360c 	.word	0x0800360c

080001bc <frame_dummy>:
 80001bc:	b508      	push	{r3, lr}
 80001be:	4b03      	ldr	r3, [pc, #12]	; (80001cc <frame_dummy+0x10>)
 80001c0:	b11b      	cbz	r3, 80001ca <frame_dummy+0xe>
 80001c2:	4903      	ldr	r1, [pc, #12]	; (80001d0 <frame_dummy+0x14>)
 80001c4:	4803      	ldr	r0, [pc, #12]	; (80001d4 <frame_dummy+0x18>)
 80001c6:	f3af 8000 	nop.w
 80001ca:	bd08      	pop	{r3, pc}
 80001cc:	00000000 	.word	0x00000000
 80001d0:	2000008c 	.word	0x2000008c
 80001d4:	0800360c 	.word	0x0800360c

080001d8 <__aeabi_drsub>:
 80001d8:	f081 4100 	eor.w	r1, r1, #2147483648	; 0x80000000
 80001dc:	e002      	b.n	80001e4 <__adddf3>
 80001de:	bf00      	nop

080001e0 <__aeabi_dsub>:
 80001e0:	f083 4300 	eor.w	r3, r3, #2147483648	; 0x80000000

080001e4 <__adddf3>:
 80001e4:	b530      	push	{r4, r5, lr}
 80001e6:	ea4f 0441 	mov.w	r4, r1, lsl #1
 80001ea:	ea4f 0543 	mov.w	r5, r3, lsl #1
 80001ee:	ea94 0f05 	teq	r4, r5
 80001f2:	bf08      	it	eq
 80001f4:	ea90 0f02 	teqeq	r0, r2
 80001f8:	bf1f      	itttt	ne
 80001fa:	ea54 0c00 	orrsne.w	ip, r4, r0
 80001fe:	ea55 0c02 	orrsne.w	ip, r5, r2
 8000202:	ea7f 5c64 	mvnsne.w	ip, r4, asr #21
 8000206:	ea7f 5c65 	mvnsne.w	ip, r5, asr #21
 800020a:	f000 80e2 	beq.w	80003d2 <__adddf3+0x1ee>
 800020e:	ea4f 5454 	mov.w	r4, r4, lsr #21
 8000212:	ebd4 5555 	rsbs	r5, r4, r5, lsr #21
 8000216:	bfb8      	it	lt
 8000218:	426d      	neglt	r5, r5
 800021a:	dd0c      	ble.n	8000236 <__adddf3+0x52>
 800021c:	442c      	add	r4, r5
 800021e:	ea80 0202 	eor.w	r2, r0, r2
 8000222:	ea81 0303 	eor.w	r3, r1, r3
 8000226:	ea82 0000 	eor.w	r0, r2, r0
 800022a:	ea83 0101 	eor.w	r1, r3, r1
 800022e:	ea80 0202 	eor.w	r2, r0, r2
 8000232:	ea81 0303 	eor.w	r3, r1, r3
 8000236:	2d36      	cmp	r5, #54	; 0x36
 8000238:	bf88      	it	hi
 800023a:	bd30      	pophi	{r4, r5, pc}
 800023c:	f011 4f00 	tst.w	r1, #2147483648	; 0x80000000
 8000240:	ea4f 3101 	mov.w	r1, r1, lsl #12
 8000244:	f44f 1c80 	mov.w	ip, #1048576	; 0x100000
 8000248:	ea4c 3111 	orr.w	r1, ip, r1, lsr #12
 800024c:	d002      	beq.n	8000254 <__adddf3+0x70>
 800024e:	4240      	negs	r0, r0
 8000250:	eb61 0141 	sbc.w	r1, r1, r1, lsl #1
 8000254:	f013 4f00 	tst.w	r3, #2147483648	; 0x80000000
 8000258:	ea4f 3303 	mov.w	r3, r3, lsl #12
 800025c:	ea4c 3313 	orr.w	r3, ip, r3, lsr #12
 8000260:	d002      	beq.n	8000268 <__adddf3+0x84>
 8000262:	4252      	negs	r2, r2
 8000264:	eb63 0343 	sbc.w	r3, r3, r3, lsl #1
 8000268:	ea94 0f05 	teq	r4, r5
 800026c:	f000 80a7 	beq.w	80003be <__adddf3+0x1da>
 8000270:	f1a4 0401 	sub.w	r4, r4, #1
 8000274:	f1d5 0e20 	rsbs	lr, r5, #32
 8000278:	db0d      	blt.n	8000296 <__adddf3+0xb2>
 800027a:	fa02 fc0e 	lsl.w	ip, r2, lr
 800027e:	fa22 f205 	lsr.w	r2, r2, r5
 8000282:	1880      	adds	r0, r0, r2
 8000284:	f141 0100 	adc.w	r1, r1, #0
 8000288:	fa03 f20e 	lsl.w	r2, r3, lr
 800028c:	1880      	adds	r0, r0, r2
 800028e:	fa43 f305 	asr.w	r3, r3, r5
 8000292:	4159      	adcs	r1, r3
 8000294:	e00e      	b.n	80002b4 <__adddf3+0xd0>
 8000296:	f1a5 0520 	sub.w	r5, r5, #32
 800029a:	f10e 0e20 	add.w	lr, lr, #32
 800029e:	2a01      	cmp	r2, #1
 80002a0:	fa03 fc0e 	lsl.w	ip, r3, lr
 80002a4:	bf28      	it	cs
 80002a6:	f04c 0c02 	orrcs.w	ip, ip, #2
 80002aa:	fa43 f305 	asr.w	r3, r3, r5
 80002ae:	18c0      	adds	r0, r0, r3
 80002b0:	eb51 71e3 	adcs.w	r1, r1, r3, asr #31
 80002b4:	f001 4500 	and.w	r5, r1, #2147483648	; 0x80000000
 80002b8:	d507      	bpl.n	80002ca <__adddf3+0xe6>
 80002ba:	f04f 0e00 	mov.w	lr, #0
 80002be:	f1dc 0c00 	rsbs	ip, ip, #0
 80002c2:	eb7e 0000 	sbcs.w	r0, lr, r0
 80002c6:	eb6e 0101 	sbc.w	r1, lr, r1
 80002ca:	f5b1 1f80 	cmp.w	r1, #1048576	; 0x100000
 80002ce:	d31b      	bcc.n	8000308 <__adddf3+0x124>
 80002d0:	f5b1 1f00 	cmp.w	r1, #2097152	; 0x200000
 80002d4:	d30c      	bcc.n	80002f0 <__adddf3+0x10c>
 80002d6:	0849      	lsrs	r1, r1, #1
 80002d8:	ea5f 0030 	movs.w	r0, r0, rrx
 80002dc:	ea4f 0c3c 	mov.w	ip, ip, rrx
 80002e0:	f104 0401 	add.w	r4, r4, #1
 80002e4:	ea4f 5244 	mov.w	r2, r4, lsl #21
 80002e8:	f512 0f80 	cmn.w	r2, #4194304	; 0x400000
 80002ec:	f080 809a 	bcs.w	8000424 <__adddf3+0x240>
 80002f0:	f1bc 4f00 	cmp.w	ip, #2147483648	; 0x80000000
 80002f4:	bf08      	it	eq
 80002f6:	ea5f 0c50 	movseq.w	ip, r0, lsr #1
 80002fa:	f150 0000 	adcs.w	r0, r0, #0
 80002fe:	eb41 5104 	adc.w	r1, r1, r4, lsl #20
 8000302:	ea41 0105 	orr.w	r1, r1, r5
 8000306:	bd30      	pop	{r4, r5, pc}
 8000308:	ea5f 0c4c 	movs.w	ip, ip, lsl #1
 800030c:	4140      	adcs	r0, r0
 800030e:	eb41 0101 	adc.w	r1, r1, r1
 8000312:	3c01      	subs	r4, #1
 8000314:	bf28      	it	cs
 8000316:	f5b1 1f80 	cmpcs.w	r1, #1048576	; 0x100000
 800031a:	d2e9      	bcs.n	80002f0 <__adddf3+0x10c>
 800031c:	f091 0f00 	teq	r1, #0
 8000320:	bf04      	itt	eq
 8000322:	4601      	moveq	r1, r0
 8000324:	2000      	moveq	r0, #0
 8000326:	fab1 f381 	clz	r3, r1
 800032a:	bf08      	it	eq
 800032c:	3320      	addeq	r3, #32
 800032e:	f1a3 030b 	sub.w	r3, r3, #11
 8000332:	f1b3 0220 	subs.w	r2, r3, #32
 8000336:	da0c      	bge.n	8000352 <__adddf3+0x16e>
 8000338:	320c      	adds	r2, #12
 800033a:	dd08      	ble.n	800034e <__adddf3+0x16a>
 800033c:	f102 0c14 	add.w	ip, r2, #20
 8000340:	f1c2 020c 	rsb	r2, r2, #12
 8000344:	fa01 f00c 	lsl.w	r0, r1, ip
 8000348:	fa21 f102 	lsr.w	r1, r1, r2
 800034c:	e00c      	b.n	8000368 <__adddf3+0x184>
 800034e:	f102 0214 	add.w	r2, r2, #20
 8000352:	bfd8      	it	le
 8000354:	f1c2 0c20 	rsble	ip, r2, #32
 8000358:	fa01 f102 	lsl.w	r1, r1, r2
 800035c:	fa20 fc0c 	lsr.w	ip, r0, ip
 8000360:	bfdc      	itt	le
 8000362:	ea41 010c 	orrle.w	r1, r1, ip
 8000366:	4090      	lslle	r0, r2
 8000368:	1ae4      	subs	r4, r4, r3
 800036a:	bfa2      	ittt	ge
 800036c:	eb01 5104 	addge.w	r1, r1, r4, lsl #20
 8000370:	4329      	orrge	r1, r5
 8000372:	bd30      	popge	{r4, r5, pc}
 8000374:	ea6f 0404 	mvn.w	r4, r4
 8000378:	3c1f      	subs	r4, #31
 800037a:	da1c      	bge.n	80003b6 <__adddf3+0x1d2>
 800037c:	340c      	adds	r4, #12
 800037e:	dc0e      	bgt.n	800039e <__adddf3+0x1ba>
 8000380:	f104 0414 	add.w	r4, r4, #20
 8000384:	f1c4 0220 	rsb	r2, r4, #32
 8000388:	fa20 f004 	lsr.w	r0, r0, r4
 800038c:	fa01 f302 	lsl.w	r3, r1, r2
 8000390:	ea40 0003 	orr.w	r0, r0, r3
 8000394:	fa21 f304 	lsr.w	r3, r1, r4
 8000398:	ea45 0103 	orr.w	r1, r5, r3
 800039c:	bd30      	pop	{r4, r5, pc}
 800039e:	f1c4 040c 	rsb	r4, r4, #12
 80003a2:	f1c4 0220 	rsb	r2, r4, #32
 80003a6:	fa20 f002 	lsr.w	r0, r0, r2
 80003aa:	fa01 f304 	lsl.w	r3, r1, r4
 80003ae:	ea40 0003 	orr.w	r0, r0, r3
 80003b2:	4629      	mov	r1, r5
 80003b4:	bd30      	pop	{r4, r5, pc}
 80003b6:	fa21 f004 	lsr.w	r0, r1, r4
 80003ba:	4629      	mov	r1, r5
 80003bc:	bd30      	pop	{r4, r5, pc}
 80003be:	f094 0f00 	teq	r4, #0
 80003c2:	f483 1380 	eor.w	r3, r3, #1048576	; 0x100000
 80003c6:	bf06      	itte	eq
 80003c8:	f481 1180 	eoreq.w	r1, r1, #1048576	; 0x100000
 80003cc:	3401      	addeq	r4, #1
 80003ce:	3d01      	subne	r5, #1
 80003d0:	e74e      	b.n	8000270 <__adddf3+0x8c>
 80003d2:	ea7f 5c64 	mvns.w	ip, r4, asr #21
 80003d6:	bf18      	it	ne
 80003d8:	ea7f 5c65 	mvnsne.w	ip, r5, asr #21
 80003dc:	d029      	beq.n	8000432 <__adddf3+0x24e>
 80003de:	ea94 0f05 	teq	r4, r5
 80003e2:	bf08      	it	eq
 80003e4:	ea90 0f02 	teqeq	r0, r2
 80003e8:	d005      	beq.n	80003f6 <__adddf3+0x212>
 80003ea:	ea54 0c00 	orrs.w	ip, r4, r0
 80003ee:	bf04      	itt	eq
 80003f0:	4619      	moveq	r1, r3
 80003f2:	4610      	moveq	r0, r2
 80003f4:	bd30      	pop	{r4, r5, pc}
 80003f6:	ea91 0f03 	teq	r1, r3
 80003fa:	bf1e      	ittt	ne
 80003fc:	2100      	movne	r1, #0
 80003fe:	2000      	movne	r0, #0
 8000400:	bd30      	popne	{r4, r5, pc}
 8000402:	ea5f 5c54 	movs.w	ip, r4, lsr #21
 8000406:	d105      	bne.n	8000414 <__adddf3+0x230>
 8000408:	0040      	lsls	r0, r0, #1
 800040a:	4149      	adcs	r1, r1
 800040c:	bf28      	it	cs
 800040e:	f041 4100 	orrcs.w	r1, r1, #2147483648	; 0x80000000
 8000412:	bd30      	pop	{r4, r5, pc}
 8000414:	f514 0480 	adds.w	r4, r4, #4194304	; 0x400000
 8000418:	bf3c      	itt	cc
 800041a:	f501 1180 	addcc.w	r1, r1, #1048576	; 0x100000
 800041e:	bd30      	popcc	{r4, r5, pc}
 8000420:	f001 4500 	and.w	r5, r1, #2147483648	; 0x80000000
 8000424:	f045 41fe 	orr.w	r1, r5, #2130706432	; 0x7f000000
 8000428:	f441 0170 	orr.w	r1, r1, #15728640	; 0xf00000
 800042c:	f04f 0000 	mov.w	r0, #0
 8000430:	bd30      	pop	{r4, r5, pc}
 8000432:	ea7f 5c64 	mvns.w	ip, r4, asr #21
 8000436:	bf1a      	itte	ne
 8000438:	4619      	movne	r1, r3
 800043a:	4610      	movne	r0, r2
 800043c:	ea7f 5c65 	mvnseq.w	ip, r5, asr #21
 8000440:	bf1c      	itt	ne
 8000442:	460b      	movne	r3, r1
 8000444:	4602      	movne	r2, r0
 8000446:	ea50 3401 	orrs.w	r4, r0, r1, lsl #12
 800044a:	bf06      	itte	eq
 800044c:	ea52 3503 	orrseq.w	r5, r2, r3, lsl #12
 8000450:	ea91 0f03 	teqeq	r1, r3
 8000454:	f441 2100 	orrne.w	r1, r1, #524288	; 0x80000
 8000458:	bd30      	pop	{r4, r5, pc}
 800045a:	bf00      	nop

0800045c <__aeabi_ui2d>:
 800045c:	f090 0f00 	teq	r0, #0
 8000460:	bf04      	itt	eq
 8000462:	2100      	moveq	r1, #0
 8000464:	4770      	bxeq	lr
 8000466:	b530      	push	{r4, r5, lr}
 8000468:	f44f 6480 	mov.w	r4, #1024	; 0x400
 800046c:	f104 0432 	add.w	r4, r4, #50	; 0x32
 8000470:	f04f 0500 	mov.w	r5, #0
 8000474:	f04f 0100 	mov.w	r1, #0
 8000478:	e750      	b.n	800031c <__adddf3+0x138>
 800047a:	bf00      	nop

0800047c <__aeabi_i2d>:
 800047c:	f090 0f00 	teq	r0, #0
 8000480:	bf04      	itt	eq
 8000482:	2100      	moveq	r1, #0
 8000484:	4770      	bxeq	lr
 8000486:	b530      	push	{r4, r5, lr}
 8000488:	f44f 6480 	mov.w	r4, #1024	; 0x400
 800048c:	f104 0432 	add.w	r4, r4, #50	; 0x32
 8000490:	f010 4500 	ands.w	r5, r0, #2147483648	; 0x80000000
 8000494:	bf48      	it	mi
 8000496:	4240      	negmi	r0, r0
 8000498:	f04f 0100 	mov.w	r1, #0
 800049c:	e73e      	b.n	800031c <__adddf3+0x138>
 800049e:	bf00      	nop

080004a0 <__aeabi_f2d>:
 80004a0:	0042      	lsls	r2, r0, #1
 80004a2:	ea4f 01e2 	mov.w	r1, r2, asr #3
 80004a6:	ea4f 0131 	mov.w	r1, r1, rrx
 80004aa:	ea4f 7002 	mov.w	r0, r2, lsl #28
 80004ae:	bf1f      	itttt	ne
 80004b0:	f012 437f 	andsne.w	r3, r2, #4278190080	; 0xff000000
 80004b4:	f093 4f7f 	teqne	r3, #4278190080	; 0xff000000
 80004b8:	f081 5160 	eorne.w	r1, r1, #939524096	; 0x38000000
 80004bc:	4770      	bxne	lr
 80004be:	f032 427f 	bics.w	r2, r2, #4278190080	; 0xff000000
 80004c2:	bf08      	it	eq
 80004c4:	4770      	bxeq	lr
 80004c6:	f093 4f7f 	teq	r3, #4278190080	; 0xff000000
 80004ca:	bf04      	itt	eq
 80004cc:	f441 2100 	orreq.w	r1, r1, #524288	; 0x80000
 80004d0:	4770      	bxeq	lr
 80004d2:	b530      	push	{r4, r5, lr}
 80004d4:	f44f 7460 	mov.w	r4, #896	; 0x380
 80004d8:	f001 4500 	and.w	r5, r1, #2147483648	; 0x80000000
 80004dc:	f021 4100 	bic.w	r1, r1, #2147483648	; 0x80000000
 80004e0:	e71c      	b.n	800031c <__adddf3+0x138>
 80004e2:	bf00      	nop

080004e4 <__aeabi_ul2d>:
 80004e4:	ea50 0201 	orrs.w	r2, r0, r1
 80004e8:	bf08      	it	eq
 80004ea:	4770      	bxeq	lr
 80004ec:	b530      	push	{r4, r5, lr}
 80004ee:	f04f 0500 	mov.w	r5, #0
 80004f2:	e00a      	b.n	800050a <__aeabi_l2d+0x16>

080004f4 <__aeabi_l2d>:
 80004f4:	ea50 0201 	orrs.w	r2, r0, r1
 80004f8:	bf08      	it	eq
 80004fa:	4770      	bxeq	lr
 80004fc:	b530      	push	{r4, r5, lr}
 80004fe:	f011 4500 	ands.w	r5, r1, #2147483648	; 0x80000000
 8000502:	d502      	bpl.n	800050a <__aeabi_l2d+0x16>
 8000504:	4240      	negs	r0, r0
 8000506:	eb61 0141 	sbc.w	r1, r1, r1, lsl #1
 800050a:	f44f 6480 	mov.w	r4, #1024	; 0x400
 800050e:	f104 0432 	add.w	r4, r4, #50	; 0x32
 8000512:	ea5f 5c91 	movs.w	ip, r1, lsr #22
 8000516:	f43f aed8 	beq.w	80002ca <__adddf3+0xe6>
 800051a:	f04f 0203 	mov.w	r2, #3
 800051e:	ea5f 0cdc 	movs.w	ip, ip, lsr #3
 8000522:	bf18      	it	ne
 8000524:	3203      	addne	r2, #3
 8000526:	ea5f 0cdc 	movs.w	ip, ip, lsr #3
 800052a:	bf18      	it	ne
 800052c:	3203      	addne	r2, #3
 800052e:	eb02 02dc 	add.w	r2, r2, ip, lsr #3
 8000532:	f1c2 0320 	rsb	r3, r2, #32
 8000536:	fa00 fc03 	lsl.w	ip, r0, r3
 800053a:	fa20 f002 	lsr.w	r0, r0, r2
 800053e:	fa01 fe03 	lsl.w	lr, r1, r3
 8000542:	ea40 000e 	orr.w	r0, r0, lr
 8000546:	fa21 f102 	lsr.w	r1, r1, r2
 800054a:	4414      	add	r4, r2
 800054c:	e6bd      	b.n	80002ca <__adddf3+0xe6>
 800054e:	bf00      	nop

08000550 <__aeabi_uldivmod>:
 8000550:	b953      	cbnz	r3, 8000568 <__aeabi_uldivmod+0x18>
 8000552:	b94a      	cbnz	r2, 8000568 <__aeabi_uldivmod+0x18>
 8000554:	2900      	cmp	r1, #0
 8000556:	bf08      	it	eq
 8000558:	2800      	cmpeq	r0, #0
 800055a:	bf1c      	itt	ne
 800055c:	f04f 31ff 	movne.w	r1, #4294967295
 8000560:	f04f 30ff 	movne.w	r0, #4294967295
 8000564:	f000 b970 	b.w	8000848 <__aeabi_idiv0>
 8000568:	f1ad 0c08 	sub.w	ip, sp, #8
 800056c:	e96d ce04 	strd	ip, lr, [sp, #-16]!
 8000570:	f000 f806 	bl	8000580 <__udivmoddi4>
 8000574:	f8dd e004 	ldr.w	lr, [sp, #4]
 8000578:	e9dd 2302 	ldrd	r2, r3, [sp, #8]
 800057c:	b004      	add	sp, #16
 800057e:	4770      	bx	lr

08000580 <__udivmoddi4>:
 8000580:	e92d 47f0 	stmdb	sp!, {r4, r5, r6, r7, r8, r9, sl, lr}
 8000584:	9e08      	ldr	r6, [sp, #32]
 8000586:	460d      	mov	r5, r1
 8000588:	4604      	mov	r4, r0
 800058a:	460f      	mov	r7, r1
 800058c:	2b00      	cmp	r3, #0
 800058e:	d14a      	bne.n	8000626 <__udivmoddi4+0xa6>
 8000590:	428a      	cmp	r2, r1
 8000592:	4694      	mov	ip, r2
 8000594:	d965      	bls.n	8000662 <__udivmoddi4+0xe2>
 8000596:	fab2 f382 	clz	r3, r2
 800059a:	b143      	cbz	r3, 80005ae <__udivmoddi4+0x2e>
 800059c:	fa02 fc03 	lsl.w	ip, r2, r3
 80005a0:	f1c3 0220 	rsb	r2, r3, #32
 80005a4:	409f      	lsls	r7, r3
 80005a6:	fa20 f202 	lsr.w	r2, r0, r2
 80005aa:	4317      	orrs	r7, r2
 80005ac:	409c      	lsls	r4, r3
 80005ae:	ea4f 4e1c 	mov.w	lr, ip, lsr #16
 80005b2:	fa1f f58c 	uxth.w	r5, ip
 80005b6:	fbb7 f1fe 	udiv	r1, r7, lr
 80005ba:	0c22      	lsrs	r2, r4, #16
 80005bc:	fb0e 7711 	mls	r7, lr, r1, r7
 80005c0:	ea42 4207 	orr.w	r2, r2, r7, lsl #16
 80005c4:	fb01 f005 	mul.w	r0, r1, r5
 80005c8:	4290      	cmp	r0, r2
 80005ca:	d90a      	bls.n	80005e2 <__udivmoddi4+0x62>
 80005cc:	eb1c 0202 	adds.w	r2, ip, r2
 80005d0:	f101 37ff 	add.w	r7, r1, #4294967295
 80005d4:	f080 811c 	bcs.w	8000810 <__udivmoddi4+0x290>
 80005d8:	4290      	cmp	r0, r2
 80005da:	f240 8119 	bls.w	8000810 <__udivmoddi4+0x290>
 80005de:	3902      	subs	r1, #2
 80005e0:	4462      	add	r2, ip
 80005e2:	1a12      	subs	r2, r2, r0
 80005e4:	b2a4      	uxth	r4, r4
 80005e6:	fbb2 f0fe 	udiv	r0, r2, lr
 80005ea:	fb0e 2210 	mls	r2, lr, r0, r2
 80005ee:	ea44 4402 	orr.w	r4, r4, r2, lsl #16
 80005f2:	fb00 f505 	mul.w	r5, r0, r5
 80005f6:	42a5      	cmp	r5, r4
 80005f8:	d90a      	bls.n	8000610 <__udivmoddi4+0x90>
 80005fa:	eb1c 0404 	adds.w	r4, ip, r4
 80005fe:	f100 32ff 	add.w	r2, r0, #4294967295
 8000602:	f080 8107 	bcs.w	8000814 <__udivmoddi4+0x294>
 8000606:	42a5      	cmp	r5, r4
 8000608:	f240 8104 	bls.w	8000814 <__udivmoddi4+0x294>
 800060c:	4464      	add	r4, ip
 800060e:	3802      	subs	r0, #2
 8000610:	ea40 4001 	orr.w	r0, r0, r1, lsl #16
 8000614:	1b64      	subs	r4, r4, r5
 8000616:	2100      	movs	r1, #0
 8000618:	b11e      	cbz	r6, 8000622 <__udivmoddi4+0xa2>
 800061a:	40dc      	lsrs	r4, r3
 800061c:	2300      	movs	r3, #0
 800061e:	e9c6 4300 	strd	r4, r3, [r6]
 8000622:	e8bd 87f0 	ldmia.w	sp!, {r4, r5, r6, r7, r8, r9, sl, pc}
 8000626:	428b      	cmp	r3, r1
 8000628:	d908      	bls.n	800063c <__udivmoddi4+0xbc>
 800062a:	2e00      	cmp	r6, #0
 800062c:	f000 80ed 	beq.w	800080a <__udivmoddi4+0x28a>
 8000630:	2100      	movs	r1, #0
 8000632:	e9c6 0500 	strd	r0, r5, [r6]
 8000636:	4608      	mov	r0, r1
 8000638:	e8bd 87f0 	ldmia.w	sp!, {r4, r5, r6, r7, r8, r9, sl, pc}
 800063c:	fab3 f183 	clz	r1, r3
 8000640:	2900      	cmp	r1, #0
 8000642:	d149      	bne.n	80006d8 <__udivmoddi4+0x158>
 8000644:	42ab      	cmp	r3, r5
 8000646:	d302      	bcc.n	800064e <__udivmoddi4+0xce>
 8000648:	4282      	cmp	r2, r0
 800064a:	f200 80f8 	bhi.w	800083e <__udivmoddi4+0x2be>
 800064e:	1a84      	subs	r4, r0, r2
 8000650:	eb65 0203 	sbc.w	r2, r5, r3
 8000654:	2001      	movs	r0, #1
 8000656:	4617      	mov	r7, r2
 8000658:	2e00      	cmp	r6, #0
 800065a:	d0e2      	beq.n	8000622 <__udivmoddi4+0xa2>
 800065c:	e9c6 4700 	strd	r4, r7, [r6]
 8000660:	e7df      	b.n	8000622 <__udivmoddi4+0xa2>
 8000662:	b902      	cbnz	r2, 8000666 <__udivmoddi4+0xe6>
 8000664:	deff      	udf	#255	; 0xff
 8000666:	fab2 f382 	clz	r3, r2
 800066a:	2b00      	cmp	r3, #0
 800066c:	f040 8090 	bne.w	8000790 <__udivmoddi4+0x210>
 8000670:	1a8a      	subs	r2, r1, r2
 8000672:	ea4f 471c 	mov.w	r7, ip, lsr #16
 8000676:	fa1f fe8c 	uxth.w	lr, ip
 800067a:	2101      	movs	r1, #1
 800067c:	fbb2 f5f7 	udiv	r5, r2, r7
 8000680:	fb07 2015 	mls	r0, r7, r5, r2
 8000684:	0c22      	lsrs	r2, r4, #16
 8000686:	ea42 4200 	orr.w	r2, r2, r0, lsl #16
 800068a:	fb0e f005 	mul.w	r0, lr, r5
 800068e:	4290      	cmp	r0, r2
 8000690:	d908      	bls.n	80006a4 <__udivmoddi4+0x124>
 8000692:	eb1c 0202 	adds.w	r2, ip, r2
 8000696:	f105 38ff 	add.w	r8, r5, #4294967295
 800069a:	d202      	bcs.n	80006a2 <__udivmoddi4+0x122>
 800069c:	4290      	cmp	r0, r2
 800069e:	f200 80cb 	bhi.w	8000838 <__udivmoddi4+0x2b8>
 80006a2:	4645      	mov	r5, r8
 80006a4:	1a12      	subs	r2, r2, r0
 80006a6:	b2a4      	uxth	r4, r4
 80006a8:	fbb2 f0f7 	udiv	r0, r2, r7
 80006ac:	fb07 2210 	mls	r2, r7, r0, r2
 80006b0:	ea44 4402 	orr.w	r4, r4, r2, lsl #16
 80006b4:	fb0e fe00 	mul.w	lr, lr, r0
 80006b8:	45a6      	cmp	lr, r4
 80006ba:	d908      	bls.n	80006ce <__udivmoddi4+0x14e>
 80006bc:	eb1c 0404 	adds.w	r4, ip, r4
 80006c0:	f100 32ff 	add.w	r2, r0, #4294967295
 80006c4:	d202      	bcs.n	80006cc <__udivmoddi4+0x14c>
 80006c6:	45a6      	cmp	lr, r4
 80006c8:	f200 80bb 	bhi.w	8000842 <__udivmoddi4+0x2c2>
 80006cc:	4610      	mov	r0, r2
 80006ce:	eba4 040e 	sub.w	r4, r4, lr
 80006d2:	ea40 4005 	orr.w	r0, r0, r5, lsl #16
 80006d6:	e79f      	b.n	8000618 <__udivmoddi4+0x98>
 80006d8:	f1c1 0720 	rsb	r7, r1, #32
 80006dc:	408b      	lsls	r3, r1
 80006de:	fa22 fc07 	lsr.w	ip, r2, r7
 80006e2:	ea4c 0c03 	orr.w	ip, ip, r3
 80006e6:	fa05 f401 	lsl.w	r4, r5, r1
 80006ea:	fa20 f307 	lsr.w	r3, r0, r7
 80006ee:	40fd      	lsrs	r5, r7
 80006f0:	ea4f 491c 	mov.w	r9, ip, lsr #16
 80006f4:	4323      	orrs	r3, r4
 80006f6:	fbb5 f8f9 	udiv	r8, r5, r9
 80006fa:	fa1f fe8c 	uxth.w	lr, ip
 80006fe:	fb09 5518 	mls	r5, r9, r8, r5
 8000702:	0c1c      	lsrs	r4, r3, #16
 8000704:	ea44 4405 	orr.w	r4, r4, r5, lsl #16
 8000708:	fb08 f50e 	mul.w	r5, r8, lr
 800070c:	42a5      	cmp	r5, r4
 800070e:	fa02 f201 	lsl.w	r2, r2, r1
 8000712:	fa00 f001 	lsl.w	r0, r0, r1
 8000716:	d90b      	bls.n	8000730 <__udivmoddi4+0x1b0>
 8000718:	eb1c 0404 	adds.w	r4, ip, r4
 800071c:	f108 3aff 	add.w	sl, r8, #4294967295
 8000720:	f080 8088 	bcs.w	8000834 <__udivmoddi4+0x2b4>
 8000724:	42a5      	cmp	r5, r4
 8000726:	f240 8085 	bls.w	8000834 <__udivmoddi4+0x2b4>
 800072a:	f1a8 0802 	sub.w	r8, r8, #2
 800072e:	4464      	add	r4, ip
 8000730:	1b64      	subs	r4, r4, r5
 8000732:	b29d      	uxth	r5, r3
 8000734:	fbb4 f3f9 	udiv	r3, r4, r9
 8000738:	fb09 4413 	mls	r4, r9, r3, r4
 800073c:	ea45 4404 	orr.w	r4, r5, r4, lsl #16
 8000740:	fb03 fe0e 	mul.w	lr, r3, lr
 8000744:	45a6      	cmp	lr, r4
 8000746:	d908      	bls.n	800075a <__udivmoddi4+0x1da>
 8000748:	eb1c 0404 	adds.w	r4, ip, r4
 800074c:	f103 35ff 	add.w	r5, r3, #4294967295
 8000750:	d26c      	bcs.n	800082c <__udivmoddi4+0x2ac>
 8000752:	45a6      	cmp	lr, r4
 8000754:	d96a      	bls.n	800082c <__udivmoddi4+0x2ac>
 8000756:	3b02      	subs	r3, #2
 8000758:	4464      	add	r4, ip
 800075a:	ea43 4308 	orr.w	r3, r3, r8, lsl #16
 800075e:	fba3 9502 	umull	r9, r5, r3, r2
 8000762:	eba4 040e 	sub.w	r4, r4, lr
 8000766:	42ac      	cmp	r4, r5
 8000768:	46c8      	mov	r8, r9
 800076a:	46ae      	mov	lr, r5
 800076c:	d356      	bcc.n	800081c <__udivmoddi4+0x29c>
 800076e:	d053      	beq.n	8000818 <__udivmoddi4+0x298>
 8000770:	b156      	cbz	r6, 8000788 <__udivmoddi4+0x208>
 8000772:	ebb0 0208 	subs.w	r2, r0, r8
 8000776:	eb64 040e 	sbc.w	r4, r4, lr
 800077a:	fa04 f707 	lsl.w	r7, r4, r7
 800077e:	40ca      	lsrs	r2, r1
 8000780:	40cc      	lsrs	r4, r1
 8000782:	4317      	orrs	r7, r2
 8000784:	e9c6 7400 	strd	r7, r4, [r6]
 8000788:	4618      	mov	r0, r3
 800078a:	2100      	movs	r1, #0
 800078c:	e8bd 87f0 	ldmia.w	sp!, {r4, r5, r6, r7, r8, r9, sl, pc}
 8000790:	f1c3 0120 	rsb	r1, r3, #32
 8000794:	fa02 fc03 	lsl.w	ip, r2, r3
 8000798:	fa20 f201 	lsr.w	r2, r0, r1
 800079c:	fa25 f101 	lsr.w	r1, r5, r1
 80007a0:	409d      	lsls	r5, r3
 80007a2:	432a      	orrs	r2, r5
 80007a4:	ea4f 471c 	mov.w	r7, ip, lsr #16
 80007a8:	fa1f fe8c 	uxth.w	lr, ip
 80007ac:	fbb1 f0f7 	udiv	r0, r1, r7
 80007b0:	fb07 1510 	mls	r5, r7, r0, r1
 80007b4:	0c11      	lsrs	r1, r2, #16
 80007b6:	ea41 4105 	orr.w	r1, r1, r5, lsl #16
 80007ba:	fb00 f50e 	mul.w	r5, r0, lr
 80007be:	428d      	cmp	r5, r1
 80007c0:	fa04 f403 	lsl.w	r4, r4, r3
 80007c4:	d908      	bls.n	80007d8 <__udivmoddi4+0x258>
 80007c6:	eb1c 0101 	adds.w	r1, ip, r1
 80007ca:	f100 38ff 	add.w	r8, r0, #4294967295
 80007ce:	d22f      	bcs.n	8000830 <__udivmoddi4+0x2b0>
 80007d0:	428d      	cmp	r5, r1
 80007d2:	d92d      	bls.n	8000830 <__udivmoddi4+0x2b0>
 80007d4:	3802      	subs	r0, #2
 80007d6:	4461      	add	r1, ip
 80007d8:	1b49      	subs	r1, r1, r5
 80007da:	b292      	uxth	r2, r2
 80007dc:	fbb1 f5f7 	udiv	r5, r1, r7
 80007e0:	fb07 1115 	mls	r1, r7, r5, r1
 80007e4:	ea42 4201 	orr.w	r2, r2, r1, lsl #16
 80007e8:	fb05 f10e 	mul.w	r1, r5, lr
 80007ec:	4291      	cmp	r1, r2
 80007ee:	d908      	bls.n	8000802 <__udivmoddi4+0x282>
 80007f0:	eb1c 0202 	adds.w	r2, ip, r2
 80007f4:	f105 38ff 	add.w	r8, r5, #4294967295
 80007f8:	d216      	bcs.n	8000828 <__udivmoddi4+0x2a8>
 80007fa:	4291      	cmp	r1, r2
 80007fc:	d914      	bls.n	8000828 <__udivmoddi4+0x2a8>
 80007fe:	3d02      	subs	r5, #2
 8000800:	4462      	add	r2, ip
 8000802:	1a52      	subs	r2, r2, r1
 8000804:	ea45 4100 	orr.w	r1, r5, r0, lsl #16
 8000808:	e738      	b.n	800067c <__udivmoddi4+0xfc>
 800080a:	4631      	mov	r1, r6
 800080c:	4630      	mov	r0, r6
 800080e:	e708      	b.n	8000622 <__udivmoddi4+0xa2>
 8000810:	4639      	mov	r1, r7
 8000812:	e6e6      	b.n	80005e2 <__udivmoddi4+0x62>
 8000814:	4610      	mov	r0, r2
 8000816:	e6fb      	b.n	8000610 <__udivmoddi4+0x90>
 8000818:	4548      	cmp	r0, r9
 800081a:	d2a9      	bcs.n	8000770 <__udivmoddi4+0x1f0>
 800081c:	ebb9 0802 	subs.w	r8, r9, r2
 8000820:	eb65 0e0c 	sbc.w	lr, r5, ip
 8000824:	3b01      	subs	r3, #1
 8000826:	e7a3      	b.n	8000770 <__udivmoddi4+0x1f0>
 8000828:	4645      	mov	r5, r8
 800082a:	e7ea      	b.n	8000802 <__udivmoddi4+0x282>
 800082c:	462b      	mov	r3, r5
 800082e:	e794      	b.n	800075a <__udivmoddi4+0x1da>
 8000830:	4640      	mov	r0, r8
 8000832:	e7d1      	b.n	80007d8 <__udivmoddi4+0x258>
 8000834:	46d0      	mov	r8, sl
 8000836:	e77b      	b.n	8000730 <__udivmoddi4+0x1b0>
 8000838:	3d02      	subs	r5, #2
 800083a:	4462      	add	r2, ip
 800083c:	e732      	b.n	80006a4 <__udivmoddi4+0x124>
 800083e:	4608      	mov	r0, r1
 8000840:	e70a      	b.n	8000658 <__udivmoddi4+0xd8>
 8000842:	4464      	add	r4, ip
 8000844:	3802      	subs	r0, #2
 8000846:	e742      	b.n	80006ce <__udivmoddi4+0x14e>

08000848 <__aeabi_idiv0>:
 8000848:	4770      	bx	lr
 800084a:	bf00      	nop

0800084c <APC1_Send_Receive_Command>:
		"APC1_ERROR_VOC",
		"APC1_ERROR_RHT",
		"APC1_ERROR_CRC"
};

HAL_StatusTypeDef APC1_Send_Receive_Command(UART_HandleTypeDef *huart, struct APC1_Command_Settings setting) {
 800084c:	b580      	push	{r7, lr}
 800084e:	b086      	sub	sp, #24
 8000850:	af00      	add	r7, sp, #0
 8000852:	60f8      	str	r0, [r7, #12]
 8000854:	4638      	mov	r0, r7
 8000856:	e880 000e 	stmia.w	r0, {r1, r2, r3}

	HAL_StatusTypeDef status;

	memset(buffer, 0, BUFFER_SIZE);
 800085a:	2264      	movs	r2, #100	; 0x64
 800085c:	2100      	movs	r1, #0
 800085e:	4812      	ldr	r0, [pc, #72]	; (80008a8 <APC1_Send_Receive_Command+0x5c>)
 8000860:	f002 fea8 	bl	80035b4 <memset>
	if ((status = HAL_UART_Receive_IT(huart, buffer, setting.response_size)) != HAL_OK) {
 8000864:	7abb      	ldrb	r3, [r7, #10]
 8000866:	b29b      	uxth	r3, r3
 8000868:	461a      	mov	r2, r3
 800086a:	490f      	ldr	r1, [pc, #60]	; (80008a8 <APC1_Send_Receive_Command+0x5c>)
 800086c:	68f8      	ldr	r0, [r7, #12]
 800086e:	f001 ff08 	bl	8002682 <HAL_UART_Receive_IT>
 8000872:	4603      	mov	r3, r0
 8000874:	75fb      	strb	r3, [r7, #23]
 8000876:	7dfb      	ldrb	r3, [r7, #23]
 8000878:	2b00      	cmp	r3, #0
 800087a:	d001      	beq.n	8000880 <APC1_Send_Receive_Command+0x34>
		return status;
 800087c:	7dfb      	ldrb	r3, [r7, #23]
 800087e:	e00e      	b.n	800089e <APC1_Send_Receive_Command+0x52>
	}
	if ((status = HAL_UART_Transmit(huart, setting.cmd, COMMAND_LENGHT, 2000)) != HAL_OK) {
 8000880:	4639      	mov	r1, r7
 8000882:	f44f 63fa 	mov.w	r3, #2000	; 0x7d0
 8000886:	2207      	movs	r2, #7
 8000888:	68f8      	ldr	r0, [r7, #12]
 800088a:	f001 fe68 	bl	800255e <HAL_UART_Transmit>
 800088e:	4603      	mov	r3, r0
 8000890:	75fb      	strb	r3, [r7, #23]
 8000892:	7dfb      	ldrb	r3, [r7, #23]
 8000894:	2b00      	cmp	r3, #0
 8000896:	d001      	beq.n	800089c <APC1_Send_Receive_Command+0x50>
		return status;
 8000898:	7dfb      	ldrb	r3, [r7, #23]
 800089a:	e000      	b.n	800089e <APC1_Send_Receive_Command+0x52>
	}

	return status;
 800089c:	7dfb      	ldrb	r3, [r7, #23]

}
 800089e:	4618      	mov	r0, r3
 80008a0:	3718      	adds	r7, #24
 80008a2:	46bd      	mov	sp, r7
 80008a4:	bd80      	pop	{r7, pc}
 80008a6:	bf00      	nop
 80008a8:	200000a4 	.word	0x200000a4

080008ac <APC1_Read_Module_Type>:

enum APC1_Status APC1_Read_Module_Type(void) {
 80008ac:	b580      	push	{r7, lr}
 80008ae:	af00      	add	r7, sp, #0

	if (APC1_Send_Receive_Command(&huart1, command[APC1_CMD_READ_MODULE_TYPE]) != HAL_OK) {
 80008b0:	4b0c      	ldr	r3, [pc, #48]	; (80008e4 <APC1_Read_Module_Type+0x38>)
 80008b2:	cb0e      	ldmia	r3, {r1, r2, r3}
 80008b4:	480c      	ldr	r0, [pc, #48]	; (80008e8 <APC1_Read_Module_Type+0x3c>)
 80008b6:	f7ff ffc9 	bl	800084c <APC1_Send_Receive_Command>
 80008ba:	4603      	mov	r3, r0
 80008bc:	2b00      	cmp	r3, #0
 80008be:	d001      	beq.n	80008c4 <APC1_Read_Module_Type+0x18>
		return APC1_ERROR_CMD;
 80008c0:	2381      	movs	r3, #129	; 0x81
 80008c2:	e00d      	b.n	80008e0 <APC1_Read_Module_Type+0x34>
	}
	while (received_response == 0);
 80008c4:	bf00      	nop
 80008c6:	4b09      	ldr	r3, [pc, #36]	; (80008ec <APC1_Read_Module_Type+0x40>)
 80008c8:	681b      	ldr	r3, [r3, #0]
 80008ca:	2b00      	cmp	r3, #0
 80008cc:	d0fb      	beq.n	80008c6 <APC1_Read_Module_Type+0x1a>
	received_response = 0;
 80008ce:	4b07      	ldr	r3, [pc, #28]	; (80008ec <APC1_Read_Module_Type+0x40>)
 80008d0:	2200      	movs	r2, #0
 80008d2:	601a      	str	r2, [r3, #0]

	return APC1_Check_Checksum(SUM_OF_VALUES_FW, CHECKSUM_LOW_FW, CHEKCSUM_HIGH_FW);
 80008d4:	2216      	movs	r2, #22
 80008d6:	2115      	movs	r1, #21
 80008d8:	2015      	movs	r0, #21
 80008da:	f000 f885 	bl	80009e8 <APC1_Check_Checksum>
 80008de:	4603      	mov	r3, r0

}
 80008e0:	4618      	mov	r0, r3
 80008e2:	bd80      	pop	{r7, pc}
 80008e4:	20000000 	.word	0x20000000
 80008e8:	20000184 	.word	0x20000184
 80008ec:	20000108 	.word	0x20000108

080008f0 <APC1_Read_Mea_Data>:

enum APC1_Status APC1_Read_Mea_Data(void) {
 80008f0:	b590      	push	{r4, r7, lr}
 80008f2:	b085      	sub	sp, #20
 80008f4:	af00      	add	r7, sp, #0

	enum APC1_Status errorStat;

	if (APC1_Send_Receive_Command(&huart1, command[APC1_CMD_READ_MEA_DATA]) != HAL_OK) {
 80008f6:	4b36      	ldr	r3, [pc, #216]	; (80009d0 <APC1_Read_Mea_Data+0xe0>)
 80008f8:	f8d3 200b 	ldr.w	r2, [r3, #11]
 80008fc:	4614      	mov	r4, r2
 80008fe:	f8d3 200f 	ldr.w	r2, [r3, #15]
 8000902:	4610      	mov	r0, r2
 8000904:	7cda      	ldrb	r2, [r3, #19]
 8000906:	7d19      	ldrb	r1, [r3, #20]
 8000908:	0209      	lsls	r1, r1, #8
 800090a:	430a      	orrs	r2, r1
 800090c:	7d5b      	ldrb	r3, [r3, #21]
 800090e:	041b      	lsls	r3, r3, #16
 8000910:	431a      	orrs	r2, r3
 8000912:	2300      	movs	r3, #0
 8000914:	f362 0317 	bfi	r3, r2, #0, #24
 8000918:	4621      	mov	r1, r4
 800091a:	4602      	mov	r2, r0
 800091c:	482d      	ldr	r0, [pc, #180]	; (80009d4 <APC1_Read_Mea_Data+0xe4>)
 800091e:	f7ff ff95 	bl	800084c <APC1_Send_Receive_Command>
 8000922:	4603      	mov	r3, r0
 8000924:	2b00      	cmp	r3, #0
 8000926:	d001      	beq.n	800092c <APC1_Read_Mea_Data+0x3c>
		return APC1_ERROR_CMD;
 8000928:	2381      	movs	r3, #129	; 0x81
 800092a:	e04d      	b.n	80009c8 <APC1_Read_Mea_Data+0xd8>
	}
	while (received_response == 0);
 800092c:	bf00      	nop
 800092e:	4b2a      	ldr	r3, [pc, #168]	; (80009d8 <APC1_Read_Mea_Data+0xe8>)
 8000930:	681b      	ldr	r3, [r3, #0]
 8000932:	2b00      	cmp	r3, #0
 8000934:	d0fb      	beq.n	800092e <APC1_Read_Mea_Data+0x3e>
	received_response = 0;
 8000936:	4b28      	ldr	r3, [pc, #160]	; (80009d8 <APC1_Read_Mea_Data+0xe8>)
 8000938:	2200      	movs	r2, #0
 800093a:	601a      	str	r2, [r3, #0]

	if ((errorStat = APC1_Check_Checksum(SUM_OF_VALUES_MEA, CHECKSUM_LOW_OUTPUT_REGISTER, CHECKSUM_HIGH_OUTPUT_REGISTER)) != APC1_OK) {
 800093c:	223f      	movs	r2, #63	; 0x3f
 800093e:	213e      	movs	r1, #62	; 0x3e
 8000940:	203e      	movs	r0, #62	; 0x3e
 8000942:	f000 f851 	bl	80009e8 <APC1_Check_Checksum>
 8000946:	4603      	mov	r3, r0
 8000948:	72fb      	strb	r3, [r7, #11]
 800094a:	7afb      	ldrb	r3, [r7, #11]
 800094c:	2b00      	cmp	r3, #0
 800094e:	d004      	beq.n	800095a <APC1_Read_Mea_Data+0x6a>
		err = 8;
 8000950:	4b22      	ldr	r3, [pc, #136]	; (80009dc <APC1_Read_Mea_Data+0xec>)
 8000952:	2208      	movs	r2, #8
 8000954:	601a      	str	r2, [r3, #0]
		return errorStat;
 8000956:	7afb      	ldrb	r3, [r7, #11]
 8000958:	e036      	b.n	80009c8 <APC1_Read_Mea_Data+0xd8>
	}

	if ((errorStat = APC1_Check_For_Error()) != APC1_OK) {
 800095a:	f000 f877 	bl	8000a4c <APC1_Check_For_Error>
 800095e:	4603      	mov	r3, r0
 8000960:	72fb      	strb	r3, [r7, #11]
 8000962:	7afb      	ldrb	r3, [r7, #11]
 8000964:	2b00      	cmp	r3, #0
 8000966:	d001      	beq.n	800096c <APC1_Read_Mea_Data+0x7c>
		return errorStat;
 8000968:	7afb      	ldrb	r3, [r7, #11]
 800096a:	e02d      	b.n	80009c8 <APC1_Read_Mea_Data+0xd8>
	}

	uint16_t index = 4, i = 0;
 800096c:	2304      	movs	r3, #4
 800096e:	81fb      	strh	r3, [r7, #14]
 8000970:	2300      	movs	r3, #0
 8000972:	81bb      	strh	r3, [r7, #12]
	uint16_t *struct_member = &processed_data.pm1_0;
 8000974:	4b1a      	ldr	r3, [pc, #104]	; (80009e0 <APC1_Read_Mea_Data+0xf0>)
 8000976:	607b      	str	r3, [r7, #4]
	while (index < RS0_OUTPUT_REGISTER) {
 8000978:	e01c      	b.n	80009b4 <APC1_Read_Mea_Data+0xc4>
		if (index == RESERVED_OUTPUT_REGISTER) { // skip reserved two bytes in output data at address 0x20
 800097a:	89fb      	ldrh	r3, [r7, #14]
 800097c:	2b20      	cmp	r3, #32
 800097e:	d102      	bne.n	8000986 <APC1_Read_Mea_Data+0x96>
			index += 2;
 8000980:	89fb      	ldrh	r3, [r7, #14]
 8000982:	3302      	adds	r3, #2
 8000984:	81fb      	strh	r3, [r7, #14]
		}
		struct_member[i++] = APC1_Convert(buffer[index], buffer[index + 1]);
 8000986:	89fb      	ldrh	r3, [r7, #14]
 8000988:	4a16      	ldr	r2, [pc, #88]	; (80009e4 <APC1_Read_Mea_Data+0xf4>)
 800098a:	5cd3      	ldrb	r3, [r2, r3]
 800098c:	021b      	lsls	r3, r3, #8
 800098e:	b21a      	sxth	r2, r3
 8000990:	89fb      	ldrh	r3, [r7, #14]
 8000992:	3301      	adds	r3, #1
 8000994:	4913      	ldr	r1, [pc, #76]	; (80009e4 <APC1_Read_Mea_Data+0xf4>)
 8000996:	5ccb      	ldrb	r3, [r1, r3]
 8000998:	b21b      	sxth	r3, r3
 800099a:	4313      	orrs	r3, r2
 800099c:	b219      	sxth	r1, r3
 800099e:	89bb      	ldrh	r3, [r7, #12]
 80009a0:	1c5a      	adds	r2, r3, #1
 80009a2:	81ba      	strh	r2, [r7, #12]
 80009a4:	005b      	lsls	r3, r3, #1
 80009a6:	687a      	ldr	r2, [r7, #4]
 80009a8:	4413      	add	r3, r2
 80009aa:	b28a      	uxth	r2, r1
 80009ac:	801a      	strh	r2, [r3, #0]
		index += 2;
 80009ae:	89fb      	ldrh	r3, [r7, #14]
 80009b0:	3302      	adds	r3, #2
 80009b2:	81fb      	strh	r3, [r7, #14]
	while (index < RS0_OUTPUT_REGISTER) {
 80009b4:	89fb      	ldrh	r3, [r7, #14]
 80009b6:	2b29      	cmp	r3, #41	; 0x29
 80009b8:	d9df      	bls.n	800097a <APC1_Read_Mea_Data+0x8a>
	}
	processed_data.aqi = buffer[AQI_OUTPUT_REGISTER];
 80009ba:	4b0a      	ldr	r3, [pc, #40]	; (80009e4 <APC1_Read_Mea_Data+0xf4>)
 80009bc:	f893 203a 	ldrb.w	r2, [r3, #58]	; 0x3a
 80009c0:	4b07      	ldr	r3, [pc, #28]	; (80009e0 <APC1_Read_Mea_Data+0xf0>)
 80009c2:	f883 2024 	strb.w	r2, [r3, #36]	; 0x24

	return APC1_OK;
 80009c6:	2300      	movs	r3, #0

}
 80009c8:	4618      	mov	r0, r3
 80009ca:	3714      	adds	r7, #20
 80009cc:	46bd      	mov	sp, r7
 80009ce:	bd90      	pop	{r4, r7, pc}
 80009d0:	20000000 	.word	0x20000000
 80009d4:	20000184 	.word	0x20000184
 80009d8:	20000108 	.word	0x20000108
 80009dc:	2000010c 	.word	0x2000010c
 80009e0:	20000110 	.word	0x20000110
 80009e4:	200000a4 	.word	0x200000a4

080009e8 <APC1_Check_Checksum>:

enum APC1_Status APC1_Check_Checksum(int limit, int low, int high) {
 80009e8:	b480      	push	{r7}
 80009ea:	b087      	sub	sp, #28
 80009ec:	af00      	add	r7, sp, #0
 80009ee:	60f8      	str	r0, [r7, #12]
 80009f0:	60b9      	str	r1, [r7, #8]
 80009f2:	607a      	str	r2, [r7, #4]

	int sum = 0;
 80009f4:	2300      	movs	r3, #0
 80009f6:	617b      	str	r3, [r7, #20]
	for (int i = 0; i<limit; i++) {
 80009f8:	2300      	movs	r3, #0
 80009fa:	613b      	str	r3, [r7, #16]
 80009fc:	e00a      	b.n	8000a14 <APC1_Check_Checksum+0x2c>
		sum += buffer[i];
 80009fe:	4a12      	ldr	r2, [pc, #72]	; (8000a48 <APC1_Check_Checksum+0x60>)
 8000a00:	693b      	ldr	r3, [r7, #16]
 8000a02:	4413      	add	r3, r2
 8000a04:	781b      	ldrb	r3, [r3, #0]
 8000a06:	461a      	mov	r2, r3
 8000a08:	697b      	ldr	r3, [r7, #20]
 8000a0a:	4413      	add	r3, r2
 8000a0c:	617b      	str	r3, [r7, #20]
	for (int i = 0; i<limit; i++) {
 8000a0e:	693b      	ldr	r3, [r7, #16]
 8000a10:	3301      	adds	r3, #1
 8000a12:	613b      	str	r3, [r7, #16]
 8000a14:	693a      	ldr	r2, [r7, #16]
 8000a16:	68fb      	ldr	r3, [r7, #12]
 8000a18:	429a      	cmp	r2, r3
 8000a1a:	dbf0      	blt.n	80009fe <APC1_Check_Checksum+0x16>
	}

	return (APC1_Convert(buffer[low], buffer[high])) == sum ? APC1_OK : APC1_ERROR_CRC;
 8000a1c:	4a0a      	ldr	r2, [pc, #40]	; (8000a48 <APC1_Check_Checksum+0x60>)
 8000a1e:	68bb      	ldr	r3, [r7, #8]
 8000a20:	4413      	add	r3, r2
 8000a22:	781b      	ldrb	r3, [r3, #0]
 8000a24:	021b      	lsls	r3, r3, #8
 8000a26:	4908      	ldr	r1, [pc, #32]	; (8000a48 <APC1_Check_Checksum+0x60>)
 8000a28:	687a      	ldr	r2, [r7, #4]
 8000a2a:	440a      	add	r2, r1
 8000a2c:	7812      	ldrb	r2, [r2, #0]
 8000a2e:	4313      	orrs	r3, r2
 8000a30:	697a      	ldr	r2, [r7, #20]
 8000a32:	429a      	cmp	r2, r3
 8000a34:	d101      	bne.n	8000a3a <APC1_Check_Checksum+0x52>
 8000a36:	2300      	movs	r3, #0
 8000a38:	e000      	b.n	8000a3c <APC1_Check_Checksum+0x54>
 8000a3a:	2380      	movs	r3, #128	; 0x80

}
 8000a3c:	4618      	mov	r0, r3
 8000a3e:	371c      	adds	r7, #28
 8000a40:	46bd      	mov	sp, r7
 8000a42:	f85d 7b04 	ldr.w	r7, [sp], #4
 8000a46:	4770      	bx	lr
 8000a48:	200000a4 	.word	0x200000a4

08000a4c <APC1_Check_For_Error>:

enum APC1_Status APC1_Check_For_Error(void) {
 8000a4c:	b480      	push	{r7}
 8000a4e:	af00      	add	r7, sp, #0

	// TODO: needs fix for multiple errors
	switch (buffer[ERROR_OUTPUT_REGISTER]) {
 8000a50:	4b3e      	ldr	r3, [pc, #248]	; (8000b4c <APC1_Check_For_Error+0x100>)
 8000a52:	f893 303d 	ldrb.w	r3, [r3, #61]	; 0x3d
 8000a56:	2b20      	cmp	r3, #32
 8000a58:	dc48      	bgt.n	8000aec <APC1_Check_For_Error+0xa0>
 8000a5a:	2b00      	cmp	r3, #0
 8000a5c:	dd6c      	ble.n	8000b38 <APC1_Check_For_Error+0xec>
 8000a5e:	3b01      	subs	r3, #1
 8000a60:	2b1f      	cmp	r3, #31
 8000a62:	d869      	bhi.n	8000b38 <APC1_Check_For_Error+0xec>
 8000a64:	a201      	add	r2, pc, #4	; (adr r2, 8000a6c <APC1_Check_For_Error+0x20>)
 8000a66:	f852 f023 	ldr.w	pc, [r2, r3, lsl #2]
 8000a6a:	bf00      	nop
 8000a6c:	08000af3 	.word	0x08000af3
 8000a70:	08000afd 	.word	0x08000afd
 8000a74:	08000b39 	.word	0x08000b39
 8000a78:	08000b07 	.word	0x08000b07
 8000a7c:	08000b39 	.word	0x08000b39
 8000a80:	08000b39 	.word	0x08000b39
 8000a84:	08000b39 	.word	0x08000b39
 8000a88:	08000b11 	.word	0x08000b11
 8000a8c:	08000b39 	.word	0x08000b39
 8000a90:	08000b39 	.word	0x08000b39
 8000a94:	08000b39 	.word	0x08000b39
 8000a98:	08000b39 	.word	0x08000b39
 8000a9c:	08000b39 	.word	0x08000b39
 8000aa0:	08000b39 	.word	0x08000b39
 8000aa4:	08000b39 	.word	0x08000b39
 8000aa8:	08000b1b 	.word	0x08000b1b
 8000aac:	08000b39 	.word	0x08000b39
 8000ab0:	08000b39 	.word	0x08000b39
 8000ab4:	08000b39 	.word	0x08000b39
 8000ab8:	08000b39 	.word	0x08000b39
 8000abc:	08000b39 	.word	0x08000b39
 8000ac0:	08000b39 	.word	0x08000b39
 8000ac4:	08000b39 	.word	0x08000b39
 8000ac8:	08000b39 	.word	0x08000b39
 8000acc:	08000b39 	.word	0x08000b39
 8000ad0:	08000b39 	.word	0x08000b39
 8000ad4:	08000b39 	.word	0x08000b39
 8000ad8:	08000b39 	.word	0x08000b39
 8000adc:	08000b39 	.word	0x08000b39
 8000ae0:	08000b39 	.word	0x08000b39
 8000ae4:	08000b39 	.word	0x08000b39
 8000ae8:	08000b25 	.word	0x08000b25
 8000aec:	2b40      	cmp	r3, #64	; 0x40
 8000aee:	d01e      	beq.n	8000b2e <APC1_Check_For_Error+0xe2>
 8000af0:	e022      	b.n	8000b38 <APC1_Check_For_Error+0xec>
		case APC1_ERROR_TOO_MANY_FAN_RESTARTS:
			err = 1;
 8000af2:	4b17      	ldr	r3, [pc, #92]	; (8000b50 <APC1_Check_For_Error+0x104>)
 8000af4:	2201      	movs	r2, #1
 8000af6:	601a      	str	r2, [r3, #0]
			return APC1_ERROR_TOO_MANY_FAN_RESTARTS;
 8000af8:	2301      	movs	r3, #1
 8000afa:	e021      	b.n	8000b40 <APC1_Check_For_Error+0xf4>
			break;
		case APC1_ERROR_FAN_SPEED_LOW:
			err = 2;
 8000afc:	4b14      	ldr	r3, [pc, #80]	; (8000b50 <APC1_Check_For_Error+0x104>)
 8000afe:	2202      	movs	r2, #2
 8000b00:	601a      	str	r2, [r3, #0]
			return APC1_ERROR_FAN_SPEED_LOW;
 8000b02:	2302      	movs	r3, #2
 8000b04:	e01c      	b.n	8000b40 <APC1_Check_For_Error+0xf4>
			break;
		case APC1_ERROR_PHOTODIODE:
			err = 3;
 8000b06:	4b12      	ldr	r3, [pc, #72]	; (8000b50 <APC1_Check_For_Error+0x104>)
 8000b08:	2203      	movs	r2, #3
 8000b0a:	601a      	str	r2, [r3, #0]
			return APC1_ERROR_PHOTODIODE;
 8000b0c:	2304      	movs	r3, #4
 8000b0e:	e017      	b.n	8000b40 <APC1_Check_For_Error+0xf4>
			break;
		case APC1_ERROR_FAN_STOPPED:
			err = 4;
 8000b10:	4b0f      	ldr	r3, [pc, #60]	; (8000b50 <APC1_Check_For_Error+0x104>)
 8000b12:	2204      	movs	r2, #4
 8000b14:	601a      	str	r2, [r3, #0]
			return APC1_ERROR_FAN_STOPPED;
 8000b16:	2308      	movs	r3, #8
 8000b18:	e012      	b.n	8000b40 <APC1_Check_For_Error+0xf4>
			break;
		case APC1_ERROR_LASER:
			err = 5;
 8000b1a:	4b0d      	ldr	r3, [pc, #52]	; (8000b50 <APC1_Check_For_Error+0x104>)
 8000b1c:	2205      	movs	r2, #5
 8000b1e:	601a      	str	r2, [r3, #0]
			return APC1_ERROR_LASER;
 8000b20:	2310      	movs	r3, #16
 8000b22:	e00d      	b.n	8000b40 <APC1_Check_For_Error+0xf4>
			break;
		case APC1_ERROR_VOC:
			err = 6;
 8000b24:	4b0a      	ldr	r3, [pc, #40]	; (8000b50 <APC1_Check_For_Error+0x104>)
 8000b26:	2206      	movs	r2, #6
 8000b28:	601a      	str	r2, [r3, #0]
			return APC1_ERROR_VOC;
 8000b2a:	2320      	movs	r3, #32
 8000b2c:	e008      	b.n	8000b40 <APC1_Check_For_Error+0xf4>
			break;
		case APC1_ERROR_RHT:
			err = 7;
 8000b2e:	4b08      	ldr	r3, [pc, #32]	; (8000b50 <APC1_Check_For_Error+0x104>)
 8000b30:	2207      	movs	r2, #7
 8000b32:	601a      	str	r2, [r3, #0]
			return APC1_ERROR_RHT;
 8000b34:	2340      	movs	r3, #64	; 0x40
 8000b36:	e003      	b.n	8000b40 <APC1_Check_For_Error+0xf4>
			break;
		default:
			err = 0;
 8000b38:	4b05      	ldr	r3, [pc, #20]	; (8000b50 <APC1_Check_For_Error+0x104>)
 8000b3a:	2200      	movs	r2, #0
 8000b3c:	601a      	str	r2, [r3, #0]
			return APC1_OK;
 8000b3e:	2300      	movs	r3, #0
			break;
	}

}
 8000b40:	4618      	mov	r0, r3
 8000b42:	46bd      	mov	sp, r7
 8000b44:	f85d 7b04 	ldr.w	r7, [sp], #4
 8000b48:	4770      	bx	lr
 8000b4a:	bf00      	nop
 8000b4c:	200000a4 	.word	0x200000a4
 8000b50:	2000010c 	.word	0x2000010c

08000b54 <APC1_Get_PM1_0>:

	return APC1_Check_Checksum(SUM_OF_VALUES_CMD, CHECKSUM_LOW_CMD_ANSWER, CHECKSUM_HIGH_CMD_ANSWER);

}

uint16_t APC1_Get_PM1_0(void) {
 8000b54:	b480      	push	{r7}
 8000b56:	af00      	add	r7, sp, #0

	return processed_data.pm1_0;
 8000b58:	4b03      	ldr	r3, [pc, #12]	; (8000b68 <APC1_Get_PM1_0+0x14>)
 8000b5a:	881b      	ldrh	r3, [r3, #0]

}
 8000b5c:	4618      	mov	r0, r3
 8000b5e:	46bd      	mov	sp, r7
 8000b60:	f85d 7b04 	ldr.w	r7, [sp], #4
 8000b64:	4770      	bx	lr
 8000b66:	bf00      	nop
 8000b68:	20000110 	.word	0x20000110

08000b6c <APC1_Get_PM2_5>:

uint16_t APC1_Get_PM2_5(void) {
 8000b6c:	b480      	push	{r7}
 8000b6e:	af00      	add	r7, sp, #0

	return processed_data.pm2_5;
 8000b70:	4b03      	ldr	r3, [pc, #12]	; (8000b80 <APC1_Get_PM2_5+0x14>)
 8000b72:	885b      	ldrh	r3, [r3, #2]

}
 8000b74:	4618      	mov	r0, r3
 8000b76:	46bd      	mov	sp, r7
 8000b78:	f85d 7b04 	ldr.w	r7, [sp], #4
 8000b7c:	4770      	bx	lr
 8000b7e:	bf00      	nop
 8000b80:	20000110 	.word	0x20000110

08000b84 <APC1_Get_PM10>:

uint16_t APC1_Get_PM10(void) {
 8000b84:	b480      	push	{r7}
 8000b86:	af00      	add	r7, sp, #0

	return processed_data.pm10;
 8000b88:	4b03      	ldr	r3, [pc, #12]	; (8000b98 <APC1_Get_PM10+0x14>)
 8000b8a:	889b      	ldrh	r3, [r3, #4]

}
 8000b8c:	4618      	mov	r0, r3
 8000b8e:	46bd      	mov	sp, r7
 8000b90:	f85d 7b04 	ldr.w	r7, [sp], #4
 8000b94:	4770      	bx	lr
 8000b96:	bf00      	nop
 8000b98:	20000110 	.word	0x20000110

08000b9c <APC1_Get_PM1_0_air>:

uint16_t APC1_Get_PM1_0_air(void) {
 8000b9c:	b480      	push	{r7}
 8000b9e:	af00      	add	r7, sp, #0

	return processed_data.pm1_0_air;
 8000ba0:	4b03      	ldr	r3, [pc, #12]	; (8000bb0 <APC1_Get_PM1_0_air+0x14>)
 8000ba2:	88db      	ldrh	r3, [r3, #6]

}
 8000ba4:	4618      	mov	r0, r3
 8000ba6:	46bd      	mov	sp, r7
 8000ba8:	f85d 7b04 	ldr.w	r7, [sp], #4
 8000bac:	4770      	bx	lr
 8000bae:	bf00      	nop
 8000bb0:	20000110 	.word	0x20000110

08000bb4 <APC1_Get_PM2_5_air>:

uint16_t APC1_Get_PM2_5_air(void) {
 8000bb4:	b480      	push	{r7}
 8000bb6:	af00      	add	r7, sp, #0

	return processed_data.pm2_5_air;
 8000bb8:	4b03      	ldr	r3, [pc, #12]	; (8000bc8 <APC1_Get_PM2_5_air+0x14>)
 8000bba:	891b      	ldrh	r3, [r3, #8]

}
 8000bbc:	4618      	mov	r0, r3
 8000bbe:	46bd      	mov	sp, r7
 8000bc0:	f85d 7b04 	ldr.w	r7, [sp], #4
 8000bc4:	4770      	bx	lr
 8000bc6:	bf00      	nop
 8000bc8:	20000110 	.word	0x20000110

08000bcc <APC1_Get_PM10_air>:

uint16_t APC1_Get_PM10_air(void) {
 8000bcc:	b480      	push	{r7}
 8000bce:	af00      	add	r7, sp, #0

	return processed_data.pm10_air;
 8000bd0:	4b03      	ldr	r3, [pc, #12]	; (8000be0 <APC1_Get_PM10_air+0x14>)
 8000bd2:	895b      	ldrh	r3, [r3, #10]

}
 8000bd4:	4618      	mov	r0, r3
 8000bd6:	46bd      	mov	sp, r7
 8000bd8:	f85d 7b04 	ldr.w	r7, [sp], #4
 8000bdc:	4770      	bx	lr
 8000bde:	bf00      	nop
 8000be0:	20000110 	.word	0x20000110

08000be4 <APC1_Get_Particles_GT_0_3>:

uint16_t APC1_Get_Particles_GT_0_3(void) {
 8000be4:	b480      	push	{r7}
 8000be6:	af00      	add	r7, sp, #0

	return processed_data.particles_0_3;
 8000be8:	4b03      	ldr	r3, [pc, #12]	; (8000bf8 <APC1_Get_Particles_GT_0_3+0x14>)
 8000bea:	899b      	ldrh	r3, [r3, #12]

}
 8000bec:	4618      	mov	r0, r3
 8000bee:	46bd      	mov	sp, r7
 8000bf0:	f85d 7b04 	ldr.w	r7, [sp], #4
 8000bf4:	4770      	bx	lr
 8000bf6:	bf00      	nop
 8000bf8:	20000110 	.word	0x20000110

08000bfc <APC1_Get_Particles_GT_0_5>:

uint16_t APC1_Get_Particles_GT_0_5(void) {
 8000bfc:	b480      	push	{r7}
 8000bfe:	af00      	add	r7, sp, #0

	return processed_data.particles_0_5 - processed_data.particles_0_3;
 8000c00:	4b05      	ldr	r3, [pc, #20]	; (8000c18 <APC1_Get_Particles_GT_0_5+0x1c>)
 8000c02:	89da      	ldrh	r2, [r3, #14]
 8000c04:	4b04      	ldr	r3, [pc, #16]	; (8000c18 <APC1_Get_Particles_GT_0_5+0x1c>)
 8000c06:	899b      	ldrh	r3, [r3, #12]
 8000c08:	1ad3      	subs	r3, r2, r3
 8000c0a:	b29b      	uxth	r3, r3

}
 8000c0c:	4618      	mov	r0, r3
 8000c0e:	46bd      	mov	sp, r7
 8000c10:	f85d 7b04 	ldr.w	r7, [sp], #4
 8000c14:	4770      	bx	lr
 8000c16:	bf00      	nop
 8000c18:	20000110 	.word	0x20000110

08000c1c <APC1_Get_Particles_GT_1_0>:

uint16_t APC1_Get_Particles_GT_1_0(void) {
 8000c1c:	b480      	push	{r7}
 8000c1e:	af00      	add	r7, sp, #0

	return processed_data.particles_1_0 - processed_data.particles_0_3;
 8000c20:	4b05      	ldr	r3, [pc, #20]	; (8000c38 <APC1_Get_Particles_GT_1_0+0x1c>)
 8000c22:	8a1a      	ldrh	r2, [r3, #16]
 8000c24:	4b04      	ldr	r3, [pc, #16]	; (8000c38 <APC1_Get_Particles_GT_1_0+0x1c>)
 8000c26:	899b      	ldrh	r3, [r3, #12]
 8000c28:	1ad3      	subs	r3, r2, r3
 8000c2a:	b29b      	uxth	r3, r3

}
 8000c2c:	4618      	mov	r0, r3
 8000c2e:	46bd      	mov	sp, r7
 8000c30:	f85d 7b04 	ldr.w	r7, [sp], #4
 8000c34:	4770      	bx	lr
 8000c36:	bf00      	nop
 8000c38:	20000110 	.word	0x20000110

08000c3c <APC1_Get_Particles_GT_2_5>:

uint16_t APC1_Get_Particles_GT_2_5(void) {
 8000c3c:	b480      	push	{r7}
 8000c3e:	af00      	add	r7, sp, #0

	return processed_data.particles_2_5 - processed_data.particles_0_3;
 8000c40:	4b05      	ldr	r3, [pc, #20]	; (8000c58 <APC1_Get_Particles_GT_2_5+0x1c>)
 8000c42:	8a5a      	ldrh	r2, [r3, #18]
 8000c44:	4b04      	ldr	r3, [pc, #16]	; (8000c58 <APC1_Get_Particles_GT_2_5+0x1c>)
 8000c46:	899b      	ldrh	r3, [r3, #12]
 8000c48:	1ad3      	subs	r3, r2, r3
 8000c4a:	b29b      	uxth	r3, r3

}
 8000c4c:	4618      	mov	r0, r3
 8000c4e:	46bd      	mov	sp, r7
 8000c50:	f85d 7b04 	ldr.w	r7, [sp], #4
 8000c54:	4770      	bx	lr
 8000c56:	bf00      	nop
 8000c58:	20000110 	.word	0x20000110

08000c5c <APC1_Get_Particles_GT_5_0>:

uint16_t APC1_Get_Particles_GT_5_0(void) {
 8000c5c:	b480      	push	{r7}
 8000c5e:	af00      	add	r7, sp, #0

	return processed_data.particles_5_0 - processed_data.particles_0_3;
 8000c60:	4b05      	ldr	r3, [pc, #20]	; (8000c78 <APC1_Get_Particles_GT_5_0+0x1c>)
 8000c62:	8a9a      	ldrh	r2, [r3, #20]
 8000c64:	4b04      	ldr	r3, [pc, #16]	; (8000c78 <APC1_Get_Particles_GT_5_0+0x1c>)
 8000c66:	899b      	ldrh	r3, [r3, #12]
 8000c68:	1ad3      	subs	r3, r2, r3
 8000c6a:	b29b      	uxth	r3, r3

}
 8000c6c:	4618      	mov	r0, r3
 8000c6e:	46bd      	mov	sp, r7
 8000c70:	f85d 7b04 	ldr.w	r7, [sp], #4
 8000c74:	4770      	bx	lr
 8000c76:	bf00      	nop
 8000c78:	20000110 	.word	0x20000110

08000c7c <APC1_Get_Particles_GT_10>:

uint16_t APC1_Get_Particles_GT_10(void) {
 8000c7c:	b480      	push	{r7}
 8000c7e:	af00      	add	r7, sp, #0

	return processed_data.particles_10 - processed_data.particles_0_3;
 8000c80:	4b05      	ldr	r3, [pc, #20]	; (8000c98 <APC1_Get_Particles_GT_10+0x1c>)
 8000c82:	8ada      	ldrh	r2, [r3, #22]
 8000c84:	4b04      	ldr	r3, [pc, #16]	; (8000c98 <APC1_Get_Particles_GT_10+0x1c>)
 8000c86:	899b      	ldrh	r3, [r3, #12]
 8000c88:	1ad3      	subs	r3, r2, r3
 8000c8a:	b29b      	uxth	r3, r3

}
 8000c8c:	4618      	mov	r0, r3
 8000c8e:	46bd      	mov	sp, r7
 8000c90:	f85d 7b04 	ldr.w	r7, [sp], #4
 8000c94:	4770      	bx	lr
 8000c96:	bf00      	nop
 8000c98:	20000110 	.word	0x20000110

08000c9c <APC1_Get_TVOC>:

uint16_t APC1_Get_TVOC(void) {
 8000c9c:	b480      	push	{r7}
 8000c9e:	af00      	add	r7, sp, #0

	return processed_data.TVOC;
 8000ca0:	4b03      	ldr	r3, [pc, #12]	; (8000cb0 <APC1_Get_TVOC+0x14>)
 8000ca2:	8b1b      	ldrh	r3, [r3, #24]

}
 8000ca4:	4618      	mov	r0, r3
 8000ca6:	46bd      	mov	sp, r7
 8000ca8:	f85d 7b04 	ldr.w	r7, [sp], #4
 8000cac:	4770      	bx	lr
 8000cae:	bf00      	nop
 8000cb0:	20000110 	.word	0x20000110

08000cb4 <APC1_Get_eCO2>:

uint16_t APC1_Get_eCO2(void) {
 8000cb4:	b480      	push	{r7}
 8000cb6:	af00      	add	r7, sp, #0

	return processed_data.eCO2;
 8000cb8:	4b03      	ldr	r3, [pc, #12]	; (8000cc8 <APC1_Get_eCO2+0x14>)
 8000cba:	8b5b      	ldrh	r3, [r3, #26]

}
 8000cbc:	4618      	mov	r0, r3
 8000cbe:	46bd      	mov	sp, r7
 8000cc0:	f85d 7b04 	ldr.w	r7, [sp], #4
 8000cc4:	4770      	bx	lr
 8000cc6:	bf00      	nop
 8000cc8:	20000110 	.word	0x20000110

08000ccc <APC1_Get_T_Comp>:

double APC1_Get_T_Comp(void) {
 8000ccc:	b580      	push	{r7, lr}
 8000cce:	af00      	add	r7, sp, #0

	return processed_data.t_comp * 0.1f;
 8000cd0:	4b0b      	ldr	r3, [pc, #44]	; (8000d00 <APC1_Get_T_Comp+0x34>)
 8000cd2:	8b9b      	ldrh	r3, [r3, #28]
 8000cd4:	ee07 3a90 	vmov	s15, r3
 8000cd8:	eef8 7ae7 	vcvt.f32.s32	s15, s15
 8000cdc:	ed9f 7a09 	vldr	s14, [pc, #36]	; 8000d04 <APC1_Get_T_Comp+0x38>
 8000ce0:	ee67 7a87 	vmul.f32	s15, s15, s14
 8000ce4:	ee17 0a90 	vmov	r0, s15
 8000ce8:	f7ff fbda 	bl	80004a0 <__aeabi_f2d>
 8000cec:	4602      	mov	r2, r0
 8000cee:	460b      	mov	r3, r1
 8000cf0:	ec43 2b17 	vmov	d7, r2, r3

}
 8000cf4:	eeb0 0a47 	vmov.f32	s0, s14
 8000cf8:	eef0 0a67 	vmov.f32	s1, s15
 8000cfc:	bd80      	pop	{r7, pc}
 8000cfe:	bf00      	nop
 8000d00:	20000110 	.word	0x20000110
 8000d04:	3dcccccd 	.word	0x3dcccccd

08000d08 <APC1_Get_RH_Comp>:

double APC1_Get_RH_Comp(void) {
 8000d08:	b580      	push	{r7, lr}
 8000d0a:	af00      	add	r7, sp, #0

	return processed_data.rh_comp * 0.1f;
 8000d0c:	4b0b      	ldr	r3, [pc, #44]	; (8000d3c <APC1_Get_RH_Comp+0x34>)
 8000d0e:	8bdb      	ldrh	r3, [r3, #30]
 8000d10:	ee07 3a90 	vmov	s15, r3
 8000d14:	eef8 7ae7 	vcvt.f32.s32	s15, s15
 8000d18:	ed9f 7a09 	vldr	s14, [pc, #36]	; 8000d40 <APC1_Get_RH_Comp+0x38>
 8000d1c:	ee67 7a87 	vmul.f32	s15, s15, s14
 8000d20:	ee17 0a90 	vmov	r0, s15
 8000d24:	f7ff fbbc 	bl	80004a0 <__aeabi_f2d>
 8000d28:	4602      	mov	r2, r0
 8000d2a:	460b      	mov	r3, r1
 8000d2c:	ec43 2b17 	vmov	d7, r2, r3

}
 8000d30:	eeb0 0a47 	vmov.f32	s0, s14
 8000d34:	eef0 0a67 	vmov.f32	s1, s15
 8000d38:	bd80      	pop	{r7, pc}
 8000d3a:	bf00      	nop
 8000d3c:	20000110 	.word	0x20000110
 8000d40:	3dcccccd 	.word	0x3dcccccd

08000d44 <APC1_Get_T_Raw>:

double APC1_Get_T_Raw(void) {
 8000d44:	b580      	push	{r7, lr}
 8000d46:	af00      	add	r7, sp, #0

	return processed_data.t_raw * 0.1f;
 8000d48:	4b0b      	ldr	r3, [pc, #44]	; (8000d78 <APC1_Get_T_Raw+0x34>)
 8000d4a:	8c1b      	ldrh	r3, [r3, #32]
 8000d4c:	ee07 3a90 	vmov	s15, r3
 8000d50:	eef8 7ae7 	vcvt.f32.s32	s15, s15
 8000d54:	ed9f 7a09 	vldr	s14, [pc, #36]	; 8000d7c <APC1_Get_T_Raw+0x38>
 8000d58:	ee67 7a87 	vmul.f32	s15, s15, s14
 8000d5c:	ee17 0a90 	vmov	r0, s15
 8000d60:	f7ff fb9e 	bl	80004a0 <__aeabi_f2d>
 8000d64:	4602      	mov	r2, r0
 8000d66:	460b      	mov	r3, r1
 8000d68:	ec43 2b17 	vmov	d7, r2, r3

}
 8000d6c:	eeb0 0a47 	vmov.f32	s0, s14
 8000d70:	eef0 0a67 	vmov.f32	s1, s15
 8000d74:	bd80      	pop	{r7, pc}
 8000d76:	bf00      	nop
 8000d78:	20000110 	.word	0x20000110
 8000d7c:	3dcccccd 	.word	0x3dcccccd

08000d80 <APC1_Get_RH_Raw>:

double APC1_Get_RH_Raw(void) {
 8000d80:	b580      	push	{r7, lr}
 8000d82:	af00      	add	r7, sp, #0

	return processed_data.rh_raw * 0.1f;
 8000d84:	4b0b      	ldr	r3, [pc, #44]	; (8000db4 <APC1_Get_RH_Raw+0x34>)
 8000d86:	8c5b      	ldrh	r3, [r3, #34]	; 0x22
 8000d88:	ee07 3a90 	vmov	s15, r3
 8000d8c:	eef8 7ae7 	vcvt.f32.s32	s15, s15
 8000d90:	ed9f 7a09 	vldr	s14, [pc, #36]	; 8000db8 <APC1_Get_RH_Raw+0x38>
 8000d94:	ee67 7a87 	vmul.f32	s15, s15, s14
 8000d98:	ee17 0a90 	vmov	r0, s15
 8000d9c:	f7ff fb80 	bl	80004a0 <__aeabi_f2d>
 8000da0:	4602      	mov	r2, r0
 8000da2:	460b      	mov	r3, r1
 8000da4:	ec43 2b17 	vmov	d7, r2, r3

}
 8000da8:	eeb0 0a47 	vmov.f32	s0, s14
 8000dac:	eef0 0a67 	vmov.f32	s1, s15
 8000db0:	bd80      	pop	{r7, pc}
 8000db2:	bf00      	nop
 8000db4:	20000110 	.word	0x20000110
 8000db8:	3dcccccd 	.word	0x3dcccccd

08000dbc <APC1_Get_AQI>:

uint8_t	APC1_Get_AQI(void) {
 8000dbc:	b480      	push	{r7}
 8000dbe:	af00      	add	r7, sp, #0

	return processed_data.aqi;
 8000dc0:	4b03      	ldr	r3, [pc, #12]	; (8000dd0 <APC1_Get_AQI+0x14>)
 8000dc2:	f893 3024 	ldrb.w	r3, [r3, #36]	; 0x24

}
 8000dc6:	4618      	mov	r0, r3
 8000dc8:	46bd      	mov	sp, r7
 8000dca:	f85d 7b04 	ldr.w	r7, [sp], #4
 8000dce:	4770      	bx	lr
 8000dd0:	20000110 	.word	0x20000110

08000dd4 <APC1_Get_AQI_String>:

const char *APC1_Get_AQI_String(void) {
 8000dd4:	b580      	push	{r7, lr}
 8000dd6:	b082      	sub	sp, #8
 8000dd8:	af00      	add	r7, sp, #0

	// if somehow we get a wrong index
	uint8_t index = APC1_Get_AQI();
 8000dda:	f7ff ffef 	bl	8000dbc <APC1_Get_AQI>
 8000dde:	4603      	mov	r3, r0
 8000de0:	71fb      	strb	r3, [r7, #7]
	return (index <= 5 && index >= 1) ? APC1_AQI_Strings[index - 1] : "Error";
 8000de2:	79fb      	ldrb	r3, [r7, #7]
 8000de4:	2b05      	cmp	r3, #5
 8000de6:	d808      	bhi.n	8000dfa <APC1_Get_AQI_String+0x26>
 8000de8:	79fb      	ldrb	r3, [r7, #7]
 8000dea:	2b00      	cmp	r3, #0
 8000dec:	d005      	beq.n	8000dfa <APC1_Get_AQI_String+0x26>
 8000dee:	79fb      	ldrb	r3, [r7, #7]
 8000df0:	3b01      	subs	r3, #1
 8000df2:	4a04      	ldr	r2, [pc, #16]	; (8000e04 <APC1_Get_AQI_String+0x30>)
 8000df4:	f852 3023 	ldr.w	r3, [r2, r3, lsl #2]
 8000df8:	e000      	b.n	8000dfc <APC1_Get_AQI_String+0x28>
 8000dfa:	4b03      	ldr	r3, [pc, #12]	; (8000e08 <APC1_Get_AQI_String+0x34>)

}
 8000dfc:	4618      	mov	r0, r3
 8000dfe:	3708      	adds	r7, #8
 8000e00:	46bd      	mov	sp, r7
 8000e02:	bd80      	pop	{r7, pc}
 8000e04:	20000044 	.word	0x20000044
 8000e08:	08003714 	.word	0x08003714

08000e0c <APC1_Get_Error_String>:

const char *APC1_Get_Error_String(void) {
 8000e0c:	b480      	push	{r7}
 8000e0e:	af00      	add	r7, sp, #0

	return APC1_Status_Strings[err];
 8000e10:	4b04      	ldr	r3, [pc, #16]	; (8000e24 <APC1_Get_Error_String+0x18>)
 8000e12:	681b      	ldr	r3, [r3, #0]
 8000e14:	4a04      	ldr	r2, [pc, #16]	; (8000e28 <APC1_Get_Error_String+0x1c>)
 8000e16:	f852 3023 	ldr.w	r3, [r2, r3, lsl #2]

}
 8000e1a:	4618      	mov	r0, r3
 8000e1c:	46bd      	mov	sp, r7
 8000e1e:	f85d 7b04 	ldr.w	r7, [sp], #4
 8000e22:	4770      	bx	lr
 8000e24:	2000010c 	.word	0x2000010c
 8000e28:	20000058 	.word	0x20000058

08000e2c <HAL_UART_RxCpltCallback>:

void HAL_UART_RxCpltCallback(UART_HandleTypeDef *huart) {
 8000e2c:	b480      	push	{r7}
 8000e2e:	b083      	sub	sp, #12
 8000e30:	af00      	add	r7, sp, #0
 8000e32:	6078      	str	r0, [r7, #4]

	if (huart->Instance == USART1) {
 8000e34:	687b      	ldr	r3, [r7, #4]
 8000e36:	681b      	ldr	r3, [r3, #0]
 8000e38:	4a05      	ldr	r2, [pc, #20]	; (8000e50 <HAL_UART_RxCpltCallback+0x24>)
 8000e3a:	4293      	cmp	r3, r2
 8000e3c:	d102      	bne.n	8000e44 <HAL_UART_RxCpltCallback+0x18>
		received_response = 1;
 8000e3e:	4b05      	ldr	r3, [pc, #20]	; (8000e54 <HAL_UART_RxCpltCallback+0x28>)
 8000e40:	2201      	movs	r2, #1
 8000e42:	601a      	str	r2, [r3, #0]
	}

}
 8000e44:	bf00      	nop
 8000e46:	370c      	adds	r7, #12
 8000e48:	46bd      	mov	sp, r7
 8000e4a:	f85d 7b04 	ldr.w	r7, [sp], #4
 8000e4e:	4770      	bx	lr
 8000e50:	40011000 	.word	0x40011000
 8000e54:	20000108 	.word	0x20000108

08000e58 <main>:
/**
  * @brief  The application entry point.
  * @retval int
  */
int main(void)
{
 8000e58:	b580      	push	{r7, lr}
 8000e5a:	af00      	add	r7, sp, #0
  /* USER CODE END 1 */

  /* MCU Configuration--------------------------------------------------------*/

  /* Reset of all peripherals, Initializes the Flash interface and the Systick. */
  HAL_Init();
 8000e5c:	f000 fac2 	bl	80013e4 <HAL_Init>
  /* USER CODE BEGIN Init */

  /* USER CODE END Init */

  /* Configure the system clock */
  SystemClock_Config();
 8000e60:	f000 f8ca 	bl	8000ff8 <SystemClock_Config>
  /* USER CODE BEGIN SysInit */

  /* USER CODE END SysInit */

  /* Initialize all configured peripherals */
  MX_GPIO_Init();
 8000e64:	f000 f95c 	bl	8001120 <MX_GPIO_Init>
  MX_USART1_UART_Init();
 8000e68:	f000 f930 	bl	80010cc <MX_USART1_UART_Init>
  // HAL_Delay(10000);
  // APC1_Set_Idle_Mode();
  // HAL_Delay(10000);
  // APC1_Set_Mea_Mode();
  // HAL_Delay(2000);
  if (APC1_Read_Module_Type() != APC1_OK)
 8000e6c:	f7ff fd1e 	bl	80008ac <APC1_Read_Module_Type>
 8000e70:	4603      	mov	r3, r0
 8000e72:	2b00      	cmp	r3, #0
 8000e74:	d001      	beq.n	8000e7a <main+0x22>
	  Error_Handler();
 8000e76:	f000 f9c1 	bl	80011fc <Error_Handler>

  /* Infinite loop */
  /* USER CODE BEGIN WHILE */
  while (1)
  {
	  if (APC1_Read_Mea_Data() != APC1_OK) {
 8000e7a:	f7ff fd39 	bl	80008f0 <APC1_Read_Mea_Data>
 8000e7e:	4603      	mov	r3, r0
 8000e80:	2b00      	cmp	r3, #0
 8000e82:	d001      	beq.n	8000e88 <main+0x30>
		  Error_Handler();
 8000e84:	f000 f9ba 	bl	80011fc <Error_Handler>
	  }
	  T_pm1_0 = APC1_Get_PM1_0();
 8000e88:	f7ff fe64 	bl	8000b54 <APC1_Get_PM1_0>
 8000e8c:	4603      	mov	r3, r0
 8000e8e:	461a      	mov	r2, r3
 8000e90:	4b44      	ldr	r3, [pc, #272]	; (8000fa4 <main+0x14c>)
 8000e92:	801a      	strh	r2, [r3, #0]
	  T_pm2_5 = APC1_Get_PM2_5();
 8000e94:	f7ff fe6a 	bl	8000b6c <APC1_Get_PM2_5>
 8000e98:	4603      	mov	r3, r0
 8000e9a:	461a      	mov	r2, r3
 8000e9c:	4b42      	ldr	r3, [pc, #264]	; (8000fa8 <main+0x150>)
 8000e9e:	801a      	strh	r2, [r3, #0]
	  T_pm10 = APC1_Get_PM10();
 8000ea0:	f7ff fe70 	bl	8000b84 <APC1_Get_PM10>
 8000ea4:	4603      	mov	r3, r0
 8000ea6:	461a      	mov	r2, r3
 8000ea8:	4b40      	ldr	r3, [pc, #256]	; (8000fac <main+0x154>)
 8000eaa:	801a      	strh	r2, [r3, #0]
	  T_pm1_0_air = APC1_Get_PM1_0_air();
 8000eac:	f7ff fe76 	bl	8000b9c <APC1_Get_PM1_0_air>
 8000eb0:	4603      	mov	r3, r0
 8000eb2:	461a      	mov	r2, r3
 8000eb4:	4b3e      	ldr	r3, [pc, #248]	; (8000fb0 <main+0x158>)
 8000eb6:	801a      	strh	r2, [r3, #0]
	  T_pm2_5_air = APC1_Get_PM2_5_air();
 8000eb8:	f7ff fe7c 	bl	8000bb4 <APC1_Get_PM2_5_air>
 8000ebc:	4603      	mov	r3, r0
 8000ebe:	461a      	mov	r2, r3
 8000ec0:	4b3c      	ldr	r3, [pc, #240]	; (8000fb4 <main+0x15c>)
 8000ec2:	801a      	strh	r2, [r3, #0]
	  T_pm10_air = APC1_Get_PM10_air();
 8000ec4:	f7ff fe82 	bl	8000bcc <APC1_Get_PM10_air>
 8000ec8:	4603      	mov	r3, r0
 8000eca:	461a      	mov	r2, r3
 8000ecc:	4b3a      	ldr	r3, [pc, #232]	; (8000fb8 <main+0x160>)
 8000ece:	801a      	strh	r2, [r3, #0]
	  T_particles_0_3 = APC1_Get_Particles_GT_0_3();
 8000ed0:	f7ff fe88 	bl	8000be4 <APC1_Get_Particles_GT_0_3>
 8000ed4:	4603      	mov	r3, r0
 8000ed6:	461a      	mov	r2, r3
 8000ed8:	4b38      	ldr	r3, [pc, #224]	; (8000fbc <main+0x164>)
 8000eda:	801a      	strh	r2, [r3, #0]
	  T_particles_0_5 = APC1_Get_Particles_GT_0_5();
 8000edc:	f7ff fe8e 	bl	8000bfc <APC1_Get_Particles_GT_0_5>
 8000ee0:	4603      	mov	r3, r0
 8000ee2:	461a      	mov	r2, r3
 8000ee4:	4b36      	ldr	r3, [pc, #216]	; (8000fc0 <main+0x168>)
 8000ee6:	801a      	strh	r2, [r3, #0]
	  T_particles_1_0 = APC1_Get_Particles_GT_1_0();
 8000ee8:	f7ff fe98 	bl	8000c1c <APC1_Get_Particles_GT_1_0>
 8000eec:	4603      	mov	r3, r0
 8000eee:	461a      	mov	r2, r3
 8000ef0:	4b34      	ldr	r3, [pc, #208]	; (8000fc4 <main+0x16c>)
 8000ef2:	801a      	strh	r2, [r3, #0]
	  T_particles_2_5 = APC1_Get_Particles_GT_2_5();
 8000ef4:	f7ff fea2 	bl	8000c3c <APC1_Get_Particles_GT_2_5>
 8000ef8:	4603      	mov	r3, r0
 8000efa:	461a      	mov	r2, r3
 8000efc:	4b32      	ldr	r3, [pc, #200]	; (8000fc8 <main+0x170>)
 8000efe:	801a      	strh	r2, [r3, #0]
	  T_particles_5_0 = APC1_Get_Particles_GT_5_0();
 8000f00:	f7ff feac 	bl	8000c5c <APC1_Get_Particles_GT_5_0>
 8000f04:	4603      	mov	r3, r0
 8000f06:	461a      	mov	r2, r3
 8000f08:	4b30      	ldr	r3, [pc, #192]	; (8000fcc <main+0x174>)
 8000f0a:	801a      	strh	r2, [r3, #0]
	  T_particles_10 = APC1_Get_Particles_GT_10();
 8000f0c:	f7ff feb6 	bl	8000c7c <APC1_Get_Particles_GT_10>
 8000f10:	4603      	mov	r3, r0
 8000f12:	461a      	mov	r2, r3
 8000f14:	4b2e      	ldr	r3, [pc, #184]	; (8000fd0 <main+0x178>)
 8000f16:	801a      	strh	r2, [r3, #0]
	  T_TVOC = APC1_Get_TVOC();
 8000f18:	f7ff fec0 	bl	8000c9c <APC1_Get_TVOC>
 8000f1c:	4603      	mov	r3, r0
 8000f1e:	461a      	mov	r2, r3
 8000f20:	4b2c      	ldr	r3, [pc, #176]	; (8000fd4 <main+0x17c>)
 8000f22:	801a      	strh	r2, [r3, #0]
	  T_eCO2 = APC1_Get_eCO2();
 8000f24:	f7ff fec6 	bl	8000cb4 <APC1_Get_eCO2>
 8000f28:	4603      	mov	r3, r0
 8000f2a:	461a      	mov	r2, r3
 8000f2c:	4b2a      	ldr	r3, [pc, #168]	; (8000fd8 <main+0x180>)
 8000f2e:	801a      	strh	r2, [r3, #0]
	  T_t_comp = APC1_Get_T_Comp();
 8000f30:	f7ff fecc 	bl	8000ccc <APC1_Get_T_Comp>
 8000f34:	eeb0 7a40 	vmov.f32	s14, s0
 8000f38:	eef0 7a60 	vmov.f32	s15, s1
 8000f3c:	4b27      	ldr	r3, [pc, #156]	; (8000fdc <main+0x184>)
 8000f3e:	ed83 7b00 	vstr	d7, [r3]
	  T_rh_comp = APC1_Get_RH_Comp();
 8000f42:	f7ff fee1 	bl	8000d08 <APC1_Get_RH_Comp>
 8000f46:	eeb0 7a40 	vmov.f32	s14, s0
 8000f4a:	eef0 7a60 	vmov.f32	s15, s1
 8000f4e:	4b24      	ldr	r3, [pc, #144]	; (8000fe0 <main+0x188>)
 8000f50:	ed83 7b00 	vstr	d7, [r3]
	  T_t_raw = APC1_Get_T_Raw();
 8000f54:	f7ff fef6 	bl	8000d44 <APC1_Get_T_Raw>
 8000f58:	eeb0 7a40 	vmov.f32	s14, s0
 8000f5c:	eef0 7a60 	vmov.f32	s15, s1
 8000f60:	4b20      	ldr	r3, [pc, #128]	; (8000fe4 <main+0x18c>)
 8000f62:	ed83 7b00 	vstr	d7, [r3]
	  T_rh_raw = APC1_Get_RH_Raw();
 8000f66:	f7ff ff0b 	bl	8000d80 <APC1_Get_RH_Raw>
 8000f6a:	eeb0 7a40 	vmov.f32	s14, s0
 8000f6e:	eef0 7a60 	vmov.f32	s15, s1
 8000f72:	4b1d      	ldr	r3, [pc, #116]	; (8000fe8 <main+0x190>)
 8000f74:	ed83 7b00 	vstr	d7, [r3]
	  T_aqi = APC1_Get_AQI();
 8000f78:	f7ff ff20 	bl	8000dbc <APC1_Get_AQI>
 8000f7c:	4603      	mov	r3, r0
 8000f7e:	461a      	mov	r2, r3
 8000f80:	4b1a      	ldr	r3, [pc, #104]	; (8000fec <main+0x194>)
 8000f82:	701a      	strb	r2, [r3, #0]
	  aqi_string = APC1_Get_AQI_String();
 8000f84:	f7ff ff26 	bl	8000dd4 <APC1_Get_AQI_String>
 8000f88:	4603      	mov	r3, r0
 8000f8a:	4a19      	ldr	r2, [pc, #100]	; (8000ff0 <main+0x198>)
 8000f8c:	6013      	str	r3, [r2, #0]
	  error_string = APC1_Get_Error_String();
 8000f8e:	f7ff ff3d 	bl	8000e0c <APC1_Get_Error_String>
 8000f92:	4603      	mov	r3, r0
 8000f94:	4a17      	ldr	r2, [pc, #92]	; (8000ff4 <main+0x19c>)
 8000f96:	6013      	str	r3, [r2, #0]
	  HAL_Delay(2000);
 8000f98:	f44f 60fa 	mov.w	r0, #2000	; 0x7d0
 8000f9c:	f000 fa94 	bl	80014c8 <HAL_Delay>
	  if (APC1_Read_Mea_Data() != APC1_OK) {
 8000fa0:	e76b      	b.n	8000e7a <main+0x22>
 8000fa2:	bf00      	nop
 8000fa4:	20000136 	.word	0x20000136
 8000fa8:	20000138 	.word	0x20000138
 8000fac:	2000013a 	.word	0x2000013a
 8000fb0:	2000013c 	.word	0x2000013c
 8000fb4:	2000013e 	.word	0x2000013e
 8000fb8:	20000140 	.word	0x20000140
 8000fbc:	20000142 	.word	0x20000142
 8000fc0:	20000144 	.word	0x20000144
 8000fc4:	20000146 	.word	0x20000146
 8000fc8:	20000148 	.word	0x20000148
 8000fcc:	2000014a 	.word	0x2000014a
 8000fd0:	2000014c 	.word	0x2000014c
 8000fd4:	2000014e 	.word	0x2000014e
 8000fd8:	20000150 	.word	0x20000150
 8000fdc:	20000158 	.word	0x20000158
 8000fe0:	20000160 	.word	0x20000160
 8000fe4:	20000168 	.word	0x20000168
 8000fe8:	20000170 	.word	0x20000170
 8000fec:	20000180 	.word	0x20000180
 8000ff0:	20000178 	.word	0x20000178
 8000ff4:	2000017c 	.word	0x2000017c

08000ff8 <SystemClock_Config>:
/**
  * @brief System Clock Configuration
  * @retval None
  */
void SystemClock_Config(void)
{
 8000ff8:	b580      	push	{r7, lr}
 8000ffa:	b094      	sub	sp, #80	; 0x50
 8000ffc:	af00      	add	r7, sp, #0
  RCC_OscInitTypeDef RCC_OscInitStruct = {0};
 8000ffe:	f107 0320 	add.w	r3, r7, #32
 8001002:	2230      	movs	r2, #48	; 0x30
 8001004:	2100      	movs	r1, #0
 8001006:	4618      	mov	r0, r3
 8001008:	f002 fad4 	bl	80035b4 <memset>
  RCC_ClkInitTypeDef RCC_ClkInitStruct = {0};
 800100c:	f107 030c 	add.w	r3, r7, #12
 8001010:	2200      	movs	r2, #0
 8001012:	601a      	str	r2, [r3, #0]
 8001014:	605a      	str	r2, [r3, #4]
 8001016:	609a      	str	r2, [r3, #8]
 8001018:	60da      	str	r2, [r3, #12]
 800101a:	611a      	str	r2, [r3, #16]

  /** Configure the main internal regulator output voltage
  */
  __HAL_RCC_PWR_CLK_ENABLE();
 800101c:	2300      	movs	r3, #0
 800101e:	60bb      	str	r3, [r7, #8]
 8001020:	4b28      	ldr	r3, [pc, #160]	; (80010c4 <SystemClock_Config+0xcc>)
 8001022:	6c1b      	ldr	r3, [r3, #64]	; 0x40
 8001024:	4a27      	ldr	r2, [pc, #156]	; (80010c4 <SystemClock_Config+0xcc>)
 8001026:	f043 5380 	orr.w	r3, r3, #268435456	; 0x10000000
 800102a:	6413      	str	r3, [r2, #64]	; 0x40
 800102c:	4b25      	ldr	r3, [pc, #148]	; (80010c4 <SystemClock_Config+0xcc>)
 800102e:	6c1b      	ldr	r3, [r3, #64]	; 0x40
 8001030:	f003 5380 	and.w	r3, r3, #268435456	; 0x10000000
 8001034:	60bb      	str	r3, [r7, #8]
 8001036:	68bb      	ldr	r3, [r7, #8]
  __HAL_PWR_VOLTAGESCALING_CONFIG(PWR_REGULATOR_VOLTAGE_SCALE1);
 8001038:	2300      	movs	r3, #0
 800103a:	607b      	str	r3, [r7, #4]
 800103c:	4b22      	ldr	r3, [pc, #136]	; (80010c8 <SystemClock_Config+0xd0>)
 800103e:	681b      	ldr	r3, [r3, #0]
 8001040:	4a21      	ldr	r2, [pc, #132]	; (80010c8 <SystemClock_Config+0xd0>)
 8001042:	f443 4340 	orr.w	r3, r3, #49152	; 0xc000
 8001046:	6013      	str	r3, [r2, #0]
 8001048:	4b1f      	ldr	r3, [pc, #124]	; (80010c8 <SystemClock_Config+0xd0>)
 800104a:	681b      	ldr	r3, [r3, #0]
 800104c:	f403 4340 	and.w	r3, r3, #49152	; 0xc000
 8001050:	607b      	str	r3, [r7, #4]
 8001052:	687b      	ldr	r3, [r7, #4]

  /** Initializes the RCC Oscillators according to the specified parameters
  * in the RCC_OscInitTypeDef structure.
  */
  RCC_OscInitStruct.OscillatorType = RCC_OSCILLATORTYPE_HSI;
 8001054:	2302      	movs	r3, #2
 8001056:	623b      	str	r3, [r7, #32]
  RCC_OscInitStruct.HSIState = RCC_HSI_ON;
 8001058:	2301      	movs	r3, #1
 800105a:	62fb      	str	r3, [r7, #44]	; 0x2c
  RCC_OscInitStruct.HSICalibrationValue = RCC_HSICALIBRATION_DEFAULT;
 800105c:	2310      	movs	r3, #16
 800105e:	633b      	str	r3, [r7, #48]	; 0x30
  RCC_OscInitStruct.PLL.PLLState = RCC_PLL_ON;
 8001060:	2302      	movs	r3, #2
 8001062:	63bb      	str	r3, [r7, #56]	; 0x38
  RCC_OscInitStruct.PLL.PLLSource = RCC_PLLSOURCE_HSI;
 8001064:	2300      	movs	r3, #0
 8001066:	63fb      	str	r3, [r7, #60]	; 0x3c
  RCC_OscInitStruct.PLL.PLLM = 16;
 8001068:	2310      	movs	r3, #16
 800106a:	643b      	str	r3, [r7, #64]	; 0x40
  RCC_OscInitStruct.PLL.PLLN = 336;
 800106c:	f44f 73a8 	mov.w	r3, #336	; 0x150
 8001070:	647b      	str	r3, [r7, #68]	; 0x44
  RCC_OscInitStruct.PLL.PLLP = RCC_PLLP_DIV4;
 8001072:	2304      	movs	r3, #4
 8001074:	64bb      	str	r3, [r7, #72]	; 0x48
  RCC_OscInitStruct.PLL.PLLQ = 4;
 8001076:	2304      	movs	r3, #4
 8001078:	64fb      	str	r3, [r7, #76]	; 0x4c
  if (HAL_RCC_OscConfig(&RCC_OscInitStruct) != HAL_OK)
 800107a:	f107 0320 	add.w	r3, r7, #32
 800107e:	4618      	mov	r0, r3
 8001080:	f000 fd88 	bl	8001b94 <HAL_RCC_OscConfig>
 8001084:	4603      	mov	r3, r0
 8001086:	2b00      	cmp	r3, #0
 8001088:	d001      	beq.n	800108e <SystemClock_Config+0x96>
  {
    Error_Handler();
 800108a:	f000 f8b7 	bl	80011fc <Error_Handler>
  }

  /** Initializes the CPU, AHB and APB buses clocks
  */
  RCC_ClkInitStruct.ClockType = RCC_CLOCKTYPE_HCLK|RCC_CLOCKTYPE_SYSCLK
 800108e:	230f      	movs	r3, #15
 8001090:	60fb      	str	r3, [r7, #12]
                              |RCC_CLOCKTYPE_PCLK1|RCC_CLOCKTYPE_PCLK2;
  RCC_ClkInitStruct.SYSCLKSource = RCC_SYSCLKSOURCE_PLLCLK;
 8001092:	2302      	movs	r3, #2
 8001094:	613b      	str	r3, [r7, #16]
  RCC_ClkInitStruct.AHBCLKDivider = RCC_SYSCLK_DIV1;
 8001096:	2300      	movs	r3, #0
 8001098:	617b      	str	r3, [r7, #20]
  RCC_ClkInitStruct.APB1CLKDivider = RCC_HCLK_DIV2;
 800109a:	f44f 5380 	mov.w	r3, #4096	; 0x1000
 800109e:	61bb      	str	r3, [r7, #24]
  RCC_ClkInitStruct.APB2CLKDivider = RCC_HCLK_DIV1;
 80010a0:	2300      	movs	r3, #0
 80010a2:	61fb      	str	r3, [r7, #28]

  if (HAL_RCC_ClockConfig(&RCC_ClkInitStruct, FLASH_LATENCY_2) != HAL_OK)
 80010a4:	f107 030c 	add.w	r3, r7, #12
 80010a8:	2102      	movs	r1, #2
 80010aa:	4618      	mov	r0, r3
 80010ac:	f000 ffea 	bl	8002084 <HAL_RCC_ClockConfig>
 80010b0:	4603      	mov	r3, r0
 80010b2:	2b00      	cmp	r3, #0
 80010b4:	d001      	beq.n	80010ba <SystemClock_Config+0xc2>
  {
    Error_Handler();
 80010b6:	f000 f8a1 	bl	80011fc <Error_Handler>
  }
}
 80010ba:	bf00      	nop
 80010bc:	3750      	adds	r7, #80	; 0x50
 80010be:	46bd      	mov	sp, r7
 80010c0:	bd80      	pop	{r7, pc}
 80010c2:	bf00      	nop
 80010c4:	40023800 	.word	0x40023800
 80010c8:	40007000 	.word	0x40007000

080010cc <MX_USART1_UART_Init>:
  * @brief USART1 Initialization Function
  * @param None
  * @retval None
  */
static void MX_USART1_UART_Init(void)
{
 80010cc:	b580      	push	{r7, lr}
 80010ce:	af00      	add	r7, sp, #0
  /* USER CODE END USART1_Init 0 */

  /* USER CODE BEGIN USART1_Init 1 */

  /* USER CODE END USART1_Init 1 */
  huart1.Instance = USART1;
 80010d0:	4b11      	ldr	r3, [pc, #68]	; (8001118 <MX_USART1_UART_Init+0x4c>)
 80010d2:	4a12      	ldr	r2, [pc, #72]	; (800111c <MX_USART1_UART_Init+0x50>)
 80010d4:	601a      	str	r2, [r3, #0]
  huart1.Init.BaudRate = 9600;
 80010d6:	4b10      	ldr	r3, [pc, #64]	; (8001118 <MX_USART1_UART_Init+0x4c>)
 80010d8:	f44f 5216 	mov.w	r2, #9600	; 0x2580
 80010dc:	605a      	str	r2, [r3, #4]
  huart1.Init.WordLength = UART_WORDLENGTH_8B;
 80010de:	4b0e      	ldr	r3, [pc, #56]	; (8001118 <MX_USART1_UART_Init+0x4c>)
 80010e0:	2200      	movs	r2, #0
 80010e2:	609a      	str	r2, [r3, #8]
  huart1.Init.StopBits = UART_STOPBITS_1;
 80010e4:	4b0c      	ldr	r3, [pc, #48]	; (8001118 <MX_USART1_UART_Init+0x4c>)
 80010e6:	2200      	movs	r2, #0
 80010e8:	60da      	str	r2, [r3, #12]
  huart1.Init.Parity = UART_PARITY_NONE;
 80010ea:	4b0b      	ldr	r3, [pc, #44]	; (8001118 <MX_USART1_UART_Init+0x4c>)
 80010ec:	2200      	movs	r2, #0
 80010ee:	611a      	str	r2, [r3, #16]
  huart1.Init.Mode = UART_MODE_TX_RX;
 80010f0:	4b09      	ldr	r3, [pc, #36]	; (8001118 <MX_USART1_UART_Init+0x4c>)
 80010f2:	220c      	movs	r2, #12
 80010f4:	615a      	str	r2, [r3, #20]
  huart1.Init.HwFlowCtl = UART_HWCONTROL_NONE;
 80010f6:	4b08      	ldr	r3, [pc, #32]	; (8001118 <MX_USART1_UART_Init+0x4c>)
 80010f8:	2200      	movs	r2, #0
 80010fa:	619a      	str	r2, [r3, #24]
  huart1.Init.OverSampling = UART_OVERSAMPLING_16;
 80010fc:	4b06      	ldr	r3, [pc, #24]	; (8001118 <MX_USART1_UART_Init+0x4c>)
 80010fe:	2200      	movs	r2, #0
 8001100:	61da      	str	r2, [r3, #28]
  if (HAL_UART_Init(&huart1) != HAL_OK)
 8001102:	4805      	ldr	r0, [pc, #20]	; (8001118 <MX_USART1_UART_Init+0x4c>)
 8001104:	f001 f9de 	bl	80024c4 <HAL_UART_Init>
 8001108:	4603      	mov	r3, r0
 800110a:	2b00      	cmp	r3, #0
 800110c:	d001      	beq.n	8001112 <MX_USART1_UART_Init+0x46>
  {
    Error_Handler();
 800110e:	f000 f875 	bl	80011fc <Error_Handler>
  }
  /* USER CODE BEGIN USART1_Init 2 */

  /* USER CODE END USART1_Init 2 */

}
 8001112:	bf00      	nop
 8001114:	bd80      	pop	{r7, pc}
 8001116:	bf00      	nop
 8001118:	20000184 	.word	0x20000184
 800111c:	40011000 	.word	0x40011000

08001120 <MX_GPIO_Init>:
  * @brief GPIO Initialization Function
  * @param None
  * @retval None
  */
static void MX_GPIO_Init(void)
{
 8001120:	b580      	push	{r7, lr}
 8001122:	b08a      	sub	sp, #40	; 0x28
 8001124:	af00      	add	r7, sp, #0
  GPIO_InitTypeDef GPIO_InitStruct = {0};
 8001126:	f107 0314 	add.w	r3, r7, #20
 800112a:	2200      	movs	r2, #0
 800112c:	601a      	str	r2, [r3, #0]
 800112e:	605a      	str	r2, [r3, #4]
 8001130:	609a      	str	r2, [r3, #8]
 8001132:	60da      	str	r2, [r3, #12]
 8001134:	611a      	str	r2, [r3, #16]
/* USER CODE BEGIN MX_GPIO_Init_1 */
/* USER CODE END MX_GPIO_Init_1 */

  /* GPIO Ports Clock Enable */
  __HAL_RCC_GPIOC_CLK_ENABLE();
 8001136:	2300      	movs	r3, #0
 8001138:	613b      	str	r3, [r7, #16]
 800113a:	4b2d      	ldr	r3, [pc, #180]	; (80011f0 <MX_GPIO_Init+0xd0>)
 800113c:	6b1b      	ldr	r3, [r3, #48]	; 0x30
 800113e:	4a2c      	ldr	r2, [pc, #176]	; (80011f0 <MX_GPIO_Init+0xd0>)
 8001140:	f043 0304 	orr.w	r3, r3, #4
 8001144:	6313      	str	r3, [r2, #48]	; 0x30
 8001146:	4b2a      	ldr	r3, [pc, #168]	; (80011f0 <MX_GPIO_Init+0xd0>)
 8001148:	6b1b      	ldr	r3, [r3, #48]	; 0x30
 800114a:	f003 0304 	and.w	r3, r3, #4
 800114e:	613b      	str	r3, [r7, #16]
 8001150:	693b      	ldr	r3, [r7, #16]
  __HAL_RCC_GPIOH_CLK_ENABLE();
 8001152:	2300      	movs	r3, #0
 8001154:	60fb      	str	r3, [r7, #12]
 8001156:	4b26      	ldr	r3, [pc, #152]	; (80011f0 <MX_GPIO_Init+0xd0>)
 8001158:	6b1b      	ldr	r3, [r3, #48]	; 0x30
 800115a:	4a25      	ldr	r2, [pc, #148]	; (80011f0 <MX_GPIO_Init+0xd0>)
 800115c:	f043 0380 	orr.w	r3, r3, #128	; 0x80
 8001160:	6313      	str	r3, [r2, #48]	; 0x30
 8001162:	4b23      	ldr	r3, [pc, #140]	; (80011f0 <MX_GPIO_Init+0xd0>)
 8001164:	6b1b      	ldr	r3, [r3, #48]	; 0x30
 8001166:	f003 0380 	and.w	r3, r3, #128	; 0x80
 800116a:	60fb      	str	r3, [r7, #12]
 800116c:	68fb      	ldr	r3, [r7, #12]
  __HAL_RCC_GPIOA_CLK_ENABLE();
 800116e:	2300      	movs	r3, #0
 8001170:	60bb      	str	r3, [r7, #8]
 8001172:	4b1f      	ldr	r3, [pc, #124]	; (80011f0 <MX_GPIO_Init+0xd0>)
 8001174:	6b1b      	ldr	r3, [r3, #48]	; 0x30
 8001176:	4a1e      	ldr	r2, [pc, #120]	; (80011f0 <MX_GPIO_Init+0xd0>)
 8001178:	f043 0301 	orr.w	r3, r3, #1
 800117c:	6313      	str	r3, [r2, #48]	; 0x30
 800117e:	4b1c      	ldr	r3, [pc, #112]	; (80011f0 <MX_GPIO_Init+0xd0>)
 8001180:	6b1b      	ldr	r3, [r3, #48]	; 0x30
 8001182:	f003 0301 	and.w	r3, r3, #1
 8001186:	60bb      	str	r3, [r7, #8]
 8001188:	68bb      	ldr	r3, [r7, #8]
  __HAL_RCC_GPIOB_CLK_ENABLE();
 800118a:	2300      	movs	r3, #0
 800118c:	607b      	str	r3, [r7, #4]
 800118e:	4b18      	ldr	r3, [pc, #96]	; (80011f0 <MX_GPIO_Init+0xd0>)
 8001190:	6b1b      	ldr	r3, [r3, #48]	; 0x30
 8001192:	4a17      	ldr	r2, [pc, #92]	; (80011f0 <MX_GPIO_Init+0xd0>)
 8001194:	f043 0302 	orr.w	r3, r3, #2
 8001198:	6313      	str	r3, [r2, #48]	; 0x30
 800119a:	4b15      	ldr	r3, [pc, #84]	; (80011f0 <MX_GPIO_Init+0xd0>)
 800119c:	6b1b      	ldr	r3, [r3, #48]	; 0x30
 800119e:	f003 0302 	and.w	r3, r3, #2
 80011a2:	607b      	str	r3, [r7, #4]
 80011a4:	687b      	ldr	r3, [r7, #4]

  /*Configure GPIO pin Output Level */
  HAL_GPIO_WritePin(LD2_GPIO_Port, LD2_Pin, GPIO_PIN_RESET);
 80011a6:	2200      	movs	r2, #0
 80011a8:	2120      	movs	r1, #32
 80011aa:	4812      	ldr	r0, [pc, #72]	; (80011f4 <MX_GPIO_Init+0xd4>)
 80011ac:	f000 fcd8 	bl	8001b60 <HAL_GPIO_WritePin>

  /*Configure GPIO pin : B1_Pin */
  GPIO_InitStruct.Pin = B1_Pin;
 80011b0:	f44f 5300 	mov.w	r3, #8192	; 0x2000
 80011b4:	617b      	str	r3, [r7, #20]
  GPIO_InitStruct.Mode = GPIO_MODE_IT_FALLING;
 80011b6:	f44f 1304 	mov.w	r3, #2162688	; 0x210000
 80011ba:	61bb      	str	r3, [r7, #24]
  GPIO_InitStruct.Pull = GPIO_NOPULL;
 80011bc:	2300      	movs	r3, #0
 80011be:	61fb      	str	r3, [r7, #28]
  HAL_GPIO_Init(B1_GPIO_Port, &GPIO_InitStruct);
 80011c0:	f107 0314 	add.w	r3, r7, #20
 80011c4:	4619      	mov	r1, r3
 80011c6:	480c      	ldr	r0, [pc, #48]	; (80011f8 <MX_GPIO_Init+0xd8>)
 80011c8:	f000 fb46 	bl	8001858 <HAL_GPIO_Init>

  /*Configure GPIO pin : LD2_Pin */
  GPIO_InitStruct.Pin = LD2_Pin;
 80011cc:	2320      	movs	r3, #32
 80011ce:	617b      	str	r3, [r7, #20]
  GPIO_InitStruct.Mode = GPIO_MODE_OUTPUT_PP;
 80011d0:	2301      	movs	r3, #1
 80011d2:	61bb      	str	r3, [r7, #24]
  GPIO_InitStruct.Pull = GPIO_NOPULL;
 80011d4:	2300      	movs	r3, #0
 80011d6:	61fb      	str	r3, [r7, #28]
  GPIO_InitStruct.Speed = GPIO_SPEED_FREQ_LOW;
 80011d8:	2300      	movs	r3, #0
 80011da:	623b      	str	r3, [r7, #32]
  HAL_GPIO_Init(LD2_GPIO_Port, &GPIO_InitStruct);
 80011dc:	f107 0314 	add.w	r3, r7, #20
 80011e0:	4619      	mov	r1, r3
 80011e2:	4804      	ldr	r0, [pc, #16]	; (80011f4 <MX_GPIO_Init+0xd4>)
 80011e4:	f000 fb38 	bl	8001858 <HAL_GPIO_Init>

/* USER CODE BEGIN MX_GPIO_Init_2 */
/* USER CODE END MX_GPIO_Init_2 */
}
 80011e8:	bf00      	nop
 80011ea:	3728      	adds	r7, #40	; 0x28
 80011ec:	46bd      	mov	sp, r7
 80011ee:	bd80      	pop	{r7, pc}
 80011f0:	40023800 	.word	0x40023800
 80011f4:	40020000 	.word	0x40020000
 80011f8:	40020800 	.word	0x40020800

080011fc <Error_Handler>:
/**
  * @brief  This function is executed in case of error occurrence.
  * @retval None
  */
void Error_Handler(void)
{
 80011fc:	b580      	push	{r7, lr}
 80011fe:	af00      	add	r7, sp, #0
  \details Disables IRQ interrupts by setting the I-bit in the CPSR.
           Can only be executed in Privileged modes.
 */
__STATIC_FORCEINLINE void __disable_irq(void)
{
  __ASM volatile ("cpsid i" : : : "memory");
 8001200:	b672      	cpsid	i
}
 8001202:	bf00      	nop
  /* USER CODE BEGIN Error_Handler_Debug */
  /* User can add his own implementation to report the HAL error return state */
  __disable_irq();
  while (1)
  {
	  error_string = APC1_Get_Error_String();
 8001204:	f7ff fe02 	bl	8000e0c <APC1_Get_Error_String>
 8001208:	4603      	mov	r3, r0
 800120a:	4a01      	ldr	r2, [pc, #4]	; (8001210 <Error_Handler+0x14>)
 800120c:	6013      	str	r3, [r2, #0]
 800120e:	e7f9      	b.n	8001204 <Error_Handler+0x8>
 8001210:	2000017c 	.word	0x2000017c

08001214 <HAL_MspInit>:
/* USER CODE END 0 */
/**
  * Initializes the Global MSP.
  */
void HAL_MspInit(void)
{
 8001214:	b580      	push	{r7, lr}
 8001216:	b082      	sub	sp, #8
 8001218:	af00      	add	r7, sp, #0
  /* USER CODE BEGIN MspInit 0 */

  /* USER CODE END MspInit 0 */

  __HAL_RCC_SYSCFG_CLK_ENABLE();
 800121a:	2300      	movs	r3, #0
 800121c:	607b      	str	r3, [r7, #4]
 800121e:	4b10      	ldr	r3, [pc, #64]	; (8001260 <HAL_MspInit+0x4c>)
 8001220:	6c5b      	ldr	r3, [r3, #68]	; 0x44
 8001222:	4a0f      	ldr	r2, [pc, #60]	; (8001260 <HAL_MspInit+0x4c>)
 8001224:	f443 4380 	orr.w	r3, r3, #16384	; 0x4000
 8001228:	6453      	str	r3, [r2, #68]	; 0x44
 800122a:	4b0d      	ldr	r3, [pc, #52]	; (8001260 <HAL_MspInit+0x4c>)
 800122c:	6c5b      	ldr	r3, [r3, #68]	; 0x44
 800122e:	f403 4380 	and.w	r3, r3, #16384	; 0x4000
 8001232:	607b      	str	r3, [r7, #4]
 8001234:	687b      	ldr	r3, [r7, #4]
  __HAL_RCC_PWR_CLK_ENABLE();
 8001236:	2300      	movs	r3, #0
 8001238:	603b      	str	r3, [r7, #0]
 800123a:	4b09      	ldr	r3, [pc, #36]	; (8001260 <HAL_MspInit+0x4c>)
 800123c:	6c1b      	ldr	r3, [r3, #64]	; 0x40
 800123e:	4a08      	ldr	r2, [pc, #32]	; (8001260 <HAL_MspInit+0x4c>)
 8001240:	f043 5380 	orr.w	r3, r3, #268435456	; 0x10000000
 8001244:	6413      	str	r3, [r2, #64]	; 0x40
 8001246:	4b06      	ldr	r3, [pc, #24]	; (8001260 <HAL_MspInit+0x4c>)
 8001248:	6c1b      	ldr	r3, [r3, #64]	; 0x40
 800124a:	f003 5380 	and.w	r3, r3, #268435456	; 0x10000000
 800124e:	603b      	str	r3, [r7, #0]
 8001250:	683b      	ldr	r3, [r7, #0]

  HAL_NVIC_SetPriorityGrouping(NVIC_PRIORITYGROUP_0);
 8001252:	2007      	movs	r0, #7
 8001254:	f000 fa2c 	bl	80016b0 <HAL_NVIC_SetPriorityGrouping>
  /* System interrupt init*/

  /* USER CODE BEGIN MspInit 1 */

  /* USER CODE END MspInit 1 */
}
 8001258:	bf00      	nop
 800125a:	3708      	adds	r7, #8
 800125c:	46bd      	mov	sp, r7
 800125e:	bd80      	pop	{r7, pc}
 8001260:	40023800 	.word	0x40023800

08001264 <HAL_UART_MspInit>:
* This function configures the hardware resources used in this example
* @param huart: UART handle pointer
* @retval None
*/
void HAL_UART_MspInit(UART_HandleTypeDef* huart)
{
 8001264:	b580      	push	{r7, lr}
 8001266:	b08a      	sub	sp, #40	; 0x28
 8001268:	af00      	add	r7, sp, #0
 800126a:	6078      	str	r0, [r7, #4]
  GPIO_InitTypeDef GPIO_InitStruct = {0};
 800126c:	f107 0314 	add.w	r3, r7, #20
 8001270:	2200      	movs	r2, #0
 8001272:	601a      	str	r2, [r3, #0]
 8001274:	605a      	str	r2, [r3, #4]
 8001276:	609a      	str	r2, [r3, #8]
 8001278:	60da      	str	r2, [r3, #12]
 800127a:	611a      	str	r2, [r3, #16]
  if(huart->Instance==USART1)
 800127c:	687b      	ldr	r3, [r7, #4]
 800127e:	681b      	ldr	r3, [r3, #0]
 8001280:	4a1d      	ldr	r2, [pc, #116]	; (80012f8 <HAL_UART_MspInit+0x94>)
 8001282:	4293      	cmp	r3, r2
 8001284:	d134      	bne.n	80012f0 <HAL_UART_MspInit+0x8c>
  {
  /* USER CODE BEGIN USART1_MspInit 0 */

  /* USER CODE END USART1_MspInit 0 */
    /* Peripheral clock enable */
    __HAL_RCC_USART1_CLK_ENABLE();
 8001286:	2300      	movs	r3, #0
 8001288:	613b      	str	r3, [r7, #16]
 800128a:	4b1c      	ldr	r3, [pc, #112]	; (80012fc <HAL_UART_MspInit+0x98>)
 800128c:	6c5b      	ldr	r3, [r3, #68]	; 0x44
 800128e:	4a1b      	ldr	r2, [pc, #108]	; (80012fc <HAL_UART_MspInit+0x98>)
 8001290:	f043 0310 	orr.w	r3, r3, #16
 8001294:	6453      	str	r3, [r2, #68]	; 0x44
 8001296:	4b19      	ldr	r3, [pc, #100]	; (80012fc <HAL_UART_MspInit+0x98>)
 8001298:	6c5b      	ldr	r3, [r3, #68]	; 0x44
 800129a:	f003 0310 	and.w	r3, r3, #16
 800129e:	613b      	str	r3, [r7, #16]
 80012a0:	693b      	ldr	r3, [r7, #16]

    __HAL_RCC_GPIOA_CLK_ENABLE();
 80012a2:	2300      	movs	r3, #0
 80012a4:	60fb      	str	r3, [r7, #12]
 80012a6:	4b15      	ldr	r3, [pc, #84]	; (80012fc <HAL_UART_MspInit+0x98>)
 80012a8:	6b1b      	ldr	r3, [r3, #48]	; 0x30
 80012aa:	4a14      	ldr	r2, [pc, #80]	; (80012fc <HAL_UART_MspInit+0x98>)
 80012ac:	f043 0301 	orr.w	r3, r3, #1
 80012b0:	6313      	str	r3, [r2, #48]	; 0x30
 80012b2:	4b12      	ldr	r3, [pc, #72]	; (80012fc <HAL_UART_MspInit+0x98>)
 80012b4:	6b1b      	ldr	r3, [r3, #48]	; 0x30
 80012b6:	f003 0301 	and.w	r3, r3, #1
 80012ba:	60fb      	str	r3, [r7, #12]
 80012bc:	68fb      	ldr	r3, [r7, #12]
    /**USART1 GPIO Configuration
    PA9     ------> USART1_TX
    PA10     ------> USART1_RX
    */
    GPIO_InitStruct.Pin = GPIO_PIN_9|GPIO_PIN_10;
 80012be:	f44f 63c0 	mov.w	r3, #1536	; 0x600
 80012c2:	617b      	str	r3, [r7, #20]
    GPIO_InitStruct.Mode = GPIO_MODE_AF_PP;
 80012c4:	2302      	movs	r3, #2
 80012c6:	61bb      	str	r3, [r7, #24]
    GPIO_InitStruct.Pull = GPIO_NOPULL;
 80012c8:	2300      	movs	r3, #0
 80012ca:	61fb      	str	r3, [r7, #28]
    GPIO_InitStruct.Speed = GPIO_SPEED_FREQ_VERY_HIGH;
 80012cc:	2303      	movs	r3, #3
 80012ce:	623b      	str	r3, [r7, #32]
    GPIO_InitStruct.Alternate = GPIO_AF7_USART1;
 80012d0:	2307      	movs	r3, #7
 80012d2:	627b      	str	r3, [r7, #36]	; 0x24
    HAL_GPIO_Init(GPIOA, &GPIO_InitStruct);
 80012d4:	f107 0314 	add.w	r3, r7, #20
 80012d8:	4619      	mov	r1, r3
 80012da:	4809      	ldr	r0, [pc, #36]	; (8001300 <HAL_UART_MspInit+0x9c>)
 80012dc:	f000 fabc 	bl	8001858 <HAL_GPIO_Init>

    /* USART1 interrupt Init */
    HAL_NVIC_SetPriority(USART1_IRQn, 0, 0);
 80012e0:	2200      	movs	r2, #0
 80012e2:	2100      	movs	r1, #0
 80012e4:	2025      	movs	r0, #37	; 0x25
 80012e6:	f000 f9ee 	bl	80016c6 <HAL_NVIC_SetPriority>
    HAL_NVIC_EnableIRQ(USART1_IRQn);
 80012ea:	2025      	movs	r0, #37	; 0x25
 80012ec:	f000 fa07 	bl	80016fe <HAL_NVIC_EnableIRQ>
  /* USER CODE BEGIN USART1_MspInit 1 */

  /* USER CODE END USART1_MspInit 1 */
  }

}
 80012f0:	bf00      	nop
 80012f2:	3728      	adds	r7, #40	; 0x28
 80012f4:	46bd      	mov	sp, r7
 80012f6:	bd80      	pop	{r7, pc}
 80012f8:	40011000 	.word	0x40011000
 80012fc:	40023800 	.word	0x40023800
 8001300:	40020000 	.word	0x40020000

08001304 <NMI_Handler>:
/******************************************************************************/
/**
  * @brief This function handles Non maskable interrupt.
  */
void NMI_Handler(void)
{
 8001304:	b480      	push	{r7}
 8001306:	af00      	add	r7, sp, #0
  /* USER CODE BEGIN NonMaskableInt_IRQn 0 */

  /* USER CODE END NonMaskableInt_IRQn 0 */
  /* USER CODE BEGIN NonMaskableInt_IRQn 1 */
  while (1)
 8001308:	e7fe      	b.n	8001308 <NMI_Handler+0x4>

0800130a <HardFault_Handler>:

/**
  * @brief This function handles Hard fault interrupt.
  */
void HardFault_Handler(void)
{
 800130a:	b480      	push	{r7}
 800130c:	af00      	add	r7, sp, #0
  /* USER CODE BEGIN HardFault_IRQn 0 */

  /* USER CODE END HardFault_IRQn 0 */
  while (1)
 800130e:	e7fe      	b.n	800130e <HardFault_Handler+0x4>

08001310 <MemManage_Handler>:

/**
  * @brief This function handles Memory management fault.
  */
void MemManage_Handler(void)
{
 8001310:	b480      	push	{r7}
 8001312:	af00      	add	r7, sp, #0
  /* USER CODE BEGIN MemoryManagement_IRQn 0 */

  /* USER CODE END MemoryManagement_IRQn 0 */
  while (1)
 8001314:	e7fe      	b.n	8001314 <MemManage_Handler+0x4>

08001316 <BusFault_Handler>:

/**
  * @brief This function handles Pre-fetch fault, memory access fault.
  */
void BusFault_Handler(void)
{
 8001316:	b480      	push	{r7}
 8001318:	af00      	add	r7, sp, #0
  /* USER CODE BEGIN BusFault_IRQn 0 */

  /* USER CODE END BusFault_IRQn 0 */
  while (1)
 800131a:	e7fe      	b.n	800131a <BusFault_Handler+0x4>

0800131c <UsageFault_Handler>:

/**
  * @brief This function handles Undefined instruction or illegal state.
  */
void UsageFault_Handler(void)
{
 800131c:	b480      	push	{r7}
 800131e:	af00      	add	r7, sp, #0
  /* USER CODE BEGIN UsageFault_IRQn 0 */

  /* USER CODE END UsageFault_IRQn 0 */
  while (1)
 8001320:	e7fe      	b.n	8001320 <UsageFault_Handler+0x4>

08001322 <SVC_Handler>:

/**
  * @brief This function handles System service call via SWI instruction.
  */
void SVC_Handler(void)
{
 8001322:	b480      	push	{r7}
 8001324:	af00      	add	r7, sp, #0

  /* USER CODE END SVCall_IRQn 0 */
  /* USER CODE BEGIN SVCall_IRQn 1 */

  /* USER CODE END SVCall_IRQn 1 */
}
 8001326:	bf00      	nop
 8001328:	46bd      	mov	sp, r7
 800132a:	f85d 7b04 	ldr.w	r7, [sp], #4
 800132e:	4770      	bx	lr

08001330 <DebugMon_Handler>:

/**
  * @brief This function handles Debug monitor.
  */
void DebugMon_Handler(void)
{
 8001330:	b480      	push	{r7}
 8001332:	af00      	add	r7, sp, #0

  /* USER CODE END DebugMonitor_IRQn 0 */
  /* USER CODE BEGIN DebugMonitor_IRQn 1 */

  /* USER CODE END DebugMonitor_IRQn 1 */
}
 8001334:	bf00      	nop
 8001336:	46bd      	mov	sp, r7
 8001338:	f85d 7b04 	ldr.w	r7, [sp], #4
 800133c:	4770      	bx	lr

0800133e <PendSV_Handler>:

/**
  * @brief This function handles Pendable request for system service.
  */
void PendSV_Handler(void)
{
 800133e:	b480      	push	{r7}
 8001340:	af00      	add	r7, sp, #0

  /* USER CODE END PendSV_IRQn 0 */
  /* USER CODE BEGIN PendSV_IRQn 1 */

  /* USER CODE END PendSV_IRQn 1 */
}
 8001342:	bf00      	nop
 8001344:	46bd      	mov	sp, r7
 8001346:	f85d 7b04 	ldr.w	r7, [sp], #4
 800134a:	4770      	bx	lr

0800134c <SysTick_Handler>:

/**
  * @brief This function handles System tick timer.
  */
void SysTick_Handler(void)
{
 800134c:	b580      	push	{r7, lr}
 800134e:	af00      	add	r7, sp, #0
  /* USER CODE BEGIN SysTick_IRQn 0 */

  /* USER CODE END SysTick_IRQn 0 */
  HAL_IncTick();
 8001350:	f000 f89a 	bl	8001488 <HAL_IncTick>
  /* USER CODE BEGIN SysTick_IRQn 1 */

  /* USER CODE END SysTick_IRQn 1 */
}
 8001354:	bf00      	nop
 8001356:	bd80      	pop	{r7, pc}

08001358 <USART1_IRQHandler>:

/**
  * @brief This function handles USART1 global interrupt.
  */
void USART1_IRQHandler(void)
{
 8001358:	b580      	push	{r7, lr}
 800135a:	af00      	add	r7, sp, #0
	//	// uint8_t new_c = USART1->DR;
	//	rx[my_index++] = USART1->DR;
	//}

  /* USER CODE END USART1_IRQn 0 */
  HAL_UART_IRQHandler(&huart1);
 800135c:	4802      	ldr	r0, [pc, #8]	; (8001368 <USART1_IRQHandler+0x10>)
 800135e:	f001 f9c1 	bl	80026e4 <HAL_UART_IRQHandler>
  /* USER CODE BEGIN USART1_IRQn 1 */

  /* USER CODE END USART1_IRQn 1 */
}
 8001362:	bf00      	nop
 8001364:	bd80      	pop	{r7, pc}
 8001366:	bf00      	nop
 8001368:	20000184 	.word	0x20000184

0800136c <SystemInit>:
  *         configuration.
  * @param  None
  * @retval None
  */
void SystemInit(void)
{
 800136c:	b480      	push	{r7}
 800136e:	af00      	add	r7, sp, #0
  /* FPU settings ------------------------------------------------------------*/
  #if (__FPU_PRESENT == 1) && (__FPU_USED == 1)
    SCB->CPACR |= ((3UL << 10*2)|(3UL << 11*2));  /* set CP10 and CP11 Full Access */
 8001370:	4b06      	ldr	r3, [pc, #24]	; (800138c <SystemInit+0x20>)
 8001372:	f8d3 3088 	ldr.w	r3, [r3, #136]	; 0x88
 8001376:	4a05      	ldr	r2, [pc, #20]	; (800138c <SystemInit+0x20>)
 8001378:	f443 0370 	orr.w	r3, r3, #15728640	; 0xf00000
 800137c:	f8c2 3088 	str.w	r3, [r2, #136]	; 0x88

  /* Configure the Vector Table location -------------------------------------*/
#if defined(USER_VECT_TAB_ADDRESS)
  SCB->VTOR = VECT_TAB_BASE_ADDRESS | VECT_TAB_OFFSET; /* Vector Table Relocation in Internal SRAM */
#endif /* USER_VECT_TAB_ADDRESS */
}
 8001380:	bf00      	nop
 8001382:	46bd      	mov	sp, r7
 8001384:	f85d 7b04 	ldr.w	r7, [sp], #4
 8001388:	4770      	bx	lr
 800138a:	bf00      	nop
 800138c:	e000ed00 	.word	0xe000ed00

08001390 <Reset_Handler>:

    .section  .text.Reset_Handler
  .weak  Reset_Handler
  .type  Reset_Handler, %function
Reset_Handler:  
  ldr   sp, =_estack    		 /* set stack pointer */
 8001390:	f8df d034 	ldr.w	sp, [pc, #52]	; 80013c8 <LoopFillZerobss+0x12>

/* Copy the data segment initializers from flash to SRAM */  
  ldr r0, =_sdata
 8001394:	480d      	ldr	r0, [pc, #52]	; (80013cc <LoopFillZerobss+0x16>)
  ldr r1, =_edata
 8001396:	490e      	ldr	r1, [pc, #56]	; (80013d0 <LoopFillZerobss+0x1a>)
  ldr r2, =_sidata
 8001398:	4a0e      	ldr	r2, [pc, #56]	; (80013d4 <LoopFillZerobss+0x1e>)
  movs r3, #0
 800139a:	2300      	movs	r3, #0
  b LoopCopyDataInit
 800139c:	e002      	b.n	80013a4 <LoopCopyDataInit>

0800139e <CopyDataInit>:

CopyDataInit:
  ldr r4, [r2, r3]
 800139e:	58d4      	ldr	r4, [r2, r3]
  str r4, [r0, r3]
 80013a0:	50c4      	str	r4, [r0, r3]
  adds r3, r3, #4
 80013a2:	3304      	adds	r3, #4

080013a4 <LoopCopyDataInit>:

LoopCopyDataInit:
  adds r4, r0, r3
 80013a4:	18c4      	adds	r4, r0, r3
  cmp r4, r1
 80013a6:	428c      	cmp	r4, r1
  bcc CopyDataInit
 80013a8:	d3f9      	bcc.n	800139e <CopyDataInit>
  
/* Zero fill the bss segment. */
  ldr r2, =_sbss
 80013aa:	4a0b      	ldr	r2, [pc, #44]	; (80013d8 <LoopFillZerobss+0x22>)
  ldr r4, =_ebss
 80013ac:	4c0b      	ldr	r4, [pc, #44]	; (80013dc <LoopFillZerobss+0x26>)
  movs r3, #0
 80013ae:	2300      	movs	r3, #0
  b LoopFillZerobss
 80013b0:	e001      	b.n	80013b6 <LoopFillZerobss>

080013b2 <FillZerobss>:

FillZerobss:
  str  r3, [r2]
 80013b2:	6013      	str	r3, [r2, #0]
  adds r2, r2, #4
 80013b4:	3204      	adds	r2, #4

080013b6 <LoopFillZerobss>:

LoopFillZerobss:
  cmp r2, r4
 80013b6:	42a2      	cmp	r2, r4
  bcc FillZerobss
 80013b8:	d3fb      	bcc.n	80013b2 <FillZerobss>

/* Call the clock system initialization function.*/
  bl  SystemInit   
 80013ba:	f7ff ffd7 	bl	800136c <SystemInit>
/* Call static constructors */
    bl __libc_init_array
 80013be:	f002 f901 	bl	80035c4 <__libc_init_array>
/* Call the application's entry point.*/
  bl  main
 80013c2:	f7ff fd49 	bl	8000e58 <main>
  bx  lr    
 80013c6:	4770      	bx	lr
  ldr   sp, =_estack    		 /* set stack pointer */
 80013c8:	20020000 	.word	0x20020000
  ldr r0, =_sdata
 80013cc:	20000000 	.word	0x20000000
  ldr r1, =_edata
 80013d0:	20000088 	.word	0x20000088
  ldr r2, =_sidata
 80013d4:	08003744 	.word	0x08003744
  ldr r2, =_sbss
 80013d8:	20000088 	.word	0x20000088
  ldr r4, =_ebss
 80013dc:	200001cc 	.word	0x200001cc

080013e0 <ADC_IRQHandler>:
 * @retval None       
*/
    .section  .text.Default_Handler,"ax",%progbits
Default_Handler:
Infinite_Loop:
  b  Infinite_Loop
 80013e0:	e7fe      	b.n	80013e0 <ADC_IRQHandler>
	...

080013e4 <HAL_Init>:
  *         need to ensure that the SysTick time base is always set to 1 millisecond
  *         to have correct HAL operation.
  * @retval HAL status
  */
HAL_StatusTypeDef HAL_Init(void)
{
 80013e4:	b580      	push	{r7, lr}
 80013e6:	af00      	add	r7, sp, #0
  /* Configure Flash prefetch, Instruction cache, Data cache */ 
#if (INSTRUCTION_CACHE_ENABLE != 0U)
  __HAL_FLASH_INSTRUCTION_CACHE_ENABLE();
 80013e8:	4b0e      	ldr	r3, [pc, #56]	; (8001424 <HAL_Init+0x40>)
 80013ea:	681b      	ldr	r3, [r3, #0]
 80013ec:	4a0d      	ldr	r2, [pc, #52]	; (8001424 <HAL_Init+0x40>)
 80013ee:	f443 7300 	orr.w	r3, r3, #512	; 0x200
 80013f2:	6013      	str	r3, [r2, #0]
#endif /* INSTRUCTION_CACHE_ENABLE */

#if (DATA_CACHE_ENABLE != 0U)
  __HAL_FLASH_DATA_CACHE_ENABLE();
 80013f4:	4b0b      	ldr	r3, [pc, #44]	; (8001424 <HAL_Init+0x40>)
 80013f6:	681b      	ldr	r3, [r3, #0]
 80013f8:	4a0a      	ldr	r2, [pc, #40]	; (8001424 <HAL_Init+0x40>)
 80013fa:	f443 6380 	orr.w	r3, r3, #1024	; 0x400
 80013fe:	6013      	str	r3, [r2, #0]
#endif /* DATA_CACHE_ENABLE */

#if (PREFETCH_ENABLE != 0U)
  __HAL_FLASH_PREFETCH_BUFFER_ENABLE();
 8001400:	4b08      	ldr	r3, [pc, #32]	; (8001424 <HAL_Init+0x40>)
 8001402:	681b      	ldr	r3, [r3, #0]
 8001404:	4a07      	ldr	r2, [pc, #28]	; (8001424 <HAL_Init+0x40>)
 8001406:	f443 7380 	orr.w	r3, r3, #256	; 0x100
 800140a:	6013      	str	r3, [r2, #0]
#endif /* PREFETCH_ENABLE */

  /* Set Interrupt Group Priority */
  HAL_NVIC_SetPriorityGrouping(NVIC_PRIORITYGROUP_4);
 800140c:	2003      	movs	r0, #3
 800140e:	f000 f94f 	bl	80016b0 <HAL_NVIC_SetPriorityGrouping>

  /* Use systick as time base source and configure 1ms tick (default clock after Reset is HSI) */
  HAL_InitTick(TICK_INT_PRIORITY);
 8001412:	2000      	movs	r0, #0
 8001414:	f000 f808 	bl	8001428 <HAL_InitTick>

  /* Init the low level hardware */
  HAL_MspInit();
 8001418:	f7ff fefc 	bl	8001214 <HAL_MspInit>

  /* Return function status */
  return HAL_OK;
 800141c:	2300      	movs	r3, #0
}
 800141e:	4618      	mov	r0, r3
 8001420:	bd80      	pop	{r7, pc}
 8001422:	bf00      	nop
 8001424:	40023c00 	.word	0x40023c00

08001428 <HAL_InitTick>:
  *       implementation  in user file.
  * @param TickPriority Tick interrupt priority.
  * @retval HAL status
  */
__weak HAL_StatusTypeDef HAL_InitTick(uint32_t TickPriority)
{
 8001428:	b580      	push	{r7, lr}
 800142a:	b082      	sub	sp, #8
 800142c:	af00      	add	r7, sp, #0
 800142e:	6078      	str	r0, [r7, #4]
  /* Configure the SysTick to have interrupt in 1ms time basis*/
  if (HAL_SYSTICK_Config(SystemCoreClock / (1000U / uwTickFreq)) > 0U)
 8001430:	4b12      	ldr	r3, [pc, #72]	; (800147c <HAL_InitTick+0x54>)
 8001432:	681a      	ldr	r2, [r3, #0]
 8001434:	4b12      	ldr	r3, [pc, #72]	; (8001480 <HAL_InitTick+0x58>)
 8001436:	781b      	ldrb	r3, [r3, #0]
 8001438:	4619      	mov	r1, r3
 800143a:	f44f 737a 	mov.w	r3, #1000	; 0x3e8
 800143e:	fbb3 f3f1 	udiv	r3, r3, r1
 8001442:	fbb2 f3f3 	udiv	r3, r2, r3
 8001446:	4618      	mov	r0, r3
 8001448:	f000 f967 	bl	800171a <HAL_SYSTICK_Config>
 800144c:	4603      	mov	r3, r0
 800144e:	2b00      	cmp	r3, #0
 8001450:	d001      	beq.n	8001456 <HAL_InitTick+0x2e>
  {
    return HAL_ERROR;
 8001452:	2301      	movs	r3, #1
 8001454:	e00e      	b.n	8001474 <HAL_InitTick+0x4c>
  }

  /* Configure the SysTick IRQ priority */
  if (TickPriority < (1UL << __NVIC_PRIO_BITS))
 8001456:	687b      	ldr	r3, [r7, #4]
 8001458:	2b0f      	cmp	r3, #15
 800145a:	d80a      	bhi.n	8001472 <HAL_InitTick+0x4a>
  {
    HAL_NVIC_SetPriority(SysTick_IRQn, TickPriority, 0U);
 800145c:	2200      	movs	r2, #0
 800145e:	6879      	ldr	r1, [r7, #4]
 8001460:	f04f 30ff 	mov.w	r0, #4294967295
 8001464:	f000 f92f 	bl	80016c6 <HAL_NVIC_SetPriority>
    uwTickPrio = TickPriority;
 8001468:	4a06      	ldr	r2, [pc, #24]	; (8001484 <HAL_InitTick+0x5c>)
 800146a:	687b      	ldr	r3, [r7, #4]
 800146c:	6013      	str	r3, [r2, #0]
  {
    return HAL_ERROR;
  }

  /* Return function status */
  return HAL_OK;
 800146e:	2300      	movs	r3, #0
 8001470:	e000      	b.n	8001474 <HAL_InitTick+0x4c>
    return HAL_ERROR;
 8001472:	2301      	movs	r3, #1
}
 8001474:	4618      	mov	r0, r3
 8001476:	3708      	adds	r7, #8
 8001478:	46bd      	mov	sp, r7
 800147a:	bd80      	pop	{r7, pc}
 800147c:	2000007c 	.word	0x2000007c
 8001480:	20000084 	.word	0x20000084
 8001484:	20000080 	.word	0x20000080

08001488 <HAL_IncTick>:
 * @note This function is declared as __weak to be overwritten in case of other 
  *      implementations in user file.
  * @retval None
  */
__weak void HAL_IncTick(void)
{
 8001488:	b480      	push	{r7}
 800148a:	af00      	add	r7, sp, #0
  uwTick += uwTickFreq;
 800148c:	4b06      	ldr	r3, [pc, #24]	; (80014a8 <HAL_IncTick+0x20>)
 800148e:	781b      	ldrb	r3, [r3, #0]
 8001490:	461a      	mov	r2, r3
 8001492:	4b06      	ldr	r3, [pc, #24]	; (80014ac <HAL_IncTick+0x24>)
 8001494:	681b      	ldr	r3, [r3, #0]
 8001496:	4413      	add	r3, r2
 8001498:	4a04      	ldr	r2, [pc, #16]	; (80014ac <HAL_IncTick+0x24>)
 800149a:	6013      	str	r3, [r2, #0]
}
 800149c:	bf00      	nop
 800149e:	46bd      	mov	sp, r7
 80014a0:	f85d 7b04 	ldr.w	r7, [sp], #4
 80014a4:	4770      	bx	lr
 80014a6:	bf00      	nop
 80014a8:	20000084 	.word	0x20000084
 80014ac:	200001c8 	.word	0x200001c8

080014b0 <HAL_GetTick>:
  * @note This function is declared as __weak to be overwritten in case of other 
  *       implementations in user file.
  * @retval tick value
  */
__weak uint32_t HAL_GetTick(void)
{
 80014b0:	b480      	push	{r7}
 80014b2:	af00      	add	r7, sp, #0
  return uwTick;
 80014b4:	4b03      	ldr	r3, [pc, #12]	; (80014c4 <HAL_GetTick+0x14>)
 80014b6:	681b      	ldr	r3, [r3, #0]
}
 80014b8:	4618      	mov	r0, r3
 80014ba:	46bd      	mov	sp, r7
 80014bc:	f85d 7b04 	ldr.w	r7, [sp], #4
 80014c0:	4770      	bx	lr
 80014c2:	bf00      	nop
 80014c4:	200001c8 	.word	0x200001c8

080014c8 <HAL_Delay>:
  *       implementations in user file.
  * @param Delay specifies the delay time length, in milliseconds.
  * @retval None
  */
__weak void HAL_Delay(uint32_t Delay)
{
 80014c8:	b580      	push	{r7, lr}
 80014ca:	b084      	sub	sp, #16
 80014cc:	af00      	add	r7, sp, #0
 80014ce:	6078      	str	r0, [r7, #4]
  uint32_t tickstart = HAL_GetTick();
 80014d0:	f7ff ffee 	bl	80014b0 <HAL_GetTick>
 80014d4:	60b8      	str	r0, [r7, #8]
  uint32_t wait = Delay;
 80014d6:	687b      	ldr	r3, [r7, #4]
 80014d8:	60fb      	str	r3, [r7, #12]

  /* Add a freq to guarantee minimum wait */
  if (wait < HAL_MAX_DELAY)
 80014da:	68fb      	ldr	r3, [r7, #12]
 80014dc:	f1b3 3fff 	cmp.w	r3, #4294967295
 80014e0:	d005      	beq.n	80014ee <HAL_Delay+0x26>
  {
    wait += (uint32_t)(uwTickFreq);
 80014e2:	4b0a      	ldr	r3, [pc, #40]	; (800150c <HAL_Delay+0x44>)
 80014e4:	781b      	ldrb	r3, [r3, #0]
 80014e6:	461a      	mov	r2, r3
 80014e8:	68fb      	ldr	r3, [r7, #12]
 80014ea:	4413      	add	r3, r2
 80014ec:	60fb      	str	r3, [r7, #12]
  }

  while((HAL_GetTick() - tickstart) < wait)
 80014ee:	bf00      	nop
 80014f0:	f7ff ffde 	bl	80014b0 <HAL_GetTick>
 80014f4:	4602      	mov	r2, r0
 80014f6:	68bb      	ldr	r3, [r7, #8]
 80014f8:	1ad3      	subs	r3, r2, r3
 80014fa:	68fa      	ldr	r2, [r7, #12]
 80014fc:	429a      	cmp	r2, r3
 80014fe:	d8f7      	bhi.n	80014f0 <HAL_Delay+0x28>
  {
  }
}
 8001500:	bf00      	nop
 8001502:	bf00      	nop
 8001504:	3710      	adds	r7, #16
 8001506:	46bd      	mov	sp, r7
 8001508:	bd80      	pop	{r7, pc}
 800150a:	bf00      	nop
 800150c:	20000084 	.word	0x20000084

08001510 <__NVIC_SetPriorityGrouping>:
           In case of a conflict between priority grouping and available
           priority bits (__NVIC_PRIO_BITS), the smallest possible priority group is set.
  \param [in]      PriorityGroup  Priority grouping field.
 */
__STATIC_INLINE void __NVIC_SetPriorityGrouping(uint32_t PriorityGroup)
{
 8001510:	b480      	push	{r7}
 8001512:	b085      	sub	sp, #20
 8001514:	af00      	add	r7, sp, #0
 8001516:	6078      	str	r0, [r7, #4]
  uint32_t reg_value;
  uint32_t PriorityGroupTmp = (PriorityGroup & (uint32_t)0x07UL);             /* only values 0..7 are used          */
 8001518:	687b      	ldr	r3, [r7, #4]
 800151a:	f003 0307 	and.w	r3, r3, #7
 800151e:	60fb      	str	r3, [r7, #12]

  reg_value  =  SCB->AIRCR;                                                   /* read old register configuration    */
 8001520:	4b0c      	ldr	r3, [pc, #48]	; (8001554 <__NVIC_SetPriorityGrouping+0x44>)
 8001522:	68db      	ldr	r3, [r3, #12]
 8001524:	60bb      	str	r3, [r7, #8]
  reg_value &= ~((uint32_t)(SCB_AIRCR_VECTKEY_Msk | SCB_AIRCR_PRIGROUP_Msk)); /* clear bits to change               */
 8001526:	68ba      	ldr	r2, [r7, #8]
 8001528:	f64f 03ff 	movw	r3, #63743	; 0xf8ff
 800152c:	4013      	ands	r3, r2
 800152e:	60bb      	str	r3, [r7, #8]
  reg_value  =  (reg_value                                   |
                ((uint32_t)0x5FAUL << SCB_AIRCR_VECTKEY_Pos) |
                (PriorityGroupTmp << SCB_AIRCR_PRIGROUP_Pos)  );              /* Insert write key and priority group */
 8001530:	68fb      	ldr	r3, [r7, #12]
 8001532:	021a      	lsls	r2, r3, #8
                ((uint32_t)0x5FAUL << SCB_AIRCR_VECTKEY_Pos) |
 8001534:	68bb      	ldr	r3, [r7, #8]
 8001536:	4313      	orrs	r3, r2
  reg_value  =  (reg_value                                   |
 8001538:	f043 63bf 	orr.w	r3, r3, #100139008	; 0x5f80000
 800153c:	f443 3300 	orr.w	r3, r3, #131072	; 0x20000
 8001540:	60bb      	str	r3, [r7, #8]
  SCB->AIRCR =  reg_value;
 8001542:	4a04      	ldr	r2, [pc, #16]	; (8001554 <__NVIC_SetPriorityGrouping+0x44>)
 8001544:	68bb      	ldr	r3, [r7, #8]
 8001546:	60d3      	str	r3, [r2, #12]
}
 8001548:	bf00      	nop
 800154a:	3714      	adds	r7, #20
 800154c:	46bd      	mov	sp, r7
 800154e:	f85d 7b04 	ldr.w	r7, [sp], #4
 8001552:	4770      	bx	lr
 8001554:	e000ed00 	.word	0xe000ed00

08001558 <__NVIC_GetPriorityGrouping>:
  \brief   Get Priority Grouping
  \details Reads the priority grouping field from the NVIC Interrupt Controller.
  \return                Priority grouping field (SCB->AIRCR [10:8] PRIGROUP field).
 */
__STATIC_INLINE uint32_t __NVIC_GetPriorityGrouping(void)
{
 8001558:	b480      	push	{r7}
 800155a:	af00      	add	r7, sp, #0
  return ((uint32_t)((SCB->AIRCR & SCB_AIRCR_PRIGROUP_Msk) >> SCB_AIRCR_PRIGROUP_Pos));
 800155c:	4b04      	ldr	r3, [pc, #16]	; (8001570 <__NVIC_GetPriorityGrouping+0x18>)
 800155e:	68db      	ldr	r3, [r3, #12]
 8001560:	0a1b      	lsrs	r3, r3, #8
 8001562:	f003 0307 	and.w	r3, r3, #7
}
 8001566:	4618      	mov	r0, r3
 8001568:	46bd      	mov	sp, r7
 800156a:	f85d 7b04 	ldr.w	r7, [sp], #4
 800156e:	4770      	bx	lr
 8001570:	e000ed00 	.word	0xe000ed00

08001574 <__NVIC_EnableIRQ>:
  \details Enables a device specific interrupt in the NVIC interrupt controller.
  \param [in]      IRQn  Device specific interrupt number.
  \note    IRQn must not be negative.
 */
__STATIC_INLINE void __NVIC_EnableIRQ(IRQn_Type IRQn)
{
 8001574:	b480      	push	{r7}
 8001576:	b083      	sub	sp, #12
 8001578:	af00      	add	r7, sp, #0
 800157a:	4603      	mov	r3, r0
 800157c:	71fb      	strb	r3, [r7, #7]
  if ((int32_t)(IRQn) >= 0)
 800157e:	f997 3007 	ldrsb.w	r3, [r7, #7]
 8001582:	2b00      	cmp	r3, #0
 8001584:	db0b      	blt.n	800159e <__NVIC_EnableIRQ+0x2a>
  {
    NVIC->ISER[(((uint32_t)IRQn) >> 5UL)] = (uint32_t)(1UL << (((uint32_t)IRQn) & 0x1FUL));
 8001586:	79fb      	ldrb	r3, [r7, #7]
 8001588:	f003 021f 	and.w	r2, r3, #31
 800158c:	4907      	ldr	r1, [pc, #28]	; (80015ac <__NVIC_EnableIRQ+0x38>)
 800158e:	f997 3007 	ldrsb.w	r3, [r7, #7]
 8001592:	095b      	lsrs	r3, r3, #5
 8001594:	2001      	movs	r0, #1
 8001596:	fa00 f202 	lsl.w	r2, r0, r2
 800159a:	f841 2023 	str.w	r2, [r1, r3, lsl #2]
  }
}
 800159e:	bf00      	nop
 80015a0:	370c      	adds	r7, #12
 80015a2:	46bd      	mov	sp, r7
 80015a4:	f85d 7b04 	ldr.w	r7, [sp], #4
 80015a8:	4770      	bx	lr
 80015aa:	bf00      	nop
 80015ac:	e000e100 	.word	0xe000e100

080015b0 <__NVIC_SetPriority>:
  \param [in]      IRQn  Interrupt number.
  \param [in]  priority  Priority to set.
  \note    The priority cannot be set for every processor exception.
 */
__STATIC_INLINE void __NVIC_SetPriority(IRQn_Type IRQn, uint32_t priority)
{
 80015b0:	b480      	push	{r7}
 80015b2:	b083      	sub	sp, #12
 80015b4:	af00      	add	r7, sp, #0
 80015b6:	4603      	mov	r3, r0
 80015b8:	6039      	str	r1, [r7, #0]
 80015ba:	71fb      	strb	r3, [r7, #7]
  if ((int32_t)(IRQn) >= 0)
 80015bc:	f997 3007 	ldrsb.w	r3, [r7, #7]
 80015c0:	2b00      	cmp	r3, #0
 80015c2:	db0a      	blt.n	80015da <__NVIC_SetPriority+0x2a>
  {
    NVIC->IP[((uint32_t)IRQn)]               = (uint8_t)((priority << (8U - __NVIC_PRIO_BITS)) & (uint32_t)0xFFUL);
 80015c4:	683b      	ldr	r3, [r7, #0]
 80015c6:	b2da      	uxtb	r2, r3
 80015c8:	490c      	ldr	r1, [pc, #48]	; (80015fc <__NVIC_SetPriority+0x4c>)
 80015ca:	f997 3007 	ldrsb.w	r3, [r7, #7]
 80015ce:	0112      	lsls	r2, r2, #4
 80015d0:	b2d2      	uxtb	r2, r2
 80015d2:	440b      	add	r3, r1
 80015d4:	f883 2300 	strb.w	r2, [r3, #768]	; 0x300
  }
  else
  {
    SCB->SHP[(((uint32_t)IRQn) & 0xFUL)-4UL] = (uint8_t)((priority << (8U - __NVIC_PRIO_BITS)) & (uint32_t)0xFFUL);
  }
}
 80015d8:	e00a      	b.n	80015f0 <__NVIC_SetPriority+0x40>
    SCB->SHP[(((uint32_t)IRQn) & 0xFUL)-4UL] = (uint8_t)((priority << (8U - __NVIC_PRIO_BITS)) & (uint32_t)0xFFUL);
 80015da:	683b      	ldr	r3, [r7, #0]
 80015dc:	b2da      	uxtb	r2, r3
 80015de:	4908      	ldr	r1, [pc, #32]	; (8001600 <__NVIC_SetPriority+0x50>)
 80015e0:	79fb      	ldrb	r3, [r7, #7]
 80015e2:	f003 030f 	and.w	r3, r3, #15
 80015e6:	3b04      	subs	r3, #4
 80015e8:	0112      	lsls	r2, r2, #4
 80015ea:	b2d2      	uxtb	r2, r2
 80015ec:	440b      	add	r3, r1
 80015ee:	761a      	strb	r2, [r3, #24]
}
 80015f0:	bf00      	nop
 80015f2:	370c      	adds	r7, #12
 80015f4:	46bd      	mov	sp, r7
 80015f6:	f85d 7b04 	ldr.w	r7, [sp], #4
 80015fa:	4770      	bx	lr
 80015fc:	e000e100 	.word	0xe000e100
 8001600:	e000ed00 	.word	0xe000ed00

08001604 <NVIC_EncodePriority>:
  \param [in]   PreemptPriority  Preemptive priority value (starting from 0).
  \param [in]       SubPriority  Subpriority value (starting from 0).
  \return                        Encoded priority. Value can be used in the function \ref NVIC_SetPriority().
 */
__STATIC_INLINE uint32_t NVIC_EncodePriority (uint32_t PriorityGroup, uint32_t PreemptPriority, uint32_t SubPriority)
{
 8001604:	b480      	push	{r7}
 8001606:	b089      	sub	sp, #36	; 0x24
 8001608:	af00      	add	r7, sp, #0
 800160a:	60f8      	str	r0, [r7, #12]
 800160c:	60b9      	str	r1, [r7, #8]
 800160e:	607a      	str	r2, [r7, #4]
  uint32_t PriorityGroupTmp = (PriorityGroup & (uint32_t)0x07UL);   /* only values 0..7 are used          */
 8001610:	68fb      	ldr	r3, [r7, #12]
 8001612:	f003 0307 	and.w	r3, r3, #7
 8001616:	61fb      	str	r3, [r7, #28]
  uint32_t PreemptPriorityBits;
  uint32_t SubPriorityBits;

  PreemptPriorityBits = ((7UL - PriorityGroupTmp) > (uint32_t)(__NVIC_PRIO_BITS)) ? (uint32_t)(__NVIC_PRIO_BITS) : (uint32_t)(7UL - PriorityGroupTmp);
 8001618:	69fb      	ldr	r3, [r7, #28]
 800161a:	f1c3 0307 	rsb	r3, r3, #7
 800161e:	2b04      	cmp	r3, #4
 8001620:	bf28      	it	cs
 8001622:	2304      	movcs	r3, #4
 8001624:	61bb      	str	r3, [r7, #24]
  SubPriorityBits     = ((PriorityGroupTmp + (uint32_t)(__NVIC_PRIO_BITS)) < (uint32_t)7UL) ? (uint32_t)0UL : (uint32_t)((PriorityGroupTmp - 7UL) + (uint32_t)(__NVIC_PRIO_BITS));
 8001626:	69fb      	ldr	r3, [r7, #28]
 8001628:	3304      	adds	r3, #4
 800162a:	2b06      	cmp	r3, #6
 800162c:	d902      	bls.n	8001634 <NVIC_EncodePriority+0x30>
 800162e:	69fb      	ldr	r3, [r7, #28]
 8001630:	3b03      	subs	r3, #3
 8001632:	e000      	b.n	8001636 <NVIC_EncodePriority+0x32>
 8001634:	2300      	movs	r3, #0
 8001636:	617b      	str	r3, [r7, #20]

  return (
           ((PreemptPriority & (uint32_t)((1UL << (PreemptPriorityBits)) - 1UL)) << SubPriorityBits) |
 8001638:	f04f 32ff 	mov.w	r2, #4294967295
 800163c:	69bb      	ldr	r3, [r7, #24]
 800163e:	fa02 f303 	lsl.w	r3, r2, r3
 8001642:	43da      	mvns	r2, r3
 8001644:	68bb      	ldr	r3, [r7, #8]
 8001646:	401a      	ands	r2, r3
 8001648:	697b      	ldr	r3, [r7, #20]
 800164a:	409a      	lsls	r2, r3
           ((SubPriority     & (uint32_t)((1UL << (SubPriorityBits    )) - 1UL)))
 800164c:	f04f 31ff 	mov.w	r1, #4294967295
 8001650:	697b      	ldr	r3, [r7, #20]
 8001652:	fa01 f303 	lsl.w	r3, r1, r3
 8001656:	43d9      	mvns	r1, r3
 8001658:	687b      	ldr	r3, [r7, #4]
 800165a:	400b      	ands	r3, r1
           ((PreemptPriority & (uint32_t)((1UL << (PreemptPriorityBits)) - 1UL)) << SubPriorityBits) |
 800165c:	4313      	orrs	r3, r2
         );
}
 800165e:	4618      	mov	r0, r3
 8001660:	3724      	adds	r7, #36	; 0x24
 8001662:	46bd      	mov	sp, r7
 8001664:	f85d 7b04 	ldr.w	r7, [sp], #4
 8001668:	4770      	bx	lr
	...

0800166c <SysTick_Config>:
  \note    When the variable <b>__Vendor_SysTickConfig</b> is set to 1, then the
           function <b>SysTick_Config</b> is not included. In this case, the file <b><i>device</i>.h</b>
           must contain a vendor-specific implementation of this function.
 */
__STATIC_INLINE uint32_t SysTick_Config(uint32_t ticks)
{
 800166c:	b580      	push	{r7, lr}
 800166e:	b082      	sub	sp, #8
 8001670:	af00      	add	r7, sp, #0
 8001672:	6078      	str	r0, [r7, #4]
  if ((ticks - 1UL) > SysTick_LOAD_RELOAD_Msk)
 8001674:	687b      	ldr	r3, [r7, #4]
 8001676:	3b01      	subs	r3, #1
 8001678:	f1b3 7f80 	cmp.w	r3, #16777216	; 0x1000000
 800167c:	d301      	bcc.n	8001682 <SysTick_Config+0x16>
  {
    return (1UL);                                                   /* Reload value impossible */
 800167e:	2301      	movs	r3, #1
 8001680:	e00f      	b.n	80016a2 <SysTick_Config+0x36>
  }

  SysTick->LOAD  = (uint32_t)(ticks - 1UL);                         /* set reload register */
 8001682:	4a0a      	ldr	r2, [pc, #40]	; (80016ac <SysTick_Config+0x40>)
 8001684:	687b      	ldr	r3, [r7, #4]
 8001686:	3b01      	subs	r3, #1
 8001688:	6053      	str	r3, [r2, #4]
  NVIC_SetPriority (SysTick_IRQn, (1UL << __NVIC_PRIO_BITS) - 1UL); /* set Priority for Systick Interrupt */
 800168a:	210f      	movs	r1, #15
 800168c:	f04f 30ff 	mov.w	r0, #4294967295
 8001690:	f7ff ff8e 	bl	80015b0 <__NVIC_SetPriority>
  SysTick->VAL   = 0UL;                                             /* Load the SysTick Counter Value */
 8001694:	4b05      	ldr	r3, [pc, #20]	; (80016ac <SysTick_Config+0x40>)
 8001696:	2200      	movs	r2, #0
 8001698:	609a      	str	r2, [r3, #8]
  SysTick->CTRL  = SysTick_CTRL_CLKSOURCE_Msk |
 800169a:	4b04      	ldr	r3, [pc, #16]	; (80016ac <SysTick_Config+0x40>)
 800169c:	2207      	movs	r2, #7
 800169e:	601a      	str	r2, [r3, #0]
                   SysTick_CTRL_TICKINT_Msk   |
                   SysTick_CTRL_ENABLE_Msk;                         /* Enable SysTick IRQ and SysTick Timer */
  return (0UL);                                                     /* Function successful */
 80016a0:	2300      	movs	r3, #0
}
 80016a2:	4618      	mov	r0, r3
 80016a4:	3708      	adds	r7, #8
 80016a6:	46bd      	mov	sp, r7
 80016a8:	bd80      	pop	{r7, pc}
 80016aa:	bf00      	nop
 80016ac:	e000e010 	.word	0xe000e010

080016b0 <HAL_NVIC_SetPriorityGrouping>:
  * @note   When the NVIC_PriorityGroup_0 is selected, IRQ preemption is no more possible. 
  *         The pending IRQ priority will be managed only by the subpriority. 
  * @retval None
  */
void HAL_NVIC_SetPriorityGrouping(uint32_t PriorityGroup)
{
 80016b0:	b580      	push	{r7, lr}
 80016b2:	b082      	sub	sp, #8
 80016b4:	af00      	add	r7, sp, #0
 80016b6:	6078      	str	r0, [r7, #4]
  /* Check the parameters */
  assert_param(IS_NVIC_PRIORITY_GROUP(PriorityGroup));
  
  /* Set the PRIGROUP[10:8] bits according to the PriorityGroup parameter value */
  NVIC_SetPriorityGrouping(PriorityGroup);
 80016b8:	6878      	ldr	r0, [r7, #4]
 80016ba:	f7ff ff29 	bl	8001510 <__NVIC_SetPriorityGrouping>
}
 80016be:	bf00      	nop
 80016c0:	3708      	adds	r7, #8
 80016c2:	46bd      	mov	sp, r7
 80016c4:	bd80      	pop	{r7, pc}

080016c6 <HAL_NVIC_SetPriority>:
  *         This parameter can be a value between 0 and 15
  *         A lower priority value indicates a higher priority.          
  * @retval None
  */
void HAL_NVIC_SetPriority(IRQn_Type IRQn, uint32_t PreemptPriority, uint32_t SubPriority)
{ 
 80016c6:	b580      	push	{r7, lr}
 80016c8:	b086      	sub	sp, #24
 80016ca:	af00      	add	r7, sp, #0
 80016cc:	4603      	mov	r3, r0
 80016ce:	60b9      	str	r1, [r7, #8]
 80016d0:	607a      	str	r2, [r7, #4]
 80016d2:	73fb      	strb	r3, [r7, #15]
  uint32_t prioritygroup = 0x00U;
 80016d4:	2300      	movs	r3, #0
 80016d6:	617b      	str	r3, [r7, #20]
  
  /* Check the parameters */
  assert_param(IS_NVIC_SUB_PRIORITY(SubPriority));
  assert_param(IS_NVIC_PREEMPTION_PRIORITY(PreemptPriority));
  
  prioritygroup = NVIC_GetPriorityGrouping();
 80016d8:	f7ff ff3e 	bl	8001558 <__NVIC_GetPriorityGrouping>
 80016dc:	6178      	str	r0, [r7, #20]
  
  NVIC_SetPriority(IRQn, NVIC_EncodePriority(prioritygroup, PreemptPriority, SubPriority));
 80016de:	687a      	ldr	r2, [r7, #4]
 80016e0:	68b9      	ldr	r1, [r7, #8]
 80016e2:	6978      	ldr	r0, [r7, #20]
 80016e4:	f7ff ff8e 	bl	8001604 <NVIC_EncodePriority>
 80016e8:	4602      	mov	r2, r0
 80016ea:	f997 300f 	ldrsb.w	r3, [r7, #15]
 80016ee:	4611      	mov	r1, r2
 80016f0:	4618      	mov	r0, r3
 80016f2:	f7ff ff5d 	bl	80015b0 <__NVIC_SetPriority>
}
 80016f6:	bf00      	nop
 80016f8:	3718      	adds	r7, #24
 80016fa:	46bd      	mov	sp, r7
 80016fc:	bd80      	pop	{r7, pc}

080016fe <HAL_NVIC_EnableIRQ>:
  *         This parameter can be an enumerator of IRQn_Type enumeration
  *         (For the complete STM32 Devices IRQ Channels list, please refer to the appropriate CMSIS device file (stm32f4xxxx.h))
  * @retval None
  */
void HAL_NVIC_EnableIRQ(IRQn_Type IRQn)
{
 80016fe:	b580      	push	{r7, lr}
 8001700:	b082      	sub	sp, #8
 8001702:	af00      	add	r7, sp, #0
 8001704:	4603      	mov	r3, r0
 8001706:	71fb      	strb	r3, [r7, #7]
  /* Check the parameters */
  assert_param(IS_NVIC_DEVICE_IRQ(IRQn));
  
  /* Enable interrupt */
  NVIC_EnableIRQ(IRQn);
 8001708:	f997 3007 	ldrsb.w	r3, [r7, #7]
 800170c:	4618      	mov	r0, r3
 800170e:	f7ff ff31 	bl	8001574 <__NVIC_EnableIRQ>
}
 8001712:	bf00      	nop
 8001714:	3708      	adds	r7, #8
 8001716:	46bd      	mov	sp, r7
 8001718:	bd80      	pop	{r7, pc}

0800171a <HAL_SYSTICK_Config>:
  * @param  TicksNumb Specifies the ticks Number of ticks between two interrupts.
  * @retval status:  - 0  Function succeeded.
  *                  - 1  Function failed.
  */
uint32_t HAL_SYSTICK_Config(uint32_t TicksNumb)
{
 800171a:	b580      	push	{r7, lr}
 800171c:	b082      	sub	sp, #8
 800171e:	af00      	add	r7, sp, #0
 8001720:	6078      	str	r0, [r7, #4]
   return SysTick_Config(TicksNumb);
 8001722:	6878      	ldr	r0, [r7, #4]
 8001724:	f7ff ffa2 	bl	800166c <SysTick_Config>
 8001728:	4603      	mov	r3, r0
}
 800172a:	4618      	mov	r0, r3
 800172c:	3708      	adds	r7, #8
 800172e:	46bd      	mov	sp, r7
 8001730:	bd80      	pop	{r7, pc}

08001732 <HAL_DMA_Abort>:
  *        and the Stream will be effectively disabled only after the transfer of
  *        this single data is finished.  
  * @retval HAL status
  */
HAL_StatusTypeDef HAL_DMA_Abort(DMA_HandleTypeDef *hdma)
{
 8001732:	b580      	push	{r7, lr}
 8001734:	b084      	sub	sp, #16
 8001736:	af00      	add	r7, sp, #0
 8001738:	6078      	str	r0, [r7, #4]
  /* calculate DMA base and stream number */
  DMA_Base_Registers *regs = (DMA_Base_Registers *)hdma->StreamBaseAddress;
 800173a:	687b      	ldr	r3, [r7, #4]
 800173c:	6d9b      	ldr	r3, [r3, #88]	; 0x58
 800173e:	60fb      	str	r3, [r7, #12]
  
  uint32_t tickstart = HAL_GetTick();
 8001740:	f7ff feb6 	bl	80014b0 <HAL_GetTick>
 8001744:	60b8      	str	r0, [r7, #8]
  
  if(hdma->State != HAL_DMA_STATE_BUSY)
 8001746:	687b      	ldr	r3, [r7, #4]
 8001748:	f893 3035 	ldrb.w	r3, [r3, #53]	; 0x35
 800174c:	b2db      	uxtb	r3, r3
 800174e:	2b02      	cmp	r3, #2
 8001750:	d008      	beq.n	8001764 <HAL_DMA_Abort+0x32>
  {
    hdma->ErrorCode = HAL_DMA_ERROR_NO_XFER;
 8001752:	687b      	ldr	r3, [r7, #4]
 8001754:	2280      	movs	r2, #128	; 0x80
 8001756:	655a      	str	r2, [r3, #84]	; 0x54
    
    /* Process Unlocked */
    __HAL_UNLOCK(hdma);
 8001758:	687b      	ldr	r3, [r7, #4]
 800175a:	2200      	movs	r2, #0
 800175c:	f883 2034 	strb.w	r2, [r3, #52]	; 0x34
    
    return HAL_ERROR;
 8001760:	2301      	movs	r3, #1
 8001762:	e052      	b.n	800180a <HAL_DMA_Abort+0xd8>
  }
  else
  {
    /* Disable all the transfer interrupts */
    hdma->Instance->CR  &= ~(DMA_IT_TC | DMA_IT_TE | DMA_IT_DME);
 8001764:	687b      	ldr	r3, [r7, #4]
 8001766:	681b      	ldr	r3, [r3, #0]
 8001768:	681a      	ldr	r2, [r3, #0]
 800176a:	687b      	ldr	r3, [r7, #4]
 800176c:	681b      	ldr	r3, [r3, #0]
 800176e:	f022 0216 	bic.w	r2, r2, #22
 8001772:	601a      	str	r2, [r3, #0]
    hdma->Instance->FCR &= ~(DMA_IT_FE);
 8001774:	687b      	ldr	r3, [r7, #4]
 8001776:	681b      	ldr	r3, [r3, #0]
 8001778:	695a      	ldr	r2, [r3, #20]
 800177a:	687b      	ldr	r3, [r7, #4]
 800177c:	681b      	ldr	r3, [r3, #0]
 800177e:	f022 0280 	bic.w	r2, r2, #128	; 0x80
 8001782:	615a      	str	r2, [r3, #20]
    
    if((hdma->XferHalfCpltCallback != NULL) || (hdma->XferM1HalfCpltCallback != NULL))
 8001784:	687b      	ldr	r3, [r7, #4]
 8001786:	6c1b      	ldr	r3, [r3, #64]	; 0x40
 8001788:	2b00      	cmp	r3, #0
 800178a:	d103      	bne.n	8001794 <HAL_DMA_Abort+0x62>
 800178c:	687b      	ldr	r3, [r7, #4]
 800178e:	6c9b      	ldr	r3, [r3, #72]	; 0x48
 8001790:	2b00      	cmp	r3, #0
 8001792:	d007      	beq.n	80017a4 <HAL_DMA_Abort+0x72>
    {
      hdma->Instance->CR  &= ~(DMA_IT_HT);
 8001794:	687b      	ldr	r3, [r7, #4]
 8001796:	681b      	ldr	r3, [r3, #0]
 8001798:	681a      	ldr	r2, [r3, #0]
 800179a:	687b      	ldr	r3, [r7, #4]
 800179c:	681b      	ldr	r3, [r3, #0]
 800179e:	f022 0208 	bic.w	r2, r2, #8
 80017a2:	601a      	str	r2, [r3, #0]
    }
    
    /* Disable the stream */
    __HAL_DMA_DISABLE(hdma);
 80017a4:	687b      	ldr	r3, [r7, #4]
 80017a6:	681b      	ldr	r3, [r3, #0]
 80017a8:	681a      	ldr	r2, [r3, #0]
 80017aa:	687b      	ldr	r3, [r7, #4]
 80017ac:	681b      	ldr	r3, [r3, #0]
 80017ae:	f022 0201 	bic.w	r2, r2, #1
 80017b2:	601a      	str	r2, [r3, #0]
    
    /* Check if the DMA Stream is effectively disabled */
    while((hdma->Instance->CR & DMA_SxCR_EN) != RESET)
 80017b4:	e013      	b.n	80017de <HAL_DMA_Abort+0xac>
    {
      /* Check for the Timeout */
      if((HAL_GetTick() - tickstart ) > HAL_TIMEOUT_DMA_ABORT)
 80017b6:	f7ff fe7b 	bl	80014b0 <HAL_GetTick>
 80017ba:	4602      	mov	r2, r0
 80017bc:	68bb      	ldr	r3, [r7, #8]
 80017be:	1ad3      	subs	r3, r2, r3
 80017c0:	2b05      	cmp	r3, #5
 80017c2:	d90c      	bls.n	80017de <HAL_DMA_Abort+0xac>
      {
        /* Update error code */
        hdma->ErrorCode = HAL_DMA_ERROR_TIMEOUT;
 80017c4:	687b      	ldr	r3, [r7, #4]
 80017c6:	2220      	movs	r2, #32
 80017c8:	655a      	str	r2, [r3, #84]	; 0x54
        
        /* Change the DMA state */
        hdma->State = HAL_DMA_STATE_TIMEOUT;
 80017ca:	687b      	ldr	r3, [r7, #4]
 80017cc:	2203      	movs	r2, #3
 80017ce:	f883 2035 	strb.w	r2, [r3, #53]	; 0x35
        
        /* Process Unlocked */
        __HAL_UNLOCK(hdma);
 80017d2:	687b      	ldr	r3, [r7, #4]
 80017d4:	2200      	movs	r2, #0
 80017d6:	f883 2034 	strb.w	r2, [r3, #52]	; 0x34
        
        return HAL_TIMEOUT;
 80017da:	2303      	movs	r3, #3
 80017dc:	e015      	b.n	800180a <HAL_DMA_Abort+0xd8>
    while((hdma->Instance->CR & DMA_SxCR_EN) != RESET)
 80017de:	687b      	ldr	r3, [r7, #4]
 80017e0:	681b      	ldr	r3, [r3, #0]
 80017e2:	681b      	ldr	r3, [r3, #0]
 80017e4:	f003 0301 	and.w	r3, r3, #1
 80017e8:	2b00      	cmp	r3, #0
 80017ea:	d1e4      	bne.n	80017b6 <HAL_DMA_Abort+0x84>
      }
    }
    
    /* Clear all interrupt flags at correct offset within the register */
    regs->IFCR = 0x3FU << hdma->StreamIndex;
 80017ec:	687b      	ldr	r3, [r7, #4]
 80017ee:	6ddb      	ldr	r3, [r3, #92]	; 0x5c
 80017f0:	223f      	movs	r2, #63	; 0x3f
 80017f2:	409a      	lsls	r2, r3
 80017f4:	68fb      	ldr	r3, [r7, #12]
 80017f6:	609a      	str	r2, [r3, #8]
    
    /* Change the DMA state*/
    hdma->State = HAL_DMA_STATE_READY;
 80017f8:	687b      	ldr	r3, [r7, #4]
 80017fa:	2201      	movs	r2, #1
 80017fc:	f883 2035 	strb.w	r2, [r3, #53]	; 0x35
    
    /* Process Unlocked */
    __HAL_UNLOCK(hdma);
 8001800:	687b      	ldr	r3, [r7, #4]
 8001802:	2200      	movs	r2, #0
 8001804:	f883 2034 	strb.w	r2, [r3, #52]	; 0x34
  }
  return HAL_OK;
 8001808:	2300      	movs	r3, #0
}
 800180a:	4618      	mov	r0, r3
 800180c:	3710      	adds	r7, #16
 800180e:	46bd      	mov	sp, r7
 8001810:	bd80      	pop	{r7, pc}

08001812 <HAL_DMA_Abort_IT>:
  * @param  hdma   pointer to a DMA_HandleTypeDef structure that contains
  *                 the configuration information for the specified DMA Stream.
  * @retval HAL status
  */
HAL_StatusTypeDef HAL_DMA_Abort_IT(DMA_HandleTypeDef *hdma)
{
 8001812:	b480      	push	{r7}
 8001814:	b083      	sub	sp, #12
 8001816:	af00      	add	r7, sp, #0
 8001818:	6078      	str	r0, [r7, #4]
  if(hdma->State != HAL_DMA_STATE_BUSY)
 800181a:	687b      	ldr	r3, [r7, #4]
 800181c:	f893 3035 	ldrb.w	r3, [r3, #53]	; 0x35
 8001820:	b2db      	uxtb	r3, r3
 8001822:	2b02      	cmp	r3, #2
 8001824:	d004      	beq.n	8001830 <HAL_DMA_Abort_IT+0x1e>
  {
    hdma->ErrorCode = HAL_DMA_ERROR_NO_XFER;
 8001826:	687b      	ldr	r3, [r7, #4]
 8001828:	2280      	movs	r2, #128	; 0x80
 800182a:	655a      	str	r2, [r3, #84]	; 0x54
    return HAL_ERROR;
 800182c:	2301      	movs	r3, #1
 800182e:	e00c      	b.n	800184a <HAL_DMA_Abort_IT+0x38>
  }
  else
  {
    /* Set Abort State  */
    hdma->State = HAL_DMA_STATE_ABORT;
 8001830:	687b      	ldr	r3, [r7, #4]
 8001832:	2205      	movs	r2, #5
 8001834:	f883 2035 	strb.w	r2, [r3, #53]	; 0x35
    
    /* Disable the stream */
    __HAL_DMA_DISABLE(hdma);
 8001838:	687b      	ldr	r3, [r7, #4]
 800183a:	681b      	ldr	r3, [r3, #0]
 800183c:	681a      	ldr	r2, [r3, #0]
 800183e:	687b      	ldr	r3, [r7, #4]
 8001840:	681b      	ldr	r3, [r3, #0]
 8001842:	f022 0201 	bic.w	r2, r2, #1
 8001846:	601a      	str	r2, [r3, #0]
  }

  return HAL_OK;
 8001848:	2300      	movs	r3, #0
}
 800184a:	4618      	mov	r0, r3
 800184c:	370c      	adds	r7, #12
 800184e:	46bd      	mov	sp, r7
 8001850:	f85d 7b04 	ldr.w	r7, [sp], #4
 8001854:	4770      	bx	lr
	...

08001858 <HAL_GPIO_Init>:
  * @param  GPIO_Init pointer to a GPIO_InitTypeDef structure that contains
  *         the configuration information for the specified GPIO peripheral.
  * @retval None
  */
void HAL_GPIO_Init(GPIO_TypeDef  *GPIOx, GPIO_InitTypeDef *GPIO_Init)
{
 8001858:	b480      	push	{r7}
 800185a:	b089      	sub	sp, #36	; 0x24
 800185c:	af00      	add	r7, sp, #0
 800185e:	6078      	str	r0, [r7, #4]
 8001860:	6039      	str	r1, [r7, #0]
  uint32_t position;
  uint32_t ioposition = 0x00U;
 8001862:	2300      	movs	r3, #0
 8001864:	617b      	str	r3, [r7, #20]
  uint32_t iocurrent = 0x00U;
 8001866:	2300      	movs	r3, #0
 8001868:	613b      	str	r3, [r7, #16]
  uint32_t temp = 0x00U;
 800186a:	2300      	movs	r3, #0
 800186c:	61bb      	str	r3, [r7, #24]
  assert_param(IS_GPIO_ALL_INSTANCE(GPIOx));
  assert_param(IS_GPIO_PIN(GPIO_Init->Pin));
  assert_param(IS_GPIO_MODE(GPIO_Init->Mode));

  /* Configure the port pins */
  for(position = 0U; position < GPIO_NUMBER; position++)
 800186e:	2300      	movs	r3, #0
 8001870:	61fb      	str	r3, [r7, #28]
 8001872:	e159      	b.n	8001b28 <HAL_GPIO_Init+0x2d0>
  {
    /* Get the IO position */
    ioposition = 0x01U << position;
 8001874:	2201      	movs	r2, #1
 8001876:	69fb      	ldr	r3, [r7, #28]
 8001878:	fa02 f303 	lsl.w	r3, r2, r3
 800187c:	617b      	str	r3, [r7, #20]
    /* Get the current IO position */
    iocurrent = (uint32_t)(GPIO_Init->Pin) & ioposition;
 800187e:	683b      	ldr	r3, [r7, #0]
 8001880:	681b      	ldr	r3, [r3, #0]
 8001882:	697a      	ldr	r2, [r7, #20]
 8001884:	4013      	ands	r3, r2
 8001886:	613b      	str	r3, [r7, #16]

    if(iocurrent == ioposition)
 8001888:	693a      	ldr	r2, [r7, #16]
 800188a:	697b      	ldr	r3, [r7, #20]
 800188c:	429a      	cmp	r2, r3
 800188e:	f040 8148 	bne.w	8001b22 <HAL_GPIO_Init+0x2ca>
    {
      /*--------------------- GPIO Mode Configuration ------------------------*/
      /* In case of Output or Alternate function mode selection */
      if(((GPIO_Init->Mode & GPIO_MODE) == MODE_OUTPUT) || \
 8001892:	683b      	ldr	r3, [r7, #0]
 8001894:	685b      	ldr	r3, [r3, #4]
 8001896:	f003 0303 	and.w	r3, r3, #3
 800189a:	2b01      	cmp	r3, #1
 800189c:	d005      	beq.n	80018aa <HAL_GPIO_Init+0x52>
          (GPIO_Init->Mode & GPIO_MODE) == MODE_AF)
 800189e:	683b      	ldr	r3, [r7, #0]
 80018a0:	685b      	ldr	r3, [r3, #4]
 80018a2:	f003 0303 	and.w	r3, r3, #3
      if(((GPIO_Init->Mode & GPIO_MODE) == MODE_OUTPUT) || \
 80018a6:	2b02      	cmp	r3, #2
 80018a8:	d130      	bne.n	800190c <HAL_GPIO_Init+0xb4>
      {
        /* Check the Speed parameter */
        assert_param(IS_GPIO_SPEED(GPIO_Init->Speed));
        /* Configure the IO Speed */
        temp = GPIOx->OSPEEDR; 
 80018aa:	687b      	ldr	r3, [r7, #4]
 80018ac:	689b      	ldr	r3, [r3, #8]
 80018ae:	61bb      	str	r3, [r7, #24]
        temp &= ~(GPIO_OSPEEDER_OSPEEDR0 << (position * 2U));
 80018b0:	69fb      	ldr	r3, [r7, #28]
 80018b2:	005b      	lsls	r3, r3, #1
 80018b4:	2203      	movs	r2, #3
 80018b6:	fa02 f303 	lsl.w	r3, r2, r3
 80018ba:	43db      	mvns	r3, r3
 80018bc:	69ba      	ldr	r2, [r7, #24]
 80018be:	4013      	ands	r3, r2
 80018c0:	61bb      	str	r3, [r7, #24]
        temp |= (GPIO_Init->Speed << (position * 2U));
 80018c2:	683b      	ldr	r3, [r7, #0]
 80018c4:	68da      	ldr	r2, [r3, #12]
 80018c6:	69fb      	ldr	r3, [r7, #28]
 80018c8:	005b      	lsls	r3, r3, #1
 80018ca:	fa02 f303 	lsl.w	r3, r2, r3
 80018ce:	69ba      	ldr	r2, [r7, #24]
 80018d0:	4313      	orrs	r3, r2
 80018d2:	61bb      	str	r3, [r7, #24]
        GPIOx->OSPEEDR = temp;
 80018d4:	687b      	ldr	r3, [r7, #4]
 80018d6:	69ba      	ldr	r2, [r7, #24]
 80018d8:	609a      	str	r2, [r3, #8]

        /* Configure the IO Output Type */
        temp = GPIOx->OTYPER;
 80018da:	687b      	ldr	r3, [r7, #4]
 80018dc:	685b      	ldr	r3, [r3, #4]
 80018de:	61bb      	str	r3, [r7, #24]
        temp &= ~(GPIO_OTYPER_OT_0 << position) ;
 80018e0:	2201      	movs	r2, #1
 80018e2:	69fb      	ldr	r3, [r7, #28]
 80018e4:	fa02 f303 	lsl.w	r3, r2, r3
 80018e8:	43db      	mvns	r3, r3
 80018ea:	69ba      	ldr	r2, [r7, #24]
 80018ec:	4013      	ands	r3, r2
 80018ee:	61bb      	str	r3, [r7, #24]
        temp |= (((GPIO_Init->Mode & OUTPUT_TYPE) >> OUTPUT_TYPE_Pos) << position);
 80018f0:	683b      	ldr	r3, [r7, #0]
 80018f2:	685b      	ldr	r3, [r3, #4]
 80018f4:	091b      	lsrs	r3, r3, #4
 80018f6:	f003 0201 	and.w	r2, r3, #1
 80018fa:	69fb      	ldr	r3, [r7, #28]
 80018fc:	fa02 f303 	lsl.w	r3, r2, r3
 8001900:	69ba      	ldr	r2, [r7, #24]
 8001902:	4313      	orrs	r3, r2
 8001904:	61bb      	str	r3, [r7, #24]
        GPIOx->OTYPER = temp;
 8001906:	687b      	ldr	r3, [r7, #4]
 8001908:	69ba      	ldr	r2, [r7, #24]
 800190a:	605a      	str	r2, [r3, #4]
       }

      if((GPIO_Init->Mode & GPIO_MODE) != MODE_ANALOG)
 800190c:	683b      	ldr	r3, [r7, #0]
 800190e:	685b      	ldr	r3, [r3, #4]
 8001910:	f003 0303 	and.w	r3, r3, #3
 8001914:	2b03      	cmp	r3, #3
 8001916:	d017      	beq.n	8001948 <HAL_GPIO_Init+0xf0>
      {
        /* Check the parameters */
        assert_param(IS_GPIO_PULL(GPIO_Init->Pull));
        
        /* Activate the Pull-up or Pull down resistor for the current IO */
        temp = GPIOx->PUPDR;
 8001918:	687b      	ldr	r3, [r7, #4]
 800191a:	68db      	ldr	r3, [r3, #12]
 800191c:	61bb      	str	r3, [r7, #24]
        temp &= ~(GPIO_PUPDR_PUPDR0 << (position * 2U));
 800191e:	69fb      	ldr	r3, [r7, #28]
 8001920:	005b      	lsls	r3, r3, #1
 8001922:	2203      	movs	r2, #3
 8001924:	fa02 f303 	lsl.w	r3, r2, r3
 8001928:	43db      	mvns	r3, r3
 800192a:	69ba      	ldr	r2, [r7, #24]
 800192c:	4013      	ands	r3, r2
 800192e:	61bb      	str	r3, [r7, #24]
        temp |= ((GPIO_Init->Pull) << (position * 2U));
 8001930:	683b      	ldr	r3, [r7, #0]
 8001932:	689a      	ldr	r2, [r3, #8]
 8001934:	69fb      	ldr	r3, [r7, #28]
 8001936:	005b      	lsls	r3, r3, #1
 8001938:	fa02 f303 	lsl.w	r3, r2, r3
 800193c:	69ba      	ldr	r2, [r7, #24]
 800193e:	4313      	orrs	r3, r2
 8001940:	61bb      	str	r3, [r7, #24]
        GPIOx->PUPDR = temp;
 8001942:	687b      	ldr	r3, [r7, #4]
 8001944:	69ba      	ldr	r2, [r7, #24]
 8001946:	60da      	str	r2, [r3, #12]
      }

      /* In case of Alternate function mode selection */
      if((GPIO_Init->Mode & GPIO_MODE) == MODE_AF)
 8001948:	683b      	ldr	r3, [r7, #0]
 800194a:	685b      	ldr	r3, [r3, #4]
 800194c:	f003 0303 	and.w	r3, r3, #3
 8001950:	2b02      	cmp	r3, #2
 8001952:	d123      	bne.n	800199c <HAL_GPIO_Init+0x144>
      {
        /* Check the Alternate function parameter */
        assert_param(IS_GPIO_AF(GPIO_Init->Alternate));
        /* Configure Alternate function mapped with the current IO */
        temp = GPIOx->AFR[position >> 3U];
 8001954:	69fb      	ldr	r3, [r7, #28]
 8001956:	08da      	lsrs	r2, r3, #3
 8001958:	687b      	ldr	r3, [r7, #4]
 800195a:	3208      	adds	r2, #8
 800195c:	f853 3022 	ldr.w	r3, [r3, r2, lsl #2]
 8001960:	61bb      	str	r3, [r7, #24]
        temp &= ~(0xFU << ((uint32_t)(position & 0x07U) * 4U)) ;
 8001962:	69fb      	ldr	r3, [r7, #28]
 8001964:	f003 0307 	and.w	r3, r3, #7
 8001968:	009b      	lsls	r3, r3, #2
 800196a:	220f      	movs	r2, #15
 800196c:	fa02 f303 	lsl.w	r3, r2, r3
 8001970:	43db      	mvns	r3, r3
 8001972:	69ba      	ldr	r2, [r7, #24]
 8001974:	4013      	ands	r3, r2
 8001976:	61bb      	str	r3, [r7, #24]
        temp |= ((uint32_t)(GPIO_Init->Alternate) << (((uint32_t)position & 0x07U) * 4U));
 8001978:	683b      	ldr	r3, [r7, #0]
 800197a:	691a      	ldr	r2, [r3, #16]
 800197c:	69fb      	ldr	r3, [r7, #28]
 800197e:	f003 0307 	and.w	r3, r3, #7
 8001982:	009b      	lsls	r3, r3, #2
 8001984:	fa02 f303 	lsl.w	r3, r2, r3
 8001988:	69ba      	ldr	r2, [r7, #24]
 800198a:	4313      	orrs	r3, r2
 800198c:	61bb      	str	r3, [r7, #24]
        GPIOx->AFR[position >> 3U] = temp;
 800198e:	69fb      	ldr	r3, [r7, #28]
 8001990:	08da      	lsrs	r2, r3, #3
 8001992:	687b      	ldr	r3, [r7, #4]
 8001994:	3208      	adds	r2, #8
 8001996:	69b9      	ldr	r1, [r7, #24]
 8001998:	f843 1022 	str.w	r1, [r3, r2, lsl #2]
      }

      /* Configure IO Direction mode (Input, Output, Alternate or Analog) */
      temp = GPIOx->MODER;
 800199c:	687b      	ldr	r3, [r7, #4]
 800199e:	681b      	ldr	r3, [r3, #0]
 80019a0:	61bb      	str	r3, [r7, #24]
      temp &= ~(GPIO_MODER_MODER0 << (position * 2U));
 80019a2:	69fb      	ldr	r3, [r7, #28]
 80019a4:	005b      	lsls	r3, r3, #1
 80019a6:	2203      	movs	r2, #3
 80019a8:	fa02 f303 	lsl.w	r3, r2, r3
 80019ac:	43db      	mvns	r3, r3
 80019ae:	69ba      	ldr	r2, [r7, #24]
 80019b0:	4013      	ands	r3, r2
 80019b2:	61bb      	str	r3, [r7, #24]
      temp |= ((GPIO_Init->Mode & GPIO_MODE) << (position * 2U));
 80019b4:	683b      	ldr	r3, [r7, #0]
 80019b6:	685b      	ldr	r3, [r3, #4]
 80019b8:	f003 0203 	and.w	r2, r3, #3
 80019bc:	69fb      	ldr	r3, [r7, #28]
 80019be:	005b      	lsls	r3, r3, #1
 80019c0:	fa02 f303 	lsl.w	r3, r2, r3
 80019c4:	69ba      	ldr	r2, [r7, #24]
 80019c6:	4313      	orrs	r3, r2
 80019c8:	61bb      	str	r3, [r7, #24]
      GPIOx->MODER = temp;
 80019ca:	687b      	ldr	r3, [r7, #4]
 80019cc:	69ba      	ldr	r2, [r7, #24]
 80019ce:	601a      	str	r2, [r3, #0]

      /*--------------------- EXTI Mode Configuration ------------------------*/
      /* Configure the External Interrupt or event for the current IO */
      if((GPIO_Init->Mode & EXTI_MODE) != 0x00U)
 80019d0:	683b      	ldr	r3, [r7, #0]
 80019d2:	685b      	ldr	r3, [r3, #4]
 80019d4:	f403 3340 	and.w	r3, r3, #196608	; 0x30000
 80019d8:	2b00      	cmp	r3, #0
 80019da:	f000 80a2 	beq.w	8001b22 <HAL_GPIO_Init+0x2ca>
      {
        /* Enable SYSCFG Clock */
        __HAL_RCC_SYSCFG_CLK_ENABLE();
 80019de:	2300      	movs	r3, #0
 80019e0:	60fb      	str	r3, [r7, #12]
 80019e2:	4b57      	ldr	r3, [pc, #348]	; (8001b40 <HAL_GPIO_Init+0x2e8>)
 80019e4:	6c5b      	ldr	r3, [r3, #68]	; 0x44
 80019e6:	4a56      	ldr	r2, [pc, #344]	; (8001b40 <HAL_GPIO_Init+0x2e8>)
 80019e8:	f443 4380 	orr.w	r3, r3, #16384	; 0x4000
 80019ec:	6453      	str	r3, [r2, #68]	; 0x44
 80019ee:	4b54      	ldr	r3, [pc, #336]	; (8001b40 <HAL_GPIO_Init+0x2e8>)
 80019f0:	6c5b      	ldr	r3, [r3, #68]	; 0x44
 80019f2:	f403 4380 	and.w	r3, r3, #16384	; 0x4000
 80019f6:	60fb      	str	r3, [r7, #12]
 80019f8:	68fb      	ldr	r3, [r7, #12]

        temp = SYSCFG->EXTICR[position >> 2U];
 80019fa:	4a52      	ldr	r2, [pc, #328]	; (8001b44 <HAL_GPIO_Init+0x2ec>)
 80019fc:	69fb      	ldr	r3, [r7, #28]
 80019fe:	089b      	lsrs	r3, r3, #2
 8001a00:	3302      	adds	r3, #2
 8001a02:	f852 3023 	ldr.w	r3, [r2, r3, lsl #2]
 8001a06:	61bb      	str	r3, [r7, #24]
        temp &= ~(0x0FU << (4U * (position & 0x03U)));
 8001a08:	69fb      	ldr	r3, [r7, #28]
 8001a0a:	f003 0303 	and.w	r3, r3, #3
 8001a0e:	009b      	lsls	r3, r3, #2
 8001a10:	220f      	movs	r2, #15
 8001a12:	fa02 f303 	lsl.w	r3, r2, r3
 8001a16:	43db      	mvns	r3, r3
 8001a18:	69ba      	ldr	r2, [r7, #24]
 8001a1a:	4013      	ands	r3, r2
 8001a1c:	61bb      	str	r3, [r7, #24]
        temp |= ((uint32_t)(GPIO_GET_INDEX(GPIOx)) << (4U * (position & 0x03U)));
 8001a1e:	687b      	ldr	r3, [r7, #4]
 8001a20:	4a49      	ldr	r2, [pc, #292]	; (8001b48 <HAL_GPIO_Init+0x2f0>)
 8001a22:	4293      	cmp	r3, r2
 8001a24:	d019      	beq.n	8001a5a <HAL_GPIO_Init+0x202>
 8001a26:	687b      	ldr	r3, [r7, #4]
 8001a28:	4a48      	ldr	r2, [pc, #288]	; (8001b4c <HAL_GPIO_Init+0x2f4>)
 8001a2a:	4293      	cmp	r3, r2
 8001a2c:	d013      	beq.n	8001a56 <HAL_GPIO_Init+0x1fe>
 8001a2e:	687b      	ldr	r3, [r7, #4]
 8001a30:	4a47      	ldr	r2, [pc, #284]	; (8001b50 <HAL_GPIO_Init+0x2f8>)
 8001a32:	4293      	cmp	r3, r2
 8001a34:	d00d      	beq.n	8001a52 <HAL_GPIO_Init+0x1fa>
 8001a36:	687b      	ldr	r3, [r7, #4]
 8001a38:	4a46      	ldr	r2, [pc, #280]	; (8001b54 <HAL_GPIO_Init+0x2fc>)
 8001a3a:	4293      	cmp	r3, r2
 8001a3c:	d007      	beq.n	8001a4e <HAL_GPIO_Init+0x1f6>
 8001a3e:	687b      	ldr	r3, [r7, #4]
 8001a40:	4a45      	ldr	r2, [pc, #276]	; (8001b58 <HAL_GPIO_Init+0x300>)
 8001a42:	4293      	cmp	r3, r2
 8001a44:	d101      	bne.n	8001a4a <HAL_GPIO_Init+0x1f2>
 8001a46:	2304      	movs	r3, #4
 8001a48:	e008      	b.n	8001a5c <HAL_GPIO_Init+0x204>
 8001a4a:	2307      	movs	r3, #7
 8001a4c:	e006      	b.n	8001a5c <HAL_GPIO_Init+0x204>
 8001a4e:	2303      	movs	r3, #3
 8001a50:	e004      	b.n	8001a5c <HAL_GPIO_Init+0x204>
 8001a52:	2302      	movs	r3, #2
 8001a54:	e002      	b.n	8001a5c <HAL_GPIO_Init+0x204>
 8001a56:	2301      	movs	r3, #1
 8001a58:	e000      	b.n	8001a5c <HAL_GPIO_Init+0x204>
 8001a5a:	2300      	movs	r3, #0
 8001a5c:	69fa      	ldr	r2, [r7, #28]
 8001a5e:	f002 0203 	and.w	r2, r2, #3
 8001a62:	0092      	lsls	r2, r2, #2
 8001a64:	4093      	lsls	r3, r2
 8001a66:	69ba      	ldr	r2, [r7, #24]
 8001a68:	4313      	orrs	r3, r2
 8001a6a:	61bb      	str	r3, [r7, #24]
        SYSCFG->EXTICR[position >> 2U] = temp;
 8001a6c:	4935      	ldr	r1, [pc, #212]	; (8001b44 <HAL_GPIO_Init+0x2ec>)
 8001a6e:	69fb      	ldr	r3, [r7, #28]
 8001a70:	089b      	lsrs	r3, r3, #2
 8001a72:	3302      	adds	r3, #2
 8001a74:	69ba      	ldr	r2, [r7, #24]
 8001a76:	f841 2023 	str.w	r2, [r1, r3, lsl #2]

        /* Clear Rising Falling edge configuration */
        temp = EXTI->RTSR;
 8001a7a:	4b38      	ldr	r3, [pc, #224]	; (8001b5c <HAL_GPIO_Init+0x304>)
 8001a7c:	689b      	ldr	r3, [r3, #8]
 8001a7e:	61bb      	str	r3, [r7, #24]
        temp &= ~((uint32_t)iocurrent);
 8001a80:	693b      	ldr	r3, [r7, #16]
 8001a82:	43db      	mvns	r3, r3
 8001a84:	69ba      	ldr	r2, [r7, #24]
 8001a86:	4013      	ands	r3, r2
 8001a88:	61bb      	str	r3, [r7, #24]
        if((GPIO_Init->Mode & TRIGGER_RISING) != 0x00U)
 8001a8a:	683b      	ldr	r3, [r7, #0]
 8001a8c:	685b      	ldr	r3, [r3, #4]
 8001a8e:	f403 1380 	and.w	r3, r3, #1048576	; 0x100000
 8001a92:	2b00      	cmp	r3, #0
 8001a94:	d003      	beq.n	8001a9e <HAL_GPIO_Init+0x246>
        {
          temp |= iocurrent;
 8001a96:	69ba      	ldr	r2, [r7, #24]
 8001a98:	693b      	ldr	r3, [r7, #16]
 8001a9a:	4313      	orrs	r3, r2
 8001a9c:	61bb      	str	r3, [r7, #24]
        }
        EXTI->RTSR = temp;
 8001a9e:	4a2f      	ldr	r2, [pc, #188]	; (8001b5c <HAL_GPIO_Init+0x304>)
 8001aa0:	69bb      	ldr	r3, [r7, #24]
 8001aa2:	6093      	str	r3, [r2, #8]

        temp = EXTI->FTSR;
 8001aa4:	4b2d      	ldr	r3, [pc, #180]	; (8001b5c <HAL_GPIO_Init+0x304>)
 8001aa6:	68db      	ldr	r3, [r3, #12]
 8001aa8:	61bb      	str	r3, [r7, #24]
        temp &= ~((uint32_t)iocurrent);
 8001aaa:	693b      	ldr	r3, [r7, #16]
 8001aac:	43db      	mvns	r3, r3
 8001aae:	69ba      	ldr	r2, [r7, #24]
 8001ab0:	4013      	ands	r3, r2
 8001ab2:	61bb      	str	r3, [r7, #24]
        if((GPIO_Init->Mode & TRIGGER_FALLING) != 0x00U)
 8001ab4:	683b      	ldr	r3, [r7, #0]
 8001ab6:	685b      	ldr	r3, [r3, #4]
 8001ab8:	f403 1300 	and.w	r3, r3, #2097152	; 0x200000
 8001abc:	2b00      	cmp	r3, #0
 8001abe:	d003      	beq.n	8001ac8 <HAL_GPIO_Init+0x270>
        {
          temp |= iocurrent;
 8001ac0:	69ba      	ldr	r2, [r7, #24]
 8001ac2:	693b      	ldr	r3, [r7, #16]
 8001ac4:	4313      	orrs	r3, r2
 8001ac6:	61bb      	str	r3, [r7, #24]
        }
        EXTI->FTSR = temp;
 8001ac8:	4a24      	ldr	r2, [pc, #144]	; (8001b5c <HAL_GPIO_Init+0x304>)
 8001aca:	69bb      	ldr	r3, [r7, #24]
 8001acc:	60d3      	str	r3, [r2, #12]

        temp = EXTI->EMR;
 8001ace:	4b23      	ldr	r3, [pc, #140]	; (8001b5c <HAL_GPIO_Init+0x304>)
 8001ad0:	685b      	ldr	r3, [r3, #4]
 8001ad2:	61bb      	str	r3, [r7, #24]
        temp &= ~((uint32_t)iocurrent);
 8001ad4:	693b      	ldr	r3, [r7, #16]
 8001ad6:	43db      	mvns	r3, r3
 8001ad8:	69ba      	ldr	r2, [r7, #24]
 8001ada:	4013      	ands	r3, r2
 8001adc:	61bb      	str	r3, [r7, #24]
        if((GPIO_Init->Mode & EXTI_EVT) != 0x00U)
 8001ade:	683b      	ldr	r3, [r7, #0]
 8001ae0:	685b      	ldr	r3, [r3, #4]
 8001ae2:	f403 3300 	and.w	r3, r3, #131072	; 0x20000
 8001ae6:	2b00      	cmp	r3, #0
 8001ae8:	d003      	beq.n	8001af2 <HAL_GPIO_Init+0x29a>
        {
          temp |= iocurrent;
 8001aea:	69ba      	ldr	r2, [r7, #24]
 8001aec:	693b      	ldr	r3, [r7, #16]
 8001aee:	4313      	orrs	r3, r2
 8001af0:	61bb      	str	r3, [r7, #24]
        }
        EXTI->EMR = temp;
 8001af2:	4a1a      	ldr	r2, [pc, #104]	; (8001b5c <HAL_GPIO_Init+0x304>)
 8001af4:	69bb      	ldr	r3, [r7, #24]
 8001af6:	6053      	str	r3, [r2, #4]

        /* Clear EXTI line configuration */
        temp = EXTI->IMR;
 8001af8:	4b18      	ldr	r3, [pc, #96]	; (8001b5c <HAL_GPIO_Init+0x304>)
 8001afa:	681b      	ldr	r3, [r3, #0]
 8001afc:	61bb      	str	r3, [r7, #24]
        temp &= ~((uint32_t)iocurrent);
 8001afe:	693b      	ldr	r3, [r7, #16]
 8001b00:	43db      	mvns	r3, r3
 8001b02:	69ba      	ldr	r2, [r7, #24]
 8001b04:	4013      	ands	r3, r2
 8001b06:	61bb      	str	r3, [r7, #24]
        if((GPIO_Init->Mode & EXTI_IT) != 0x00U)
 8001b08:	683b      	ldr	r3, [r7, #0]
 8001b0a:	685b      	ldr	r3, [r3, #4]
 8001b0c:	f403 3380 	and.w	r3, r3, #65536	; 0x10000
 8001b10:	2b00      	cmp	r3, #0
 8001b12:	d003      	beq.n	8001b1c <HAL_GPIO_Init+0x2c4>
        {
          temp |= iocurrent;
 8001b14:	69ba      	ldr	r2, [r7, #24]
 8001b16:	693b      	ldr	r3, [r7, #16]
 8001b18:	4313      	orrs	r3, r2
 8001b1a:	61bb      	str	r3, [r7, #24]
        }
        EXTI->IMR = temp;
 8001b1c:	4a0f      	ldr	r2, [pc, #60]	; (8001b5c <HAL_GPIO_Init+0x304>)
 8001b1e:	69bb      	ldr	r3, [r7, #24]
 8001b20:	6013      	str	r3, [r2, #0]
  for(position = 0U; position < GPIO_NUMBER; position++)
 8001b22:	69fb      	ldr	r3, [r7, #28]
 8001b24:	3301      	adds	r3, #1
 8001b26:	61fb      	str	r3, [r7, #28]
 8001b28:	69fb      	ldr	r3, [r7, #28]
 8001b2a:	2b0f      	cmp	r3, #15
 8001b2c:	f67f aea2 	bls.w	8001874 <HAL_GPIO_Init+0x1c>
      }
    }
  }
}
 8001b30:	bf00      	nop
 8001b32:	bf00      	nop
 8001b34:	3724      	adds	r7, #36	; 0x24
 8001b36:	46bd      	mov	sp, r7
 8001b38:	f85d 7b04 	ldr.w	r7, [sp], #4
 8001b3c:	4770      	bx	lr
 8001b3e:	bf00      	nop
 8001b40:	40023800 	.word	0x40023800
 8001b44:	40013800 	.word	0x40013800
 8001b48:	40020000 	.word	0x40020000
 8001b4c:	40020400 	.word	0x40020400
 8001b50:	40020800 	.word	0x40020800
 8001b54:	40020c00 	.word	0x40020c00
 8001b58:	40021000 	.word	0x40021000
 8001b5c:	40013c00 	.word	0x40013c00

08001b60 <HAL_GPIO_WritePin>:
  *            @arg GPIO_PIN_RESET: to clear the port pin
  *            @arg GPIO_PIN_SET: to set the port pin
  * @retval None
  */
void HAL_GPIO_WritePin(GPIO_TypeDef* GPIOx, uint16_t GPIO_Pin, GPIO_PinState PinState)
{
 8001b60:	b480      	push	{r7}
 8001b62:	b083      	sub	sp, #12
 8001b64:	af00      	add	r7, sp, #0
 8001b66:	6078      	str	r0, [r7, #4]
 8001b68:	460b      	mov	r3, r1
 8001b6a:	807b      	strh	r3, [r7, #2]
 8001b6c:	4613      	mov	r3, r2
 8001b6e:	707b      	strb	r3, [r7, #1]
  /* Check the parameters */
  assert_param(IS_GPIO_PIN(GPIO_Pin));
  assert_param(IS_GPIO_PIN_ACTION(PinState));

  if(PinState != GPIO_PIN_RESET)
 8001b70:	787b      	ldrb	r3, [r7, #1]
 8001b72:	2b00      	cmp	r3, #0
 8001b74:	d003      	beq.n	8001b7e <HAL_GPIO_WritePin+0x1e>
  {
    GPIOx->BSRR = GPIO_Pin;
 8001b76:	887a      	ldrh	r2, [r7, #2]
 8001b78:	687b      	ldr	r3, [r7, #4]
 8001b7a:	619a      	str	r2, [r3, #24]
  }
  else
  {
    GPIOx->BSRR = (uint32_t)GPIO_Pin << 16U;
  }
}
 8001b7c:	e003      	b.n	8001b86 <HAL_GPIO_WritePin+0x26>
    GPIOx->BSRR = (uint32_t)GPIO_Pin << 16U;
 8001b7e:	887b      	ldrh	r3, [r7, #2]
 8001b80:	041a      	lsls	r2, r3, #16
 8001b82:	687b      	ldr	r3, [r7, #4]
 8001b84:	619a      	str	r2, [r3, #24]
}
 8001b86:	bf00      	nop
 8001b88:	370c      	adds	r7, #12
 8001b8a:	46bd      	mov	sp, r7
 8001b8c:	f85d 7b04 	ldr.w	r7, [sp], #4
 8001b90:	4770      	bx	lr
	...

08001b94 <HAL_RCC_OscConfig>:
  *         supported by this API. User should request a transition to HSE Off
  *         first and then HSE On or HSE Bypass.
  * @retval HAL status
  */
__weak HAL_StatusTypeDef HAL_RCC_OscConfig(RCC_OscInitTypeDef  *RCC_OscInitStruct)
{
 8001b94:	b580      	push	{r7, lr}
 8001b96:	b086      	sub	sp, #24
 8001b98:	af00      	add	r7, sp, #0
 8001b9a:	6078      	str	r0, [r7, #4]
  uint32_t tickstart, pll_config;

  /* Check Null pointer */
  if(RCC_OscInitStruct == NULL)
 8001b9c:	687b      	ldr	r3, [r7, #4]
 8001b9e:	2b00      	cmp	r3, #0
 8001ba0:	d101      	bne.n	8001ba6 <HAL_RCC_OscConfig+0x12>
  {
    return HAL_ERROR;
 8001ba2:	2301      	movs	r3, #1
 8001ba4:	e267      	b.n	8002076 <HAL_RCC_OscConfig+0x4e2>
  }

  /* Check the parameters */
  assert_param(IS_RCC_OSCILLATORTYPE(RCC_OscInitStruct->OscillatorType));
  /*------------------------------- HSE Configuration ------------------------*/
  if(((RCC_OscInitStruct->OscillatorType) & RCC_OSCILLATORTYPE_HSE) == RCC_OSCILLATORTYPE_HSE)
 8001ba6:	687b      	ldr	r3, [r7, #4]
 8001ba8:	681b      	ldr	r3, [r3, #0]
 8001baa:	f003 0301 	and.w	r3, r3, #1
 8001bae:	2b00      	cmp	r3, #0
 8001bb0:	d075      	beq.n	8001c9e <HAL_RCC_OscConfig+0x10a>
  {
    /* Check the parameters */
    assert_param(IS_RCC_HSE(RCC_OscInitStruct->HSEState));
    /* When the HSE is used as system clock or clock source for PLL in these cases HSE will not disabled */
    if((__HAL_RCC_GET_SYSCLK_SOURCE() == RCC_CFGR_SWS_HSE) ||\
 8001bb2:	4b88      	ldr	r3, [pc, #544]	; (8001dd4 <HAL_RCC_OscConfig+0x240>)
 8001bb4:	689b      	ldr	r3, [r3, #8]
 8001bb6:	f003 030c 	and.w	r3, r3, #12
 8001bba:	2b04      	cmp	r3, #4
 8001bbc:	d00c      	beq.n	8001bd8 <HAL_RCC_OscConfig+0x44>
      ((__HAL_RCC_GET_SYSCLK_SOURCE() == RCC_CFGR_SWS_PLL) && ((RCC->PLLCFGR & RCC_PLLCFGR_PLLSRC) == RCC_PLLCFGR_PLLSRC_HSE)))
 8001bbe:	4b85      	ldr	r3, [pc, #532]	; (8001dd4 <HAL_RCC_OscConfig+0x240>)
 8001bc0:	689b      	ldr	r3, [r3, #8]
 8001bc2:	f003 030c 	and.w	r3, r3, #12
    if((__HAL_RCC_GET_SYSCLK_SOURCE() == RCC_CFGR_SWS_HSE) ||\
 8001bc6:	2b08      	cmp	r3, #8
 8001bc8:	d112      	bne.n	8001bf0 <HAL_RCC_OscConfig+0x5c>
      ((__HAL_RCC_GET_SYSCLK_SOURCE() == RCC_CFGR_SWS_PLL) && ((RCC->PLLCFGR & RCC_PLLCFGR_PLLSRC) == RCC_PLLCFGR_PLLSRC_HSE)))
 8001bca:	4b82      	ldr	r3, [pc, #520]	; (8001dd4 <HAL_RCC_OscConfig+0x240>)
 8001bcc:	685b      	ldr	r3, [r3, #4]
 8001bce:	f403 0380 	and.w	r3, r3, #4194304	; 0x400000
 8001bd2:	f5b3 0f80 	cmp.w	r3, #4194304	; 0x400000
 8001bd6:	d10b      	bne.n	8001bf0 <HAL_RCC_OscConfig+0x5c>
    {
      if((__HAL_RCC_GET_FLAG(RCC_FLAG_HSERDY) != RESET) && (RCC_OscInitStruct->HSEState == RCC_HSE_OFF))
 8001bd8:	4b7e      	ldr	r3, [pc, #504]	; (8001dd4 <HAL_RCC_OscConfig+0x240>)
 8001bda:	681b      	ldr	r3, [r3, #0]
 8001bdc:	f403 3300 	and.w	r3, r3, #131072	; 0x20000
 8001be0:	2b00      	cmp	r3, #0
 8001be2:	d05b      	beq.n	8001c9c <HAL_RCC_OscConfig+0x108>
 8001be4:	687b      	ldr	r3, [r7, #4]
 8001be6:	685b      	ldr	r3, [r3, #4]
 8001be8:	2b00      	cmp	r3, #0
 8001bea:	d157      	bne.n	8001c9c <HAL_RCC_OscConfig+0x108>
      {
        return HAL_ERROR;
 8001bec:	2301      	movs	r3, #1
 8001bee:	e242      	b.n	8002076 <HAL_RCC_OscConfig+0x4e2>
      }
    }
    else
    {
      /* Set the new HSE configuration ---------------------------------------*/
      __HAL_RCC_HSE_CONFIG(RCC_OscInitStruct->HSEState);
 8001bf0:	687b      	ldr	r3, [r7, #4]
 8001bf2:	685b      	ldr	r3, [r3, #4]
 8001bf4:	f5b3 3f80 	cmp.w	r3, #65536	; 0x10000
 8001bf8:	d106      	bne.n	8001c08 <HAL_RCC_OscConfig+0x74>
 8001bfa:	4b76      	ldr	r3, [pc, #472]	; (8001dd4 <HAL_RCC_OscConfig+0x240>)
 8001bfc:	681b      	ldr	r3, [r3, #0]
 8001bfe:	4a75      	ldr	r2, [pc, #468]	; (8001dd4 <HAL_RCC_OscConfig+0x240>)
 8001c00:	f443 3380 	orr.w	r3, r3, #65536	; 0x10000
 8001c04:	6013      	str	r3, [r2, #0]
 8001c06:	e01d      	b.n	8001c44 <HAL_RCC_OscConfig+0xb0>
 8001c08:	687b      	ldr	r3, [r7, #4]
 8001c0a:	685b      	ldr	r3, [r3, #4]
 8001c0c:	f5b3 2fa0 	cmp.w	r3, #327680	; 0x50000
 8001c10:	d10c      	bne.n	8001c2c <HAL_RCC_OscConfig+0x98>
 8001c12:	4b70      	ldr	r3, [pc, #448]	; (8001dd4 <HAL_RCC_OscConfig+0x240>)
 8001c14:	681b      	ldr	r3, [r3, #0]
 8001c16:	4a6f      	ldr	r2, [pc, #444]	; (8001dd4 <HAL_RCC_OscConfig+0x240>)
 8001c18:	f443 2380 	orr.w	r3, r3, #262144	; 0x40000
 8001c1c:	6013      	str	r3, [r2, #0]
 8001c1e:	4b6d      	ldr	r3, [pc, #436]	; (8001dd4 <HAL_RCC_OscConfig+0x240>)
 8001c20:	681b      	ldr	r3, [r3, #0]
 8001c22:	4a6c      	ldr	r2, [pc, #432]	; (8001dd4 <HAL_RCC_OscConfig+0x240>)
 8001c24:	f443 3380 	orr.w	r3, r3, #65536	; 0x10000
 8001c28:	6013      	str	r3, [r2, #0]
 8001c2a:	e00b      	b.n	8001c44 <HAL_RCC_OscConfig+0xb0>
 8001c2c:	4b69      	ldr	r3, [pc, #420]	; (8001dd4 <HAL_RCC_OscConfig+0x240>)
 8001c2e:	681b      	ldr	r3, [r3, #0]
 8001c30:	4a68      	ldr	r2, [pc, #416]	; (8001dd4 <HAL_RCC_OscConfig+0x240>)
 8001c32:	f423 3380 	bic.w	r3, r3, #65536	; 0x10000
 8001c36:	6013      	str	r3, [r2, #0]
 8001c38:	4b66      	ldr	r3, [pc, #408]	; (8001dd4 <HAL_RCC_OscConfig+0x240>)
 8001c3a:	681b      	ldr	r3, [r3, #0]
 8001c3c:	4a65      	ldr	r2, [pc, #404]	; (8001dd4 <HAL_RCC_OscConfig+0x240>)
 8001c3e:	f423 2380 	bic.w	r3, r3, #262144	; 0x40000
 8001c42:	6013      	str	r3, [r2, #0]

      /* Check the HSE State */
      if((RCC_OscInitStruct->HSEState) != RCC_HSE_OFF)
 8001c44:	687b      	ldr	r3, [r7, #4]
 8001c46:	685b      	ldr	r3, [r3, #4]
 8001c48:	2b00      	cmp	r3, #0
 8001c4a:	d013      	beq.n	8001c74 <HAL_RCC_OscConfig+0xe0>
      {
        /* Get Start Tick */
        tickstart = HAL_GetTick();
 8001c4c:	f7ff fc30 	bl	80014b0 <HAL_GetTick>
 8001c50:	6138      	str	r0, [r7, #16]

        /* Wait till HSE is ready */
        while(__HAL_RCC_GET_FLAG(RCC_FLAG_HSERDY) == RESET)
 8001c52:	e008      	b.n	8001c66 <HAL_RCC_OscConfig+0xd2>
        {
          if((HAL_GetTick() - tickstart ) > HSE_TIMEOUT_VALUE)
 8001c54:	f7ff fc2c 	bl	80014b0 <HAL_GetTick>
 8001c58:	4602      	mov	r2, r0
 8001c5a:	693b      	ldr	r3, [r7, #16]
 8001c5c:	1ad3      	subs	r3, r2, r3
 8001c5e:	2b64      	cmp	r3, #100	; 0x64
 8001c60:	d901      	bls.n	8001c66 <HAL_RCC_OscConfig+0xd2>
          {
            return HAL_TIMEOUT;
 8001c62:	2303      	movs	r3, #3
 8001c64:	e207      	b.n	8002076 <HAL_RCC_OscConfig+0x4e2>
        while(__HAL_RCC_GET_FLAG(RCC_FLAG_HSERDY) == RESET)
 8001c66:	4b5b      	ldr	r3, [pc, #364]	; (8001dd4 <HAL_RCC_OscConfig+0x240>)
 8001c68:	681b      	ldr	r3, [r3, #0]
 8001c6a:	f403 3300 	and.w	r3, r3, #131072	; 0x20000
 8001c6e:	2b00      	cmp	r3, #0
 8001c70:	d0f0      	beq.n	8001c54 <HAL_RCC_OscConfig+0xc0>
 8001c72:	e014      	b.n	8001c9e <HAL_RCC_OscConfig+0x10a>
        }
      }
      else
      {
        /* Get Start Tick */
        tickstart = HAL_GetTick();
 8001c74:	f7ff fc1c 	bl	80014b0 <HAL_GetTick>
 8001c78:	6138      	str	r0, [r7, #16]

        /* Wait till HSE is bypassed or disabled */
        while(__HAL_RCC_GET_FLAG(RCC_FLAG_HSERDY) != RESET)
 8001c7a:	e008      	b.n	8001c8e <HAL_RCC_OscConfig+0xfa>
        {
          if((HAL_GetTick() - tickstart ) > HSE_TIMEOUT_VALUE)
 8001c7c:	f7ff fc18 	bl	80014b0 <HAL_GetTick>
 8001c80:	4602      	mov	r2, r0
 8001c82:	693b      	ldr	r3, [r7, #16]
 8001c84:	1ad3      	subs	r3, r2, r3
 8001c86:	2b64      	cmp	r3, #100	; 0x64
 8001c88:	d901      	bls.n	8001c8e <HAL_RCC_OscConfig+0xfa>
          {
            return HAL_TIMEOUT;
 8001c8a:	2303      	movs	r3, #3
 8001c8c:	e1f3      	b.n	8002076 <HAL_RCC_OscConfig+0x4e2>
        while(__HAL_RCC_GET_FLAG(RCC_FLAG_HSERDY) != RESET)
 8001c8e:	4b51      	ldr	r3, [pc, #324]	; (8001dd4 <HAL_RCC_OscConfig+0x240>)
 8001c90:	681b      	ldr	r3, [r3, #0]
 8001c92:	f403 3300 	and.w	r3, r3, #131072	; 0x20000
 8001c96:	2b00      	cmp	r3, #0
 8001c98:	d1f0      	bne.n	8001c7c <HAL_RCC_OscConfig+0xe8>
 8001c9a:	e000      	b.n	8001c9e <HAL_RCC_OscConfig+0x10a>
      if((__HAL_RCC_GET_FLAG(RCC_FLAG_HSERDY) != RESET) && (RCC_OscInitStruct->HSEState == RCC_HSE_OFF))
 8001c9c:	bf00      	nop
        }
      }
    }
  }
  /*----------------------------- HSI Configuration --------------------------*/
  if(((RCC_OscInitStruct->OscillatorType) & RCC_OSCILLATORTYPE_HSI) == RCC_OSCILLATORTYPE_HSI)
 8001c9e:	687b      	ldr	r3, [r7, #4]
 8001ca0:	681b      	ldr	r3, [r3, #0]
 8001ca2:	f003 0302 	and.w	r3, r3, #2
 8001ca6:	2b00      	cmp	r3, #0
 8001ca8:	d063      	beq.n	8001d72 <HAL_RCC_OscConfig+0x1de>
    /* Check the parameters */
    assert_param(IS_RCC_HSI(RCC_OscInitStruct->HSIState));
    assert_param(IS_RCC_CALIBRATION_VALUE(RCC_OscInitStruct->HSICalibrationValue));

    /* Check if HSI is used as system clock or as PLL source when PLL is selected as system clock */
    if((__HAL_RCC_GET_SYSCLK_SOURCE() == RCC_CFGR_SWS_HSI) ||\
 8001caa:	4b4a      	ldr	r3, [pc, #296]	; (8001dd4 <HAL_RCC_OscConfig+0x240>)
 8001cac:	689b      	ldr	r3, [r3, #8]
 8001cae:	f003 030c 	and.w	r3, r3, #12
 8001cb2:	2b00      	cmp	r3, #0
 8001cb4:	d00b      	beq.n	8001cce <HAL_RCC_OscConfig+0x13a>
      ((__HAL_RCC_GET_SYSCLK_SOURCE() == RCC_CFGR_SWS_PLL) && ((RCC->PLLCFGR & RCC_PLLCFGR_PLLSRC) == RCC_PLLCFGR_PLLSRC_HSI)))
 8001cb6:	4b47      	ldr	r3, [pc, #284]	; (8001dd4 <HAL_RCC_OscConfig+0x240>)
 8001cb8:	689b      	ldr	r3, [r3, #8]
 8001cba:	f003 030c 	and.w	r3, r3, #12
    if((__HAL_RCC_GET_SYSCLK_SOURCE() == RCC_CFGR_SWS_HSI) ||\
 8001cbe:	2b08      	cmp	r3, #8
 8001cc0:	d11c      	bne.n	8001cfc <HAL_RCC_OscConfig+0x168>
      ((__HAL_RCC_GET_SYSCLK_SOURCE() == RCC_CFGR_SWS_PLL) && ((RCC->PLLCFGR & RCC_PLLCFGR_PLLSRC) == RCC_PLLCFGR_PLLSRC_HSI)))
 8001cc2:	4b44      	ldr	r3, [pc, #272]	; (8001dd4 <HAL_RCC_OscConfig+0x240>)
 8001cc4:	685b      	ldr	r3, [r3, #4]
 8001cc6:	f403 0380 	and.w	r3, r3, #4194304	; 0x400000
 8001cca:	2b00      	cmp	r3, #0
 8001ccc:	d116      	bne.n	8001cfc <HAL_RCC_OscConfig+0x168>
    {
      /* When HSI is used as system clock it will not disabled */
      if((__HAL_RCC_GET_FLAG(RCC_FLAG_HSIRDY) != RESET) && (RCC_OscInitStruct->HSIState != RCC_HSI_ON))
 8001cce:	4b41      	ldr	r3, [pc, #260]	; (8001dd4 <HAL_RCC_OscConfig+0x240>)
 8001cd0:	681b      	ldr	r3, [r3, #0]
 8001cd2:	f003 0302 	and.w	r3, r3, #2
 8001cd6:	2b00      	cmp	r3, #0
 8001cd8:	d005      	beq.n	8001ce6 <HAL_RCC_OscConfig+0x152>
 8001cda:	687b      	ldr	r3, [r7, #4]
 8001cdc:	68db      	ldr	r3, [r3, #12]
 8001cde:	2b01      	cmp	r3, #1
 8001ce0:	d001      	beq.n	8001ce6 <HAL_RCC_OscConfig+0x152>
      {
        return HAL_ERROR;
 8001ce2:	2301      	movs	r3, #1
 8001ce4:	e1c7      	b.n	8002076 <HAL_RCC_OscConfig+0x4e2>
      }
      /* Otherwise, just the calibration is allowed */
      else
      {
        /* Adjusts the Internal High Speed oscillator (HSI) calibration value.*/
        __HAL_RCC_HSI_CALIBRATIONVALUE_ADJUST(RCC_OscInitStruct->HSICalibrationValue);
 8001ce6:	4b3b      	ldr	r3, [pc, #236]	; (8001dd4 <HAL_RCC_OscConfig+0x240>)
 8001ce8:	681b      	ldr	r3, [r3, #0]
 8001cea:	f023 02f8 	bic.w	r2, r3, #248	; 0xf8
 8001cee:	687b      	ldr	r3, [r7, #4]
 8001cf0:	691b      	ldr	r3, [r3, #16]
 8001cf2:	00db      	lsls	r3, r3, #3
 8001cf4:	4937      	ldr	r1, [pc, #220]	; (8001dd4 <HAL_RCC_OscConfig+0x240>)
 8001cf6:	4313      	orrs	r3, r2
 8001cf8:	600b      	str	r3, [r1, #0]
      if((__HAL_RCC_GET_FLAG(RCC_FLAG_HSIRDY) != RESET) && (RCC_OscInitStruct->HSIState != RCC_HSI_ON))
 8001cfa:	e03a      	b.n	8001d72 <HAL_RCC_OscConfig+0x1de>
      }
    }
    else
    {
      /* Check the HSI State */
      if((RCC_OscInitStruct->HSIState)!= RCC_HSI_OFF)
 8001cfc:	687b      	ldr	r3, [r7, #4]
 8001cfe:	68db      	ldr	r3, [r3, #12]
 8001d00:	2b00      	cmp	r3, #0
 8001d02:	d020      	beq.n	8001d46 <HAL_RCC_OscConfig+0x1b2>
      {
        /* Enable the Internal High Speed oscillator (HSI). */
        __HAL_RCC_HSI_ENABLE();
 8001d04:	4b34      	ldr	r3, [pc, #208]	; (8001dd8 <HAL_RCC_OscConfig+0x244>)
 8001d06:	2201      	movs	r2, #1
 8001d08:	601a      	str	r2, [r3, #0]

        /* Get Start Tick*/
        tickstart = HAL_GetTick();
 8001d0a:	f7ff fbd1 	bl	80014b0 <HAL_GetTick>
 8001d0e:	6138      	str	r0, [r7, #16]

        /* Wait till HSI is ready */
        while(__HAL_RCC_GET_FLAG(RCC_FLAG_HSIRDY) == RESET)
 8001d10:	e008      	b.n	8001d24 <HAL_RCC_OscConfig+0x190>
        {
          if((HAL_GetTick() - tickstart ) > HSI_TIMEOUT_VALUE)
 8001d12:	f7ff fbcd 	bl	80014b0 <HAL_GetTick>
 8001d16:	4602      	mov	r2, r0
 8001d18:	693b      	ldr	r3, [r7, #16]
 8001d1a:	1ad3      	subs	r3, r2, r3
 8001d1c:	2b02      	cmp	r3, #2
 8001d1e:	d901      	bls.n	8001d24 <HAL_RCC_OscConfig+0x190>
          {
            return HAL_TIMEOUT;
 8001d20:	2303      	movs	r3, #3
 8001d22:	e1a8      	b.n	8002076 <HAL_RCC_OscConfig+0x4e2>
        while(__HAL_RCC_GET_FLAG(RCC_FLAG_HSIRDY) == RESET)
 8001d24:	4b2b      	ldr	r3, [pc, #172]	; (8001dd4 <HAL_RCC_OscConfig+0x240>)
 8001d26:	681b      	ldr	r3, [r3, #0]
 8001d28:	f003 0302 	and.w	r3, r3, #2
 8001d2c:	2b00      	cmp	r3, #0
 8001d2e:	d0f0      	beq.n	8001d12 <HAL_RCC_OscConfig+0x17e>
          }
        }

        /* Adjusts the Internal High Speed oscillator (HSI) calibration value. */
        __HAL_RCC_HSI_CALIBRATIONVALUE_ADJUST(RCC_OscInitStruct->HSICalibrationValue);
 8001d30:	4b28      	ldr	r3, [pc, #160]	; (8001dd4 <HAL_RCC_OscConfig+0x240>)
 8001d32:	681b      	ldr	r3, [r3, #0]
 8001d34:	f023 02f8 	bic.w	r2, r3, #248	; 0xf8
 8001d38:	687b      	ldr	r3, [r7, #4]
 8001d3a:	691b      	ldr	r3, [r3, #16]
 8001d3c:	00db      	lsls	r3, r3, #3
 8001d3e:	4925      	ldr	r1, [pc, #148]	; (8001dd4 <HAL_RCC_OscConfig+0x240>)
 8001d40:	4313      	orrs	r3, r2
 8001d42:	600b      	str	r3, [r1, #0]
 8001d44:	e015      	b.n	8001d72 <HAL_RCC_OscConfig+0x1de>
      }
      else
      {
        /* Disable the Internal High Speed oscillator (HSI). */
        __HAL_RCC_HSI_DISABLE();
 8001d46:	4b24      	ldr	r3, [pc, #144]	; (8001dd8 <HAL_RCC_OscConfig+0x244>)
 8001d48:	2200      	movs	r2, #0
 8001d4a:	601a      	str	r2, [r3, #0]

        /* Get Start Tick*/
        tickstart = HAL_GetTick();
 8001d4c:	f7ff fbb0 	bl	80014b0 <HAL_GetTick>
 8001d50:	6138      	str	r0, [r7, #16]

        /* Wait till HSI is ready */
        while(__HAL_RCC_GET_FLAG(RCC_FLAG_HSIRDY) != RESET)
 8001d52:	e008      	b.n	8001d66 <HAL_RCC_OscConfig+0x1d2>
        {
          if((HAL_GetTick() - tickstart ) > HSI_TIMEOUT_VALUE)
 8001d54:	f7ff fbac 	bl	80014b0 <HAL_GetTick>
 8001d58:	4602      	mov	r2, r0
 8001d5a:	693b      	ldr	r3, [r7, #16]
 8001d5c:	1ad3      	subs	r3, r2, r3
 8001d5e:	2b02      	cmp	r3, #2
 8001d60:	d901      	bls.n	8001d66 <HAL_RCC_OscConfig+0x1d2>
          {
            return HAL_TIMEOUT;
 8001d62:	2303      	movs	r3, #3
 8001d64:	e187      	b.n	8002076 <HAL_RCC_OscConfig+0x4e2>
        while(__HAL_RCC_GET_FLAG(RCC_FLAG_HSIRDY) != RESET)
 8001d66:	4b1b      	ldr	r3, [pc, #108]	; (8001dd4 <HAL_RCC_OscConfig+0x240>)
 8001d68:	681b      	ldr	r3, [r3, #0]
 8001d6a:	f003 0302 	and.w	r3, r3, #2
 8001d6e:	2b00      	cmp	r3, #0
 8001d70:	d1f0      	bne.n	8001d54 <HAL_RCC_OscConfig+0x1c0>
        }
      }
    }
  }
  /*------------------------------ LSI Configuration -------------------------*/
  if(((RCC_OscInitStruct->OscillatorType) & RCC_OSCILLATORTYPE_LSI) == RCC_OSCILLATORTYPE_LSI)
 8001d72:	687b      	ldr	r3, [r7, #4]
 8001d74:	681b      	ldr	r3, [r3, #0]
 8001d76:	f003 0308 	and.w	r3, r3, #8
 8001d7a:	2b00      	cmp	r3, #0
 8001d7c:	d036      	beq.n	8001dec <HAL_RCC_OscConfig+0x258>
  {
    /* Check the parameters */
    assert_param(IS_RCC_LSI(RCC_OscInitStruct->LSIState));

    /* Check the LSI State */
    if((RCC_OscInitStruct->LSIState)!= RCC_LSI_OFF)
 8001d7e:	687b      	ldr	r3, [r7, #4]
 8001d80:	695b      	ldr	r3, [r3, #20]
 8001d82:	2b00      	cmp	r3, #0
 8001d84:	d016      	beq.n	8001db4 <HAL_RCC_OscConfig+0x220>
    {
      /* Enable the Internal Low Speed oscillator (LSI). */
      __HAL_RCC_LSI_ENABLE();
 8001d86:	4b15      	ldr	r3, [pc, #84]	; (8001ddc <HAL_RCC_OscConfig+0x248>)
 8001d88:	2201      	movs	r2, #1
 8001d8a:	601a      	str	r2, [r3, #0]

      /* Get Start Tick*/
      tickstart = HAL_GetTick();
 8001d8c:	f7ff fb90 	bl	80014b0 <HAL_GetTick>
 8001d90:	6138      	str	r0, [r7, #16]

      /* Wait till LSI is ready */
      while(__HAL_RCC_GET_FLAG(RCC_FLAG_LSIRDY) == RESET)
 8001d92:	e008      	b.n	8001da6 <HAL_RCC_OscConfig+0x212>
      {
        if((HAL_GetTick() - tickstart ) > LSI_TIMEOUT_VALUE)
 8001d94:	f7ff fb8c 	bl	80014b0 <HAL_GetTick>
 8001d98:	4602      	mov	r2, r0
 8001d9a:	693b      	ldr	r3, [r7, #16]
 8001d9c:	1ad3      	subs	r3, r2, r3
 8001d9e:	2b02      	cmp	r3, #2
 8001da0:	d901      	bls.n	8001da6 <HAL_RCC_OscConfig+0x212>
        {
          return HAL_TIMEOUT;
 8001da2:	2303      	movs	r3, #3
 8001da4:	e167      	b.n	8002076 <HAL_RCC_OscConfig+0x4e2>
      while(__HAL_RCC_GET_FLAG(RCC_FLAG_LSIRDY) == RESET)
 8001da6:	4b0b      	ldr	r3, [pc, #44]	; (8001dd4 <HAL_RCC_OscConfig+0x240>)
 8001da8:	6f5b      	ldr	r3, [r3, #116]	; 0x74
 8001daa:	f003 0302 	and.w	r3, r3, #2
 8001dae:	2b00      	cmp	r3, #0
 8001db0:	d0f0      	beq.n	8001d94 <HAL_RCC_OscConfig+0x200>
 8001db2:	e01b      	b.n	8001dec <HAL_RCC_OscConfig+0x258>
      }
    }
    else
    {
      /* Disable the Internal Low Speed oscillator (LSI). */
      __HAL_RCC_LSI_DISABLE();
 8001db4:	4b09      	ldr	r3, [pc, #36]	; (8001ddc <HAL_RCC_OscConfig+0x248>)
 8001db6:	2200      	movs	r2, #0
 8001db8:	601a      	str	r2, [r3, #0]

      /* Get Start Tick */
      tickstart = HAL_GetTick();
 8001dba:	f7ff fb79 	bl	80014b0 <HAL_GetTick>
 8001dbe:	6138      	str	r0, [r7, #16]

      /* Wait till LSI is ready */
      while(__HAL_RCC_GET_FLAG(RCC_FLAG_LSIRDY) != RESET)
 8001dc0:	e00e      	b.n	8001de0 <HAL_RCC_OscConfig+0x24c>
      {
        if((HAL_GetTick() - tickstart ) > LSI_TIMEOUT_VALUE)
 8001dc2:	f7ff fb75 	bl	80014b0 <HAL_GetTick>
 8001dc6:	4602      	mov	r2, r0
 8001dc8:	693b      	ldr	r3, [r7, #16]
 8001dca:	1ad3      	subs	r3, r2, r3
 8001dcc:	2b02      	cmp	r3, #2
 8001dce:	d907      	bls.n	8001de0 <HAL_RCC_OscConfig+0x24c>
        {
          return HAL_TIMEOUT;
 8001dd0:	2303      	movs	r3, #3
 8001dd2:	e150      	b.n	8002076 <HAL_RCC_OscConfig+0x4e2>
 8001dd4:	40023800 	.word	0x40023800
 8001dd8:	42470000 	.word	0x42470000
 8001ddc:	42470e80 	.word	0x42470e80
      while(__HAL_RCC_GET_FLAG(RCC_FLAG_LSIRDY) != RESET)
 8001de0:	4b88      	ldr	r3, [pc, #544]	; (8002004 <HAL_RCC_OscConfig+0x470>)
 8001de2:	6f5b      	ldr	r3, [r3, #116]	; 0x74
 8001de4:	f003 0302 	and.w	r3, r3, #2
 8001de8:	2b00      	cmp	r3, #0
 8001dea:	d1ea      	bne.n	8001dc2 <HAL_RCC_OscConfig+0x22e>
        }
      }
    }
  }
  /*------------------------------ LSE Configuration -------------------------*/
  if(((RCC_OscInitStruct->OscillatorType) & RCC_OSCILLATORTYPE_LSE) == RCC_OSCILLATORTYPE_LSE)
 8001dec:	687b      	ldr	r3, [r7, #4]
 8001dee:	681b      	ldr	r3, [r3, #0]
 8001df0:	f003 0304 	and.w	r3, r3, #4
 8001df4:	2b00      	cmp	r3, #0
 8001df6:	f000 8097 	beq.w	8001f28 <HAL_RCC_OscConfig+0x394>
  {
    FlagStatus       pwrclkchanged = RESET;
 8001dfa:	2300      	movs	r3, #0
 8001dfc:	75fb      	strb	r3, [r7, #23]
    /* Check the parameters */
    assert_param(IS_RCC_LSE(RCC_OscInitStruct->LSEState));

    /* Update LSE configuration in Backup Domain control register    */
    /* Requires to enable write access to Backup Domain of necessary */
    if(__HAL_RCC_PWR_IS_CLK_DISABLED())
 8001dfe:	4b81      	ldr	r3, [pc, #516]	; (8002004 <HAL_RCC_OscConfig+0x470>)
 8001e00:	6c1b      	ldr	r3, [r3, #64]	; 0x40
 8001e02:	f003 5380 	and.w	r3, r3, #268435456	; 0x10000000
 8001e06:	2b00      	cmp	r3, #0
 8001e08:	d10f      	bne.n	8001e2a <HAL_RCC_OscConfig+0x296>
    {
      __HAL_RCC_PWR_CLK_ENABLE();
 8001e0a:	2300      	movs	r3, #0
 8001e0c:	60bb      	str	r3, [r7, #8]
 8001e0e:	4b7d      	ldr	r3, [pc, #500]	; (8002004 <HAL_RCC_OscConfig+0x470>)
 8001e10:	6c1b      	ldr	r3, [r3, #64]	; 0x40
 8001e12:	4a7c      	ldr	r2, [pc, #496]	; (8002004 <HAL_RCC_OscConfig+0x470>)
 8001e14:	f043 5380 	orr.w	r3, r3, #268435456	; 0x10000000
 8001e18:	6413      	str	r3, [r2, #64]	; 0x40
 8001e1a:	4b7a      	ldr	r3, [pc, #488]	; (8002004 <HAL_RCC_OscConfig+0x470>)
 8001e1c:	6c1b      	ldr	r3, [r3, #64]	; 0x40
 8001e1e:	f003 5380 	and.w	r3, r3, #268435456	; 0x10000000
 8001e22:	60bb      	str	r3, [r7, #8]
 8001e24:	68bb      	ldr	r3, [r7, #8]
      pwrclkchanged = SET;
 8001e26:	2301      	movs	r3, #1
 8001e28:	75fb      	strb	r3, [r7, #23]
    }

    if(HAL_IS_BIT_CLR(PWR->CR, PWR_CR_DBP))
 8001e2a:	4b77      	ldr	r3, [pc, #476]	; (8002008 <HAL_RCC_OscConfig+0x474>)
 8001e2c:	681b      	ldr	r3, [r3, #0]
 8001e2e:	f403 7380 	and.w	r3, r3, #256	; 0x100
 8001e32:	2b00      	cmp	r3, #0
 8001e34:	d118      	bne.n	8001e68 <HAL_RCC_OscConfig+0x2d4>
    {
      /* Enable write access to Backup domain */
      SET_BIT(PWR->CR, PWR_CR_DBP);
 8001e36:	4b74      	ldr	r3, [pc, #464]	; (8002008 <HAL_RCC_OscConfig+0x474>)
 8001e38:	681b      	ldr	r3, [r3, #0]
 8001e3a:	4a73      	ldr	r2, [pc, #460]	; (8002008 <HAL_RCC_OscConfig+0x474>)
 8001e3c:	f443 7380 	orr.w	r3, r3, #256	; 0x100
 8001e40:	6013      	str	r3, [r2, #0]

      /* Wait for Backup domain Write protection disable */
      tickstart = HAL_GetTick();
 8001e42:	f7ff fb35 	bl	80014b0 <HAL_GetTick>
 8001e46:	6138      	str	r0, [r7, #16]

      while(HAL_IS_BIT_CLR(PWR->CR, PWR_CR_DBP))
 8001e48:	e008      	b.n	8001e5c <HAL_RCC_OscConfig+0x2c8>
      {
        if((HAL_GetTick() - tickstart) > RCC_DBP_TIMEOUT_VALUE)
 8001e4a:	f7ff fb31 	bl	80014b0 <HAL_GetTick>
 8001e4e:	4602      	mov	r2, r0
 8001e50:	693b      	ldr	r3, [r7, #16]
 8001e52:	1ad3      	subs	r3, r2, r3
 8001e54:	2b02      	cmp	r3, #2
 8001e56:	d901      	bls.n	8001e5c <HAL_RCC_OscConfig+0x2c8>
        {
          return HAL_TIMEOUT;
 8001e58:	2303      	movs	r3, #3
 8001e5a:	e10c      	b.n	8002076 <HAL_RCC_OscConfig+0x4e2>
      while(HAL_IS_BIT_CLR(PWR->CR, PWR_CR_DBP))
 8001e5c:	4b6a      	ldr	r3, [pc, #424]	; (8002008 <HAL_RCC_OscConfig+0x474>)
 8001e5e:	681b      	ldr	r3, [r3, #0]
 8001e60:	f403 7380 	and.w	r3, r3, #256	; 0x100
 8001e64:	2b00      	cmp	r3, #0
 8001e66:	d0f0      	beq.n	8001e4a <HAL_RCC_OscConfig+0x2b6>
        }
      }
    }

    /* Set the new LSE configuration -----------------------------------------*/
    __HAL_RCC_LSE_CONFIG(RCC_OscInitStruct->LSEState);
 8001e68:	687b      	ldr	r3, [r7, #4]
 8001e6a:	689b      	ldr	r3, [r3, #8]
 8001e6c:	2b01      	cmp	r3, #1
 8001e6e:	d106      	bne.n	8001e7e <HAL_RCC_OscConfig+0x2ea>
 8001e70:	4b64      	ldr	r3, [pc, #400]	; (8002004 <HAL_RCC_OscConfig+0x470>)
 8001e72:	6f1b      	ldr	r3, [r3, #112]	; 0x70
 8001e74:	4a63      	ldr	r2, [pc, #396]	; (8002004 <HAL_RCC_OscConfig+0x470>)
 8001e76:	f043 0301 	orr.w	r3, r3, #1
 8001e7a:	6713      	str	r3, [r2, #112]	; 0x70
 8001e7c:	e01c      	b.n	8001eb8 <HAL_RCC_OscConfig+0x324>
 8001e7e:	687b      	ldr	r3, [r7, #4]
 8001e80:	689b      	ldr	r3, [r3, #8]
 8001e82:	2b05      	cmp	r3, #5
 8001e84:	d10c      	bne.n	8001ea0 <HAL_RCC_OscConfig+0x30c>
 8001e86:	4b5f      	ldr	r3, [pc, #380]	; (8002004 <HAL_RCC_OscConfig+0x470>)
 8001e88:	6f1b      	ldr	r3, [r3, #112]	; 0x70
 8001e8a:	4a5e      	ldr	r2, [pc, #376]	; (8002004 <HAL_RCC_OscConfig+0x470>)
 8001e8c:	f043 0304 	orr.w	r3, r3, #4
 8001e90:	6713      	str	r3, [r2, #112]	; 0x70
 8001e92:	4b5c      	ldr	r3, [pc, #368]	; (8002004 <HAL_RCC_OscConfig+0x470>)
 8001e94:	6f1b      	ldr	r3, [r3, #112]	; 0x70
 8001e96:	4a5b      	ldr	r2, [pc, #364]	; (8002004 <HAL_RCC_OscConfig+0x470>)
 8001e98:	f043 0301 	orr.w	r3, r3, #1
 8001e9c:	6713      	str	r3, [r2, #112]	; 0x70
 8001e9e:	e00b      	b.n	8001eb8 <HAL_RCC_OscConfig+0x324>
 8001ea0:	4b58      	ldr	r3, [pc, #352]	; (8002004 <HAL_RCC_OscConfig+0x470>)
 8001ea2:	6f1b      	ldr	r3, [r3, #112]	; 0x70
 8001ea4:	4a57      	ldr	r2, [pc, #348]	; (8002004 <HAL_RCC_OscConfig+0x470>)
 8001ea6:	f023 0301 	bic.w	r3, r3, #1
 8001eaa:	6713      	str	r3, [r2, #112]	; 0x70
 8001eac:	4b55      	ldr	r3, [pc, #340]	; (8002004 <HAL_RCC_OscConfig+0x470>)
 8001eae:	6f1b      	ldr	r3, [r3, #112]	; 0x70
 8001eb0:	4a54      	ldr	r2, [pc, #336]	; (8002004 <HAL_RCC_OscConfig+0x470>)
 8001eb2:	f023 0304 	bic.w	r3, r3, #4
 8001eb6:	6713      	str	r3, [r2, #112]	; 0x70
    /* Check the LSE State */
    if((RCC_OscInitStruct->LSEState) != RCC_LSE_OFF)
 8001eb8:	687b      	ldr	r3, [r7, #4]
 8001eba:	689b      	ldr	r3, [r3, #8]
 8001ebc:	2b00      	cmp	r3, #0
 8001ebe:	d015      	beq.n	8001eec <HAL_RCC_OscConfig+0x358>
    {
      /* Get Start Tick*/
      tickstart = HAL_GetTick();
 8001ec0:	f7ff faf6 	bl	80014b0 <HAL_GetTick>
 8001ec4:	6138      	str	r0, [r7, #16]

      /* Wait till LSE is ready */
      while(__HAL_RCC_GET_FLAG(RCC_FLAG_LSERDY) == RESET)
 8001ec6:	e00a      	b.n	8001ede <HAL_RCC_OscConfig+0x34a>
      {
        if((HAL_GetTick() - tickstart ) > RCC_LSE_TIMEOUT_VALUE)
 8001ec8:	f7ff faf2 	bl	80014b0 <HAL_GetTick>
 8001ecc:	4602      	mov	r2, r0
 8001ece:	693b      	ldr	r3, [r7, #16]
 8001ed0:	1ad3      	subs	r3, r2, r3
 8001ed2:	f241 3288 	movw	r2, #5000	; 0x1388
 8001ed6:	4293      	cmp	r3, r2
 8001ed8:	d901      	bls.n	8001ede <HAL_RCC_OscConfig+0x34a>
        {
          return HAL_TIMEOUT;
 8001eda:	2303      	movs	r3, #3
 8001edc:	e0cb      	b.n	8002076 <HAL_RCC_OscConfig+0x4e2>
      while(__HAL_RCC_GET_FLAG(RCC_FLAG_LSERDY) == RESET)
 8001ede:	4b49      	ldr	r3, [pc, #292]	; (8002004 <HAL_RCC_OscConfig+0x470>)
 8001ee0:	6f1b      	ldr	r3, [r3, #112]	; 0x70
 8001ee2:	f003 0302 	and.w	r3, r3, #2
 8001ee6:	2b00      	cmp	r3, #0
 8001ee8:	d0ee      	beq.n	8001ec8 <HAL_RCC_OscConfig+0x334>
 8001eea:	e014      	b.n	8001f16 <HAL_RCC_OscConfig+0x382>
      }
    }
    else
    {
      /* Get Start Tick */
      tickstart = HAL_GetTick();
 8001eec:	f7ff fae0 	bl	80014b0 <HAL_GetTick>
 8001ef0:	6138      	str	r0, [r7, #16]

      /* Wait till LSE is ready */
      while(__HAL_RCC_GET_FLAG(RCC_FLAG_LSERDY) != RESET)
 8001ef2:	e00a      	b.n	8001f0a <HAL_RCC_OscConfig+0x376>
      {
        if((HAL_GetTick() - tickstart ) > RCC_LSE_TIMEOUT_VALUE)
 8001ef4:	f7ff fadc 	bl	80014b0 <HAL_GetTick>
 8001ef8:	4602      	mov	r2, r0
 8001efa:	693b      	ldr	r3, [r7, #16]
 8001efc:	1ad3      	subs	r3, r2, r3
 8001efe:	f241 3288 	movw	r2, #5000	; 0x1388
 8001f02:	4293      	cmp	r3, r2
 8001f04:	d901      	bls.n	8001f0a <HAL_RCC_OscConfig+0x376>
        {
          return HAL_TIMEOUT;
 8001f06:	2303      	movs	r3, #3
 8001f08:	e0b5      	b.n	8002076 <HAL_RCC_OscConfig+0x4e2>
      while(__HAL_RCC_GET_FLAG(RCC_FLAG_LSERDY) != RESET)
 8001f0a:	4b3e      	ldr	r3, [pc, #248]	; (8002004 <HAL_RCC_OscConfig+0x470>)
 8001f0c:	6f1b      	ldr	r3, [r3, #112]	; 0x70
 8001f0e:	f003 0302 	and.w	r3, r3, #2
 8001f12:	2b00      	cmp	r3, #0
 8001f14:	d1ee      	bne.n	8001ef4 <HAL_RCC_OscConfig+0x360>
        }
      }
    }

    /* Restore clock configuration if changed */
    if(pwrclkchanged == SET)
 8001f16:	7dfb      	ldrb	r3, [r7, #23]
 8001f18:	2b01      	cmp	r3, #1
 8001f1a:	d105      	bne.n	8001f28 <HAL_RCC_OscConfig+0x394>
    {
      __HAL_RCC_PWR_CLK_DISABLE();
 8001f1c:	4b39      	ldr	r3, [pc, #228]	; (8002004 <HAL_RCC_OscConfig+0x470>)
 8001f1e:	6c1b      	ldr	r3, [r3, #64]	; 0x40
 8001f20:	4a38      	ldr	r2, [pc, #224]	; (8002004 <HAL_RCC_OscConfig+0x470>)
 8001f22:	f023 5380 	bic.w	r3, r3, #268435456	; 0x10000000
 8001f26:	6413      	str	r3, [r2, #64]	; 0x40
    }
  }
  /*-------------------------------- PLL Configuration -----------------------*/
  /* Check the parameters */
  assert_param(IS_RCC_PLL(RCC_OscInitStruct->PLL.PLLState));
  if ((RCC_OscInitStruct->PLL.PLLState) != RCC_PLL_NONE)
 8001f28:	687b      	ldr	r3, [r7, #4]
 8001f2a:	699b      	ldr	r3, [r3, #24]
 8001f2c:	2b00      	cmp	r3, #0
 8001f2e:	f000 80a1 	beq.w	8002074 <HAL_RCC_OscConfig+0x4e0>
  {
    /* Check if the PLL is used as system clock or not */
    if(__HAL_RCC_GET_SYSCLK_SOURCE() != RCC_CFGR_SWS_PLL)
 8001f32:	4b34      	ldr	r3, [pc, #208]	; (8002004 <HAL_RCC_OscConfig+0x470>)
 8001f34:	689b      	ldr	r3, [r3, #8]
 8001f36:	f003 030c 	and.w	r3, r3, #12
 8001f3a:	2b08      	cmp	r3, #8
 8001f3c:	d05c      	beq.n	8001ff8 <HAL_RCC_OscConfig+0x464>
    {
      if((RCC_OscInitStruct->PLL.PLLState) == RCC_PLL_ON)
 8001f3e:	687b      	ldr	r3, [r7, #4]
 8001f40:	699b      	ldr	r3, [r3, #24]
 8001f42:	2b02      	cmp	r3, #2
 8001f44:	d141      	bne.n	8001fca <HAL_RCC_OscConfig+0x436>
        assert_param(IS_RCC_PLLN_VALUE(RCC_OscInitStruct->PLL.PLLN));
        assert_param(IS_RCC_PLLP_VALUE(RCC_OscInitStruct->PLL.PLLP));
        assert_param(IS_RCC_PLLQ_VALUE(RCC_OscInitStruct->PLL.PLLQ));

        /* Disable the main PLL. */
        __HAL_RCC_PLL_DISABLE();
 8001f46:	4b31      	ldr	r3, [pc, #196]	; (800200c <HAL_RCC_OscConfig+0x478>)
 8001f48:	2200      	movs	r2, #0
 8001f4a:	601a      	str	r2, [r3, #0]

        /* Get Start Tick */
        tickstart = HAL_GetTick();
 8001f4c:	f7ff fab0 	bl	80014b0 <HAL_GetTick>
 8001f50:	6138      	str	r0, [r7, #16]

        /* Wait till PLL is ready */
        while(__HAL_RCC_GET_FLAG(RCC_FLAG_PLLRDY) != RESET)
 8001f52:	e008      	b.n	8001f66 <HAL_RCC_OscConfig+0x3d2>
        {
          if((HAL_GetTick() - tickstart ) > PLL_TIMEOUT_VALUE)
 8001f54:	f7ff faac 	bl	80014b0 <HAL_GetTick>
 8001f58:	4602      	mov	r2, r0
 8001f5a:	693b      	ldr	r3, [r7, #16]
 8001f5c:	1ad3      	subs	r3, r2, r3
 8001f5e:	2b02      	cmp	r3, #2
 8001f60:	d901      	bls.n	8001f66 <HAL_RCC_OscConfig+0x3d2>
          {
            return HAL_TIMEOUT;
 8001f62:	2303      	movs	r3, #3
 8001f64:	e087      	b.n	8002076 <HAL_RCC_OscConfig+0x4e2>
        while(__HAL_RCC_GET_FLAG(RCC_FLAG_PLLRDY) != RESET)
 8001f66:	4b27      	ldr	r3, [pc, #156]	; (8002004 <HAL_RCC_OscConfig+0x470>)
 8001f68:	681b      	ldr	r3, [r3, #0]
 8001f6a:	f003 7300 	and.w	r3, r3, #33554432	; 0x2000000
 8001f6e:	2b00      	cmp	r3, #0
 8001f70:	d1f0      	bne.n	8001f54 <HAL_RCC_OscConfig+0x3c0>
          }
        }

        /* Configure the main PLL clock source, multiplication and division factors. */
        WRITE_REG(RCC->PLLCFGR, (RCC_OscInitStruct->PLL.PLLSource                                            | \
 8001f72:	687b      	ldr	r3, [r7, #4]
 8001f74:	69da      	ldr	r2, [r3, #28]
 8001f76:	687b      	ldr	r3, [r7, #4]
 8001f78:	6a1b      	ldr	r3, [r3, #32]
 8001f7a:	431a      	orrs	r2, r3
 8001f7c:	687b      	ldr	r3, [r7, #4]
 8001f7e:	6a5b      	ldr	r3, [r3, #36]	; 0x24
 8001f80:	019b      	lsls	r3, r3, #6
 8001f82:	431a      	orrs	r2, r3
 8001f84:	687b      	ldr	r3, [r7, #4]
 8001f86:	6a9b      	ldr	r3, [r3, #40]	; 0x28
 8001f88:	085b      	lsrs	r3, r3, #1
 8001f8a:	3b01      	subs	r3, #1
 8001f8c:	041b      	lsls	r3, r3, #16
 8001f8e:	431a      	orrs	r2, r3
 8001f90:	687b      	ldr	r3, [r7, #4]
 8001f92:	6adb      	ldr	r3, [r3, #44]	; 0x2c
 8001f94:	061b      	lsls	r3, r3, #24
 8001f96:	491b      	ldr	r1, [pc, #108]	; (8002004 <HAL_RCC_OscConfig+0x470>)
 8001f98:	4313      	orrs	r3, r2
 8001f9a:	604b      	str	r3, [r1, #4]
                                 RCC_OscInitStruct->PLL.PLLM                                                 | \
                                 (RCC_OscInitStruct->PLL.PLLN << RCC_PLLCFGR_PLLN_Pos)             | \
                                 (((RCC_OscInitStruct->PLL.PLLP >> 1U) - 1U) << RCC_PLLCFGR_PLLP_Pos) | \
                                 (RCC_OscInitStruct->PLL.PLLQ << RCC_PLLCFGR_PLLQ_Pos)));
        /* Enable the main PLL. */
        __HAL_RCC_PLL_ENABLE();
 8001f9c:	4b1b      	ldr	r3, [pc, #108]	; (800200c <HAL_RCC_OscConfig+0x478>)
 8001f9e:	2201      	movs	r2, #1
 8001fa0:	601a      	str	r2, [r3, #0]

        /* Get Start Tick */
        tickstart = HAL_GetTick();
 8001fa2:	f7ff fa85 	bl	80014b0 <HAL_GetTick>
 8001fa6:	6138      	str	r0, [r7, #16]

        /* Wait till PLL is ready */
        while(__HAL_RCC_GET_FLAG(RCC_FLAG_PLLRDY) == RESET)
 8001fa8:	e008      	b.n	8001fbc <HAL_RCC_OscConfig+0x428>
        {
          if((HAL_GetTick() - tickstart ) > PLL_TIMEOUT_VALUE)
 8001faa:	f7ff fa81 	bl	80014b0 <HAL_GetTick>
 8001fae:	4602      	mov	r2, r0
 8001fb0:	693b      	ldr	r3, [r7, #16]
 8001fb2:	1ad3      	subs	r3, r2, r3
 8001fb4:	2b02      	cmp	r3, #2
 8001fb6:	d901      	bls.n	8001fbc <HAL_RCC_OscConfig+0x428>
          {
            return HAL_TIMEOUT;
 8001fb8:	2303      	movs	r3, #3
 8001fba:	e05c      	b.n	8002076 <HAL_RCC_OscConfig+0x4e2>
        while(__HAL_RCC_GET_FLAG(RCC_FLAG_PLLRDY) == RESET)
 8001fbc:	4b11      	ldr	r3, [pc, #68]	; (8002004 <HAL_RCC_OscConfig+0x470>)
 8001fbe:	681b      	ldr	r3, [r3, #0]
 8001fc0:	f003 7300 	and.w	r3, r3, #33554432	; 0x2000000
 8001fc4:	2b00      	cmp	r3, #0
 8001fc6:	d0f0      	beq.n	8001faa <HAL_RCC_OscConfig+0x416>
 8001fc8:	e054      	b.n	8002074 <HAL_RCC_OscConfig+0x4e0>
        }
      }
      else
      {
        /* Disable the main PLL. */
        __HAL_RCC_PLL_DISABLE();
 8001fca:	4b10      	ldr	r3, [pc, #64]	; (800200c <HAL_RCC_OscConfig+0x478>)
 8001fcc:	2200      	movs	r2, #0
 8001fce:	601a      	str	r2, [r3, #0]

        /* Get Start Tick */
        tickstart = HAL_GetTick();
 8001fd0:	f7ff fa6e 	bl	80014b0 <HAL_GetTick>
 8001fd4:	6138      	str	r0, [r7, #16]

        /* Wait till PLL is ready */
        while(__HAL_RCC_GET_FLAG(RCC_FLAG_PLLRDY) != RESET)
 8001fd6:	e008      	b.n	8001fea <HAL_RCC_OscConfig+0x456>
        {
          if((HAL_GetTick() - tickstart ) > PLL_TIMEOUT_VALUE)
 8001fd8:	f7ff fa6a 	bl	80014b0 <HAL_GetTick>
 8001fdc:	4602      	mov	r2, r0
 8001fde:	693b      	ldr	r3, [r7, #16]
 8001fe0:	1ad3      	subs	r3, r2, r3
 8001fe2:	2b02      	cmp	r3, #2
 8001fe4:	d901      	bls.n	8001fea <HAL_RCC_OscConfig+0x456>
          {
            return HAL_TIMEOUT;
 8001fe6:	2303      	movs	r3, #3
 8001fe8:	e045      	b.n	8002076 <HAL_RCC_OscConfig+0x4e2>
        while(__HAL_RCC_GET_FLAG(RCC_FLAG_PLLRDY) != RESET)
 8001fea:	4b06      	ldr	r3, [pc, #24]	; (8002004 <HAL_RCC_OscConfig+0x470>)
 8001fec:	681b      	ldr	r3, [r3, #0]
 8001fee:	f003 7300 	and.w	r3, r3, #33554432	; 0x2000000
 8001ff2:	2b00      	cmp	r3, #0
 8001ff4:	d1f0      	bne.n	8001fd8 <HAL_RCC_OscConfig+0x444>
 8001ff6:	e03d      	b.n	8002074 <HAL_RCC_OscConfig+0x4e0>
      }
    }
    else
    {
      /* Check if there is a request to disable the PLL used as System clock source */
      if((RCC_OscInitStruct->PLL.PLLState) == RCC_PLL_OFF)
 8001ff8:	687b      	ldr	r3, [r7, #4]
 8001ffa:	699b      	ldr	r3, [r3, #24]
 8001ffc:	2b01      	cmp	r3, #1
 8001ffe:	d107      	bne.n	8002010 <HAL_RCC_OscConfig+0x47c>
      {
        return HAL_ERROR;
 8002000:	2301      	movs	r3, #1
 8002002:	e038      	b.n	8002076 <HAL_RCC_OscConfig+0x4e2>
 8002004:	40023800 	.word	0x40023800
 8002008:	40007000 	.word	0x40007000
 800200c:	42470060 	.word	0x42470060
      }
      else
      {
        /* Do not return HAL_ERROR if request repeats the current configuration */
        pll_config = RCC->PLLCFGR;
 8002010:	4b1b      	ldr	r3, [pc, #108]	; (8002080 <HAL_RCC_OscConfig+0x4ec>)
 8002012:	685b      	ldr	r3, [r3, #4]
 8002014:	60fb      	str	r3, [r7, #12]
            (READ_BIT(pll_config, RCC_PLLCFGR_PLLN) != (RCC_OscInitStruct->PLL.PLLN) << RCC_PLLCFGR_PLLN_Pos) ||
            (READ_BIT(pll_config, RCC_PLLCFGR_PLLP) != (((RCC_OscInitStruct->PLL.PLLP >> 1U) - 1U)) << RCC_PLLCFGR_PLLP_Pos) ||
            (READ_BIT(pll_config, RCC_PLLCFGR_PLLQ) != (RCC_OscInitStruct->PLL.PLLQ << RCC_PLLCFGR_PLLQ_Pos)) ||
            (READ_BIT(pll_config, RCC_PLLCFGR_PLLR) != (RCC_OscInitStruct->PLL.PLLR << RCC_PLLCFGR_PLLR_Pos)))
#else
        if (((RCC_OscInitStruct->PLL.PLLState) == RCC_PLL_OFF) ||
 8002016:	687b      	ldr	r3, [r7, #4]
 8002018:	699b      	ldr	r3, [r3, #24]
 800201a:	2b01      	cmp	r3, #1
 800201c:	d028      	beq.n	8002070 <HAL_RCC_OscConfig+0x4dc>
            (READ_BIT(pll_config, RCC_PLLCFGR_PLLSRC) != RCC_OscInitStruct->PLL.PLLSource) ||
 800201e:	68fb      	ldr	r3, [r7, #12]
 8002020:	f403 0280 	and.w	r2, r3, #4194304	; 0x400000
 8002024:	687b      	ldr	r3, [r7, #4]
 8002026:	69db      	ldr	r3, [r3, #28]
        if (((RCC_OscInitStruct->PLL.PLLState) == RCC_PLL_OFF) ||
 8002028:	429a      	cmp	r2, r3
 800202a:	d121      	bne.n	8002070 <HAL_RCC_OscConfig+0x4dc>
            (READ_BIT(pll_config, RCC_PLLCFGR_PLLM) != (RCC_OscInitStruct->PLL.PLLM) << RCC_PLLCFGR_PLLM_Pos) ||
 800202c:	68fb      	ldr	r3, [r7, #12]
 800202e:	f003 023f 	and.w	r2, r3, #63	; 0x3f
 8002032:	687b      	ldr	r3, [r7, #4]
 8002034:	6a1b      	ldr	r3, [r3, #32]
            (READ_BIT(pll_config, RCC_PLLCFGR_PLLSRC) != RCC_OscInitStruct->PLL.PLLSource) ||
 8002036:	429a      	cmp	r2, r3
 8002038:	d11a      	bne.n	8002070 <HAL_RCC_OscConfig+0x4dc>
            (READ_BIT(pll_config, RCC_PLLCFGR_PLLN) != (RCC_OscInitStruct->PLL.PLLN) << RCC_PLLCFGR_PLLN_Pos) ||
 800203a:	68fa      	ldr	r2, [r7, #12]
 800203c:	f647 73c0 	movw	r3, #32704	; 0x7fc0
 8002040:	4013      	ands	r3, r2
 8002042:	687a      	ldr	r2, [r7, #4]
 8002044:	6a52      	ldr	r2, [r2, #36]	; 0x24
 8002046:	0192      	lsls	r2, r2, #6
            (READ_BIT(pll_config, RCC_PLLCFGR_PLLM) != (RCC_OscInitStruct->PLL.PLLM) << RCC_PLLCFGR_PLLM_Pos) ||
 8002048:	4293      	cmp	r3, r2
 800204a:	d111      	bne.n	8002070 <HAL_RCC_OscConfig+0x4dc>
            (READ_BIT(pll_config, RCC_PLLCFGR_PLLP) != (((RCC_OscInitStruct->PLL.PLLP >> 1U) - 1U)) << RCC_PLLCFGR_PLLP_Pos) ||
 800204c:	68fb      	ldr	r3, [r7, #12]
 800204e:	f403 3240 	and.w	r2, r3, #196608	; 0x30000
 8002052:	687b      	ldr	r3, [r7, #4]
 8002054:	6a9b      	ldr	r3, [r3, #40]	; 0x28
 8002056:	085b      	lsrs	r3, r3, #1
 8002058:	3b01      	subs	r3, #1
 800205a:	041b      	lsls	r3, r3, #16
            (READ_BIT(pll_config, RCC_PLLCFGR_PLLN) != (RCC_OscInitStruct->PLL.PLLN) << RCC_PLLCFGR_PLLN_Pos) ||
 800205c:	429a      	cmp	r2, r3
 800205e:	d107      	bne.n	8002070 <HAL_RCC_OscConfig+0x4dc>
            (READ_BIT(pll_config, RCC_PLLCFGR_PLLQ) != (RCC_OscInitStruct->PLL.PLLQ << RCC_PLLCFGR_PLLQ_Pos)))
 8002060:	68fb      	ldr	r3, [r7, #12]
 8002062:	f003 6270 	and.w	r2, r3, #251658240	; 0xf000000
 8002066:	687b      	ldr	r3, [r7, #4]
 8002068:	6adb      	ldr	r3, [r3, #44]	; 0x2c
 800206a:	061b      	lsls	r3, r3, #24
            (READ_BIT(pll_config, RCC_PLLCFGR_PLLP) != (((RCC_OscInitStruct->PLL.PLLP >> 1U) - 1U)) << RCC_PLLCFGR_PLLP_Pos) ||
 800206c:	429a      	cmp	r2, r3
 800206e:	d001      	beq.n	8002074 <HAL_RCC_OscConfig+0x4e0>
#endif
        {
          return HAL_ERROR;
 8002070:	2301      	movs	r3, #1
 8002072:	e000      	b.n	8002076 <HAL_RCC_OscConfig+0x4e2>
        }
      }
    }
  }
  return HAL_OK;
 8002074:	2300      	movs	r3, #0
}
 8002076:	4618      	mov	r0, r3
 8002078:	3718      	adds	r7, #24
 800207a:	46bd      	mov	sp, r7
 800207c:	bd80      	pop	{r7, pc}
 800207e:	bf00      	nop
 8002080:	40023800 	.word	0x40023800

08002084 <HAL_RCC_ClockConfig>:
  *         HPRE[3:0] bits to ensure that HCLK not exceed the maximum allowed frequency
  *         (for more details refer to section above "Initialization/de-initialization functions")
  * @retval None
  */
HAL_StatusTypeDef HAL_RCC_ClockConfig(RCC_ClkInitTypeDef  *RCC_ClkInitStruct, uint32_t FLatency)
{
 8002084:	b580      	push	{r7, lr}
 8002086:	b084      	sub	sp, #16
 8002088:	af00      	add	r7, sp, #0
 800208a:	6078      	str	r0, [r7, #4]
 800208c:	6039      	str	r1, [r7, #0]
  uint32_t tickstart;

  /* Check Null pointer */
  if(RCC_ClkInitStruct == NULL)
 800208e:	687b      	ldr	r3, [r7, #4]
 8002090:	2b00      	cmp	r3, #0
 8002092:	d101      	bne.n	8002098 <HAL_RCC_ClockConfig+0x14>
  {
    return HAL_ERROR;
 8002094:	2301      	movs	r3, #1
 8002096:	e0cc      	b.n	8002232 <HAL_RCC_ClockConfig+0x1ae>
  /* To correctly read data from FLASH memory, the number of wait states (LATENCY)
    must be correctly programmed according to the frequency of the CPU clock
    (HCLK) and the supply voltage of the device. */

  /* Increasing the number of wait states because of higher CPU frequency */
  if(FLatency > __HAL_FLASH_GET_LATENCY())
 8002098:	4b68      	ldr	r3, [pc, #416]	; (800223c <HAL_RCC_ClockConfig+0x1b8>)
 800209a:	681b      	ldr	r3, [r3, #0]
 800209c:	f003 0307 	and.w	r3, r3, #7
 80020a0:	683a      	ldr	r2, [r7, #0]
 80020a2:	429a      	cmp	r2, r3
 80020a4:	d90c      	bls.n	80020c0 <HAL_RCC_ClockConfig+0x3c>
  {
    /* Program the new number of wait states to the LATENCY bits in the FLASH_ACR register */
    __HAL_FLASH_SET_LATENCY(FLatency);
 80020a6:	4b65      	ldr	r3, [pc, #404]	; (800223c <HAL_RCC_ClockConfig+0x1b8>)
 80020a8:	683a      	ldr	r2, [r7, #0]
 80020aa:	b2d2      	uxtb	r2, r2
 80020ac:	701a      	strb	r2, [r3, #0]

    /* Check that the new number of wait states is taken into account to access the Flash
    memory by reading the FLASH_ACR register */
    if(__HAL_FLASH_GET_LATENCY() != FLatency)
 80020ae:	4b63      	ldr	r3, [pc, #396]	; (800223c <HAL_RCC_ClockConfig+0x1b8>)
 80020b0:	681b      	ldr	r3, [r3, #0]
 80020b2:	f003 0307 	and.w	r3, r3, #7
 80020b6:	683a      	ldr	r2, [r7, #0]
 80020b8:	429a      	cmp	r2, r3
 80020ba:	d001      	beq.n	80020c0 <HAL_RCC_ClockConfig+0x3c>
    {
      return HAL_ERROR;
 80020bc:	2301      	movs	r3, #1
 80020be:	e0b8      	b.n	8002232 <HAL_RCC_ClockConfig+0x1ae>
    }
  }

  /*-------------------------- HCLK Configuration --------------------------*/
  if(((RCC_ClkInitStruct->ClockType) & RCC_CLOCKTYPE_HCLK) == RCC_CLOCKTYPE_HCLK)
 80020c0:	687b      	ldr	r3, [r7, #4]
 80020c2:	681b      	ldr	r3, [r3, #0]
 80020c4:	f003 0302 	and.w	r3, r3, #2
 80020c8:	2b00      	cmp	r3, #0
 80020ca:	d020      	beq.n	800210e <HAL_RCC_ClockConfig+0x8a>
  {
    /* Set the highest APBx dividers in order to ensure that we do not go through
       a non-spec phase whatever we decrease or increase HCLK. */
    if(((RCC_ClkInitStruct->ClockType) & RCC_CLOCKTYPE_PCLK1) == RCC_CLOCKTYPE_PCLK1)
 80020cc:	687b      	ldr	r3, [r7, #4]
 80020ce:	681b      	ldr	r3, [r3, #0]
 80020d0:	f003 0304 	and.w	r3, r3, #4
 80020d4:	2b00      	cmp	r3, #0
 80020d6:	d005      	beq.n	80020e4 <HAL_RCC_ClockConfig+0x60>
    {
      MODIFY_REG(RCC->CFGR, RCC_CFGR_PPRE1, RCC_HCLK_DIV16);
 80020d8:	4b59      	ldr	r3, [pc, #356]	; (8002240 <HAL_RCC_ClockConfig+0x1bc>)
 80020da:	689b      	ldr	r3, [r3, #8]
 80020dc:	4a58      	ldr	r2, [pc, #352]	; (8002240 <HAL_RCC_ClockConfig+0x1bc>)
 80020de:	f443 53e0 	orr.w	r3, r3, #7168	; 0x1c00
 80020e2:	6093      	str	r3, [r2, #8]
    }

    if(((RCC_ClkInitStruct->ClockType) & RCC_CLOCKTYPE_PCLK2) == RCC_CLOCKTYPE_PCLK2)
 80020e4:	687b      	ldr	r3, [r7, #4]
 80020e6:	681b      	ldr	r3, [r3, #0]
 80020e8:	f003 0308 	and.w	r3, r3, #8
 80020ec:	2b00      	cmp	r3, #0
 80020ee:	d005      	beq.n	80020fc <HAL_RCC_ClockConfig+0x78>
    {
      MODIFY_REG(RCC->CFGR, RCC_CFGR_PPRE2, (RCC_HCLK_DIV16 << 3));
 80020f0:	4b53      	ldr	r3, [pc, #332]	; (8002240 <HAL_RCC_ClockConfig+0x1bc>)
 80020f2:	689b      	ldr	r3, [r3, #8]
 80020f4:	4a52      	ldr	r2, [pc, #328]	; (8002240 <HAL_RCC_ClockConfig+0x1bc>)
 80020f6:	f443 4360 	orr.w	r3, r3, #57344	; 0xe000
 80020fa:	6093      	str	r3, [r2, #8]
    }

    assert_param(IS_RCC_HCLK(RCC_ClkInitStruct->AHBCLKDivider));
    MODIFY_REG(RCC->CFGR, RCC_CFGR_HPRE, RCC_ClkInitStruct->AHBCLKDivider);
 80020fc:	4b50      	ldr	r3, [pc, #320]	; (8002240 <HAL_RCC_ClockConfig+0x1bc>)
 80020fe:	689b      	ldr	r3, [r3, #8]
 8002100:	f023 02f0 	bic.w	r2, r3, #240	; 0xf0
 8002104:	687b      	ldr	r3, [r7, #4]
 8002106:	689b      	ldr	r3, [r3, #8]
 8002108:	494d      	ldr	r1, [pc, #308]	; (8002240 <HAL_RCC_ClockConfig+0x1bc>)
 800210a:	4313      	orrs	r3, r2
 800210c:	608b      	str	r3, [r1, #8]
  }

  /*------------------------- SYSCLK Configuration ---------------------------*/
  if(((RCC_ClkInitStruct->ClockType) & RCC_CLOCKTYPE_SYSCLK) == RCC_CLOCKTYPE_SYSCLK)
 800210e:	687b      	ldr	r3, [r7, #4]
 8002110:	681b      	ldr	r3, [r3, #0]
 8002112:	f003 0301 	and.w	r3, r3, #1
 8002116:	2b00      	cmp	r3, #0
 8002118:	d044      	beq.n	80021a4 <HAL_RCC_ClockConfig+0x120>
  {
    assert_param(IS_RCC_SYSCLKSOURCE(RCC_ClkInitStruct->SYSCLKSource));

    /* HSE is selected as System Clock Source */
    if(RCC_ClkInitStruct->SYSCLKSource == RCC_SYSCLKSOURCE_HSE)
 800211a:	687b      	ldr	r3, [r7, #4]
 800211c:	685b      	ldr	r3, [r3, #4]
 800211e:	2b01      	cmp	r3, #1
 8002120:	d107      	bne.n	8002132 <HAL_RCC_ClockConfig+0xae>
    {
      /* Check the HSE ready flag */
      if(__HAL_RCC_GET_FLAG(RCC_FLAG_HSERDY) == RESET)
 8002122:	4b47      	ldr	r3, [pc, #284]	; (8002240 <HAL_RCC_ClockConfig+0x1bc>)
 8002124:	681b      	ldr	r3, [r3, #0]
 8002126:	f403 3300 	and.w	r3, r3, #131072	; 0x20000
 800212a:	2b00      	cmp	r3, #0
 800212c:	d119      	bne.n	8002162 <HAL_RCC_ClockConfig+0xde>
      {
        return HAL_ERROR;
 800212e:	2301      	movs	r3, #1
 8002130:	e07f      	b.n	8002232 <HAL_RCC_ClockConfig+0x1ae>
      }
    }
    /* PLL is selected as System Clock Source */
    else if((RCC_ClkInitStruct->SYSCLKSource == RCC_SYSCLKSOURCE_PLLCLK)   ||
 8002132:	687b      	ldr	r3, [r7, #4]
 8002134:	685b      	ldr	r3, [r3, #4]
 8002136:	2b02      	cmp	r3, #2
 8002138:	d003      	beq.n	8002142 <HAL_RCC_ClockConfig+0xbe>
            (RCC_ClkInitStruct->SYSCLKSource == RCC_SYSCLKSOURCE_PLLRCLK))
 800213a:	687b      	ldr	r3, [r7, #4]
 800213c:	685b      	ldr	r3, [r3, #4]
    else if((RCC_ClkInitStruct->SYSCLKSource == RCC_SYSCLKSOURCE_PLLCLK)   ||
 800213e:	2b03      	cmp	r3, #3
 8002140:	d107      	bne.n	8002152 <HAL_RCC_ClockConfig+0xce>
    {
      /* Check the PLL ready flag */
      if(__HAL_RCC_GET_FLAG(RCC_FLAG_PLLRDY) == RESET)
 8002142:	4b3f      	ldr	r3, [pc, #252]	; (8002240 <HAL_RCC_ClockConfig+0x1bc>)
 8002144:	681b      	ldr	r3, [r3, #0]
 8002146:	f003 7300 	and.w	r3, r3, #33554432	; 0x2000000
 800214a:	2b00      	cmp	r3, #0
 800214c:	d109      	bne.n	8002162 <HAL_RCC_ClockConfig+0xde>
      {
        return HAL_ERROR;
 800214e:	2301      	movs	r3, #1
 8002150:	e06f      	b.n	8002232 <HAL_RCC_ClockConfig+0x1ae>
    }
    /* HSI is selected as System Clock Source */
    else
    {
      /* Check the HSI ready flag */
      if(__HAL_RCC_GET_FLAG(RCC_FLAG_HSIRDY) == RESET)
 8002152:	4b3b      	ldr	r3, [pc, #236]	; (8002240 <HAL_RCC_ClockConfig+0x1bc>)
 8002154:	681b      	ldr	r3, [r3, #0]
 8002156:	f003 0302 	and.w	r3, r3, #2
 800215a:	2b00      	cmp	r3, #0
 800215c:	d101      	bne.n	8002162 <HAL_RCC_ClockConfig+0xde>
      {
        return HAL_ERROR;
 800215e:	2301      	movs	r3, #1
 8002160:	e067      	b.n	8002232 <HAL_RCC_ClockConfig+0x1ae>
      }
    }

    __HAL_RCC_SYSCLK_CONFIG(RCC_ClkInitStruct->SYSCLKSource);
 8002162:	4b37      	ldr	r3, [pc, #220]	; (8002240 <HAL_RCC_ClockConfig+0x1bc>)
 8002164:	689b      	ldr	r3, [r3, #8]
 8002166:	f023 0203 	bic.w	r2, r3, #3
 800216a:	687b      	ldr	r3, [r7, #4]
 800216c:	685b      	ldr	r3, [r3, #4]
 800216e:	4934      	ldr	r1, [pc, #208]	; (8002240 <HAL_RCC_ClockConfig+0x1bc>)
 8002170:	4313      	orrs	r3, r2
 8002172:	608b      	str	r3, [r1, #8]

    /* Get Start Tick */
    tickstart = HAL_GetTick();
 8002174:	f7ff f99c 	bl	80014b0 <HAL_GetTick>
 8002178:	60f8      	str	r0, [r7, #12]

    while (__HAL_RCC_GET_SYSCLK_SOURCE() != (RCC_ClkInitStruct->SYSCLKSource << RCC_CFGR_SWS_Pos))
 800217a:	e00a      	b.n	8002192 <HAL_RCC_ClockConfig+0x10e>
    {
      if ((HAL_GetTick() - tickstart) > CLOCKSWITCH_TIMEOUT_VALUE)
 800217c:	f7ff f998 	bl	80014b0 <HAL_GetTick>
 8002180:	4602      	mov	r2, r0
 8002182:	68fb      	ldr	r3, [r7, #12]
 8002184:	1ad3      	subs	r3, r2, r3
 8002186:	f241 3288 	movw	r2, #5000	; 0x1388
 800218a:	4293      	cmp	r3, r2
 800218c:	d901      	bls.n	8002192 <HAL_RCC_ClockConfig+0x10e>
      {
        return HAL_TIMEOUT;
 800218e:	2303      	movs	r3, #3
 8002190:	e04f      	b.n	8002232 <HAL_RCC_ClockConfig+0x1ae>
    while (__HAL_RCC_GET_SYSCLK_SOURCE() != (RCC_ClkInitStruct->SYSCLKSource << RCC_CFGR_SWS_Pos))
 8002192:	4b2b      	ldr	r3, [pc, #172]	; (8002240 <HAL_RCC_ClockConfig+0x1bc>)
 8002194:	689b      	ldr	r3, [r3, #8]
 8002196:	f003 020c 	and.w	r2, r3, #12
 800219a:	687b      	ldr	r3, [r7, #4]
 800219c:	685b      	ldr	r3, [r3, #4]
 800219e:	009b      	lsls	r3, r3, #2
 80021a0:	429a      	cmp	r2, r3
 80021a2:	d1eb      	bne.n	800217c <HAL_RCC_ClockConfig+0xf8>
      }
    }
  }

  /* Decreasing the number of wait states because of lower CPU frequency */
  if(FLatency < __HAL_FLASH_GET_LATENCY())
 80021a4:	4b25      	ldr	r3, [pc, #148]	; (800223c <HAL_RCC_ClockConfig+0x1b8>)
 80021a6:	681b      	ldr	r3, [r3, #0]
 80021a8:	f003 0307 	and.w	r3, r3, #7
 80021ac:	683a      	ldr	r2, [r7, #0]
 80021ae:	429a      	cmp	r2, r3
 80021b0:	d20c      	bcs.n	80021cc <HAL_RCC_ClockConfig+0x148>
  {
     /* Program the new number of wait states to the LATENCY bits in the FLASH_ACR register */
    __HAL_FLASH_SET_LATENCY(FLatency);
 80021b2:	4b22      	ldr	r3, [pc, #136]	; (800223c <HAL_RCC_ClockConfig+0x1b8>)
 80021b4:	683a      	ldr	r2, [r7, #0]
 80021b6:	b2d2      	uxtb	r2, r2
 80021b8:	701a      	strb	r2, [r3, #0]

    /* Check that the new number of wait states is taken into account to access the Flash
    memory by reading the FLASH_ACR register */
    if(__HAL_FLASH_GET_LATENCY() != FLatency)
 80021ba:	4b20      	ldr	r3, [pc, #128]	; (800223c <HAL_RCC_ClockConfig+0x1b8>)
 80021bc:	681b      	ldr	r3, [r3, #0]
 80021be:	f003 0307 	and.w	r3, r3, #7
 80021c2:	683a      	ldr	r2, [r7, #0]
 80021c4:	429a      	cmp	r2, r3
 80021c6:	d001      	beq.n	80021cc <HAL_RCC_ClockConfig+0x148>
    {
      return HAL_ERROR;
 80021c8:	2301      	movs	r3, #1
 80021ca:	e032      	b.n	8002232 <HAL_RCC_ClockConfig+0x1ae>
    }
  }

  /*-------------------------- PCLK1 Configuration ---------------------------*/
  if(((RCC_ClkInitStruct->ClockType) & RCC_CLOCKTYPE_PCLK1) == RCC_CLOCKTYPE_PCLK1)
 80021cc:	687b      	ldr	r3, [r7, #4]
 80021ce:	681b      	ldr	r3, [r3, #0]
 80021d0:	f003 0304 	and.w	r3, r3, #4
 80021d4:	2b00      	cmp	r3, #0
 80021d6:	d008      	beq.n	80021ea <HAL_RCC_ClockConfig+0x166>
  {
    assert_param(IS_RCC_PCLK(RCC_ClkInitStruct->APB1CLKDivider));
    MODIFY_REG(RCC->CFGR, RCC_CFGR_PPRE1, RCC_ClkInitStruct->APB1CLKDivider);
 80021d8:	4b19      	ldr	r3, [pc, #100]	; (8002240 <HAL_RCC_ClockConfig+0x1bc>)
 80021da:	689b      	ldr	r3, [r3, #8]
 80021dc:	f423 52e0 	bic.w	r2, r3, #7168	; 0x1c00
 80021e0:	687b      	ldr	r3, [r7, #4]
 80021e2:	68db      	ldr	r3, [r3, #12]
 80021e4:	4916      	ldr	r1, [pc, #88]	; (8002240 <HAL_RCC_ClockConfig+0x1bc>)
 80021e6:	4313      	orrs	r3, r2
 80021e8:	608b      	str	r3, [r1, #8]
  }

  /*-------------------------- PCLK2 Configuration ---------------------------*/
  if(((RCC_ClkInitStruct->ClockType) & RCC_CLOCKTYPE_PCLK2) == RCC_CLOCKTYPE_PCLK2)
 80021ea:	687b      	ldr	r3, [r7, #4]
 80021ec:	681b      	ldr	r3, [r3, #0]
 80021ee:	f003 0308 	and.w	r3, r3, #8
 80021f2:	2b00      	cmp	r3, #0
 80021f4:	d009      	beq.n	800220a <HAL_RCC_ClockConfig+0x186>
  {
    assert_param(IS_RCC_PCLK(RCC_ClkInitStruct->APB2CLKDivider));
    MODIFY_REG(RCC->CFGR, RCC_CFGR_PPRE2, ((RCC_ClkInitStruct->APB2CLKDivider) << 3U));
 80021f6:	4b12      	ldr	r3, [pc, #72]	; (8002240 <HAL_RCC_ClockConfig+0x1bc>)
 80021f8:	689b      	ldr	r3, [r3, #8]
 80021fa:	f423 4260 	bic.w	r2, r3, #57344	; 0xe000
 80021fe:	687b      	ldr	r3, [r7, #4]
 8002200:	691b      	ldr	r3, [r3, #16]
 8002202:	00db      	lsls	r3, r3, #3
 8002204:	490e      	ldr	r1, [pc, #56]	; (8002240 <HAL_RCC_ClockConfig+0x1bc>)
 8002206:	4313      	orrs	r3, r2
 8002208:	608b      	str	r3, [r1, #8]
  }

  /* Update the SystemCoreClock global variable */
  SystemCoreClock = HAL_RCC_GetSysClockFreq() >> AHBPrescTable[(RCC->CFGR & RCC_CFGR_HPRE)>> RCC_CFGR_HPRE_Pos];
 800220a:	f000 f821 	bl	8002250 <HAL_RCC_GetSysClockFreq>
 800220e:	4602      	mov	r2, r0
 8002210:	4b0b      	ldr	r3, [pc, #44]	; (8002240 <HAL_RCC_ClockConfig+0x1bc>)
 8002212:	689b      	ldr	r3, [r3, #8]
 8002214:	091b      	lsrs	r3, r3, #4
 8002216:	f003 030f 	and.w	r3, r3, #15
 800221a:	490a      	ldr	r1, [pc, #40]	; (8002244 <HAL_RCC_ClockConfig+0x1c0>)
 800221c:	5ccb      	ldrb	r3, [r1, r3]
 800221e:	fa22 f303 	lsr.w	r3, r2, r3
 8002222:	4a09      	ldr	r2, [pc, #36]	; (8002248 <HAL_RCC_ClockConfig+0x1c4>)
 8002224:	6013      	str	r3, [r2, #0]

  /* Configure the source of time base considering new system clocks settings */
  HAL_InitTick (uwTickPrio);
 8002226:	4b09      	ldr	r3, [pc, #36]	; (800224c <HAL_RCC_ClockConfig+0x1c8>)
 8002228:	681b      	ldr	r3, [r3, #0]
 800222a:	4618      	mov	r0, r3
 800222c:	f7ff f8fc 	bl	8001428 <HAL_InitTick>

  return HAL_OK;
 8002230:	2300      	movs	r3, #0
}
 8002232:	4618      	mov	r0, r3
 8002234:	3710      	adds	r7, #16
 8002236:	46bd      	mov	sp, r7
 8002238:	bd80      	pop	{r7, pc}
 800223a:	bf00      	nop
 800223c:	40023c00 	.word	0x40023c00
 8002240:	40023800 	.word	0x40023800
 8002244:	0800371c 	.word	0x0800371c
 8002248:	2000007c 	.word	0x2000007c
 800224c:	20000080 	.word	0x20000080

08002250 <HAL_RCC_GetSysClockFreq>:
  *
  *
  * @retval SYSCLK frequency
  */
__weak uint32_t HAL_RCC_GetSysClockFreq(void)
{
 8002250:	e92d 4fb0 	stmdb	sp!, {r4, r5, r7, r8, r9, sl, fp, lr}
 8002254:	b094      	sub	sp, #80	; 0x50
 8002256:	af00      	add	r7, sp, #0
  uint32_t pllm = 0U, pllvco = 0U, pllp = 0U;
 8002258:	2300      	movs	r3, #0
 800225a:	647b      	str	r3, [r7, #68]	; 0x44
 800225c:	2300      	movs	r3, #0
 800225e:	64fb      	str	r3, [r7, #76]	; 0x4c
 8002260:	2300      	movs	r3, #0
 8002262:	643b      	str	r3, [r7, #64]	; 0x40
  uint32_t sysclockfreq = 0U;
 8002264:	2300      	movs	r3, #0
 8002266:	64bb      	str	r3, [r7, #72]	; 0x48

  /* Get SYSCLK source -------------------------------------------------------*/
  switch (RCC->CFGR & RCC_CFGR_SWS)
 8002268:	4b79      	ldr	r3, [pc, #484]	; (8002450 <HAL_RCC_GetSysClockFreq+0x200>)
 800226a:	689b      	ldr	r3, [r3, #8]
 800226c:	f003 030c 	and.w	r3, r3, #12
 8002270:	2b08      	cmp	r3, #8
 8002272:	d00d      	beq.n	8002290 <HAL_RCC_GetSysClockFreq+0x40>
 8002274:	2b08      	cmp	r3, #8
 8002276:	f200 80e1 	bhi.w	800243c <HAL_RCC_GetSysClockFreq+0x1ec>
 800227a:	2b00      	cmp	r3, #0
 800227c:	d002      	beq.n	8002284 <HAL_RCC_GetSysClockFreq+0x34>
 800227e:	2b04      	cmp	r3, #4
 8002280:	d003      	beq.n	800228a <HAL_RCC_GetSysClockFreq+0x3a>
 8002282:	e0db      	b.n	800243c <HAL_RCC_GetSysClockFreq+0x1ec>
  {
    case RCC_CFGR_SWS_HSI:  /* HSI used as system clock source */
    {
      sysclockfreq = HSI_VALUE;
 8002284:	4b73      	ldr	r3, [pc, #460]	; (8002454 <HAL_RCC_GetSysClockFreq+0x204>)
 8002286:	64bb      	str	r3, [r7, #72]	; 0x48
       break;
 8002288:	e0db      	b.n	8002442 <HAL_RCC_GetSysClockFreq+0x1f2>
    }
    case RCC_CFGR_SWS_HSE:  /* HSE used as system clock  source */
    {
      sysclockfreq = HSE_VALUE;
 800228a:	4b73      	ldr	r3, [pc, #460]	; (8002458 <HAL_RCC_GetSysClockFreq+0x208>)
 800228c:	64bb      	str	r3, [r7, #72]	; 0x48
      break;
 800228e:	e0d8      	b.n	8002442 <HAL_RCC_GetSysClockFreq+0x1f2>
    }
    case RCC_CFGR_SWS_PLL:  /* PLL used as system clock  source */
    {
      /* PLL_VCO = (HSE_VALUE or HSI_VALUE / PLLM) * PLLN
      SYSCLK = PLL_VCO / PLLP */
      pllm = RCC->PLLCFGR & RCC_PLLCFGR_PLLM;
 8002290:	4b6f      	ldr	r3, [pc, #444]	; (8002450 <HAL_RCC_GetSysClockFreq+0x200>)
 8002292:	685b      	ldr	r3, [r3, #4]
 8002294:	f003 033f 	and.w	r3, r3, #63	; 0x3f
 8002298:	647b      	str	r3, [r7, #68]	; 0x44
      if(__HAL_RCC_GET_PLL_OSCSOURCE() != RCC_PLLSOURCE_HSI)
 800229a:	4b6d      	ldr	r3, [pc, #436]	; (8002450 <HAL_RCC_GetSysClockFreq+0x200>)
 800229c:	685b      	ldr	r3, [r3, #4]
 800229e:	f403 0380 	and.w	r3, r3, #4194304	; 0x400000
 80022a2:	2b00      	cmp	r3, #0
 80022a4:	d063      	beq.n	800236e <HAL_RCC_GetSysClockFreq+0x11e>
      {
        /* HSE used as PLL clock source */
        pllvco = (uint32_t) ((((uint64_t) HSE_VALUE * ((uint64_t) ((RCC->PLLCFGR & RCC_PLLCFGR_PLLN) >> RCC_PLLCFGR_PLLN_Pos)))) / (uint64_t)pllm);
 80022a6:	4b6a      	ldr	r3, [pc, #424]	; (8002450 <HAL_RCC_GetSysClockFreq+0x200>)
 80022a8:	685b      	ldr	r3, [r3, #4]
 80022aa:	099b      	lsrs	r3, r3, #6
 80022ac:	2200      	movs	r2, #0
 80022ae:	63bb      	str	r3, [r7, #56]	; 0x38
 80022b0:	63fa      	str	r2, [r7, #60]	; 0x3c
 80022b2:	6bbb      	ldr	r3, [r7, #56]	; 0x38
 80022b4:	f3c3 0308 	ubfx	r3, r3, #0, #9
 80022b8:	633b      	str	r3, [r7, #48]	; 0x30
 80022ba:	2300      	movs	r3, #0
 80022bc:	637b      	str	r3, [r7, #52]	; 0x34
 80022be:	e9d7 450c 	ldrd	r4, r5, [r7, #48]	; 0x30
 80022c2:	4622      	mov	r2, r4
 80022c4:	462b      	mov	r3, r5
 80022c6:	f04f 0000 	mov.w	r0, #0
 80022ca:	f04f 0100 	mov.w	r1, #0
 80022ce:	0159      	lsls	r1, r3, #5
 80022d0:	ea41 61d2 	orr.w	r1, r1, r2, lsr #27
 80022d4:	0150      	lsls	r0, r2, #5
 80022d6:	4602      	mov	r2, r0
 80022d8:	460b      	mov	r3, r1
 80022da:	4621      	mov	r1, r4
 80022dc:	1a51      	subs	r1, r2, r1
 80022de:	6139      	str	r1, [r7, #16]
 80022e0:	4629      	mov	r1, r5
 80022e2:	eb63 0301 	sbc.w	r3, r3, r1
 80022e6:	617b      	str	r3, [r7, #20]
 80022e8:	f04f 0200 	mov.w	r2, #0
 80022ec:	f04f 0300 	mov.w	r3, #0
 80022f0:	e9d7 ab04 	ldrd	sl, fp, [r7, #16]
 80022f4:	4659      	mov	r1, fp
 80022f6:	018b      	lsls	r3, r1, #6
 80022f8:	4651      	mov	r1, sl
 80022fa:	ea43 6391 	orr.w	r3, r3, r1, lsr #26
 80022fe:	4651      	mov	r1, sl
 8002300:	018a      	lsls	r2, r1, #6
 8002302:	4651      	mov	r1, sl
 8002304:	ebb2 0801 	subs.w	r8, r2, r1
 8002308:	4659      	mov	r1, fp
 800230a:	eb63 0901 	sbc.w	r9, r3, r1
 800230e:	f04f 0200 	mov.w	r2, #0
 8002312:	f04f 0300 	mov.w	r3, #0
 8002316:	ea4f 03c9 	mov.w	r3, r9, lsl #3
 800231a:	ea43 7358 	orr.w	r3, r3, r8, lsr #29
 800231e:	ea4f 02c8 	mov.w	r2, r8, lsl #3
 8002322:	4690      	mov	r8, r2
 8002324:	4699      	mov	r9, r3
 8002326:	4623      	mov	r3, r4
 8002328:	eb18 0303 	adds.w	r3, r8, r3
 800232c:	60bb      	str	r3, [r7, #8]
 800232e:	462b      	mov	r3, r5
 8002330:	eb49 0303 	adc.w	r3, r9, r3
 8002334:	60fb      	str	r3, [r7, #12]
 8002336:	f04f 0200 	mov.w	r2, #0
 800233a:	f04f 0300 	mov.w	r3, #0
 800233e:	e9d7 4502 	ldrd	r4, r5, [r7, #8]
 8002342:	4629      	mov	r1, r5
 8002344:	024b      	lsls	r3, r1, #9
 8002346:	4621      	mov	r1, r4
 8002348:	ea43 53d1 	orr.w	r3, r3, r1, lsr #23
 800234c:	4621      	mov	r1, r4
 800234e:	024a      	lsls	r2, r1, #9
 8002350:	4610      	mov	r0, r2
 8002352:	4619      	mov	r1, r3
 8002354:	6c7b      	ldr	r3, [r7, #68]	; 0x44
 8002356:	2200      	movs	r2, #0
 8002358:	62bb      	str	r3, [r7, #40]	; 0x28
 800235a:	62fa      	str	r2, [r7, #44]	; 0x2c
 800235c:	e9d7 230a 	ldrd	r2, r3, [r7, #40]	; 0x28
 8002360:	f7fe f8f6 	bl	8000550 <__aeabi_uldivmod>
 8002364:	4602      	mov	r2, r0
 8002366:	460b      	mov	r3, r1
 8002368:	4613      	mov	r3, r2
 800236a:	64fb      	str	r3, [r7, #76]	; 0x4c
 800236c:	e058      	b.n	8002420 <HAL_RCC_GetSysClockFreq+0x1d0>
      }
      else
      {
        /* HSI used as PLL clock source */
        pllvco = (uint32_t) ((((uint64_t) HSI_VALUE * ((uint64_t) ((RCC->PLLCFGR & RCC_PLLCFGR_PLLN) >> RCC_PLLCFGR_PLLN_Pos)))) / (uint64_t)pllm);
 800236e:	4b38      	ldr	r3, [pc, #224]	; (8002450 <HAL_RCC_GetSysClockFreq+0x200>)
 8002370:	685b      	ldr	r3, [r3, #4]
 8002372:	099b      	lsrs	r3, r3, #6
 8002374:	2200      	movs	r2, #0
 8002376:	4618      	mov	r0, r3
 8002378:	4611      	mov	r1, r2
 800237a:	f3c0 0308 	ubfx	r3, r0, #0, #9
 800237e:	623b      	str	r3, [r7, #32]
 8002380:	2300      	movs	r3, #0
 8002382:	627b      	str	r3, [r7, #36]	; 0x24
 8002384:	e9d7 8908 	ldrd	r8, r9, [r7, #32]
 8002388:	4642      	mov	r2, r8
 800238a:	464b      	mov	r3, r9
 800238c:	f04f 0000 	mov.w	r0, #0
 8002390:	f04f 0100 	mov.w	r1, #0
 8002394:	0159      	lsls	r1, r3, #5
 8002396:	ea41 61d2 	orr.w	r1, r1, r2, lsr #27
 800239a:	0150      	lsls	r0, r2, #5
 800239c:	4602      	mov	r2, r0
 800239e:	460b      	mov	r3, r1
 80023a0:	4641      	mov	r1, r8
 80023a2:	ebb2 0a01 	subs.w	sl, r2, r1
 80023a6:	4649      	mov	r1, r9
 80023a8:	eb63 0b01 	sbc.w	fp, r3, r1
 80023ac:	f04f 0200 	mov.w	r2, #0
 80023b0:	f04f 0300 	mov.w	r3, #0
 80023b4:	ea4f 138b 	mov.w	r3, fp, lsl #6
 80023b8:	ea43 639a 	orr.w	r3, r3, sl, lsr #26
 80023bc:	ea4f 128a 	mov.w	r2, sl, lsl #6
 80023c0:	ebb2 040a 	subs.w	r4, r2, sl
 80023c4:	eb63 050b 	sbc.w	r5, r3, fp
 80023c8:	f04f 0200 	mov.w	r2, #0
 80023cc:	f04f 0300 	mov.w	r3, #0
 80023d0:	00eb      	lsls	r3, r5, #3
 80023d2:	ea43 7354 	orr.w	r3, r3, r4, lsr #29
 80023d6:	00e2      	lsls	r2, r4, #3
 80023d8:	4614      	mov	r4, r2
 80023da:	461d      	mov	r5, r3
 80023dc:	4643      	mov	r3, r8
 80023de:	18e3      	adds	r3, r4, r3
 80023e0:	603b      	str	r3, [r7, #0]
 80023e2:	464b      	mov	r3, r9
 80023e4:	eb45 0303 	adc.w	r3, r5, r3
 80023e8:	607b      	str	r3, [r7, #4]
 80023ea:	f04f 0200 	mov.w	r2, #0
 80023ee:	f04f 0300 	mov.w	r3, #0
 80023f2:	e9d7 4500 	ldrd	r4, r5, [r7]
 80023f6:	4629      	mov	r1, r5
 80023f8:	028b      	lsls	r3, r1, #10
 80023fa:	4621      	mov	r1, r4
 80023fc:	ea43 5391 	orr.w	r3, r3, r1, lsr #22
 8002400:	4621      	mov	r1, r4
 8002402:	028a      	lsls	r2, r1, #10
 8002404:	4610      	mov	r0, r2
 8002406:	4619      	mov	r1, r3
 8002408:	6c7b      	ldr	r3, [r7, #68]	; 0x44
 800240a:	2200      	movs	r2, #0
 800240c:	61bb      	str	r3, [r7, #24]
 800240e:	61fa      	str	r2, [r7, #28]
 8002410:	e9d7 2306 	ldrd	r2, r3, [r7, #24]
 8002414:	f7fe f89c 	bl	8000550 <__aeabi_uldivmod>
 8002418:	4602      	mov	r2, r0
 800241a:	460b      	mov	r3, r1
 800241c:	4613      	mov	r3, r2
 800241e:	64fb      	str	r3, [r7, #76]	; 0x4c
      }
      pllp = ((((RCC->PLLCFGR & RCC_PLLCFGR_PLLP) >> RCC_PLLCFGR_PLLP_Pos) + 1U) *2U);
 8002420:	4b0b      	ldr	r3, [pc, #44]	; (8002450 <HAL_RCC_GetSysClockFreq+0x200>)
 8002422:	685b      	ldr	r3, [r3, #4]
 8002424:	0c1b      	lsrs	r3, r3, #16
 8002426:	f003 0303 	and.w	r3, r3, #3
 800242a:	3301      	adds	r3, #1
 800242c:	005b      	lsls	r3, r3, #1
 800242e:	643b      	str	r3, [r7, #64]	; 0x40

      sysclockfreq = pllvco/pllp;
 8002430:	6cfa      	ldr	r2, [r7, #76]	; 0x4c
 8002432:	6c3b      	ldr	r3, [r7, #64]	; 0x40
 8002434:	fbb2 f3f3 	udiv	r3, r2, r3
 8002438:	64bb      	str	r3, [r7, #72]	; 0x48
      break;
 800243a:	e002      	b.n	8002442 <HAL_RCC_GetSysClockFreq+0x1f2>
    }
    default:
    {
      sysclockfreq = HSI_VALUE;
 800243c:	4b05      	ldr	r3, [pc, #20]	; (8002454 <HAL_RCC_GetSysClockFreq+0x204>)
 800243e:	64bb      	str	r3, [r7, #72]	; 0x48
      break;
 8002440:	bf00      	nop
    }
  }
  return sysclockfreq;
 8002442:	6cbb      	ldr	r3, [r7, #72]	; 0x48
}
 8002444:	4618      	mov	r0, r3
 8002446:	3750      	adds	r7, #80	; 0x50
 8002448:	46bd      	mov	sp, r7
 800244a:	e8bd 8fb0 	ldmia.w	sp!, {r4, r5, r7, r8, r9, sl, fp, pc}
 800244e:	bf00      	nop
 8002450:	40023800 	.word	0x40023800
 8002454:	00f42400 	.word	0x00f42400
 8002458:	007a1200 	.word	0x007a1200

0800245c <HAL_RCC_GetHCLKFreq>:
  * @note   The SystemCoreClock CMSIS variable is used to store System Clock Frequency
  *         and updated within this function
  * @retval HCLK frequency
  */
uint32_t HAL_RCC_GetHCLKFreq(void)
{
 800245c:	b480      	push	{r7}
 800245e:	af00      	add	r7, sp, #0
  return SystemCoreClock;
 8002460:	4b03      	ldr	r3, [pc, #12]	; (8002470 <HAL_RCC_GetHCLKFreq+0x14>)
 8002462:	681b      	ldr	r3, [r3, #0]
}
 8002464:	4618      	mov	r0, r3
 8002466:	46bd      	mov	sp, r7
 8002468:	f85d 7b04 	ldr.w	r7, [sp], #4
 800246c:	4770      	bx	lr
 800246e:	bf00      	nop
 8002470:	2000007c 	.word	0x2000007c

08002474 <HAL_RCC_GetPCLK1Freq>:
  * @note   Each time PCLK1 changes, this function must be called to update the
  *         right PCLK1 value. Otherwise, any configuration based on this function will be incorrect.
  * @retval PCLK1 frequency
  */
uint32_t HAL_RCC_GetPCLK1Freq(void)
{
 8002474:	b580      	push	{r7, lr}
 8002476:	af00      	add	r7, sp, #0
  /* Get HCLK source and Compute PCLK1 frequency ---------------------------*/
  return (HAL_RCC_GetHCLKFreq() >> APBPrescTable[(RCC->CFGR & RCC_CFGR_PPRE1)>> RCC_CFGR_PPRE1_Pos]);
 8002478:	f7ff fff0 	bl	800245c <HAL_RCC_GetHCLKFreq>
 800247c:	4602      	mov	r2, r0
 800247e:	4b05      	ldr	r3, [pc, #20]	; (8002494 <HAL_RCC_GetPCLK1Freq+0x20>)
 8002480:	689b      	ldr	r3, [r3, #8]
 8002482:	0a9b      	lsrs	r3, r3, #10
 8002484:	f003 0307 	and.w	r3, r3, #7
 8002488:	4903      	ldr	r1, [pc, #12]	; (8002498 <HAL_RCC_GetPCLK1Freq+0x24>)
 800248a:	5ccb      	ldrb	r3, [r1, r3]
 800248c:	fa22 f303 	lsr.w	r3, r2, r3
}
 8002490:	4618      	mov	r0, r3
 8002492:	bd80      	pop	{r7, pc}
 8002494:	40023800 	.word	0x40023800
 8002498:	0800372c 	.word	0x0800372c

0800249c <HAL_RCC_GetPCLK2Freq>:
  * @note   Each time PCLK2 changes, this function must be called to update the
  *         right PCLK2 value. Otherwise, any configuration based on this function will be incorrect.
  * @retval PCLK2 frequency
  */
uint32_t HAL_RCC_GetPCLK2Freq(void)
{
 800249c:	b580      	push	{r7, lr}
 800249e:	af00      	add	r7, sp, #0
  /* Get HCLK source and Compute PCLK2 frequency ---------------------------*/
  return (HAL_RCC_GetHCLKFreq()>> APBPrescTable[(RCC->CFGR & RCC_CFGR_PPRE2)>> RCC_CFGR_PPRE2_Pos]);
 80024a0:	f7ff ffdc 	bl	800245c <HAL_RCC_GetHCLKFreq>
 80024a4:	4602      	mov	r2, r0
 80024a6:	4b05      	ldr	r3, [pc, #20]	; (80024bc <HAL_RCC_GetPCLK2Freq+0x20>)
 80024a8:	689b      	ldr	r3, [r3, #8]
 80024aa:	0b5b      	lsrs	r3, r3, #13
 80024ac:	f003 0307 	and.w	r3, r3, #7
 80024b0:	4903      	ldr	r1, [pc, #12]	; (80024c0 <HAL_RCC_GetPCLK2Freq+0x24>)
 80024b2:	5ccb      	ldrb	r3, [r1, r3]
 80024b4:	fa22 f303 	lsr.w	r3, r2, r3
}
 80024b8:	4618      	mov	r0, r3
 80024ba:	bd80      	pop	{r7, pc}
 80024bc:	40023800 	.word	0x40023800
 80024c0:	0800372c 	.word	0x0800372c

080024c4 <HAL_UART_Init>:
  * @param  huart  Pointer to a UART_HandleTypeDef structure that contains
  *                the configuration information for the specified UART module.
  * @retval HAL status
  */
HAL_StatusTypeDef HAL_UART_Init(UART_HandleTypeDef *huart)
{
 80024c4:	b580      	push	{r7, lr}
 80024c6:	b082      	sub	sp, #8
 80024c8:	af00      	add	r7, sp, #0
 80024ca:	6078      	str	r0, [r7, #4]
  /* Check the UART handle allocation */
  if (huart == NULL)
 80024cc:	687b      	ldr	r3, [r7, #4]
 80024ce:	2b00      	cmp	r3, #0
 80024d0:	d101      	bne.n	80024d6 <HAL_UART_Init+0x12>
  {
    return HAL_ERROR;
 80024d2:	2301      	movs	r3, #1
 80024d4:	e03f      	b.n	8002556 <HAL_UART_Init+0x92>
    assert_param(IS_UART_INSTANCE(huart->Instance));
  }
  assert_param(IS_UART_WORD_LENGTH(huart->Init.WordLength));
  assert_param(IS_UART_OVERSAMPLING(huart->Init.OverSampling));

  if (huart->gState == HAL_UART_STATE_RESET)
 80024d6:	687b      	ldr	r3, [r7, #4]
 80024d8:	f893 303d 	ldrb.w	r3, [r3, #61]	; 0x3d
 80024dc:	b2db      	uxtb	r3, r3
 80024de:	2b00      	cmp	r3, #0
 80024e0:	d106      	bne.n	80024f0 <HAL_UART_Init+0x2c>
  {
    /* Allocate lock resource and initialize it */
    huart->Lock = HAL_UNLOCKED;
 80024e2:	687b      	ldr	r3, [r7, #4]
 80024e4:	2200      	movs	r2, #0
 80024e6:	f883 203c 	strb.w	r2, [r3, #60]	; 0x3c

    /* Init the low level hardware */
    huart->MspInitCallback(huart);
#else
    /* Init the low level hardware : GPIO, CLOCK */
    HAL_UART_MspInit(huart);
 80024ea:	6878      	ldr	r0, [r7, #4]
 80024ec:	f7fe feba 	bl	8001264 <HAL_UART_MspInit>
#endif /* (USE_HAL_UART_REGISTER_CALLBACKS) */
  }

  huart->gState = HAL_UART_STATE_BUSY;
 80024f0:	687b      	ldr	r3, [r7, #4]
 80024f2:	2224      	movs	r2, #36	; 0x24
 80024f4:	f883 203d 	strb.w	r2, [r3, #61]	; 0x3d

  /* Disable the peripheral */
  __HAL_UART_DISABLE(huart);
 80024f8:	687b      	ldr	r3, [r7, #4]
 80024fa:	681b      	ldr	r3, [r3, #0]
 80024fc:	68da      	ldr	r2, [r3, #12]
 80024fe:	687b      	ldr	r3, [r7, #4]
 8002500:	681b      	ldr	r3, [r3, #0]
 8002502:	f422 5200 	bic.w	r2, r2, #8192	; 0x2000
 8002506:	60da      	str	r2, [r3, #12]

  /* Set the UART Communication parameters */
  UART_SetConfig(huart);
 8002508:	6878      	ldr	r0, [r7, #4]
 800250a:	f000 fddf 	bl	80030cc <UART_SetConfig>

  /* In asynchronous mode, the following bits must be kept cleared:
     - LINEN and CLKEN bits in the USART_CR2 register,
     - SCEN, HDSEL and IREN  bits in the USART_CR3 register.*/
  CLEAR_BIT(huart->Instance->CR2, (USART_CR2_LINEN | USART_CR2_CLKEN));
 800250e:	687b      	ldr	r3, [r7, #4]
 8002510:	681b      	ldr	r3, [r3, #0]
 8002512:	691a      	ldr	r2, [r3, #16]
 8002514:	687b      	ldr	r3, [r7, #4]
 8002516:	681b      	ldr	r3, [r3, #0]
 8002518:	f422 4290 	bic.w	r2, r2, #18432	; 0x4800
 800251c:	611a      	str	r2, [r3, #16]
  CLEAR_BIT(huart->Instance->CR3, (USART_CR3_SCEN | USART_CR3_HDSEL | USART_CR3_IREN));
 800251e:	687b      	ldr	r3, [r7, #4]
 8002520:	681b      	ldr	r3, [r3, #0]
 8002522:	695a      	ldr	r2, [r3, #20]
 8002524:	687b      	ldr	r3, [r7, #4]
 8002526:	681b      	ldr	r3, [r3, #0]
 8002528:	f022 022a 	bic.w	r2, r2, #42	; 0x2a
 800252c:	615a      	str	r2, [r3, #20]

  /* Enable the peripheral */
  __HAL_UART_ENABLE(huart);
 800252e:	687b      	ldr	r3, [r7, #4]
 8002530:	681b      	ldr	r3, [r3, #0]
 8002532:	68da      	ldr	r2, [r3, #12]
 8002534:	687b      	ldr	r3, [r7, #4]
 8002536:	681b      	ldr	r3, [r3, #0]
 8002538:	f442 5200 	orr.w	r2, r2, #8192	; 0x2000
 800253c:	60da      	str	r2, [r3, #12]

  /* Initialize the UART state */
  huart->ErrorCode = HAL_UART_ERROR_NONE;
 800253e:	687b      	ldr	r3, [r7, #4]
 8002540:	2200      	movs	r2, #0
 8002542:	641a      	str	r2, [r3, #64]	; 0x40
  huart->gState = HAL_UART_STATE_READY;
 8002544:	687b      	ldr	r3, [r7, #4]
 8002546:	2220      	movs	r2, #32
 8002548:	f883 203d 	strb.w	r2, [r3, #61]	; 0x3d
  huart->RxState = HAL_UART_STATE_READY;
 800254c:	687b      	ldr	r3, [r7, #4]
 800254e:	2220      	movs	r2, #32
 8002550:	f883 203e 	strb.w	r2, [r3, #62]	; 0x3e

  return HAL_OK;
 8002554:	2300      	movs	r3, #0
}
 8002556:	4618      	mov	r0, r3
 8002558:	3708      	adds	r7, #8
 800255a:	46bd      	mov	sp, r7
 800255c:	bd80      	pop	{r7, pc}

0800255e <HAL_UART_Transmit>:
  * @param  Size  Amount of data elements (u8 or u16) to be sent
  * @param  Timeout Timeout duration
  * @retval HAL status
  */
HAL_StatusTypeDef HAL_UART_Transmit(UART_HandleTypeDef *huart, const uint8_t *pData, uint16_t Size, uint32_t Timeout)
{
 800255e:	b580      	push	{r7, lr}
 8002560:	b08a      	sub	sp, #40	; 0x28
 8002562:	af02      	add	r7, sp, #8
 8002564:	60f8      	str	r0, [r7, #12]
 8002566:	60b9      	str	r1, [r7, #8]
 8002568:	603b      	str	r3, [r7, #0]
 800256a:	4613      	mov	r3, r2
 800256c:	80fb      	strh	r3, [r7, #6]
  const uint8_t  *pdata8bits;
  const uint16_t *pdata16bits;
  uint32_t tickstart = 0U;
 800256e:	2300      	movs	r3, #0
 8002570:	617b      	str	r3, [r7, #20]

  /* Check that a Tx process is not already ongoing */
  if (huart->gState == HAL_UART_STATE_READY)
 8002572:	68fb      	ldr	r3, [r7, #12]
 8002574:	f893 303d 	ldrb.w	r3, [r3, #61]	; 0x3d
 8002578:	b2db      	uxtb	r3, r3
 800257a:	2b20      	cmp	r3, #32
 800257c:	d17c      	bne.n	8002678 <HAL_UART_Transmit+0x11a>
  {
    if ((pData == NULL) || (Size == 0U))
 800257e:	68bb      	ldr	r3, [r7, #8]
 8002580:	2b00      	cmp	r3, #0
 8002582:	d002      	beq.n	800258a <HAL_UART_Transmit+0x2c>
 8002584:	88fb      	ldrh	r3, [r7, #6]
 8002586:	2b00      	cmp	r3, #0
 8002588:	d101      	bne.n	800258e <HAL_UART_Transmit+0x30>
    {
      return  HAL_ERROR;
 800258a:	2301      	movs	r3, #1
 800258c:	e075      	b.n	800267a <HAL_UART_Transmit+0x11c>
    }

    /* Process Locked */
    __HAL_LOCK(huart);
 800258e:	68fb      	ldr	r3, [r7, #12]
 8002590:	f893 303c 	ldrb.w	r3, [r3, #60]	; 0x3c
 8002594:	2b01      	cmp	r3, #1
 8002596:	d101      	bne.n	800259c <HAL_UART_Transmit+0x3e>
 8002598:	2302      	movs	r3, #2
 800259a:	e06e      	b.n	800267a <HAL_UART_Transmit+0x11c>
 800259c:	68fb      	ldr	r3, [r7, #12]
 800259e:	2201      	movs	r2, #1
 80025a0:	f883 203c 	strb.w	r2, [r3, #60]	; 0x3c

    huart->ErrorCode = HAL_UART_ERROR_NONE;
 80025a4:	68fb      	ldr	r3, [r7, #12]
 80025a6:	2200      	movs	r2, #0
 80025a8:	641a      	str	r2, [r3, #64]	; 0x40
    huart->gState = HAL_UART_STATE_BUSY_TX;
 80025aa:	68fb      	ldr	r3, [r7, #12]
 80025ac:	2221      	movs	r2, #33	; 0x21
 80025ae:	f883 203d 	strb.w	r2, [r3, #61]	; 0x3d

    /* Init tickstart for timeout management */
    tickstart = HAL_GetTick();
 80025b2:	f7fe ff7d 	bl	80014b0 <HAL_GetTick>
 80025b6:	6178      	str	r0, [r7, #20]

    huart->TxXferSize = Size;
 80025b8:	68fb      	ldr	r3, [r7, #12]
 80025ba:	88fa      	ldrh	r2, [r7, #6]
 80025bc:	849a      	strh	r2, [r3, #36]	; 0x24
    huart->TxXferCount = Size;
 80025be:	68fb      	ldr	r3, [r7, #12]
 80025c0:	88fa      	ldrh	r2, [r7, #6]
 80025c2:	84da      	strh	r2, [r3, #38]	; 0x26

    /* In case of 9bits/No Parity transfer, pData needs to be handled as a uint16_t pointer */
    if ((huart->Init.WordLength == UART_WORDLENGTH_9B) && (huart->Init.Parity == UART_PARITY_NONE))
 80025c4:	68fb      	ldr	r3, [r7, #12]
 80025c6:	689b      	ldr	r3, [r3, #8]
 80025c8:	f5b3 5f80 	cmp.w	r3, #4096	; 0x1000
 80025cc:	d108      	bne.n	80025e0 <HAL_UART_Transmit+0x82>
 80025ce:	68fb      	ldr	r3, [r7, #12]
 80025d0:	691b      	ldr	r3, [r3, #16]
 80025d2:	2b00      	cmp	r3, #0
 80025d4:	d104      	bne.n	80025e0 <HAL_UART_Transmit+0x82>
    {
      pdata8bits  = NULL;
 80025d6:	2300      	movs	r3, #0
 80025d8:	61fb      	str	r3, [r7, #28]
      pdata16bits = (const uint16_t *) pData;
 80025da:	68bb      	ldr	r3, [r7, #8]
 80025dc:	61bb      	str	r3, [r7, #24]
 80025de:	e003      	b.n	80025e8 <HAL_UART_Transmit+0x8a>
    }
    else
    {
      pdata8bits  = pData;
 80025e0:	68bb      	ldr	r3, [r7, #8]
 80025e2:	61fb      	str	r3, [r7, #28]
      pdata16bits = NULL;
 80025e4:	2300      	movs	r3, #0
 80025e6:	61bb      	str	r3, [r7, #24]
    }

    /* Process Unlocked */
    __HAL_UNLOCK(huart);
 80025e8:	68fb      	ldr	r3, [r7, #12]
 80025ea:	2200      	movs	r2, #0
 80025ec:	f883 203c 	strb.w	r2, [r3, #60]	; 0x3c

    while (huart->TxXferCount > 0U)
 80025f0:	e02a      	b.n	8002648 <HAL_UART_Transmit+0xea>
    {
      if (UART_WaitOnFlagUntilTimeout(huart, UART_FLAG_TXE, RESET, tickstart, Timeout) != HAL_OK)
 80025f2:	683b      	ldr	r3, [r7, #0]
 80025f4:	9300      	str	r3, [sp, #0]
 80025f6:	697b      	ldr	r3, [r7, #20]
 80025f8:	2200      	movs	r2, #0
 80025fa:	2180      	movs	r1, #128	; 0x80
 80025fc:	68f8      	ldr	r0, [r7, #12]
 80025fe:	f000 fb1f 	bl	8002c40 <UART_WaitOnFlagUntilTimeout>
 8002602:	4603      	mov	r3, r0
 8002604:	2b00      	cmp	r3, #0
 8002606:	d001      	beq.n	800260c <HAL_UART_Transmit+0xae>
      {
        return HAL_TIMEOUT;
 8002608:	2303      	movs	r3, #3
 800260a:	e036      	b.n	800267a <HAL_UART_Transmit+0x11c>
      }
      if (pdata8bits == NULL)
 800260c:	69fb      	ldr	r3, [r7, #28]
 800260e:	2b00      	cmp	r3, #0
 8002610:	d10b      	bne.n	800262a <HAL_UART_Transmit+0xcc>
      {
        huart->Instance->DR = (uint16_t)(*pdata16bits & 0x01FFU);
 8002612:	69bb      	ldr	r3, [r7, #24]
 8002614:	881b      	ldrh	r3, [r3, #0]
 8002616:	461a      	mov	r2, r3
 8002618:	68fb      	ldr	r3, [r7, #12]
 800261a:	681b      	ldr	r3, [r3, #0]
 800261c:	f3c2 0208 	ubfx	r2, r2, #0, #9
 8002620:	605a      	str	r2, [r3, #4]
        pdata16bits++;
 8002622:	69bb      	ldr	r3, [r7, #24]
 8002624:	3302      	adds	r3, #2
 8002626:	61bb      	str	r3, [r7, #24]
 8002628:	e007      	b.n	800263a <HAL_UART_Transmit+0xdc>
      }
      else
      {
        huart->Instance->DR = (uint8_t)(*pdata8bits & 0xFFU);
 800262a:	69fb      	ldr	r3, [r7, #28]
 800262c:	781a      	ldrb	r2, [r3, #0]
 800262e:	68fb      	ldr	r3, [r7, #12]
 8002630:	681b      	ldr	r3, [r3, #0]
 8002632:	605a      	str	r2, [r3, #4]
        pdata8bits++;
 8002634:	69fb      	ldr	r3, [r7, #28]
 8002636:	3301      	adds	r3, #1
 8002638:	61fb      	str	r3, [r7, #28]
      }
      huart->TxXferCount--;
 800263a:	68fb      	ldr	r3, [r7, #12]
 800263c:	8cdb      	ldrh	r3, [r3, #38]	; 0x26
 800263e:	b29b      	uxth	r3, r3
 8002640:	3b01      	subs	r3, #1
 8002642:	b29a      	uxth	r2, r3
 8002644:	68fb      	ldr	r3, [r7, #12]
 8002646:	84da      	strh	r2, [r3, #38]	; 0x26
    while (huart->TxXferCount > 0U)
 8002648:	68fb      	ldr	r3, [r7, #12]
 800264a:	8cdb      	ldrh	r3, [r3, #38]	; 0x26
 800264c:	b29b      	uxth	r3, r3
 800264e:	2b00      	cmp	r3, #0
 8002650:	d1cf      	bne.n	80025f2 <HAL_UART_Transmit+0x94>
    }

    if (UART_WaitOnFlagUntilTimeout(huart, UART_FLAG_TC, RESET, tickstart, Timeout) != HAL_OK)
 8002652:	683b      	ldr	r3, [r7, #0]
 8002654:	9300      	str	r3, [sp, #0]
 8002656:	697b      	ldr	r3, [r7, #20]
 8002658:	2200      	movs	r2, #0
 800265a:	2140      	movs	r1, #64	; 0x40
 800265c:	68f8      	ldr	r0, [r7, #12]
 800265e:	f000 faef 	bl	8002c40 <UART_WaitOnFlagUntilTimeout>
 8002662:	4603      	mov	r3, r0
 8002664:	2b00      	cmp	r3, #0
 8002666:	d001      	beq.n	800266c <HAL_UART_Transmit+0x10e>
    {
      return HAL_TIMEOUT;
 8002668:	2303      	movs	r3, #3
 800266a:	e006      	b.n	800267a <HAL_UART_Transmit+0x11c>
    }

    /* At end of Tx process, restore huart->gState to Ready */
    huart->gState = HAL_UART_STATE_READY;
 800266c:	68fb      	ldr	r3, [r7, #12]
 800266e:	2220      	movs	r2, #32
 8002670:	f883 203d 	strb.w	r2, [r3, #61]	; 0x3d

    return HAL_OK;
 8002674:	2300      	movs	r3, #0
 8002676:	e000      	b.n	800267a <HAL_UART_Transmit+0x11c>
  }
  else
  {
    return HAL_BUSY;
 8002678:	2302      	movs	r3, #2
  }
}
 800267a:	4618      	mov	r0, r3
 800267c:	3720      	adds	r7, #32
 800267e:	46bd      	mov	sp, r7
 8002680:	bd80      	pop	{r7, pc}

08002682 <HAL_UART_Receive_IT>:
  * @param  pData Pointer to data buffer (u8 or u16 data elements).
  * @param  Size  Amount of data elements (u8 or u16) to be received.
  * @retval HAL status
  */
HAL_StatusTypeDef HAL_UART_Receive_IT(UART_HandleTypeDef *huart, uint8_t *pData, uint16_t Size)
{
 8002682:	b580      	push	{r7, lr}
 8002684:	b084      	sub	sp, #16
 8002686:	af00      	add	r7, sp, #0
 8002688:	60f8      	str	r0, [r7, #12]
 800268a:	60b9      	str	r1, [r7, #8]
 800268c:	4613      	mov	r3, r2
 800268e:	80fb      	strh	r3, [r7, #6]
  /* Check that a Rx process is not already ongoing */
  if (huart->RxState == HAL_UART_STATE_READY)
 8002690:	68fb      	ldr	r3, [r7, #12]
 8002692:	f893 303e 	ldrb.w	r3, [r3, #62]	; 0x3e
 8002696:	b2db      	uxtb	r3, r3
 8002698:	2b20      	cmp	r3, #32
 800269a:	d11d      	bne.n	80026d8 <HAL_UART_Receive_IT+0x56>
  {
    if ((pData == NULL) || (Size == 0U))
 800269c:	68bb      	ldr	r3, [r7, #8]
 800269e:	2b00      	cmp	r3, #0
 80026a0:	d002      	beq.n	80026a8 <HAL_UART_Receive_IT+0x26>
 80026a2:	88fb      	ldrh	r3, [r7, #6]
 80026a4:	2b00      	cmp	r3, #0
 80026a6:	d101      	bne.n	80026ac <HAL_UART_Receive_IT+0x2a>
    {
      return HAL_ERROR;
 80026a8:	2301      	movs	r3, #1
 80026aa:	e016      	b.n	80026da <HAL_UART_Receive_IT+0x58>
    }

    /* Process Locked */
    __HAL_LOCK(huart);
 80026ac:	68fb      	ldr	r3, [r7, #12]
 80026ae:	f893 303c 	ldrb.w	r3, [r3, #60]	; 0x3c
 80026b2:	2b01      	cmp	r3, #1
 80026b4:	d101      	bne.n	80026ba <HAL_UART_Receive_IT+0x38>
 80026b6:	2302      	movs	r3, #2
 80026b8:	e00f      	b.n	80026da <HAL_UART_Receive_IT+0x58>
 80026ba:	68fb      	ldr	r3, [r7, #12]
 80026bc:	2201      	movs	r2, #1
 80026be:	f883 203c 	strb.w	r2, [r3, #60]	; 0x3c

    /* Set Reception type to Standard reception */
    huart->ReceptionType = HAL_UART_RECEPTION_STANDARD;
 80026c2:	68fb      	ldr	r3, [r7, #12]
 80026c4:	2200      	movs	r2, #0
 80026c6:	631a      	str	r2, [r3, #48]	; 0x30

    return (UART_Start_Receive_IT(huart, pData, Size));
 80026c8:	88fb      	ldrh	r3, [r7, #6]
 80026ca:	461a      	mov	r2, r3
 80026cc:	68b9      	ldr	r1, [r7, #8]
 80026ce:	68f8      	ldr	r0, [r7, #12]
 80026d0:	f000 fb24 	bl	8002d1c <UART_Start_Receive_IT>
 80026d4:	4603      	mov	r3, r0
 80026d6:	e000      	b.n	80026da <HAL_UART_Receive_IT+0x58>
  }
  else
  {
    return HAL_BUSY;
 80026d8:	2302      	movs	r3, #2
  }
}
 80026da:	4618      	mov	r0, r3
 80026dc:	3710      	adds	r7, #16
 80026de:	46bd      	mov	sp, r7
 80026e0:	bd80      	pop	{r7, pc}
	...

080026e4 <HAL_UART_IRQHandler>:
  * @param  huart  Pointer to a UART_HandleTypeDef structure that contains
  *                the configuration information for the specified UART module.
  * @retval None
  */
void HAL_UART_IRQHandler(UART_HandleTypeDef *huart)
{
 80026e4:	b580      	push	{r7, lr}
 80026e6:	b0ba      	sub	sp, #232	; 0xe8
 80026e8:	af00      	add	r7, sp, #0
 80026ea:	6078      	str	r0, [r7, #4]
  uint32_t isrflags   = READ_REG(huart->Instance->SR);
 80026ec:	687b      	ldr	r3, [r7, #4]
 80026ee:	681b      	ldr	r3, [r3, #0]
 80026f0:	681b      	ldr	r3, [r3, #0]
 80026f2:	f8c7 30e4 	str.w	r3, [r7, #228]	; 0xe4
  uint32_t cr1its     = READ_REG(huart->Instance->CR1);
 80026f6:	687b      	ldr	r3, [r7, #4]
 80026f8:	681b      	ldr	r3, [r3, #0]
 80026fa:	68db      	ldr	r3, [r3, #12]
 80026fc:	f8c7 30e0 	str.w	r3, [r7, #224]	; 0xe0
  uint32_t cr3its     = READ_REG(huart->Instance->CR3);
 8002700:	687b      	ldr	r3, [r7, #4]
 8002702:	681b      	ldr	r3, [r3, #0]
 8002704:	695b      	ldr	r3, [r3, #20]
 8002706:	f8c7 30dc 	str.w	r3, [r7, #220]	; 0xdc
  uint32_t errorflags = 0x00U;
 800270a:	2300      	movs	r3, #0
 800270c:	f8c7 30d8 	str.w	r3, [r7, #216]	; 0xd8
  uint32_t dmarequest = 0x00U;
 8002710:	2300      	movs	r3, #0
 8002712:	f8c7 30d4 	str.w	r3, [r7, #212]	; 0xd4

  /* If no error occurs */
  errorflags = (isrflags & (uint32_t)(USART_SR_PE | USART_SR_FE | USART_SR_ORE | USART_SR_NE));
 8002716:	f8d7 30e4 	ldr.w	r3, [r7, #228]	; 0xe4
 800271a:	f003 030f 	and.w	r3, r3, #15
 800271e:	f8c7 30d8 	str.w	r3, [r7, #216]	; 0xd8
  if (errorflags == RESET)
 8002722:	f8d7 30d8 	ldr.w	r3, [r7, #216]	; 0xd8
 8002726:	2b00      	cmp	r3, #0
 8002728:	d10f      	bne.n	800274a <HAL_UART_IRQHandler+0x66>
  {
    /* UART in mode Receiver -------------------------------------------------*/
    if (((isrflags & USART_SR_RXNE) != RESET) && ((cr1its & USART_CR1_RXNEIE) != RESET))
 800272a:	f8d7 30e4 	ldr.w	r3, [r7, #228]	; 0xe4
 800272e:	f003 0320 	and.w	r3, r3, #32
 8002732:	2b00      	cmp	r3, #0
 8002734:	d009      	beq.n	800274a <HAL_UART_IRQHandler+0x66>
 8002736:	f8d7 30e0 	ldr.w	r3, [r7, #224]	; 0xe0
 800273a:	f003 0320 	and.w	r3, r3, #32
 800273e:	2b00      	cmp	r3, #0
 8002740:	d003      	beq.n	800274a <HAL_UART_IRQHandler+0x66>
    {
      UART_Receive_IT(huart);
 8002742:	6878      	ldr	r0, [r7, #4]
 8002744:	f000 fc07 	bl	8002f56 <UART_Receive_IT>
      return;
 8002748:	e256      	b.n	8002bf8 <HAL_UART_IRQHandler+0x514>
    }
  }

  /* If some errors occur */
  if ((errorflags != RESET) && (((cr3its & USART_CR3_EIE) != RESET)
 800274a:	f8d7 30d8 	ldr.w	r3, [r7, #216]	; 0xd8
 800274e:	2b00      	cmp	r3, #0
 8002750:	f000 80de 	beq.w	8002910 <HAL_UART_IRQHandler+0x22c>
 8002754:	f8d7 30dc 	ldr.w	r3, [r7, #220]	; 0xdc
 8002758:	f003 0301 	and.w	r3, r3, #1
 800275c:	2b00      	cmp	r3, #0
 800275e:	d106      	bne.n	800276e <HAL_UART_IRQHandler+0x8a>
                                || ((cr1its & (USART_CR1_RXNEIE | USART_CR1_PEIE)) != RESET)))
 8002760:	f8d7 30e0 	ldr.w	r3, [r7, #224]	; 0xe0
 8002764:	f403 7390 	and.w	r3, r3, #288	; 0x120
 8002768:	2b00      	cmp	r3, #0
 800276a:	f000 80d1 	beq.w	8002910 <HAL_UART_IRQHandler+0x22c>
  {
    /* UART parity error interrupt occurred ----------------------------------*/
    if (((isrflags & USART_SR_PE) != RESET) && ((cr1its & USART_CR1_PEIE) != RESET))
 800276e:	f8d7 30e4 	ldr.w	r3, [r7, #228]	; 0xe4
 8002772:	f003 0301 	and.w	r3, r3, #1
 8002776:	2b00      	cmp	r3, #0
 8002778:	d00b      	beq.n	8002792 <HAL_UART_IRQHandler+0xae>
 800277a:	f8d7 30e0 	ldr.w	r3, [r7, #224]	; 0xe0
 800277e:	f403 7380 	and.w	r3, r3, #256	; 0x100
 8002782:	2b00      	cmp	r3, #0
 8002784:	d005      	beq.n	8002792 <HAL_UART_IRQHandler+0xae>
    {
      huart->ErrorCode |= HAL_UART_ERROR_PE;
 8002786:	687b      	ldr	r3, [r7, #4]
 8002788:	6c1b      	ldr	r3, [r3, #64]	; 0x40
 800278a:	f043 0201 	orr.w	r2, r3, #1
 800278e:	687b      	ldr	r3, [r7, #4]
 8002790:	641a      	str	r2, [r3, #64]	; 0x40
    }

    /* UART noise error interrupt occurred -----------------------------------*/
    if (((isrflags & USART_SR_NE) != RESET) && ((cr3its & USART_CR3_EIE) != RESET))
 8002792:	f8d7 30e4 	ldr.w	r3, [r7, #228]	; 0xe4
 8002796:	f003 0304 	and.w	r3, r3, #4
 800279a:	2b00      	cmp	r3, #0
 800279c:	d00b      	beq.n	80027b6 <HAL_UART_IRQHandler+0xd2>
 800279e:	f8d7 30dc 	ldr.w	r3, [r7, #220]	; 0xdc
 80027a2:	f003 0301 	and.w	r3, r3, #1
 80027a6:	2b00      	cmp	r3, #0
 80027a8:	d005      	beq.n	80027b6 <HAL_UART_IRQHandler+0xd2>
    {
      huart->ErrorCode |= HAL_UART_ERROR_NE;
 80027aa:	687b      	ldr	r3, [r7, #4]
 80027ac:	6c1b      	ldr	r3, [r3, #64]	; 0x40
 80027ae:	f043 0202 	orr.w	r2, r3, #2
 80027b2:	687b      	ldr	r3, [r7, #4]
 80027b4:	641a      	str	r2, [r3, #64]	; 0x40
    }

    /* UART frame error interrupt occurred -----------------------------------*/
    if (((isrflags & USART_SR_FE) != RESET) && ((cr3its & USART_CR3_EIE) != RESET))
 80027b6:	f8d7 30e4 	ldr.w	r3, [r7, #228]	; 0xe4
 80027ba:	f003 0302 	and.w	r3, r3, #2
 80027be:	2b00      	cmp	r3, #0
 80027c0:	d00b      	beq.n	80027da <HAL_UART_IRQHandler+0xf6>
 80027c2:	f8d7 30dc 	ldr.w	r3, [r7, #220]	; 0xdc
 80027c6:	f003 0301 	and.w	r3, r3, #1
 80027ca:	2b00      	cmp	r3, #0
 80027cc:	d005      	beq.n	80027da <HAL_UART_IRQHandler+0xf6>
    {
      huart->ErrorCode |= HAL_UART_ERROR_FE;
 80027ce:	687b      	ldr	r3, [r7, #4]
 80027d0:	6c1b      	ldr	r3, [r3, #64]	; 0x40
 80027d2:	f043 0204 	orr.w	r2, r3, #4
 80027d6:	687b      	ldr	r3, [r7, #4]
 80027d8:	641a      	str	r2, [r3, #64]	; 0x40
    }

    /* UART Over-Run interrupt occurred --------------------------------------*/
    if (((isrflags & USART_SR_ORE) != RESET) && (((cr1its & USART_CR1_RXNEIE) != RESET)
 80027da:	f8d7 30e4 	ldr.w	r3, [r7, #228]	; 0xe4
 80027de:	f003 0308 	and.w	r3, r3, #8
 80027e2:	2b00      	cmp	r3, #0
 80027e4:	d011      	beq.n	800280a <HAL_UART_IRQHandler+0x126>
 80027e6:	f8d7 30e0 	ldr.w	r3, [r7, #224]	; 0xe0
 80027ea:	f003 0320 	and.w	r3, r3, #32
 80027ee:	2b00      	cmp	r3, #0
 80027f0:	d105      	bne.n	80027fe <HAL_UART_IRQHandler+0x11a>
                                                 || ((cr3its & USART_CR3_EIE) != RESET)))
 80027f2:	f8d7 30dc 	ldr.w	r3, [r7, #220]	; 0xdc
 80027f6:	f003 0301 	and.w	r3, r3, #1
 80027fa:	2b00      	cmp	r3, #0
 80027fc:	d005      	beq.n	800280a <HAL_UART_IRQHandler+0x126>
    {
      huart->ErrorCode |= HAL_UART_ERROR_ORE;
 80027fe:	687b      	ldr	r3, [r7, #4]
 8002800:	6c1b      	ldr	r3, [r3, #64]	; 0x40
 8002802:	f043 0208 	orr.w	r2, r3, #8
 8002806:	687b      	ldr	r3, [r7, #4]
 8002808:	641a      	str	r2, [r3, #64]	; 0x40
    }

    /* Call UART Error Call back function if need be --------------------------*/
    if (huart->ErrorCode != HAL_UART_ERROR_NONE)
 800280a:	687b      	ldr	r3, [r7, #4]
 800280c:	6c1b      	ldr	r3, [r3, #64]	; 0x40
 800280e:	2b00      	cmp	r3, #0
 8002810:	f000 81ed 	beq.w	8002bee <HAL_UART_IRQHandler+0x50a>
    {
      /* UART in mode Receiver -----------------------------------------------*/
      if (((isrflags & USART_SR_RXNE) != RESET) && ((cr1its & USART_CR1_RXNEIE) != RESET))
 8002814:	f8d7 30e4 	ldr.w	r3, [r7, #228]	; 0xe4
 8002818:	f003 0320 	and.w	r3, r3, #32
 800281c:	2b00      	cmp	r3, #0
 800281e:	d008      	beq.n	8002832 <HAL_UART_IRQHandler+0x14e>
 8002820:	f8d7 30e0 	ldr.w	r3, [r7, #224]	; 0xe0
 8002824:	f003 0320 	and.w	r3, r3, #32
 8002828:	2b00      	cmp	r3, #0
 800282a:	d002      	beq.n	8002832 <HAL_UART_IRQHandler+0x14e>
      {
        UART_Receive_IT(huart);
 800282c:	6878      	ldr	r0, [r7, #4]
 800282e:	f000 fb92 	bl	8002f56 <UART_Receive_IT>
      }

      /* If Overrun error occurs, or if any error occurs in DMA mode reception,
         consider error as blocking */
      dmarequest = HAL_IS_BIT_SET(huart->Instance->CR3, USART_CR3_DMAR);
 8002832:	687b      	ldr	r3, [r7, #4]
 8002834:	681b      	ldr	r3, [r3, #0]
 8002836:	695b      	ldr	r3, [r3, #20]
 8002838:	f003 0340 	and.w	r3, r3, #64	; 0x40
 800283c:	2b40      	cmp	r3, #64	; 0x40
 800283e:	bf0c      	ite	eq
 8002840:	2301      	moveq	r3, #1
 8002842:	2300      	movne	r3, #0
 8002844:	b2db      	uxtb	r3, r3
 8002846:	f8c7 30d4 	str.w	r3, [r7, #212]	; 0xd4
      if (((huart->ErrorCode & HAL_UART_ERROR_ORE) != RESET) || dmarequest)
 800284a:	687b      	ldr	r3, [r7, #4]
 800284c:	6c1b      	ldr	r3, [r3, #64]	; 0x40
 800284e:	f003 0308 	and.w	r3, r3, #8
 8002852:	2b00      	cmp	r3, #0
 8002854:	d103      	bne.n	800285e <HAL_UART_IRQHandler+0x17a>
 8002856:	f8d7 30d4 	ldr.w	r3, [r7, #212]	; 0xd4
 800285a:	2b00      	cmp	r3, #0
 800285c:	d04f      	beq.n	80028fe <HAL_UART_IRQHandler+0x21a>
      {
        /* Blocking error : transfer is aborted
           Set the UART state ready to be able to start again the process,
           Disable Rx Interrupts, and disable Rx DMA request, if ongoing */
        UART_EndRxTransfer(huart);
 800285e:	6878      	ldr	r0, [r7, #4]
 8002860:	f000 fa9a 	bl	8002d98 <UART_EndRxTransfer>

        /* Disable the UART DMA Rx request if enabled */
        if (HAL_IS_BIT_SET(huart->Instance->CR3, USART_CR3_DMAR))
 8002864:	687b      	ldr	r3, [r7, #4]
 8002866:	681b      	ldr	r3, [r3, #0]
 8002868:	695b      	ldr	r3, [r3, #20]
 800286a:	f003 0340 	and.w	r3, r3, #64	; 0x40
 800286e:	2b40      	cmp	r3, #64	; 0x40
 8002870:	d141      	bne.n	80028f6 <HAL_UART_IRQHandler+0x212>
        {
          ATOMIC_CLEAR_BIT(huart->Instance->CR3, USART_CR3_DMAR);
 8002872:	687b      	ldr	r3, [r7, #4]
 8002874:	681b      	ldr	r3, [r3, #0]
 8002876:	3314      	adds	r3, #20
 8002878:	f8c7 309c 	str.w	r3, [r7, #156]	; 0x9c
 */
__STATIC_FORCEINLINE uint32_t __LDREXW(volatile uint32_t *addr)
{
    uint32_t result;

   __ASM volatile ("ldrex %0, %1" : "=r" (result) : "Q" (*addr) );
 800287c:	f8d7 309c 	ldr.w	r3, [r7, #156]	; 0x9c
 8002880:	e853 3f00 	ldrex	r3, [r3]
 8002884:	f8c7 3098 	str.w	r3, [r7, #152]	; 0x98
   return(result);
 8002888:	f8d7 3098 	ldr.w	r3, [r7, #152]	; 0x98
 800288c:	f023 0340 	bic.w	r3, r3, #64	; 0x40
 8002890:	f8c7 30d0 	str.w	r3, [r7, #208]	; 0xd0
 8002894:	687b      	ldr	r3, [r7, #4]
 8002896:	681b      	ldr	r3, [r3, #0]
 8002898:	3314      	adds	r3, #20
 800289a:	f8d7 20d0 	ldr.w	r2, [r7, #208]	; 0xd0
 800289e:	f8c7 20a8 	str.w	r2, [r7, #168]	; 0xa8
 80028a2:	f8c7 30a4 	str.w	r3, [r7, #164]	; 0xa4
 */
__STATIC_FORCEINLINE uint32_t __STREXW(uint32_t value, volatile uint32_t *addr)
{
   uint32_t result;

   __ASM volatile ("strex %0, %2, %1" : "=&r" (result), "=Q" (*addr) : "r" (value) );
 80028a6:	f8d7 10a4 	ldr.w	r1, [r7, #164]	; 0xa4
 80028aa:	f8d7 20a8 	ldr.w	r2, [r7, #168]	; 0xa8
 80028ae:	e841 2300 	strex	r3, r2, [r1]
 80028b2:	f8c7 30a0 	str.w	r3, [r7, #160]	; 0xa0
   return(result);
 80028b6:	f8d7 30a0 	ldr.w	r3, [r7, #160]	; 0xa0
 80028ba:	2b00      	cmp	r3, #0
 80028bc:	d1d9      	bne.n	8002872 <HAL_UART_IRQHandler+0x18e>

          /* Abort the UART DMA Rx stream */
          if (huart->hdmarx != NULL)
 80028be:	687b      	ldr	r3, [r7, #4]
 80028c0:	6b9b      	ldr	r3, [r3, #56]	; 0x38
 80028c2:	2b00      	cmp	r3, #0
 80028c4:	d013      	beq.n	80028ee <HAL_UART_IRQHandler+0x20a>
          {
            /* Set the UART DMA Abort callback :
               will lead to call HAL_UART_ErrorCallback() at end of DMA abort procedure */
            huart->hdmarx->XferAbortCallback = UART_DMAAbortOnError;
 80028c6:	687b      	ldr	r3, [r7, #4]
 80028c8:	6b9b      	ldr	r3, [r3, #56]	; 0x38
 80028ca:	4a7d      	ldr	r2, [pc, #500]	; (8002ac0 <HAL_UART_IRQHandler+0x3dc>)
 80028cc:	651a      	str	r2, [r3, #80]	; 0x50
            if (HAL_DMA_Abort_IT(huart->hdmarx) != HAL_OK)
 80028ce:	687b      	ldr	r3, [r7, #4]
 80028d0:	6b9b      	ldr	r3, [r3, #56]	; 0x38
 80028d2:	4618      	mov	r0, r3
 80028d4:	f7fe ff9d 	bl	8001812 <HAL_DMA_Abort_IT>
 80028d8:	4603      	mov	r3, r0
 80028da:	2b00      	cmp	r3, #0
 80028dc:	d016      	beq.n	800290c <HAL_UART_IRQHandler+0x228>
            {
              /* Call Directly XferAbortCallback function in case of error */
              huart->hdmarx->XferAbortCallback(huart->hdmarx);
 80028de:	687b      	ldr	r3, [r7, #4]
 80028e0:	6b9b      	ldr	r3, [r3, #56]	; 0x38
 80028e2:	6d1b      	ldr	r3, [r3, #80]	; 0x50
 80028e4:	687a      	ldr	r2, [r7, #4]
 80028e6:	6b92      	ldr	r2, [r2, #56]	; 0x38
 80028e8:	4610      	mov	r0, r2
 80028ea:	4798      	blx	r3
        if (HAL_IS_BIT_SET(huart->Instance->CR3, USART_CR3_DMAR))
 80028ec:	e00e      	b.n	800290c <HAL_UART_IRQHandler+0x228>
#if (USE_HAL_UART_REGISTER_CALLBACKS == 1)
            /*Call registered error callback*/
            huart->ErrorCallback(huart);
#else
            /*Call legacy weak error callback*/
            HAL_UART_ErrorCallback(huart);
 80028ee:	6878      	ldr	r0, [r7, #4]
 80028f0:	f000 f990 	bl	8002c14 <HAL_UART_ErrorCallback>
        if (HAL_IS_BIT_SET(huart->Instance->CR3, USART_CR3_DMAR))
 80028f4:	e00a      	b.n	800290c <HAL_UART_IRQHandler+0x228>
#if (USE_HAL_UART_REGISTER_CALLBACKS == 1)
          /*Call registered error callback*/
          huart->ErrorCallback(huart);
#else
          /*Call legacy weak error callback*/
          HAL_UART_ErrorCallback(huart);
 80028f6:	6878      	ldr	r0, [r7, #4]
 80028f8:	f000 f98c 	bl	8002c14 <HAL_UART_ErrorCallback>
        if (HAL_IS_BIT_SET(huart->Instance->CR3, USART_CR3_DMAR))
 80028fc:	e006      	b.n	800290c <HAL_UART_IRQHandler+0x228>
#if (USE_HAL_UART_REGISTER_CALLBACKS == 1)
        /*Call registered error callback*/
        huart->ErrorCallback(huart);
#else
        /*Call legacy weak error callback*/
        HAL_UART_ErrorCallback(huart);
 80028fe:	6878      	ldr	r0, [r7, #4]
 8002900:	f000 f988 	bl	8002c14 <HAL_UART_ErrorCallback>
#endif /* USE_HAL_UART_REGISTER_CALLBACKS */

        huart->ErrorCode = HAL_UART_ERROR_NONE;
 8002904:	687b      	ldr	r3, [r7, #4]
 8002906:	2200      	movs	r2, #0
 8002908:	641a      	str	r2, [r3, #64]	; 0x40
      }
    }
    return;
 800290a:	e170      	b.n	8002bee <HAL_UART_IRQHandler+0x50a>
        if (HAL_IS_BIT_SET(huart->Instance->CR3, USART_CR3_DMAR))
 800290c:	bf00      	nop
    return;
 800290e:	e16e      	b.n	8002bee <HAL_UART_IRQHandler+0x50a>
  } /* End if some error occurs */

  /* Check current reception Mode :
     If Reception till IDLE event has been selected : */
  if ((huart->ReceptionType == HAL_UART_RECEPTION_TOIDLE)
 8002910:	687b      	ldr	r3, [r7, #4]
 8002912:	6b1b      	ldr	r3, [r3, #48]	; 0x30
 8002914:	2b01      	cmp	r3, #1
 8002916:	f040 814a 	bne.w	8002bae <HAL_UART_IRQHandler+0x4ca>
      && ((isrflags & USART_SR_IDLE) != 0U)
 800291a:	f8d7 30e4 	ldr.w	r3, [r7, #228]	; 0xe4
 800291e:	f003 0310 	and.w	r3, r3, #16
 8002922:	2b00      	cmp	r3, #0
 8002924:	f000 8143 	beq.w	8002bae <HAL_UART_IRQHandler+0x4ca>
      && ((cr1its & USART_SR_IDLE) != 0U))
 8002928:	f8d7 30e0 	ldr.w	r3, [r7, #224]	; 0xe0
 800292c:	f003 0310 	and.w	r3, r3, #16
 8002930:	2b00      	cmp	r3, #0
 8002932:	f000 813c 	beq.w	8002bae <HAL_UART_IRQHandler+0x4ca>
  {
    __HAL_UART_CLEAR_IDLEFLAG(huart);
 8002936:	2300      	movs	r3, #0
 8002938:	60bb      	str	r3, [r7, #8]
 800293a:	687b      	ldr	r3, [r7, #4]
 800293c:	681b      	ldr	r3, [r3, #0]
 800293e:	681b      	ldr	r3, [r3, #0]
 8002940:	60bb      	str	r3, [r7, #8]
 8002942:	687b      	ldr	r3, [r7, #4]
 8002944:	681b      	ldr	r3, [r3, #0]
 8002946:	685b      	ldr	r3, [r3, #4]
 8002948:	60bb      	str	r3, [r7, #8]
 800294a:	68bb      	ldr	r3, [r7, #8]

    /* Check if DMA mode is enabled in UART */
    if (HAL_IS_BIT_SET(huart->Instance->CR3, USART_CR3_DMAR))
 800294c:	687b      	ldr	r3, [r7, #4]
 800294e:	681b      	ldr	r3, [r3, #0]
 8002950:	695b      	ldr	r3, [r3, #20]
 8002952:	f003 0340 	and.w	r3, r3, #64	; 0x40
 8002956:	2b40      	cmp	r3, #64	; 0x40
 8002958:	f040 80b4 	bne.w	8002ac4 <HAL_UART_IRQHandler+0x3e0>
    {
      /* DMA mode enabled */
      /* Check received length : If all expected data are received, do nothing,
         (DMA cplt callback will be called).
         Otherwise, if at least one data has already been received, IDLE event is to be notified to user */
      uint16_t nb_remaining_rx_data = (uint16_t) __HAL_DMA_GET_COUNTER(huart->hdmarx);
 800295c:	687b      	ldr	r3, [r7, #4]
 800295e:	6b9b      	ldr	r3, [r3, #56]	; 0x38
 8002960:	681b      	ldr	r3, [r3, #0]
 8002962:	685b      	ldr	r3, [r3, #4]
 8002964:	f8a7 30be 	strh.w	r3, [r7, #190]	; 0xbe
      if ((nb_remaining_rx_data > 0U)
 8002968:	f8b7 30be 	ldrh.w	r3, [r7, #190]	; 0xbe
 800296c:	2b00      	cmp	r3, #0
 800296e:	f000 8140 	beq.w	8002bf2 <HAL_UART_IRQHandler+0x50e>
          && (nb_remaining_rx_data < huart->RxXferSize))
 8002972:	687b      	ldr	r3, [r7, #4]
 8002974:	8d9b      	ldrh	r3, [r3, #44]	; 0x2c
 8002976:	f8b7 20be 	ldrh.w	r2, [r7, #190]	; 0xbe
 800297a:	429a      	cmp	r2, r3
 800297c:	f080 8139 	bcs.w	8002bf2 <HAL_UART_IRQHandler+0x50e>
      {
        /* Reception is not complete */
        huart->RxXferCount = nb_remaining_rx_data;
 8002980:	687b      	ldr	r3, [r7, #4]
 8002982:	f8b7 20be 	ldrh.w	r2, [r7, #190]	; 0xbe
 8002986:	85da      	strh	r2, [r3, #46]	; 0x2e

        /* In Normal mode, end DMA xfer and HAL UART Rx process*/
        if (huart->hdmarx->Init.Mode != DMA_CIRCULAR)
 8002988:	687b      	ldr	r3, [r7, #4]
 800298a:	6b9b      	ldr	r3, [r3, #56]	; 0x38
 800298c:	69db      	ldr	r3, [r3, #28]
 800298e:	f5b3 7f80 	cmp.w	r3, #256	; 0x100
 8002992:	f000 8088 	beq.w	8002aa6 <HAL_UART_IRQHandler+0x3c2>
        {
          /* Disable PE and ERR (Frame error, noise error, overrun error) interrupts */
          ATOMIC_CLEAR_BIT(huart->Instance->CR1, USART_CR1_PEIE);
 8002996:	687b      	ldr	r3, [r7, #4]
 8002998:	681b      	ldr	r3, [r3, #0]
 800299a:	330c      	adds	r3, #12
 800299c:	f8c7 3088 	str.w	r3, [r7, #136]	; 0x88
   __ASM volatile ("ldrex %0, %1" : "=r" (result) : "Q" (*addr) );
 80029a0:	f8d7 3088 	ldr.w	r3, [r7, #136]	; 0x88
 80029a4:	e853 3f00 	ldrex	r3, [r3]
 80029a8:	f8c7 3084 	str.w	r3, [r7, #132]	; 0x84
   return(result);
 80029ac:	f8d7 3084 	ldr.w	r3, [r7, #132]	; 0x84
 80029b0:	f423 7380 	bic.w	r3, r3, #256	; 0x100
 80029b4:	f8c7 30b8 	str.w	r3, [r7, #184]	; 0xb8
 80029b8:	687b      	ldr	r3, [r7, #4]
 80029ba:	681b      	ldr	r3, [r3, #0]
 80029bc:	330c      	adds	r3, #12
 80029be:	f8d7 20b8 	ldr.w	r2, [r7, #184]	; 0xb8
 80029c2:	f8c7 2094 	str.w	r2, [r7, #148]	; 0x94
 80029c6:	f8c7 3090 	str.w	r3, [r7, #144]	; 0x90
   __ASM volatile ("strex %0, %2, %1" : "=&r" (result), "=Q" (*addr) : "r" (value) );
 80029ca:	f8d7 1090 	ldr.w	r1, [r7, #144]	; 0x90
 80029ce:	f8d7 2094 	ldr.w	r2, [r7, #148]	; 0x94
 80029d2:	e841 2300 	strex	r3, r2, [r1]
 80029d6:	f8c7 308c 	str.w	r3, [r7, #140]	; 0x8c
   return(result);
 80029da:	f8d7 308c 	ldr.w	r3, [r7, #140]	; 0x8c
 80029de:	2b00      	cmp	r3, #0
 80029e0:	d1d9      	bne.n	8002996 <HAL_UART_IRQHandler+0x2b2>
          ATOMIC_CLEAR_BIT(huart->Instance->CR3, USART_CR3_EIE);
 80029e2:	687b      	ldr	r3, [r7, #4]
 80029e4:	681b      	ldr	r3, [r3, #0]
 80029e6:	3314      	adds	r3, #20
 80029e8:	677b      	str	r3, [r7, #116]	; 0x74
   __ASM volatile ("ldrex %0, %1" : "=r" (result) : "Q" (*addr) );
 80029ea:	6f7b      	ldr	r3, [r7, #116]	; 0x74
 80029ec:	e853 3f00 	ldrex	r3, [r3]
 80029f0:	673b      	str	r3, [r7, #112]	; 0x70
   return(result);
 80029f2:	6f3b      	ldr	r3, [r7, #112]	; 0x70
 80029f4:	f023 0301 	bic.w	r3, r3, #1
 80029f8:	f8c7 30b4 	str.w	r3, [r7, #180]	; 0xb4
 80029fc:	687b      	ldr	r3, [r7, #4]
 80029fe:	681b      	ldr	r3, [r3, #0]
 8002a00:	3314      	adds	r3, #20
 8002a02:	f8d7 20b4 	ldr.w	r2, [r7, #180]	; 0xb4
 8002a06:	f8c7 2080 	str.w	r2, [r7, #128]	; 0x80
 8002a0a:	67fb      	str	r3, [r7, #124]	; 0x7c
   __ASM volatile ("strex %0, %2, %1" : "=&r" (result), "=Q" (*addr) : "r" (value) );
 8002a0c:	6ff9      	ldr	r1, [r7, #124]	; 0x7c
 8002a0e:	f8d7 2080 	ldr.w	r2, [r7, #128]	; 0x80
 8002a12:	e841 2300 	strex	r3, r2, [r1]
 8002a16:	67bb      	str	r3, [r7, #120]	; 0x78
   return(result);
 8002a18:	6fbb      	ldr	r3, [r7, #120]	; 0x78
 8002a1a:	2b00      	cmp	r3, #0
 8002a1c:	d1e1      	bne.n	80029e2 <HAL_UART_IRQHandler+0x2fe>

          /* Disable the DMA transfer for the receiver request by resetting the DMAR bit
             in the UART CR3 register */
          ATOMIC_CLEAR_BIT(huart->Instance->CR3, USART_CR3_DMAR);
 8002a1e:	687b      	ldr	r3, [r7, #4]
 8002a20:	681b      	ldr	r3, [r3, #0]
 8002a22:	3314      	adds	r3, #20
 8002a24:	663b      	str	r3, [r7, #96]	; 0x60
   __ASM volatile ("ldrex %0, %1" : "=r" (result) : "Q" (*addr) );
 8002a26:	6e3b      	ldr	r3, [r7, #96]	; 0x60
 8002a28:	e853 3f00 	ldrex	r3, [r3]
 8002a2c:	65fb      	str	r3, [r7, #92]	; 0x5c
   return(result);
 8002a2e:	6dfb      	ldr	r3, [r7, #92]	; 0x5c
 8002a30:	f023 0340 	bic.w	r3, r3, #64	; 0x40
 8002a34:	f8c7 30b0 	str.w	r3, [r7, #176]	; 0xb0
 8002a38:	687b      	ldr	r3, [r7, #4]
 8002a3a:	681b      	ldr	r3, [r3, #0]
 8002a3c:	3314      	adds	r3, #20
 8002a3e:	f8d7 20b0 	ldr.w	r2, [r7, #176]	; 0xb0
 8002a42:	66fa      	str	r2, [r7, #108]	; 0x6c
 8002a44:	66bb      	str	r3, [r7, #104]	; 0x68
   __ASM volatile ("strex %0, %2, %1" : "=&r" (result), "=Q" (*addr) : "r" (value) );
 8002a46:	6eb9      	ldr	r1, [r7, #104]	; 0x68
 8002a48:	6efa      	ldr	r2, [r7, #108]	; 0x6c
 8002a4a:	e841 2300 	strex	r3, r2, [r1]
 8002a4e:	667b      	str	r3, [r7, #100]	; 0x64
   return(result);
 8002a50:	6e7b      	ldr	r3, [r7, #100]	; 0x64
 8002a52:	2b00      	cmp	r3, #0
 8002a54:	d1e3      	bne.n	8002a1e <HAL_UART_IRQHandler+0x33a>

          /* At end of Rx process, restore huart->RxState to Ready */
          huart->RxState = HAL_UART_STATE_READY;
 8002a56:	687b      	ldr	r3, [r7, #4]
 8002a58:	2220      	movs	r2, #32
 8002a5a:	f883 203e 	strb.w	r2, [r3, #62]	; 0x3e
          huart->ReceptionType = HAL_UART_RECEPTION_STANDARD;
 8002a5e:	687b      	ldr	r3, [r7, #4]
 8002a60:	2200      	movs	r2, #0
 8002a62:	631a      	str	r2, [r3, #48]	; 0x30

          ATOMIC_CLEAR_BIT(huart->Instance->CR1, USART_CR1_IDLEIE);
 8002a64:	687b      	ldr	r3, [r7, #4]
 8002a66:	681b      	ldr	r3, [r3, #0]
 8002a68:	330c      	adds	r3, #12
 8002a6a:	64fb      	str	r3, [r7, #76]	; 0x4c
   __ASM volatile ("ldrex %0, %1" : "=r" (result) : "Q" (*addr) );
 8002a6c:	6cfb      	ldr	r3, [r7, #76]	; 0x4c
 8002a6e:	e853 3f00 	ldrex	r3, [r3]
 8002a72:	64bb      	str	r3, [r7, #72]	; 0x48
   return(result);
 8002a74:	6cbb      	ldr	r3, [r7, #72]	; 0x48
 8002a76:	f023 0310 	bic.w	r3, r3, #16
 8002a7a:	f8c7 30ac 	str.w	r3, [r7, #172]	; 0xac
 8002a7e:	687b      	ldr	r3, [r7, #4]
 8002a80:	681b      	ldr	r3, [r3, #0]
 8002a82:	330c      	adds	r3, #12
 8002a84:	f8d7 20ac 	ldr.w	r2, [r7, #172]	; 0xac
 8002a88:	65ba      	str	r2, [r7, #88]	; 0x58
 8002a8a:	657b      	str	r3, [r7, #84]	; 0x54
   __ASM volatile ("strex %0, %2, %1" : "=&r" (result), "=Q" (*addr) : "r" (value) );
 8002a8c:	6d79      	ldr	r1, [r7, #84]	; 0x54
 8002a8e:	6dba      	ldr	r2, [r7, #88]	; 0x58
 8002a90:	e841 2300 	strex	r3, r2, [r1]
 8002a94:	653b      	str	r3, [r7, #80]	; 0x50
   return(result);
 8002a96:	6d3b      	ldr	r3, [r7, #80]	; 0x50
 8002a98:	2b00      	cmp	r3, #0
 8002a9a:	d1e3      	bne.n	8002a64 <HAL_UART_IRQHandler+0x380>

          /* Last bytes received, so no need as the abort is immediate */
          (void)HAL_DMA_Abort(huart->hdmarx);
 8002a9c:	687b      	ldr	r3, [r7, #4]
 8002a9e:	6b9b      	ldr	r3, [r3, #56]	; 0x38
 8002aa0:	4618      	mov	r0, r3
 8002aa2:	f7fe fe46 	bl	8001732 <HAL_DMA_Abort>
#if (USE_HAL_UART_REGISTER_CALLBACKS == 1)
        /*Call registered Rx Event callback*/
        huart->RxEventCallback(huart, (huart->RxXferSize - huart->RxXferCount));
#else
        /*Call legacy weak Rx Event callback*/
        HAL_UARTEx_RxEventCallback(huart, (huart->RxXferSize - huart->RxXferCount));
 8002aa6:	687b      	ldr	r3, [r7, #4]
 8002aa8:	8d9a      	ldrh	r2, [r3, #44]	; 0x2c
 8002aaa:	687b      	ldr	r3, [r7, #4]
 8002aac:	8ddb      	ldrh	r3, [r3, #46]	; 0x2e
 8002aae:	b29b      	uxth	r3, r3
 8002ab0:	1ad3      	subs	r3, r2, r3
 8002ab2:	b29b      	uxth	r3, r3
 8002ab4:	4619      	mov	r1, r3
 8002ab6:	6878      	ldr	r0, [r7, #4]
 8002ab8:	f000 f8b6 	bl	8002c28 <HAL_UARTEx_RxEventCallback>
#endif /* USE_HAL_UART_REGISTER_CALLBACKS */
      }
      return;
 8002abc:	e099      	b.n	8002bf2 <HAL_UART_IRQHandler+0x50e>
 8002abe:	bf00      	nop
 8002ac0:	08002e5f 	.word	0x08002e5f
    else
    {
      /* DMA mode not enabled */
      /* Check received length : If all expected data are received, do nothing.
         Otherwise, if at least one data has already been received, IDLE event is to be notified to user */
      uint16_t nb_rx_data = huart->RxXferSize - huart->RxXferCount;
 8002ac4:	687b      	ldr	r3, [r7, #4]
 8002ac6:	8d9a      	ldrh	r2, [r3, #44]	; 0x2c
 8002ac8:	687b      	ldr	r3, [r7, #4]
 8002aca:	8ddb      	ldrh	r3, [r3, #46]	; 0x2e
 8002acc:	b29b      	uxth	r3, r3
 8002ace:	1ad3      	subs	r3, r2, r3
 8002ad0:	f8a7 30ce 	strh.w	r3, [r7, #206]	; 0xce
      if ((huart->RxXferCount > 0U)
 8002ad4:	687b      	ldr	r3, [r7, #4]
 8002ad6:	8ddb      	ldrh	r3, [r3, #46]	; 0x2e
 8002ad8:	b29b      	uxth	r3, r3
 8002ada:	2b00      	cmp	r3, #0
 8002adc:	f000 808b 	beq.w	8002bf6 <HAL_UART_IRQHandler+0x512>
          && (nb_rx_data > 0U))
 8002ae0:	f8b7 30ce 	ldrh.w	r3, [r7, #206]	; 0xce
 8002ae4:	2b00      	cmp	r3, #0
 8002ae6:	f000 8086 	beq.w	8002bf6 <HAL_UART_IRQHandler+0x512>
      {
        /* Disable the UART Parity Error Interrupt and RXNE interrupts */
        ATOMIC_CLEAR_BIT(huart->Instance->CR1, (USART_CR1_RXNEIE | USART_CR1_PEIE));
 8002aea:	687b      	ldr	r3, [r7, #4]
 8002aec:	681b      	ldr	r3, [r3, #0]
 8002aee:	330c      	adds	r3, #12
 8002af0:	63bb      	str	r3, [r7, #56]	; 0x38
   __ASM volatile ("ldrex %0, %1" : "=r" (result) : "Q" (*addr) );
 8002af2:	6bbb      	ldr	r3, [r7, #56]	; 0x38
 8002af4:	e853 3f00 	ldrex	r3, [r3]
 8002af8:	637b      	str	r3, [r7, #52]	; 0x34
   return(result);
 8002afa:	6b7b      	ldr	r3, [r7, #52]	; 0x34
 8002afc:	f423 7390 	bic.w	r3, r3, #288	; 0x120
 8002b00:	f8c7 30c8 	str.w	r3, [r7, #200]	; 0xc8
 8002b04:	687b      	ldr	r3, [r7, #4]
 8002b06:	681b      	ldr	r3, [r3, #0]
 8002b08:	330c      	adds	r3, #12
 8002b0a:	f8d7 20c8 	ldr.w	r2, [r7, #200]	; 0xc8
 8002b0e:	647a      	str	r2, [r7, #68]	; 0x44
 8002b10:	643b      	str	r3, [r7, #64]	; 0x40
   __ASM volatile ("strex %0, %2, %1" : "=&r" (result), "=Q" (*addr) : "r" (value) );
 8002b12:	6c39      	ldr	r1, [r7, #64]	; 0x40
 8002b14:	6c7a      	ldr	r2, [r7, #68]	; 0x44
 8002b16:	e841 2300 	strex	r3, r2, [r1]
 8002b1a:	63fb      	str	r3, [r7, #60]	; 0x3c
   return(result);
 8002b1c:	6bfb      	ldr	r3, [r7, #60]	; 0x3c
 8002b1e:	2b00      	cmp	r3, #0
 8002b20:	d1e3      	bne.n	8002aea <HAL_UART_IRQHandler+0x406>

        /* Disable the UART Error Interrupt: (Frame error, noise error, overrun error) */
        ATOMIC_CLEAR_BIT(huart->Instance->CR3, USART_CR3_EIE);
 8002b22:	687b      	ldr	r3, [r7, #4]
 8002b24:	681b      	ldr	r3, [r3, #0]
 8002b26:	3314      	adds	r3, #20
 8002b28:	627b      	str	r3, [r7, #36]	; 0x24
   __ASM volatile ("ldrex %0, %1" : "=r" (result) : "Q" (*addr) );
 8002b2a:	6a7b      	ldr	r3, [r7, #36]	; 0x24
 8002b2c:	e853 3f00 	ldrex	r3, [r3]
 8002b30:	623b      	str	r3, [r7, #32]
   return(result);
 8002b32:	6a3b      	ldr	r3, [r7, #32]
 8002b34:	f023 0301 	bic.w	r3, r3, #1
 8002b38:	f8c7 30c4 	str.w	r3, [r7, #196]	; 0xc4
 8002b3c:	687b      	ldr	r3, [r7, #4]
 8002b3e:	681b      	ldr	r3, [r3, #0]
 8002b40:	3314      	adds	r3, #20
 8002b42:	f8d7 20c4 	ldr.w	r2, [r7, #196]	; 0xc4
 8002b46:	633a      	str	r2, [r7, #48]	; 0x30
 8002b48:	62fb      	str	r3, [r7, #44]	; 0x2c
   __ASM volatile ("strex %0, %2, %1" : "=&r" (result), "=Q" (*addr) : "r" (value) );
 8002b4a:	6af9      	ldr	r1, [r7, #44]	; 0x2c
 8002b4c:	6b3a      	ldr	r2, [r7, #48]	; 0x30
 8002b4e:	e841 2300 	strex	r3, r2, [r1]
 8002b52:	62bb      	str	r3, [r7, #40]	; 0x28
   return(result);
 8002b54:	6abb      	ldr	r3, [r7, #40]	; 0x28
 8002b56:	2b00      	cmp	r3, #0
 8002b58:	d1e3      	bne.n	8002b22 <HAL_UART_IRQHandler+0x43e>

        /* Rx process is completed, restore huart->RxState to Ready */
        huart->RxState = HAL_UART_STATE_READY;
 8002b5a:	687b      	ldr	r3, [r7, #4]
 8002b5c:	2220      	movs	r2, #32
 8002b5e:	f883 203e 	strb.w	r2, [r3, #62]	; 0x3e
        huart->ReceptionType = HAL_UART_RECEPTION_STANDARD;
 8002b62:	687b      	ldr	r3, [r7, #4]
 8002b64:	2200      	movs	r2, #0
 8002b66:	631a      	str	r2, [r3, #48]	; 0x30

        ATOMIC_CLEAR_BIT(huart->Instance->CR1, USART_CR1_IDLEIE);
 8002b68:	687b      	ldr	r3, [r7, #4]
 8002b6a:	681b      	ldr	r3, [r3, #0]
 8002b6c:	330c      	adds	r3, #12
 8002b6e:	613b      	str	r3, [r7, #16]
   __ASM volatile ("ldrex %0, %1" : "=r" (result) : "Q" (*addr) );
 8002b70:	693b      	ldr	r3, [r7, #16]
 8002b72:	e853 3f00 	ldrex	r3, [r3]
 8002b76:	60fb      	str	r3, [r7, #12]
   return(result);
 8002b78:	68fb      	ldr	r3, [r7, #12]
 8002b7a:	f023 0310 	bic.w	r3, r3, #16
 8002b7e:	f8c7 30c0 	str.w	r3, [r7, #192]	; 0xc0
 8002b82:	687b      	ldr	r3, [r7, #4]
 8002b84:	681b      	ldr	r3, [r3, #0]
 8002b86:	330c      	adds	r3, #12
 8002b88:	f8d7 20c0 	ldr.w	r2, [r7, #192]	; 0xc0
 8002b8c:	61fa      	str	r2, [r7, #28]
 8002b8e:	61bb      	str	r3, [r7, #24]
   __ASM volatile ("strex %0, %2, %1" : "=&r" (result), "=Q" (*addr) : "r" (value) );
 8002b90:	69b9      	ldr	r1, [r7, #24]
 8002b92:	69fa      	ldr	r2, [r7, #28]
 8002b94:	e841 2300 	strex	r3, r2, [r1]
 8002b98:	617b      	str	r3, [r7, #20]
   return(result);
 8002b9a:	697b      	ldr	r3, [r7, #20]
 8002b9c:	2b00      	cmp	r3, #0
 8002b9e:	d1e3      	bne.n	8002b68 <HAL_UART_IRQHandler+0x484>
#if (USE_HAL_UART_REGISTER_CALLBACKS == 1)
        /*Call registered Rx complete callback*/
        huart->RxEventCallback(huart, nb_rx_data);
#else
        /*Call legacy weak Rx Event callback*/
        HAL_UARTEx_RxEventCallback(huart, nb_rx_data);
 8002ba0:	f8b7 30ce 	ldrh.w	r3, [r7, #206]	; 0xce
 8002ba4:	4619      	mov	r1, r3
 8002ba6:	6878      	ldr	r0, [r7, #4]
 8002ba8:	f000 f83e 	bl	8002c28 <HAL_UARTEx_RxEventCallback>
#endif /* USE_HAL_UART_REGISTER_CALLBACKS */
      }
      return;
 8002bac:	e023      	b.n	8002bf6 <HAL_UART_IRQHandler+0x512>
    }
  }

  /* UART in mode Transmitter ------------------------------------------------*/
  if (((isrflags & USART_SR_TXE) != RESET) && ((cr1its & USART_CR1_TXEIE) != RESET))
 8002bae:	f8d7 30e4 	ldr.w	r3, [r7, #228]	; 0xe4
 8002bb2:	f003 0380 	and.w	r3, r3, #128	; 0x80
 8002bb6:	2b00      	cmp	r3, #0
 8002bb8:	d009      	beq.n	8002bce <HAL_UART_IRQHandler+0x4ea>
 8002bba:	f8d7 30e0 	ldr.w	r3, [r7, #224]	; 0xe0
 8002bbe:	f003 0380 	and.w	r3, r3, #128	; 0x80
 8002bc2:	2b00      	cmp	r3, #0
 8002bc4:	d003      	beq.n	8002bce <HAL_UART_IRQHandler+0x4ea>
  {
    UART_Transmit_IT(huart);
 8002bc6:	6878      	ldr	r0, [r7, #4]
 8002bc8:	f000 f95d 	bl	8002e86 <UART_Transmit_IT>
    return;
 8002bcc:	e014      	b.n	8002bf8 <HAL_UART_IRQHandler+0x514>
  }

  /* UART in mode Transmitter end --------------------------------------------*/
  if (((isrflags & USART_SR_TC) != RESET) && ((cr1its & USART_CR1_TCIE) != RESET))
 8002bce:	f8d7 30e4 	ldr.w	r3, [r7, #228]	; 0xe4
 8002bd2:	f003 0340 	and.w	r3, r3, #64	; 0x40
 8002bd6:	2b00      	cmp	r3, #0
 8002bd8:	d00e      	beq.n	8002bf8 <HAL_UART_IRQHandler+0x514>
 8002bda:	f8d7 30e0 	ldr.w	r3, [r7, #224]	; 0xe0
 8002bde:	f003 0340 	and.w	r3, r3, #64	; 0x40
 8002be2:	2b00      	cmp	r3, #0
 8002be4:	d008      	beq.n	8002bf8 <HAL_UART_IRQHandler+0x514>
  {
    UART_EndTransmit_IT(huart);
 8002be6:	6878      	ldr	r0, [r7, #4]
 8002be8:	f000 f99d 	bl	8002f26 <UART_EndTransmit_IT>
    return;
 8002bec:	e004      	b.n	8002bf8 <HAL_UART_IRQHandler+0x514>
    return;
 8002bee:	bf00      	nop
 8002bf0:	e002      	b.n	8002bf8 <HAL_UART_IRQHandler+0x514>
      return;
 8002bf2:	bf00      	nop
 8002bf4:	e000      	b.n	8002bf8 <HAL_UART_IRQHandler+0x514>
      return;
 8002bf6:	bf00      	nop
  }
}
 8002bf8:	37e8      	adds	r7, #232	; 0xe8
 8002bfa:	46bd      	mov	sp, r7
 8002bfc:	bd80      	pop	{r7, pc}
 8002bfe:	bf00      	nop

08002c00 <HAL_UART_TxCpltCallback>:
  * @param  huart  Pointer to a UART_HandleTypeDef structure that contains
  *                the configuration information for the specified UART module.
  * @retval None
  */
__weak void HAL_UART_TxCpltCallback(UART_HandleTypeDef *huart)
{
 8002c00:	b480      	push	{r7}
 8002c02:	b083      	sub	sp, #12
 8002c04:	af00      	add	r7, sp, #0
 8002c06:	6078      	str	r0, [r7, #4]
  /* Prevent unused argument(s) compilation warning */
  UNUSED(huart);
  /* NOTE: This function should not be modified, when the callback is needed,
           the HAL_UART_TxCpltCallback could be implemented in the user file
   */
}
 8002c08:	bf00      	nop
 8002c0a:	370c      	adds	r7, #12
 8002c0c:	46bd      	mov	sp, r7
 8002c0e:	f85d 7b04 	ldr.w	r7, [sp], #4
 8002c12:	4770      	bx	lr

08002c14 <HAL_UART_ErrorCallback>:
  * @param  huart  Pointer to a UART_HandleTypeDef structure that contains
  *                the configuration information for the specified UART module.
  * @retval None
  */
__weak void HAL_UART_ErrorCallback(UART_HandleTypeDef *huart)
{
 8002c14:	b480      	push	{r7}
 8002c16:	b083      	sub	sp, #12
 8002c18:	af00      	add	r7, sp, #0
 8002c1a:	6078      	str	r0, [r7, #4]
  /* Prevent unused argument(s) compilation warning */
  UNUSED(huart);
  /* NOTE: This function should not be modified, when the callback is needed,
           the HAL_UART_ErrorCallback could be implemented in the user file
   */
}
 8002c1c:	bf00      	nop
 8002c1e:	370c      	adds	r7, #12
 8002c20:	46bd      	mov	sp, r7
 8002c22:	f85d 7b04 	ldr.w	r7, [sp], #4
 8002c26:	4770      	bx	lr

08002c28 <HAL_UARTEx_RxEventCallback>:
  * @param  Size  Number of data available in application reception buffer (indicates a position in
  *               reception buffer until which, data are available)
  * @retval None
  */
__weak void HAL_UARTEx_RxEventCallback(UART_HandleTypeDef *huart, uint16_t Size)
{
 8002c28:	b480      	push	{r7}
 8002c2a:	b083      	sub	sp, #12
 8002c2c:	af00      	add	r7, sp, #0
 8002c2e:	6078      	str	r0, [r7, #4]
 8002c30:	460b      	mov	r3, r1
 8002c32:	807b      	strh	r3, [r7, #2]
  UNUSED(Size);

  /* NOTE : This function should not be modified, when the callback is needed,
            the HAL_UARTEx_RxEventCallback can be implemented in the user file.
   */
}
 8002c34:	bf00      	nop
 8002c36:	370c      	adds	r7, #12
 8002c38:	46bd      	mov	sp, r7
 8002c3a:	f85d 7b04 	ldr.w	r7, [sp], #4
 8002c3e:	4770      	bx	lr

08002c40 <UART_WaitOnFlagUntilTimeout>:
  * @param  Timeout Timeout duration
  * @retval HAL status
  */
static HAL_StatusTypeDef UART_WaitOnFlagUntilTimeout(UART_HandleTypeDef *huart, uint32_t Flag, FlagStatus Status,
                                                     uint32_t Tickstart, uint32_t Timeout)
{
 8002c40:	b580      	push	{r7, lr}
 8002c42:	b090      	sub	sp, #64	; 0x40
 8002c44:	af00      	add	r7, sp, #0
 8002c46:	60f8      	str	r0, [r7, #12]
 8002c48:	60b9      	str	r1, [r7, #8]
 8002c4a:	603b      	str	r3, [r7, #0]
 8002c4c:	4613      	mov	r3, r2
 8002c4e:	71fb      	strb	r3, [r7, #7]
  /* Wait until flag is set */
  while ((__HAL_UART_GET_FLAG(huart, Flag) ? SET : RESET) == Status)
 8002c50:	e050      	b.n	8002cf4 <UART_WaitOnFlagUntilTimeout+0xb4>
  {
    /* Check for the Timeout */
    if (Timeout != HAL_MAX_DELAY)
 8002c52:	6cbb      	ldr	r3, [r7, #72]	; 0x48
 8002c54:	f1b3 3fff 	cmp.w	r3, #4294967295
 8002c58:	d04c      	beq.n	8002cf4 <UART_WaitOnFlagUntilTimeout+0xb4>
    {
      if ((Timeout == 0U) || ((HAL_GetTick() - Tickstart) > Timeout))
 8002c5a:	6cbb      	ldr	r3, [r7, #72]	; 0x48
 8002c5c:	2b00      	cmp	r3, #0
 8002c5e:	d007      	beq.n	8002c70 <UART_WaitOnFlagUntilTimeout+0x30>
 8002c60:	f7fe fc26 	bl	80014b0 <HAL_GetTick>
 8002c64:	4602      	mov	r2, r0
 8002c66:	683b      	ldr	r3, [r7, #0]
 8002c68:	1ad3      	subs	r3, r2, r3
 8002c6a:	6cba      	ldr	r2, [r7, #72]	; 0x48
 8002c6c:	429a      	cmp	r2, r3
 8002c6e:	d241      	bcs.n	8002cf4 <UART_WaitOnFlagUntilTimeout+0xb4>
      {
        /* Disable TXE, RXNE, PE and ERR (Frame error, noise error, overrun error) interrupts for the interrupt process */
        ATOMIC_CLEAR_BIT(huart->Instance->CR1, (USART_CR1_RXNEIE | USART_CR1_PEIE | USART_CR1_TXEIE));
 8002c70:	68fb      	ldr	r3, [r7, #12]
 8002c72:	681b      	ldr	r3, [r3, #0]
 8002c74:	330c      	adds	r3, #12
 8002c76:	62bb      	str	r3, [r7, #40]	; 0x28
   __ASM volatile ("ldrex %0, %1" : "=r" (result) : "Q" (*addr) );
 8002c78:	6abb      	ldr	r3, [r7, #40]	; 0x28
 8002c7a:	e853 3f00 	ldrex	r3, [r3]
 8002c7e:	627b      	str	r3, [r7, #36]	; 0x24
   return(result);
 8002c80:	6a7b      	ldr	r3, [r7, #36]	; 0x24
 8002c82:	f423 73d0 	bic.w	r3, r3, #416	; 0x1a0
 8002c86:	63fb      	str	r3, [r7, #60]	; 0x3c
 8002c88:	68fb      	ldr	r3, [r7, #12]
 8002c8a:	681b      	ldr	r3, [r3, #0]
 8002c8c:	330c      	adds	r3, #12
 8002c8e:	6bfa      	ldr	r2, [r7, #60]	; 0x3c
 8002c90:	637a      	str	r2, [r7, #52]	; 0x34
 8002c92:	633b      	str	r3, [r7, #48]	; 0x30
   __ASM volatile ("strex %0, %2, %1" : "=&r" (result), "=Q" (*addr) : "r" (value) );
 8002c94:	6b39      	ldr	r1, [r7, #48]	; 0x30
 8002c96:	6b7a      	ldr	r2, [r7, #52]	; 0x34
 8002c98:	e841 2300 	strex	r3, r2, [r1]
 8002c9c:	62fb      	str	r3, [r7, #44]	; 0x2c
   return(result);
 8002c9e:	6afb      	ldr	r3, [r7, #44]	; 0x2c
 8002ca0:	2b00      	cmp	r3, #0
 8002ca2:	d1e5      	bne.n	8002c70 <UART_WaitOnFlagUntilTimeout+0x30>
        ATOMIC_CLEAR_BIT(huart->Instance->CR3, USART_CR3_EIE);
 8002ca4:	68fb      	ldr	r3, [r7, #12]
 8002ca6:	681b      	ldr	r3, [r3, #0]
 8002ca8:	3314      	adds	r3, #20
 8002caa:	617b      	str	r3, [r7, #20]
   __ASM volatile ("ldrex %0, %1" : "=r" (result) : "Q" (*addr) );
 8002cac:	697b      	ldr	r3, [r7, #20]
 8002cae:	e853 3f00 	ldrex	r3, [r3]
 8002cb2:	613b      	str	r3, [r7, #16]
   return(result);
 8002cb4:	693b      	ldr	r3, [r7, #16]
 8002cb6:	f023 0301 	bic.w	r3, r3, #1
 8002cba:	63bb      	str	r3, [r7, #56]	; 0x38
 8002cbc:	68fb      	ldr	r3, [r7, #12]
 8002cbe:	681b      	ldr	r3, [r3, #0]
 8002cc0:	3314      	adds	r3, #20
 8002cc2:	6bba      	ldr	r2, [r7, #56]	; 0x38
 8002cc4:	623a      	str	r2, [r7, #32]
 8002cc6:	61fb      	str	r3, [r7, #28]
   __ASM volatile ("strex %0, %2, %1" : "=&r" (result), "=Q" (*addr) : "r" (value) );
 8002cc8:	69f9      	ldr	r1, [r7, #28]
 8002cca:	6a3a      	ldr	r2, [r7, #32]
 8002ccc:	e841 2300 	strex	r3, r2, [r1]
 8002cd0:	61bb      	str	r3, [r7, #24]
   return(result);
 8002cd2:	69bb      	ldr	r3, [r7, #24]
 8002cd4:	2b00      	cmp	r3, #0
 8002cd6:	d1e5      	bne.n	8002ca4 <UART_WaitOnFlagUntilTimeout+0x64>

        huart->gState  = HAL_UART_STATE_READY;
 8002cd8:	68fb      	ldr	r3, [r7, #12]
 8002cda:	2220      	movs	r2, #32
 8002cdc:	f883 203d 	strb.w	r2, [r3, #61]	; 0x3d
        huart->RxState = HAL_UART_STATE_READY;
 8002ce0:	68fb      	ldr	r3, [r7, #12]
 8002ce2:	2220      	movs	r2, #32
 8002ce4:	f883 203e 	strb.w	r2, [r3, #62]	; 0x3e

        /* Process Unlocked */
        __HAL_UNLOCK(huart);
 8002ce8:	68fb      	ldr	r3, [r7, #12]
 8002cea:	2200      	movs	r2, #0
 8002cec:	f883 203c 	strb.w	r2, [r3, #60]	; 0x3c

        return HAL_TIMEOUT;
 8002cf0:	2303      	movs	r3, #3
 8002cf2:	e00f      	b.n	8002d14 <UART_WaitOnFlagUntilTimeout+0xd4>
  while ((__HAL_UART_GET_FLAG(huart, Flag) ? SET : RESET) == Status)
 8002cf4:	68fb      	ldr	r3, [r7, #12]
 8002cf6:	681b      	ldr	r3, [r3, #0]
 8002cf8:	681a      	ldr	r2, [r3, #0]
 8002cfa:	68bb      	ldr	r3, [r7, #8]
 8002cfc:	4013      	ands	r3, r2
 8002cfe:	68ba      	ldr	r2, [r7, #8]
 8002d00:	429a      	cmp	r2, r3
 8002d02:	bf0c      	ite	eq
 8002d04:	2301      	moveq	r3, #1
 8002d06:	2300      	movne	r3, #0
 8002d08:	b2db      	uxtb	r3, r3
 8002d0a:	461a      	mov	r2, r3
 8002d0c:	79fb      	ldrb	r3, [r7, #7]
 8002d0e:	429a      	cmp	r2, r3
 8002d10:	d09f      	beq.n	8002c52 <UART_WaitOnFlagUntilTimeout+0x12>
      }
    }
  }
  return HAL_OK;
 8002d12:	2300      	movs	r3, #0
}
 8002d14:	4618      	mov	r0, r3
 8002d16:	3740      	adds	r7, #64	; 0x40
 8002d18:	46bd      	mov	sp, r7
 8002d1a:	bd80      	pop	{r7, pc}

08002d1c <UART_Start_Receive_IT>:
  * @param  pData Pointer to data buffer (u8 or u16 data elements).
  * @param  Size  Amount of data elements (u8 or u16) to be received.
  * @retval HAL status
  */
HAL_StatusTypeDef UART_Start_Receive_IT(UART_HandleTypeDef *huart, uint8_t *pData, uint16_t Size)
{
 8002d1c:	b480      	push	{r7}
 8002d1e:	b085      	sub	sp, #20
 8002d20:	af00      	add	r7, sp, #0
 8002d22:	60f8      	str	r0, [r7, #12]
 8002d24:	60b9      	str	r1, [r7, #8]
 8002d26:	4613      	mov	r3, r2
 8002d28:	80fb      	strh	r3, [r7, #6]
  huart->pRxBuffPtr = pData;
 8002d2a:	68fb      	ldr	r3, [r7, #12]
 8002d2c:	68ba      	ldr	r2, [r7, #8]
 8002d2e:	629a      	str	r2, [r3, #40]	; 0x28
  huart->RxXferSize = Size;
 8002d30:	68fb      	ldr	r3, [r7, #12]
 8002d32:	88fa      	ldrh	r2, [r7, #6]
 8002d34:	859a      	strh	r2, [r3, #44]	; 0x2c
  huart->RxXferCount = Size;
 8002d36:	68fb      	ldr	r3, [r7, #12]
 8002d38:	88fa      	ldrh	r2, [r7, #6]
 8002d3a:	85da      	strh	r2, [r3, #46]	; 0x2e

  huart->ErrorCode = HAL_UART_ERROR_NONE;
 8002d3c:	68fb      	ldr	r3, [r7, #12]
 8002d3e:	2200      	movs	r2, #0
 8002d40:	641a      	str	r2, [r3, #64]	; 0x40
  huart->RxState = HAL_UART_STATE_BUSY_RX;
 8002d42:	68fb      	ldr	r3, [r7, #12]
 8002d44:	2222      	movs	r2, #34	; 0x22
 8002d46:	f883 203e 	strb.w	r2, [r3, #62]	; 0x3e

  /* Process Unlocked */
  __HAL_UNLOCK(huart);
 8002d4a:	68fb      	ldr	r3, [r7, #12]
 8002d4c:	2200      	movs	r2, #0
 8002d4e:	f883 203c 	strb.w	r2, [r3, #60]	; 0x3c

  if (huart->Init.Parity != UART_PARITY_NONE)
 8002d52:	68fb      	ldr	r3, [r7, #12]
 8002d54:	691b      	ldr	r3, [r3, #16]
 8002d56:	2b00      	cmp	r3, #0
 8002d58:	d007      	beq.n	8002d6a <UART_Start_Receive_IT+0x4e>
  {
    /* Enable the UART Parity Error Interrupt */
    __HAL_UART_ENABLE_IT(huart, UART_IT_PE);
 8002d5a:	68fb      	ldr	r3, [r7, #12]
 8002d5c:	681b      	ldr	r3, [r3, #0]
 8002d5e:	68da      	ldr	r2, [r3, #12]
 8002d60:	68fb      	ldr	r3, [r7, #12]
 8002d62:	681b      	ldr	r3, [r3, #0]
 8002d64:	f442 7280 	orr.w	r2, r2, #256	; 0x100
 8002d68:	60da      	str	r2, [r3, #12]
  }

  /* Enable the UART Error Interrupt: (Frame error, noise error, overrun error) */
  __HAL_UART_ENABLE_IT(huart, UART_IT_ERR);
 8002d6a:	68fb      	ldr	r3, [r7, #12]
 8002d6c:	681b      	ldr	r3, [r3, #0]
 8002d6e:	695a      	ldr	r2, [r3, #20]
 8002d70:	68fb      	ldr	r3, [r7, #12]
 8002d72:	681b      	ldr	r3, [r3, #0]
 8002d74:	f042 0201 	orr.w	r2, r2, #1
 8002d78:	615a      	str	r2, [r3, #20]

  /* Enable the UART Data Register not empty Interrupt */
  __HAL_UART_ENABLE_IT(huart, UART_IT_RXNE);
 8002d7a:	68fb      	ldr	r3, [r7, #12]
 8002d7c:	681b      	ldr	r3, [r3, #0]
 8002d7e:	68da      	ldr	r2, [r3, #12]
 8002d80:	68fb      	ldr	r3, [r7, #12]
 8002d82:	681b      	ldr	r3, [r3, #0]
 8002d84:	f042 0220 	orr.w	r2, r2, #32
 8002d88:	60da      	str	r2, [r3, #12]

  return HAL_OK;
 8002d8a:	2300      	movs	r3, #0
}
 8002d8c:	4618      	mov	r0, r3
 8002d8e:	3714      	adds	r7, #20
 8002d90:	46bd      	mov	sp, r7
 8002d92:	f85d 7b04 	ldr.w	r7, [sp], #4
 8002d96:	4770      	bx	lr

08002d98 <UART_EndRxTransfer>:
  * @brief  End ongoing Rx transfer on UART peripheral (following error detection or Reception completion).
  * @param  huart UART handle.
  * @retval None
  */
static void UART_EndRxTransfer(UART_HandleTypeDef *huart)
{
 8002d98:	b480      	push	{r7}
 8002d9a:	b095      	sub	sp, #84	; 0x54
 8002d9c:	af00      	add	r7, sp, #0
 8002d9e:	6078      	str	r0, [r7, #4]
  /* Disable RXNE, PE and ERR (Frame error, noise error, overrun error) interrupts */
  ATOMIC_CLEAR_BIT(huart->Instance->CR1, (USART_CR1_RXNEIE | USART_CR1_PEIE));
 8002da0:	687b      	ldr	r3, [r7, #4]
 8002da2:	681b      	ldr	r3, [r3, #0]
 8002da4:	330c      	adds	r3, #12
 8002da6:	637b      	str	r3, [r7, #52]	; 0x34
   __ASM volatile ("ldrex %0, %1" : "=r" (result) : "Q" (*addr) );
 8002da8:	6b7b      	ldr	r3, [r7, #52]	; 0x34
 8002daa:	e853 3f00 	ldrex	r3, [r3]
 8002dae:	633b      	str	r3, [r7, #48]	; 0x30
   return(result);
 8002db0:	6b3b      	ldr	r3, [r7, #48]	; 0x30
 8002db2:	f423 7390 	bic.w	r3, r3, #288	; 0x120
 8002db6:	64fb      	str	r3, [r7, #76]	; 0x4c
 8002db8:	687b      	ldr	r3, [r7, #4]
 8002dba:	681b      	ldr	r3, [r3, #0]
 8002dbc:	330c      	adds	r3, #12
 8002dbe:	6cfa      	ldr	r2, [r7, #76]	; 0x4c
 8002dc0:	643a      	str	r2, [r7, #64]	; 0x40
 8002dc2:	63fb      	str	r3, [r7, #60]	; 0x3c
   __ASM volatile ("strex %0, %2, %1" : "=&r" (result), "=Q" (*addr) : "r" (value) );
 8002dc4:	6bf9      	ldr	r1, [r7, #60]	; 0x3c
 8002dc6:	6c3a      	ldr	r2, [r7, #64]	; 0x40
 8002dc8:	e841 2300 	strex	r3, r2, [r1]
 8002dcc:	63bb      	str	r3, [r7, #56]	; 0x38
   return(result);
 8002dce:	6bbb      	ldr	r3, [r7, #56]	; 0x38
 8002dd0:	2b00      	cmp	r3, #0
 8002dd2:	d1e5      	bne.n	8002da0 <UART_EndRxTransfer+0x8>
  ATOMIC_CLEAR_BIT(huart->Instance->CR3, USART_CR3_EIE);
 8002dd4:	687b      	ldr	r3, [r7, #4]
 8002dd6:	681b      	ldr	r3, [r3, #0]
 8002dd8:	3314      	adds	r3, #20
 8002dda:	623b      	str	r3, [r7, #32]
   __ASM volatile ("ldrex %0, %1" : "=r" (result) : "Q" (*addr) );
 8002ddc:	6a3b      	ldr	r3, [r7, #32]
 8002dde:	e853 3f00 	ldrex	r3, [r3]
 8002de2:	61fb      	str	r3, [r7, #28]
   return(result);
 8002de4:	69fb      	ldr	r3, [r7, #28]
 8002de6:	f023 0301 	bic.w	r3, r3, #1
 8002dea:	64bb      	str	r3, [r7, #72]	; 0x48
 8002dec:	687b      	ldr	r3, [r7, #4]
 8002dee:	681b      	ldr	r3, [r3, #0]
 8002df0:	3314      	adds	r3, #20
 8002df2:	6cba      	ldr	r2, [r7, #72]	; 0x48
 8002df4:	62fa      	str	r2, [r7, #44]	; 0x2c
 8002df6:	62bb      	str	r3, [r7, #40]	; 0x28
   __ASM volatile ("strex %0, %2, %1" : "=&r" (result), "=Q" (*addr) : "r" (value) );
 8002df8:	6ab9      	ldr	r1, [r7, #40]	; 0x28
 8002dfa:	6afa      	ldr	r2, [r7, #44]	; 0x2c
 8002dfc:	e841 2300 	strex	r3, r2, [r1]
 8002e00:	627b      	str	r3, [r7, #36]	; 0x24
   return(result);
 8002e02:	6a7b      	ldr	r3, [r7, #36]	; 0x24
 8002e04:	2b00      	cmp	r3, #0
 8002e06:	d1e5      	bne.n	8002dd4 <UART_EndRxTransfer+0x3c>

  /* In case of reception waiting for IDLE event, disable also the IDLE IE interrupt source */
  if (huart->ReceptionType == HAL_UART_RECEPTION_TOIDLE)
 8002e08:	687b      	ldr	r3, [r7, #4]
 8002e0a:	6b1b      	ldr	r3, [r3, #48]	; 0x30
 8002e0c:	2b01      	cmp	r3, #1
 8002e0e:	d119      	bne.n	8002e44 <UART_EndRxTransfer+0xac>
  {
    ATOMIC_CLEAR_BIT(huart->Instance->CR1, USART_CR1_IDLEIE);
 8002e10:	687b      	ldr	r3, [r7, #4]
 8002e12:	681b      	ldr	r3, [r3, #0]
 8002e14:	330c      	adds	r3, #12
 8002e16:	60fb      	str	r3, [r7, #12]
   __ASM volatile ("ldrex %0, %1" : "=r" (result) : "Q" (*addr) );
 8002e18:	68fb      	ldr	r3, [r7, #12]
 8002e1a:	e853 3f00 	ldrex	r3, [r3]
 8002e1e:	60bb      	str	r3, [r7, #8]
   return(result);
 8002e20:	68bb      	ldr	r3, [r7, #8]
 8002e22:	f023 0310 	bic.w	r3, r3, #16
 8002e26:	647b      	str	r3, [r7, #68]	; 0x44
 8002e28:	687b      	ldr	r3, [r7, #4]
 8002e2a:	681b      	ldr	r3, [r3, #0]
 8002e2c:	330c      	adds	r3, #12
 8002e2e:	6c7a      	ldr	r2, [r7, #68]	; 0x44
 8002e30:	61ba      	str	r2, [r7, #24]
 8002e32:	617b      	str	r3, [r7, #20]
   __ASM volatile ("strex %0, %2, %1" : "=&r" (result), "=Q" (*addr) : "r" (value) );
 8002e34:	6979      	ldr	r1, [r7, #20]
 8002e36:	69ba      	ldr	r2, [r7, #24]
 8002e38:	e841 2300 	strex	r3, r2, [r1]
 8002e3c:	613b      	str	r3, [r7, #16]
   return(result);
 8002e3e:	693b      	ldr	r3, [r7, #16]
 8002e40:	2b00      	cmp	r3, #0
 8002e42:	d1e5      	bne.n	8002e10 <UART_EndRxTransfer+0x78>
  }

  /* At end of Rx process, restore huart->RxState to Ready */
  huart->RxState = HAL_UART_STATE_READY;
 8002e44:	687b      	ldr	r3, [r7, #4]
 8002e46:	2220      	movs	r2, #32
 8002e48:	f883 203e 	strb.w	r2, [r3, #62]	; 0x3e
  huart->ReceptionType = HAL_UART_RECEPTION_STANDARD;
 8002e4c:	687b      	ldr	r3, [r7, #4]
 8002e4e:	2200      	movs	r2, #0
 8002e50:	631a      	str	r2, [r3, #48]	; 0x30
}
 8002e52:	bf00      	nop
 8002e54:	3754      	adds	r7, #84	; 0x54
 8002e56:	46bd      	mov	sp, r7
 8002e58:	f85d 7b04 	ldr.w	r7, [sp], #4
 8002e5c:	4770      	bx	lr

08002e5e <UART_DMAAbortOnError>:
  * @param  hdma  Pointer to a DMA_HandleTypeDef structure that contains
  *               the configuration information for the specified DMA module.
  * @retval None
  */
static void UART_DMAAbortOnError(DMA_HandleTypeDef *hdma)
{
 8002e5e:	b580      	push	{r7, lr}
 8002e60:	b084      	sub	sp, #16
 8002e62:	af00      	add	r7, sp, #0
 8002e64:	6078      	str	r0, [r7, #4]
  UART_HandleTypeDef *huart = (UART_HandleTypeDef *)((DMA_HandleTypeDef *)hdma)->Parent;
 8002e66:	687b      	ldr	r3, [r7, #4]
 8002e68:	6b9b      	ldr	r3, [r3, #56]	; 0x38
 8002e6a:	60fb      	str	r3, [r7, #12]
  huart->RxXferCount = 0x00U;
 8002e6c:	68fb      	ldr	r3, [r7, #12]
 8002e6e:	2200      	movs	r2, #0
 8002e70:	85da      	strh	r2, [r3, #46]	; 0x2e
  huart->TxXferCount = 0x00U;
 8002e72:	68fb      	ldr	r3, [r7, #12]
 8002e74:	2200      	movs	r2, #0
 8002e76:	84da      	strh	r2, [r3, #38]	; 0x26
#if (USE_HAL_UART_REGISTER_CALLBACKS == 1)
  /*Call registered error callback*/
  huart->ErrorCallback(huart);
#else
  /*Call legacy weak error callback*/
  HAL_UART_ErrorCallback(huart);
 8002e78:	68f8      	ldr	r0, [r7, #12]
 8002e7a:	f7ff fecb 	bl	8002c14 <HAL_UART_ErrorCallback>
#endif /* USE_HAL_UART_REGISTER_CALLBACKS */
}
 8002e7e:	bf00      	nop
 8002e80:	3710      	adds	r7, #16
 8002e82:	46bd      	mov	sp, r7
 8002e84:	bd80      	pop	{r7, pc}

08002e86 <UART_Transmit_IT>:
  * @param  huart  Pointer to a UART_HandleTypeDef structure that contains
  *                the configuration information for the specified UART module.
  * @retval HAL status
  */
static HAL_StatusTypeDef UART_Transmit_IT(UART_HandleTypeDef *huart)
{
 8002e86:	b480      	push	{r7}
 8002e88:	b085      	sub	sp, #20
 8002e8a:	af00      	add	r7, sp, #0
 8002e8c:	6078      	str	r0, [r7, #4]
  const uint16_t *tmp;

  /* Check that a Tx process is ongoing */
  if (huart->gState == HAL_UART_STATE_BUSY_TX)
 8002e8e:	687b      	ldr	r3, [r7, #4]
 8002e90:	f893 303d 	ldrb.w	r3, [r3, #61]	; 0x3d
 8002e94:	b2db      	uxtb	r3, r3
 8002e96:	2b21      	cmp	r3, #33	; 0x21
 8002e98:	d13e      	bne.n	8002f18 <UART_Transmit_IT+0x92>
  {
    if ((huart->Init.WordLength == UART_WORDLENGTH_9B) && (huart->Init.Parity == UART_PARITY_NONE))
 8002e9a:	687b      	ldr	r3, [r7, #4]
 8002e9c:	689b      	ldr	r3, [r3, #8]
 8002e9e:	f5b3 5f80 	cmp.w	r3, #4096	; 0x1000
 8002ea2:	d114      	bne.n	8002ece <UART_Transmit_IT+0x48>
 8002ea4:	687b      	ldr	r3, [r7, #4]
 8002ea6:	691b      	ldr	r3, [r3, #16]
 8002ea8:	2b00      	cmp	r3, #0
 8002eaa:	d110      	bne.n	8002ece <UART_Transmit_IT+0x48>
    {
      tmp = (const uint16_t *) huart->pTxBuffPtr;
 8002eac:	687b      	ldr	r3, [r7, #4]
 8002eae:	6a1b      	ldr	r3, [r3, #32]
 8002eb0:	60fb      	str	r3, [r7, #12]
      huart->Instance->DR = (uint16_t)(*tmp & (uint16_t)0x01FF);
 8002eb2:	68fb      	ldr	r3, [r7, #12]
 8002eb4:	881b      	ldrh	r3, [r3, #0]
 8002eb6:	461a      	mov	r2, r3
 8002eb8:	687b      	ldr	r3, [r7, #4]
 8002eba:	681b      	ldr	r3, [r3, #0]
 8002ebc:	f3c2 0208 	ubfx	r2, r2, #0, #9
 8002ec0:	605a      	str	r2, [r3, #4]
      huart->pTxBuffPtr += 2U;
 8002ec2:	687b      	ldr	r3, [r7, #4]
 8002ec4:	6a1b      	ldr	r3, [r3, #32]
 8002ec6:	1c9a      	adds	r2, r3, #2
 8002ec8:	687b      	ldr	r3, [r7, #4]
 8002eca:	621a      	str	r2, [r3, #32]
 8002ecc:	e008      	b.n	8002ee0 <UART_Transmit_IT+0x5a>
    }
    else
    {
      huart->Instance->DR = (uint8_t)(*huart->pTxBuffPtr++ & (uint8_t)0x00FF);
 8002ece:	687b      	ldr	r3, [r7, #4]
 8002ed0:	6a1b      	ldr	r3, [r3, #32]
 8002ed2:	1c59      	adds	r1, r3, #1
 8002ed4:	687a      	ldr	r2, [r7, #4]
 8002ed6:	6211      	str	r1, [r2, #32]
 8002ed8:	781a      	ldrb	r2, [r3, #0]
 8002eda:	687b      	ldr	r3, [r7, #4]
 8002edc:	681b      	ldr	r3, [r3, #0]
 8002ede:	605a      	str	r2, [r3, #4]
    }

    if (--huart->TxXferCount == 0U)
 8002ee0:	687b      	ldr	r3, [r7, #4]
 8002ee2:	8cdb      	ldrh	r3, [r3, #38]	; 0x26
 8002ee4:	b29b      	uxth	r3, r3
 8002ee6:	3b01      	subs	r3, #1
 8002ee8:	b29b      	uxth	r3, r3
 8002eea:	687a      	ldr	r2, [r7, #4]
 8002eec:	4619      	mov	r1, r3
 8002eee:	84d1      	strh	r1, [r2, #38]	; 0x26
 8002ef0:	2b00      	cmp	r3, #0
 8002ef2:	d10f      	bne.n	8002f14 <UART_Transmit_IT+0x8e>
    {
      /* Disable the UART Transmit Data Register Empty Interrupt */
      __HAL_UART_DISABLE_IT(huart, UART_IT_TXE);
 8002ef4:	687b      	ldr	r3, [r7, #4]
 8002ef6:	681b      	ldr	r3, [r3, #0]
 8002ef8:	68da      	ldr	r2, [r3, #12]
 8002efa:	687b      	ldr	r3, [r7, #4]
 8002efc:	681b      	ldr	r3, [r3, #0]
 8002efe:	f022 0280 	bic.w	r2, r2, #128	; 0x80
 8002f02:	60da      	str	r2, [r3, #12]

      /* Enable the UART Transmit Complete Interrupt */
      __HAL_UART_ENABLE_IT(huart, UART_IT_TC);
 8002f04:	687b      	ldr	r3, [r7, #4]
 8002f06:	681b      	ldr	r3, [r3, #0]
 8002f08:	68da      	ldr	r2, [r3, #12]
 8002f0a:	687b      	ldr	r3, [r7, #4]
 8002f0c:	681b      	ldr	r3, [r3, #0]
 8002f0e:	f042 0240 	orr.w	r2, r2, #64	; 0x40
 8002f12:	60da      	str	r2, [r3, #12]
    }
    return HAL_OK;
 8002f14:	2300      	movs	r3, #0
 8002f16:	e000      	b.n	8002f1a <UART_Transmit_IT+0x94>
  }
  else
  {
    return HAL_BUSY;
 8002f18:	2302      	movs	r3, #2
  }
}
 8002f1a:	4618      	mov	r0, r3
 8002f1c:	3714      	adds	r7, #20
 8002f1e:	46bd      	mov	sp, r7
 8002f20:	f85d 7b04 	ldr.w	r7, [sp], #4
 8002f24:	4770      	bx	lr

08002f26 <UART_EndTransmit_IT>:
  * @param  huart  Pointer to a UART_HandleTypeDef structure that contains
  *                the configuration information for the specified UART module.
  * @retval HAL status
  */
static HAL_StatusTypeDef UART_EndTransmit_IT(UART_HandleTypeDef *huart)
{
 8002f26:	b580      	push	{r7, lr}
 8002f28:	b082      	sub	sp, #8
 8002f2a:	af00      	add	r7, sp, #0
 8002f2c:	6078      	str	r0, [r7, #4]
  /* Disable the UART Transmit Complete Interrupt */
  __HAL_UART_DISABLE_IT(huart, UART_IT_TC);
 8002f2e:	687b      	ldr	r3, [r7, #4]
 8002f30:	681b      	ldr	r3, [r3, #0]
 8002f32:	68da      	ldr	r2, [r3, #12]
 8002f34:	687b      	ldr	r3, [r7, #4]
 8002f36:	681b      	ldr	r3, [r3, #0]
 8002f38:	f022 0240 	bic.w	r2, r2, #64	; 0x40
 8002f3c:	60da      	str	r2, [r3, #12]

  /* Tx process is ended, restore huart->gState to Ready */
  huart->gState = HAL_UART_STATE_READY;
 8002f3e:	687b      	ldr	r3, [r7, #4]
 8002f40:	2220      	movs	r2, #32
 8002f42:	f883 203d 	strb.w	r2, [r3, #61]	; 0x3d
#if (USE_HAL_UART_REGISTER_CALLBACKS == 1)
  /*Call registered Tx complete callback*/
  huart->TxCpltCallback(huart);
#else
  /*Call legacy weak Tx complete callback*/
  HAL_UART_TxCpltCallback(huart);
 8002f46:	6878      	ldr	r0, [r7, #4]
 8002f48:	f7ff fe5a 	bl	8002c00 <HAL_UART_TxCpltCallback>
#endif /* USE_HAL_UART_REGISTER_CALLBACKS */

  return HAL_OK;
 8002f4c:	2300      	movs	r3, #0
}
 8002f4e:	4618      	mov	r0, r3
 8002f50:	3708      	adds	r7, #8
 8002f52:	46bd      	mov	sp, r7
 8002f54:	bd80      	pop	{r7, pc}

08002f56 <UART_Receive_IT>:
  * @param  huart  Pointer to a UART_HandleTypeDef structure that contains
  *                the configuration information for the specified UART module.
  * @retval HAL status
  */
static HAL_StatusTypeDef UART_Receive_IT(UART_HandleTypeDef *huart)
{
 8002f56:	b580      	push	{r7, lr}
 8002f58:	b08c      	sub	sp, #48	; 0x30
 8002f5a:	af00      	add	r7, sp, #0
 8002f5c:	6078      	str	r0, [r7, #4]
  uint8_t  *pdata8bits;
  uint16_t *pdata16bits;

  /* Check that a Rx process is ongoing */
  if (huart->RxState == HAL_UART_STATE_BUSY_RX)
 8002f5e:	687b      	ldr	r3, [r7, #4]
 8002f60:	f893 303e 	ldrb.w	r3, [r3, #62]	; 0x3e
 8002f64:	b2db      	uxtb	r3, r3
 8002f66:	2b22      	cmp	r3, #34	; 0x22
 8002f68:	f040 80ab 	bne.w	80030c2 <UART_Receive_IT+0x16c>
  {
    if ((huart->Init.WordLength == UART_WORDLENGTH_9B) && (huart->Init.Parity == UART_PARITY_NONE))
 8002f6c:	687b      	ldr	r3, [r7, #4]
 8002f6e:	689b      	ldr	r3, [r3, #8]
 8002f70:	f5b3 5f80 	cmp.w	r3, #4096	; 0x1000
 8002f74:	d117      	bne.n	8002fa6 <UART_Receive_IT+0x50>
 8002f76:	687b      	ldr	r3, [r7, #4]
 8002f78:	691b      	ldr	r3, [r3, #16]
 8002f7a:	2b00      	cmp	r3, #0
 8002f7c:	d113      	bne.n	8002fa6 <UART_Receive_IT+0x50>
    {
      pdata8bits  = NULL;
 8002f7e:	2300      	movs	r3, #0
 8002f80:	62fb      	str	r3, [r7, #44]	; 0x2c
      pdata16bits = (uint16_t *) huart->pRxBuffPtr;
 8002f82:	687b      	ldr	r3, [r7, #4]
 8002f84:	6a9b      	ldr	r3, [r3, #40]	; 0x28
 8002f86:	62bb      	str	r3, [r7, #40]	; 0x28
      *pdata16bits = (uint16_t)(huart->Instance->DR & (uint16_t)0x01FF);
 8002f88:	687b      	ldr	r3, [r7, #4]
 8002f8a:	681b      	ldr	r3, [r3, #0]
 8002f8c:	685b      	ldr	r3, [r3, #4]
 8002f8e:	b29b      	uxth	r3, r3
 8002f90:	f3c3 0308 	ubfx	r3, r3, #0, #9
 8002f94:	b29a      	uxth	r2, r3
 8002f96:	6abb      	ldr	r3, [r7, #40]	; 0x28
 8002f98:	801a      	strh	r2, [r3, #0]
      huart->pRxBuffPtr += 2U;
 8002f9a:	687b      	ldr	r3, [r7, #4]
 8002f9c:	6a9b      	ldr	r3, [r3, #40]	; 0x28
 8002f9e:	1c9a      	adds	r2, r3, #2
 8002fa0:	687b      	ldr	r3, [r7, #4]
 8002fa2:	629a      	str	r2, [r3, #40]	; 0x28
 8002fa4:	e026      	b.n	8002ff4 <UART_Receive_IT+0x9e>
    }
    else
    {
      pdata8bits = (uint8_t *) huart->pRxBuffPtr;
 8002fa6:	687b      	ldr	r3, [r7, #4]
 8002fa8:	6a9b      	ldr	r3, [r3, #40]	; 0x28
 8002faa:	62fb      	str	r3, [r7, #44]	; 0x2c
      pdata16bits  = NULL;
 8002fac:	2300      	movs	r3, #0
 8002fae:	62bb      	str	r3, [r7, #40]	; 0x28

      if ((huart->Init.WordLength == UART_WORDLENGTH_9B) || ((huart->Init.WordLength == UART_WORDLENGTH_8B) && (huart->Init.Parity == UART_PARITY_NONE)))
 8002fb0:	687b      	ldr	r3, [r7, #4]
 8002fb2:	689b      	ldr	r3, [r3, #8]
 8002fb4:	f5b3 5f80 	cmp.w	r3, #4096	; 0x1000
 8002fb8:	d007      	beq.n	8002fca <UART_Receive_IT+0x74>
 8002fba:	687b      	ldr	r3, [r7, #4]
 8002fbc:	689b      	ldr	r3, [r3, #8]
 8002fbe:	2b00      	cmp	r3, #0
 8002fc0:	d10a      	bne.n	8002fd8 <UART_Receive_IT+0x82>
 8002fc2:	687b      	ldr	r3, [r7, #4]
 8002fc4:	691b      	ldr	r3, [r3, #16]
 8002fc6:	2b00      	cmp	r3, #0
 8002fc8:	d106      	bne.n	8002fd8 <UART_Receive_IT+0x82>
      {
        *pdata8bits = (uint8_t)(huart->Instance->DR & (uint8_t)0x00FF);
 8002fca:	687b      	ldr	r3, [r7, #4]
 8002fcc:	681b      	ldr	r3, [r3, #0]
 8002fce:	685b      	ldr	r3, [r3, #4]
 8002fd0:	b2da      	uxtb	r2, r3
 8002fd2:	6afb      	ldr	r3, [r7, #44]	; 0x2c
 8002fd4:	701a      	strb	r2, [r3, #0]
 8002fd6:	e008      	b.n	8002fea <UART_Receive_IT+0x94>
      }
      else
      {
        *pdata8bits = (uint8_t)(huart->Instance->DR & (uint8_t)0x007F);
 8002fd8:	687b      	ldr	r3, [r7, #4]
 8002fda:	681b      	ldr	r3, [r3, #0]
 8002fdc:	685b      	ldr	r3, [r3, #4]
 8002fde:	b2db      	uxtb	r3, r3
 8002fe0:	f003 037f 	and.w	r3, r3, #127	; 0x7f
 8002fe4:	b2da      	uxtb	r2, r3
 8002fe6:	6afb      	ldr	r3, [r7, #44]	; 0x2c
 8002fe8:	701a      	strb	r2, [r3, #0]
      }
      huart->pRxBuffPtr += 1U;
 8002fea:	687b      	ldr	r3, [r7, #4]
 8002fec:	6a9b      	ldr	r3, [r3, #40]	; 0x28
 8002fee:	1c5a      	adds	r2, r3, #1
 8002ff0:	687b      	ldr	r3, [r7, #4]
 8002ff2:	629a      	str	r2, [r3, #40]	; 0x28
    }

    if (--huart->RxXferCount == 0U)
 8002ff4:	687b      	ldr	r3, [r7, #4]
 8002ff6:	8ddb      	ldrh	r3, [r3, #46]	; 0x2e
 8002ff8:	b29b      	uxth	r3, r3
 8002ffa:	3b01      	subs	r3, #1
 8002ffc:	b29b      	uxth	r3, r3
 8002ffe:	687a      	ldr	r2, [r7, #4]
 8003000:	4619      	mov	r1, r3
 8003002:	85d1      	strh	r1, [r2, #46]	; 0x2e
 8003004:	2b00      	cmp	r3, #0
 8003006:	d15a      	bne.n	80030be <UART_Receive_IT+0x168>
    {
      /* Disable the UART Data Register not empty Interrupt */
      __HAL_UART_DISABLE_IT(huart, UART_IT_RXNE);
 8003008:	687b      	ldr	r3, [r7, #4]
 800300a:	681b      	ldr	r3, [r3, #0]
 800300c:	68da      	ldr	r2, [r3, #12]
 800300e:	687b      	ldr	r3, [r7, #4]
 8003010:	681b      	ldr	r3, [r3, #0]
 8003012:	f022 0220 	bic.w	r2, r2, #32
 8003016:	60da      	str	r2, [r3, #12]

      /* Disable the UART Parity Error Interrupt */
      __HAL_UART_DISABLE_IT(huart, UART_IT_PE);
 8003018:	687b      	ldr	r3, [r7, #4]
 800301a:	681b      	ldr	r3, [r3, #0]
 800301c:	68da      	ldr	r2, [r3, #12]
 800301e:	687b      	ldr	r3, [r7, #4]
 8003020:	681b      	ldr	r3, [r3, #0]
 8003022:	f422 7280 	bic.w	r2, r2, #256	; 0x100
 8003026:	60da      	str	r2, [r3, #12]

      /* Disable the UART Error Interrupt: (Frame error, noise error, overrun error) */
      __HAL_UART_DISABLE_IT(huart, UART_IT_ERR);
 8003028:	687b      	ldr	r3, [r7, #4]
 800302a:	681b      	ldr	r3, [r3, #0]
 800302c:	695a      	ldr	r2, [r3, #20]
 800302e:	687b      	ldr	r3, [r7, #4]
 8003030:	681b      	ldr	r3, [r3, #0]
 8003032:	f022 0201 	bic.w	r2, r2, #1
 8003036:	615a      	str	r2, [r3, #20]

      /* Rx process is completed, restore huart->RxState to Ready */
      huart->RxState = HAL_UART_STATE_READY;
 8003038:	687b      	ldr	r3, [r7, #4]
 800303a:	2220      	movs	r2, #32
 800303c:	f883 203e 	strb.w	r2, [r3, #62]	; 0x3e

      /* Check current reception Mode :
         If Reception till IDLE event has been selected : */
      if (huart->ReceptionType == HAL_UART_RECEPTION_TOIDLE)
 8003040:	687b      	ldr	r3, [r7, #4]
 8003042:	6b1b      	ldr	r3, [r3, #48]	; 0x30
 8003044:	2b01      	cmp	r3, #1
 8003046:	d135      	bne.n	80030b4 <UART_Receive_IT+0x15e>
      {
        /* Set reception type to Standard */
        huart->ReceptionType = HAL_UART_RECEPTION_STANDARD;
 8003048:	687b      	ldr	r3, [r7, #4]
 800304a:	2200      	movs	r2, #0
 800304c:	631a      	str	r2, [r3, #48]	; 0x30

        /* Disable IDLE interrupt */
        ATOMIC_CLEAR_BIT(huart->Instance->CR1, USART_CR1_IDLEIE);
 800304e:	687b      	ldr	r3, [r7, #4]
 8003050:	681b      	ldr	r3, [r3, #0]
 8003052:	330c      	adds	r3, #12
 8003054:	617b      	str	r3, [r7, #20]
   __ASM volatile ("ldrex %0, %1" : "=r" (result) : "Q" (*addr) );
 8003056:	697b      	ldr	r3, [r7, #20]
 8003058:	e853 3f00 	ldrex	r3, [r3]
 800305c:	613b      	str	r3, [r7, #16]
   return(result);
 800305e:	693b      	ldr	r3, [r7, #16]
 8003060:	f023 0310 	bic.w	r3, r3, #16
 8003064:	627b      	str	r3, [r7, #36]	; 0x24
 8003066:	687b      	ldr	r3, [r7, #4]
 8003068:	681b      	ldr	r3, [r3, #0]
 800306a:	330c      	adds	r3, #12
 800306c:	6a7a      	ldr	r2, [r7, #36]	; 0x24
 800306e:	623a      	str	r2, [r7, #32]
 8003070:	61fb      	str	r3, [r7, #28]
   __ASM volatile ("strex %0, %2, %1" : "=&r" (result), "=Q" (*addr) : "r" (value) );
 8003072:	69f9      	ldr	r1, [r7, #28]
 8003074:	6a3a      	ldr	r2, [r7, #32]
 8003076:	e841 2300 	strex	r3, r2, [r1]
 800307a:	61bb      	str	r3, [r7, #24]
   return(result);
 800307c:	69bb      	ldr	r3, [r7, #24]
 800307e:	2b00      	cmp	r3, #0
 8003080:	d1e5      	bne.n	800304e <UART_Receive_IT+0xf8>

        /* Check if IDLE flag is set */
        if (__HAL_UART_GET_FLAG(huart, UART_FLAG_IDLE))
 8003082:	687b      	ldr	r3, [r7, #4]
 8003084:	681b      	ldr	r3, [r3, #0]
 8003086:	681b      	ldr	r3, [r3, #0]
 8003088:	f003 0310 	and.w	r3, r3, #16
 800308c:	2b10      	cmp	r3, #16
 800308e:	d10a      	bne.n	80030a6 <UART_Receive_IT+0x150>
        {
          /* Clear IDLE flag in ISR */
          __HAL_UART_CLEAR_IDLEFLAG(huart);
 8003090:	2300      	movs	r3, #0
 8003092:	60fb      	str	r3, [r7, #12]
 8003094:	687b      	ldr	r3, [r7, #4]
 8003096:	681b      	ldr	r3, [r3, #0]
 8003098:	681b      	ldr	r3, [r3, #0]
 800309a:	60fb      	str	r3, [r7, #12]
 800309c:	687b      	ldr	r3, [r7, #4]
 800309e:	681b      	ldr	r3, [r3, #0]
 80030a0:	685b      	ldr	r3, [r3, #4]
 80030a2:	60fb      	str	r3, [r7, #12]
 80030a4:	68fb      	ldr	r3, [r7, #12]
#if (USE_HAL_UART_REGISTER_CALLBACKS == 1)
        /*Call registered Rx Event callback*/
        huart->RxEventCallback(huart, huart->RxXferSize);
#else
        /*Call legacy weak Rx Event callback*/
        HAL_UARTEx_RxEventCallback(huart, huart->RxXferSize);
 80030a6:	687b      	ldr	r3, [r7, #4]
 80030a8:	8d9b      	ldrh	r3, [r3, #44]	; 0x2c
 80030aa:	4619      	mov	r1, r3
 80030ac:	6878      	ldr	r0, [r7, #4]
 80030ae:	f7ff fdbb 	bl	8002c28 <HAL_UARTEx_RxEventCallback>
 80030b2:	e002      	b.n	80030ba <UART_Receive_IT+0x164>
#if (USE_HAL_UART_REGISTER_CALLBACKS == 1)
        /*Call registered Rx complete callback*/
        huart->RxCpltCallback(huart);
#else
        /*Call legacy weak Rx complete callback*/
        HAL_UART_RxCpltCallback(huart);
 80030b4:	6878      	ldr	r0, [r7, #4]
 80030b6:	f7fd feb9 	bl	8000e2c <HAL_UART_RxCpltCallback>
#endif /* USE_HAL_UART_REGISTER_CALLBACKS */
      }

      return HAL_OK;
 80030ba:	2300      	movs	r3, #0
 80030bc:	e002      	b.n	80030c4 <UART_Receive_IT+0x16e>
    }
    return HAL_OK;
 80030be:	2300      	movs	r3, #0
 80030c0:	e000      	b.n	80030c4 <UART_Receive_IT+0x16e>
  }
  else
  {
    return HAL_BUSY;
 80030c2:	2302      	movs	r3, #2
  }
}
 80030c4:	4618      	mov	r0, r3
 80030c6:	3730      	adds	r7, #48	; 0x30
 80030c8:	46bd      	mov	sp, r7
 80030ca:	bd80      	pop	{r7, pc}

080030cc <UART_SetConfig>:
  * @param  huart  Pointer to a UART_HandleTypeDef structure that contains
  *                the configuration information for the specified UART module.
  * @retval None
  */
static void UART_SetConfig(UART_HandleTypeDef *huart)
{
 80030cc:	e92d 4fb0 	stmdb	sp!, {r4, r5, r7, r8, r9, sl, fp, lr}
 80030d0:	b0c0      	sub	sp, #256	; 0x100
 80030d2:	af00      	add	r7, sp, #0
 80030d4:	f8c7 00f4 	str.w	r0, [r7, #244]	; 0xf4
  assert_param(IS_UART_MODE(huart->Init.Mode));

  /*-------------------------- USART CR2 Configuration -----------------------*/
  /* Configure the UART Stop Bits: Set STOP[13:12] bits
     according to huart->Init.StopBits value */
  MODIFY_REG(huart->Instance->CR2, USART_CR2_STOP, huart->Init.StopBits);
 80030d8:	f8d7 30f4 	ldr.w	r3, [r7, #244]	; 0xf4
 80030dc:	681b      	ldr	r3, [r3, #0]
 80030de:	691b      	ldr	r3, [r3, #16]
 80030e0:	f423 5040 	bic.w	r0, r3, #12288	; 0x3000
 80030e4:	f8d7 30f4 	ldr.w	r3, [r7, #244]	; 0xf4
 80030e8:	68d9      	ldr	r1, [r3, #12]
 80030ea:	f8d7 30f4 	ldr.w	r3, [r7, #244]	; 0xf4
 80030ee:	681a      	ldr	r2, [r3, #0]
 80030f0:	ea40 0301 	orr.w	r3, r0, r1
 80030f4:	6113      	str	r3, [r2, #16]
     Set the M bits according to huart->Init.WordLength value
     Set PCE and PS bits according to huart->Init.Parity value
     Set TE and RE bits according to huart->Init.Mode value
     Set OVER8 bit according to huart->Init.OverSampling value */

  tmpreg = (uint32_t)huart->Init.WordLength | huart->Init.Parity | huart->Init.Mode | huart->Init.OverSampling;
 80030f6:	f8d7 30f4 	ldr.w	r3, [r7, #244]	; 0xf4
 80030fa:	689a      	ldr	r2, [r3, #8]
 80030fc:	f8d7 30f4 	ldr.w	r3, [r7, #244]	; 0xf4
 8003100:	691b      	ldr	r3, [r3, #16]
 8003102:	431a      	orrs	r2, r3
 8003104:	f8d7 30f4 	ldr.w	r3, [r7, #244]	; 0xf4
 8003108:	695b      	ldr	r3, [r3, #20]
 800310a:	431a      	orrs	r2, r3
 800310c:	f8d7 30f4 	ldr.w	r3, [r7, #244]	; 0xf4
 8003110:	69db      	ldr	r3, [r3, #28]
 8003112:	4313      	orrs	r3, r2
 8003114:	f8c7 30f8 	str.w	r3, [r7, #248]	; 0xf8
  MODIFY_REG(huart->Instance->CR1,
 8003118:	f8d7 30f4 	ldr.w	r3, [r7, #244]	; 0xf4
 800311c:	681b      	ldr	r3, [r3, #0]
 800311e:	68db      	ldr	r3, [r3, #12]
 8003120:	f423 4116 	bic.w	r1, r3, #38400	; 0x9600
 8003124:	f021 010c 	bic.w	r1, r1, #12
 8003128:	f8d7 30f4 	ldr.w	r3, [r7, #244]	; 0xf4
 800312c:	681a      	ldr	r2, [r3, #0]
 800312e:	f8d7 30f8 	ldr.w	r3, [r7, #248]	; 0xf8
 8003132:	430b      	orrs	r3, r1
 8003134:	60d3      	str	r3, [r2, #12]
             (uint32_t)(USART_CR1_M | USART_CR1_PCE | USART_CR1_PS | USART_CR1_TE | USART_CR1_RE | USART_CR1_OVER8),
             tmpreg);

  /*-------------------------- USART CR3 Configuration -----------------------*/
  /* Configure the UART HFC: Set CTSE and RTSE bits according to huart->Init.HwFlowCtl value */
  MODIFY_REG(huart->Instance->CR3, (USART_CR3_RTSE | USART_CR3_CTSE), huart->Init.HwFlowCtl);
 8003136:	f8d7 30f4 	ldr.w	r3, [r7, #244]	; 0xf4
 800313a:	681b      	ldr	r3, [r3, #0]
 800313c:	695b      	ldr	r3, [r3, #20]
 800313e:	f423 7040 	bic.w	r0, r3, #768	; 0x300
 8003142:	f8d7 30f4 	ldr.w	r3, [r7, #244]	; 0xf4
 8003146:	6999      	ldr	r1, [r3, #24]
 8003148:	f8d7 30f4 	ldr.w	r3, [r7, #244]	; 0xf4
 800314c:	681a      	ldr	r2, [r3, #0]
 800314e:	ea40 0301 	orr.w	r3, r0, r1
 8003152:	6153      	str	r3, [r2, #20]
    if ((huart->Instance == USART1) || (huart->Instance == USART6) || (huart->Instance == UART9) || (huart->Instance == UART10))
    {
      pclk = HAL_RCC_GetPCLK2Freq();
    }
#elif defined(USART6)
    if ((huart->Instance == USART1) || (huart->Instance == USART6))
 8003154:	f8d7 30f4 	ldr.w	r3, [r7, #244]	; 0xf4
 8003158:	681a      	ldr	r2, [r3, #0]
 800315a:	4b8f      	ldr	r3, [pc, #572]	; (8003398 <UART_SetConfig+0x2cc>)
 800315c:	429a      	cmp	r2, r3
 800315e:	d005      	beq.n	800316c <UART_SetConfig+0xa0>
 8003160:	f8d7 30f4 	ldr.w	r3, [r7, #244]	; 0xf4
 8003164:	681a      	ldr	r2, [r3, #0]
 8003166:	4b8d      	ldr	r3, [pc, #564]	; (800339c <UART_SetConfig+0x2d0>)
 8003168:	429a      	cmp	r2, r3
 800316a:	d104      	bne.n	8003176 <UART_SetConfig+0xaa>
    {
      pclk = HAL_RCC_GetPCLK2Freq();
 800316c:	f7ff f996 	bl	800249c <HAL_RCC_GetPCLK2Freq>
 8003170:	f8c7 00fc 	str.w	r0, [r7, #252]	; 0xfc
 8003174:	e003      	b.n	800317e <UART_SetConfig+0xb2>
      pclk = HAL_RCC_GetPCLK2Freq();
    }
#endif /* USART6 */
    else
    {
      pclk = HAL_RCC_GetPCLK1Freq();
 8003176:	f7ff f97d 	bl	8002474 <HAL_RCC_GetPCLK1Freq>
 800317a:	f8c7 00fc 	str.w	r0, [r7, #252]	; 0xfc
    }
  /*-------------------------- USART BRR Configuration ---------------------*/
  if (huart->Init.OverSampling == UART_OVERSAMPLING_8)
 800317e:	f8d7 30f4 	ldr.w	r3, [r7, #244]	; 0xf4
 8003182:	69db      	ldr	r3, [r3, #28]
 8003184:	f5b3 4f00 	cmp.w	r3, #32768	; 0x8000
 8003188:	f040 810c 	bne.w	80033a4 <UART_SetConfig+0x2d8>
  {
    huart->Instance->BRR = UART_BRR_SAMPLING8(pclk, huart->Init.BaudRate);
 800318c:	f8d7 30fc 	ldr.w	r3, [r7, #252]	; 0xfc
 8003190:	2200      	movs	r2, #0
 8003192:	f8c7 30e8 	str.w	r3, [r7, #232]	; 0xe8
 8003196:	f8c7 20ec 	str.w	r2, [r7, #236]	; 0xec
 800319a:	e9d7 453a 	ldrd	r4, r5, [r7, #232]	; 0xe8
 800319e:	4622      	mov	r2, r4
 80031a0:	462b      	mov	r3, r5
 80031a2:	1891      	adds	r1, r2, r2
 80031a4:	65b9      	str	r1, [r7, #88]	; 0x58
 80031a6:	415b      	adcs	r3, r3
 80031a8:	65fb      	str	r3, [r7, #92]	; 0x5c
 80031aa:	e9d7 2316 	ldrd	r2, r3, [r7, #88]	; 0x58
 80031ae:	4621      	mov	r1, r4
 80031b0:	eb12 0801 	adds.w	r8, r2, r1
 80031b4:	4629      	mov	r1, r5
 80031b6:	eb43 0901 	adc.w	r9, r3, r1
 80031ba:	f04f 0200 	mov.w	r2, #0
 80031be:	f04f 0300 	mov.w	r3, #0
 80031c2:	ea4f 03c9 	mov.w	r3, r9, lsl #3
 80031c6:	ea43 7358 	orr.w	r3, r3, r8, lsr #29
 80031ca:	ea4f 02c8 	mov.w	r2, r8, lsl #3
 80031ce:	4690      	mov	r8, r2
 80031d0:	4699      	mov	r9, r3
 80031d2:	4623      	mov	r3, r4
 80031d4:	eb18 0303 	adds.w	r3, r8, r3
 80031d8:	f8c7 30e0 	str.w	r3, [r7, #224]	; 0xe0
 80031dc:	462b      	mov	r3, r5
 80031de:	eb49 0303 	adc.w	r3, r9, r3
 80031e2:	f8c7 30e4 	str.w	r3, [r7, #228]	; 0xe4
 80031e6:	f8d7 30f4 	ldr.w	r3, [r7, #244]	; 0xf4
 80031ea:	685b      	ldr	r3, [r3, #4]
 80031ec:	2200      	movs	r2, #0
 80031ee:	f8c7 30d8 	str.w	r3, [r7, #216]	; 0xd8
 80031f2:	f8c7 20dc 	str.w	r2, [r7, #220]	; 0xdc
 80031f6:	e9d7 1236 	ldrd	r1, r2, [r7, #216]	; 0xd8
 80031fa:	460b      	mov	r3, r1
 80031fc:	18db      	adds	r3, r3, r3
 80031fe:	653b      	str	r3, [r7, #80]	; 0x50
 8003200:	4613      	mov	r3, r2
 8003202:	eb42 0303 	adc.w	r3, r2, r3
 8003206:	657b      	str	r3, [r7, #84]	; 0x54
 8003208:	e9d7 2314 	ldrd	r2, r3, [r7, #80]	; 0x50
 800320c:	e9d7 0138 	ldrd	r0, r1, [r7, #224]	; 0xe0
 8003210:	f7fd f99e 	bl	8000550 <__aeabi_uldivmod>
 8003214:	4602      	mov	r2, r0
 8003216:	460b      	mov	r3, r1
 8003218:	4b61      	ldr	r3, [pc, #388]	; (80033a0 <UART_SetConfig+0x2d4>)
 800321a:	fba3 2302 	umull	r2, r3, r3, r2
 800321e:	095b      	lsrs	r3, r3, #5
 8003220:	011c      	lsls	r4, r3, #4
 8003222:	f8d7 30fc 	ldr.w	r3, [r7, #252]	; 0xfc
 8003226:	2200      	movs	r2, #0
 8003228:	f8c7 30d0 	str.w	r3, [r7, #208]	; 0xd0
 800322c:	f8c7 20d4 	str.w	r2, [r7, #212]	; 0xd4
 8003230:	e9d7 8934 	ldrd	r8, r9, [r7, #208]	; 0xd0
 8003234:	4642      	mov	r2, r8
 8003236:	464b      	mov	r3, r9
 8003238:	1891      	adds	r1, r2, r2
 800323a:	64b9      	str	r1, [r7, #72]	; 0x48
 800323c:	415b      	adcs	r3, r3
 800323e:	64fb      	str	r3, [r7, #76]	; 0x4c
 8003240:	e9d7 2312 	ldrd	r2, r3, [r7, #72]	; 0x48
 8003244:	4641      	mov	r1, r8
 8003246:	eb12 0a01 	adds.w	sl, r2, r1
 800324a:	4649      	mov	r1, r9
 800324c:	eb43 0b01 	adc.w	fp, r3, r1
 8003250:	f04f 0200 	mov.w	r2, #0
 8003254:	f04f 0300 	mov.w	r3, #0
 8003258:	ea4f 03cb 	mov.w	r3, fp, lsl #3
 800325c:	ea43 735a 	orr.w	r3, r3, sl, lsr #29
 8003260:	ea4f 02ca 	mov.w	r2, sl, lsl #3
 8003264:	4692      	mov	sl, r2
 8003266:	469b      	mov	fp, r3
 8003268:	4643      	mov	r3, r8
 800326a:	eb1a 0303 	adds.w	r3, sl, r3
 800326e:	f8c7 30c8 	str.w	r3, [r7, #200]	; 0xc8
 8003272:	464b      	mov	r3, r9
 8003274:	eb4b 0303 	adc.w	r3, fp, r3
 8003278:	f8c7 30cc 	str.w	r3, [r7, #204]	; 0xcc
 800327c:	f8d7 30f4 	ldr.w	r3, [r7, #244]	; 0xf4
 8003280:	685b      	ldr	r3, [r3, #4]
 8003282:	2200      	movs	r2, #0
 8003284:	f8c7 30c0 	str.w	r3, [r7, #192]	; 0xc0
 8003288:	f8c7 20c4 	str.w	r2, [r7, #196]	; 0xc4
 800328c:	e9d7 1230 	ldrd	r1, r2, [r7, #192]	; 0xc0
 8003290:	460b      	mov	r3, r1
 8003292:	18db      	adds	r3, r3, r3
 8003294:	643b      	str	r3, [r7, #64]	; 0x40
 8003296:	4613      	mov	r3, r2
 8003298:	eb42 0303 	adc.w	r3, r2, r3
 800329c:	647b      	str	r3, [r7, #68]	; 0x44
 800329e:	e9d7 2310 	ldrd	r2, r3, [r7, #64]	; 0x40
 80032a2:	e9d7 0132 	ldrd	r0, r1, [r7, #200]	; 0xc8
 80032a6:	f7fd f953 	bl	8000550 <__aeabi_uldivmod>
 80032aa:	4602      	mov	r2, r0
 80032ac:	460b      	mov	r3, r1
 80032ae:	4611      	mov	r1, r2
 80032b0:	4b3b      	ldr	r3, [pc, #236]	; (80033a0 <UART_SetConfig+0x2d4>)
 80032b2:	fba3 2301 	umull	r2, r3, r3, r1
 80032b6:	095b      	lsrs	r3, r3, #5
 80032b8:	2264      	movs	r2, #100	; 0x64
 80032ba:	fb02 f303 	mul.w	r3, r2, r3
 80032be:	1acb      	subs	r3, r1, r3
 80032c0:	00db      	lsls	r3, r3, #3
 80032c2:	f103 0232 	add.w	r2, r3, #50	; 0x32
 80032c6:	4b36      	ldr	r3, [pc, #216]	; (80033a0 <UART_SetConfig+0x2d4>)
 80032c8:	fba3 2302 	umull	r2, r3, r3, r2
 80032cc:	095b      	lsrs	r3, r3, #5
 80032ce:	005b      	lsls	r3, r3, #1
 80032d0:	f403 73f8 	and.w	r3, r3, #496	; 0x1f0
 80032d4:	441c      	add	r4, r3
 80032d6:	f8d7 30fc 	ldr.w	r3, [r7, #252]	; 0xfc
 80032da:	2200      	movs	r2, #0
 80032dc:	f8c7 30b8 	str.w	r3, [r7, #184]	; 0xb8
 80032e0:	f8c7 20bc 	str.w	r2, [r7, #188]	; 0xbc
 80032e4:	e9d7 892e 	ldrd	r8, r9, [r7, #184]	; 0xb8
 80032e8:	4642      	mov	r2, r8
 80032ea:	464b      	mov	r3, r9
 80032ec:	1891      	adds	r1, r2, r2
 80032ee:	63b9      	str	r1, [r7, #56]	; 0x38
 80032f0:	415b      	adcs	r3, r3
 80032f2:	63fb      	str	r3, [r7, #60]	; 0x3c
 80032f4:	e9d7 230e 	ldrd	r2, r3, [r7, #56]	; 0x38
 80032f8:	4641      	mov	r1, r8
 80032fa:	1851      	adds	r1, r2, r1
 80032fc:	6339      	str	r1, [r7, #48]	; 0x30
 80032fe:	4649      	mov	r1, r9
 8003300:	414b      	adcs	r3, r1
 8003302:	637b      	str	r3, [r7, #52]	; 0x34
 8003304:	f04f 0200 	mov.w	r2, #0
 8003308:	f04f 0300 	mov.w	r3, #0
 800330c:	e9d7 ab0c 	ldrd	sl, fp, [r7, #48]	; 0x30
 8003310:	4659      	mov	r1, fp
 8003312:	00cb      	lsls	r3, r1, #3
 8003314:	4651      	mov	r1, sl
 8003316:	ea43 7351 	orr.w	r3, r3, r1, lsr #29
 800331a:	4651      	mov	r1, sl
 800331c:	00ca      	lsls	r2, r1, #3
 800331e:	4610      	mov	r0, r2
 8003320:	4619      	mov	r1, r3
 8003322:	4603      	mov	r3, r0
 8003324:	4642      	mov	r2, r8
 8003326:	189b      	adds	r3, r3, r2
 8003328:	f8c7 30b0 	str.w	r3, [r7, #176]	; 0xb0
 800332c:	464b      	mov	r3, r9
 800332e:	460a      	mov	r2, r1
 8003330:	eb42 0303 	adc.w	r3, r2, r3
 8003334:	f8c7 30b4 	str.w	r3, [r7, #180]	; 0xb4
 8003338:	f8d7 30f4 	ldr.w	r3, [r7, #244]	; 0xf4
 800333c:	685b      	ldr	r3, [r3, #4]
 800333e:	2200      	movs	r2, #0
 8003340:	f8c7 30a8 	str.w	r3, [r7, #168]	; 0xa8
 8003344:	f8c7 20ac 	str.w	r2, [r7, #172]	; 0xac
 8003348:	e9d7 122a 	ldrd	r1, r2, [r7, #168]	; 0xa8
 800334c:	460b      	mov	r3, r1
 800334e:	18db      	adds	r3, r3, r3
 8003350:	62bb      	str	r3, [r7, #40]	; 0x28
 8003352:	4613      	mov	r3, r2
 8003354:	eb42 0303 	adc.w	r3, r2, r3
 8003358:	62fb      	str	r3, [r7, #44]	; 0x2c
 800335a:	e9d7 230a 	ldrd	r2, r3, [r7, #40]	; 0x28
 800335e:	e9d7 012c 	ldrd	r0, r1, [r7, #176]	; 0xb0
 8003362:	f7fd f8f5 	bl	8000550 <__aeabi_uldivmod>
 8003366:	4602      	mov	r2, r0
 8003368:	460b      	mov	r3, r1
 800336a:	4b0d      	ldr	r3, [pc, #52]	; (80033a0 <UART_SetConfig+0x2d4>)
 800336c:	fba3 1302 	umull	r1, r3, r3, r2
 8003370:	095b      	lsrs	r3, r3, #5
 8003372:	2164      	movs	r1, #100	; 0x64
 8003374:	fb01 f303 	mul.w	r3, r1, r3
 8003378:	1ad3      	subs	r3, r2, r3
 800337a:	00db      	lsls	r3, r3, #3
 800337c:	3332      	adds	r3, #50	; 0x32
 800337e:	4a08      	ldr	r2, [pc, #32]	; (80033a0 <UART_SetConfig+0x2d4>)
 8003380:	fba2 2303 	umull	r2, r3, r2, r3
 8003384:	095b      	lsrs	r3, r3, #5
 8003386:	f003 0207 	and.w	r2, r3, #7
 800338a:	f8d7 30f4 	ldr.w	r3, [r7, #244]	; 0xf4
 800338e:	681b      	ldr	r3, [r3, #0]
 8003390:	4422      	add	r2, r4
 8003392:	609a      	str	r2, [r3, #8]
  }
  else
  {
    huart->Instance->BRR = UART_BRR_SAMPLING16(pclk, huart->Init.BaudRate);
  }
}
 8003394:	e106      	b.n	80035a4 <UART_SetConfig+0x4d8>
 8003396:	bf00      	nop
 8003398:	40011000 	.word	0x40011000
 800339c:	40011400 	.word	0x40011400
 80033a0:	51eb851f 	.word	0x51eb851f
    huart->Instance->BRR = UART_BRR_SAMPLING16(pclk, huart->Init.BaudRate);
 80033a4:	f8d7 30fc 	ldr.w	r3, [r7, #252]	; 0xfc
 80033a8:	2200      	movs	r2, #0
 80033aa:	f8c7 30a0 	str.w	r3, [r7, #160]	; 0xa0
 80033ae:	f8c7 20a4 	str.w	r2, [r7, #164]	; 0xa4
 80033b2:	e9d7 8928 	ldrd	r8, r9, [r7, #160]	; 0xa0
 80033b6:	4642      	mov	r2, r8
 80033b8:	464b      	mov	r3, r9
 80033ba:	1891      	adds	r1, r2, r2
 80033bc:	6239      	str	r1, [r7, #32]
 80033be:	415b      	adcs	r3, r3
 80033c0:	627b      	str	r3, [r7, #36]	; 0x24
 80033c2:	e9d7 2308 	ldrd	r2, r3, [r7, #32]
 80033c6:	4641      	mov	r1, r8
 80033c8:	1854      	adds	r4, r2, r1
 80033ca:	4649      	mov	r1, r9
 80033cc:	eb43 0501 	adc.w	r5, r3, r1
 80033d0:	f04f 0200 	mov.w	r2, #0
 80033d4:	f04f 0300 	mov.w	r3, #0
 80033d8:	00eb      	lsls	r3, r5, #3
 80033da:	ea43 7354 	orr.w	r3, r3, r4, lsr #29
 80033de:	00e2      	lsls	r2, r4, #3
 80033e0:	4614      	mov	r4, r2
 80033e2:	461d      	mov	r5, r3
 80033e4:	4643      	mov	r3, r8
 80033e6:	18e3      	adds	r3, r4, r3
 80033e8:	f8c7 3098 	str.w	r3, [r7, #152]	; 0x98
 80033ec:	464b      	mov	r3, r9
 80033ee:	eb45 0303 	adc.w	r3, r5, r3
 80033f2:	f8c7 309c 	str.w	r3, [r7, #156]	; 0x9c
 80033f6:	f8d7 30f4 	ldr.w	r3, [r7, #244]	; 0xf4
 80033fa:	685b      	ldr	r3, [r3, #4]
 80033fc:	2200      	movs	r2, #0
 80033fe:	f8c7 3090 	str.w	r3, [r7, #144]	; 0x90
 8003402:	f8c7 2094 	str.w	r2, [r7, #148]	; 0x94
 8003406:	f04f 0200 	mov.w	r2, #0
 800340a:	f04f 0300 	mov.w	r3, #0
 800340e:	e9d7 4524 	ldrd	r4, r5, [r7, #144]	; 0x90
 8003412:	4629      	mov	r1, r5
 8003414:	008b      	lsls	r3, r1, #2
 8003416:	4621      	mov	r1, r4
 8003418:	ea43 7391 	orr.w	r3, r3, r1, lsr #30
 800341c:	4621      	mov	r1, r4
 800341e:	008a      	lsls	r2, r1, #2
 8003420:	e9d7 0126 	ldrd	r0, r1, [r7, #152]	; 0x98
 8003424:	f7fd f894 	bl	8000550 <__aeabi_uldivmod>
 8003428:	4602      	mov	r2, r0
 800342a:	460b      	mov	r3, r1
 800342c:	4b60      	ldr	r3, [pc, #384]	; (80035b0 <UART_SetConfig+0x4e4>)
 800342e:	fba3 2302 	umull	r2, r3, r3, r2
 8003432:	095b      	lsrs	r3, r3, #5
 8003434:	011c      	lsls	r4, r3, #4
 8003436:	f8d7 30fc 	ldr.w	r3, [r7, #252]	; 0xfc
 800343a:	2200      	movs	r2, #0
 800343c:	f8c7 3088 	str.w	r3, [r7, #136]	; 0x88
 8003440:	f8c7 208c 	str.w	r2, [r7, #140]	; 0x8c
 8003444:	e9d7 8922 	ldrd	r8, r9, [r7, #136]	; 0x88
 8003448:	4642      	mov	r2, r8
 800344a:	464b      	mov	r3, r9
 800344c:	1891      	adds	r1, r2, r2
 800344e:	61b9      	str	r1, [r7, #24]
 8003450:	415b      	adcs	r3, r3
 8003452:	61fb      	str	r3, [r7, #28]
 8003454:	e9d7 2306 	ldrd	r2, r3, [r7, #24]
 8003458:	4641      	mov	r1, r8
 800345a:	1851      	adds	r1, r2, r1
 800345c:	6139      	str	r1, [r7, #16]
 800345e:	4649      	mov	r1, r9
 8003460:	414b      	adcs	r3, r1
 8003462:	617b      	str	r3, [r7, #20]
 8003464:	f04f 0200 	mov.w	r2, #0
 8003468:	f04f 0300 	mov.w	r3, #0
 800346c:	e9d7 ab04 	ldrd	sl, fp, [r7, #16]
 8003470:	4659      	mov	r1, fp
 8003472:	00cb      	lsls	r3, r1, #3
 8003474:	4651      	mov	r1, sl
 8003476:	ea43 7351 	orr.w	r3, r3, r1, lsr #29
 800347a:	4651      	mov	r1, sl
 800347c:	00ca      	lsls	r2, r1, #3
 800347e:	4610      	mov	r0, r2
 8003480:	4619      	mov	r1, r3
 8003482:	4603      	mov	r3, r0
 8003484:	4642      	mov	r2, r8
 8003486:	189b      	adds	r3, r3, r2
 8003488:	f8c7 3080 	str.w	r3, [r7, #128]	; 0x80
 800348c:	464b      	mov	r3, r9
 800348e:	460a      	mov	r2, r1
 8003490:	eb42 0303 	adc.w	r3, r2, r3
 8003494:	f8c7 3084 	str.w	r3, [r7, #132]	; 0x84
 8003498:	f8d7 30f4 	ldr.w	r3, [r7, #244]	; 0xf4
 800349c:	685b      	ldr	r3, [r3, #4]
 800349e:	2200      	movs	r2, #0
 80034a0:	67bb      	str	r3, [r7, #120]	; 0x78
 80034a2:	67fa      	str	r2, [r7, #124]	; 0x7c
 80034a4:	f04f 0200 	mov.w	r2, #0
 80034a8:	f04f 0300 	mov.w	r3, #0
 80034ac:	e9d7 891e 	ldrd	r8, r9, [r7, #120]	; 0x78
 80034b0:	4649      	mov	r1, r9
 80034b2:	008b      	lsls	r3, r1, #2
 80034b4:	4641      	mov	r1, r8
 80034b6:	ea43 7391 	orr.w	r3, r3, r1, lsr #30
 80034ba:	4641      	mov	r1, r8
 80034bc:	008a      	lsls	r2, r1, #2
 80034be:	e9d7 0120 	ldrd	r0, r1, [r7, #128]	; 0x80
 80034c2:	f7fd f845 	bl	8000550 <__aeabi_uldivmod>
 80034c6:	4602      	mov	r2, r0
 80034c8:	460b      	mov	r3, r1
 80034ca:	4611      	mov	r1, r2
 80034cc:	4b38      	ldr	r3, [pc, #224]	; (80035b0 <UART_SetConfig+0x4e4>)
 80034ce:	fba3 2301 	umull	r2, r3, r3, r1
 80034d2:	095b      	lsrs	r3, r3, #5
 80034d4:	2264      	movs	r2, #100	; 0x64
 80034d6:	fb02 f303 	mul.w	r3, r2, r3
 80034da:	1acb      	subs	r3, r1, r3
 80034dc:	011b      	lsls	r3, r3, #4
 80034de:	3332      	adds	r3, #50	; 0x32
 80034e0:	4a33      	ldr	r2, [pc, #204]	; (80035b0 <UART_SetConfig+0x4e4>)
 80034e2:	fba2 2303 	umull	r2, r3, r2, r3
 80034e6:	095b      	lsrs	r3, r3, #5
 80034e8:	f003 03f0 	and.w	r3, r3, #240	; 0xf0
 80034ec:	441c      	add	r4, r3
 80034ee:	f8d7 30fc 	ldr.w	r3, [r7, #252]	; 0xfc
 80034f2:	2200      	movs	r2, #0
 80034f4:	673b      	str	r3, [r7, #112]	; 0x70
 80034f6:	677a      	str	r2, [r7, #116]	; 0x74
 80034f8:	e9d7 891c 	ldrd	r8, r9, [r7, #112]	; 0x70
 80034fc:	4642      	mov	r2, r8
 80034fe:	464b      	mov	r3, r9
 8003500:	1891      	adds	r1, r2, r2
 8003502:	60b9      	str	r1, [r7, #8]
 8003504:	415b      	adcs	r3, r3
 8003506:	60fb      	str	r3, [r7, #12]
 8003508:	e9d7 2302 	ldrd	r2, r3, [r7, #8]
 800350c:	4641      	mov	r1, r8
 800350e:	1851      	adds	r1, r2, r1
 8003510:	6039      	str	r1, [r7, #0]
 8003512:	4649      	mov	r1, r9
 8003514:	414b      	adcs	r3, r1
 8003516:	607b      	str	r3, [r7, #4]
 8003518:	f04f 0200 	mov.w	r2, #0
 800351c:	f04f 0300 	mov.w	r3, #0
 8003520:	e9d7 ab00 	ldrd	sl, fp, [r7]
 8003524:	4659      	mov	r1, fp
 8003526:	00cb      	lsls	r3, r1, #3
 8003528:	4651      	mov	r1, sl
 800352a:	ea43 7351 	orr.w	r3, r3, r1, lsr #29
 800352e:	4651      	mov	r1, sl
 8003530:	00ca      	lsls	r2, r1, #3
 8003532:	4610      	mov	r0, r2
 8003534:	4619      	mov	r1, r3
 8003536:	4603      	mov	r3, r0
 8003538:	4642      	mov	r2, r8
 800353a:	189b      	adds	r3, r3, r2
 800353c:	66bb      	str	r3, [r7, #104]	; 0x68
 800353e:	464b      	mov	r3, r9
 8003540:	460a      	mov	r2, r1
 8003542:	eb42 0303 	adc.w	r3, r2, r3
 8003546:	66fb      	str	r3, [r7, #108]	; 0x6c
 8003548:	f8d7 30f4 	ldr.w	r3, [r7, #244]	; 0xf4
 800354c:	685b      	ldr	r3, [r3, #4]
 800354e:	2200      	movs	r2, #0
 8003550:	663b      	str	r3, [r7, #96]	; 0x60
 8003552:	667a      	str	r2, [r7, #100]	; 0x64
 8003554:	f04f 0200 	mov.w	r2, #0
 8003558:	f04f 0300 	mov.w	r3, #0
 800355c:	e9d7 8918 	ldrd	r8, r9, [r7, #96]	; 0x60
 8003560:	4649      	mov	r1, r9
 8003562:	008b      	lsls	r3, r1, #2
 8003564:	4641      	mov	r1, r8
 8003566:	ea43 7391 	orr.w	r3, r3, r1, lsr #30
 800356a:	4641      	mov	r1, r8
 800356c:	008a      	lsls	r2, r1, #2
 800356e:	e9d7 011a 	ldrd	r0, r1, [r7, #104]	; 0x68
 8003572:	f7fc ffed 	bl	8000550 <__aeabi_uldivmod>
 8003576:	4602      	mov	r2, r0
 8003578:	460b      	mov	r3, r1
 800357a:	4b0d      	ldr	r3, [pc, #52]	; (80035b0 <UART_SetConfig+0x4e4>)
 800357c:	fba3 1302 	umull	r1, r3, r3, r2
 8003580:	095b      	lsrs	r3, r3, #5
 8003582:	2164      	movs	r1, #100	; 0x64
 8003584:	fb01 f303 	mul.w	r3, r1, r3
 8003588:	1ad3      	subs	r3, r2, r3
 800358a:	011b      	lsls	r3, r3, #4
 800358c:	3332      	adds	r3, #50	; 0x32
 800358e:	4a08      	ldr	r2, [pc, #32]	; (80035b0 <UART_SetConfig+0x4e4>)
 8003590:	fba2 2303 	umull	r2, r3, r2, r3
 8003594:	095b      	lsrs	r3, r3, #5
 8003596:	f003 020f 	and.w	r2, r3, #15
 800359a:	f8d7 30f4 	ldr.w	r3, [r7, #244]	; 0xf4
 800359e:	681b      	ldr	r3, [r3, #0]
 80035a0:	4422      	add	r2, r4
 80035a2:	609a      	str	r2, [r3, #8]
}
 80035a4:	bf00      	nop
 80035a6:	f507 7780 	add.w	r7, r7, #256	; 0x100
 80035aa:	46bd      	mov	sp, r7
 80035ac:	e8bd 8fb0 	ldmia.w	sp!, {r4, r5, r7, r8, r9, sl, fp, pc}
 80035b0:	51eb851f 	.word	0x51eb851f

080035b4 <memset>:
 80035b4:	4402      	add	r2, r0
 80035b6:	4603      	mov	r3, r0
 80035b8:	4293      	cmp	r3, r2
 80035ba:	d100      	bne.n	80035be <memset+0xa>
 80035bc:	4770      	bx	lr
 80035be:	f803 1b01 	strb.w	r1, [r3], #1
 80035c2:	e7f9      	b.n	80035b8 <memset+0x4>

080035c4 <__libc_init_array>:
 80035c4:	b570      	push	{r4, r5, r6, lr}
 80035c6:	4d0d      	ldr	r5, [pc, #52]	; (80035fc <__libc_init_array+0x38>)
 80035c8:	4c0d      	ldr	r4, [pc, #52]	; (8003600 <__libc_init_array+0x3c>)
 80035ca:	1b64      	subs	r4, r4, r5
 80035cc:	10a4      	asrs	r4, r4, #2
 80035ce:	2600      	movs	r6, #0
 80035d0:	42a6      	cmp	r6, r4
 80035d2:	d109      	bne.n	80035e8 <__libc_init_array+0x24>
 80035d4:	4d0b      	ldr	r5, [pc, #44]	; (8003604 <__libc_init_array+0x40>)
 80035d6:	4c0c      	ldr	r4, [pc, #48]	; (8003608 <__libc_init_array+0x44>)
 80035d8:	f000 f818 	bl	800360c <_init>
 80035dc:	1b64      	subs	r4, r4, r5
 80035de:	10a4      	asrs	r4, r4, #2
 80035e0:	2600      	movs	r6, #0
 80035e2:	42a6      	cmp	r6, r4
 80035e4:	d105      	bne.n	80035f2 <__libc_init_array+0x2e>
 80035e6:	bd70      	pop	{r4, r5, r6, pc}
 80035e8:	f855 3b04 	ldr.w	r3, [r5], #4
 80035ec:	4798      	blx	r3
 80035ee:	3601      	adds	r6, #1
 80035f0:	e7ee      	b.n	80035d0 <__libc_init_array+0xc>
 80035f2:	f855 3b04 	ldr.w	r3, [r5], #4
 80035f6:	4798      	blx	r3
 80035f8:	3601      	adds	r6, #1
 80035fa:	e7f2      	b.n	80035e2 <__libc_init_array+0x1e>
 80035fc:	0800373c 	.word	0x0800373c
 8003600:	0800373c 	.word	0x0800373c
 8003604:	0800373c 	.word	0x0800373c
 8003608:	08003740 	.word	0x08003740

0800360c <_init>:
 800360c:	b5f8      	push	{r3, r4, r5, r6, r7, lr}
 800360e:	bf00      	nop
 8003610:	bcf8      	pop	{r3, r4, r5, r6, r7}
 8003612:	bc08      	pop	{r3}
 8003614:	469e      	mov	lr, r3
 8003616:	4770      	bx	lr

08003618 <_fini>:
 8003618:	b5f8      	push	{r3, r4, r5, r6, r7, lr}
 800361a:	bf00      	nop
 800361c:	bcf8      	pop	{r3, r4, r5, r6, r7}
 800361e:	bc08      	pop	{r3}
 8003620:	469e      	mov	lr, r3
 8003622:	4770      	bx	lr
