
APC1.elf:     file format elf32-littlearm

Sections:
Idx Name          Size      VMA       LMA       File off  Algn
  0 .isr_vector   00000198  08000000  08000000  00010000  2**0
                  CONTENTS, ALLOC, LOAD, READONLY, DATA
  1 .text         000032bc  08000198  08000198  00010198  2**2
                  CONTENTS, ALLOC, LOAD, READONLY, CODE
  2 .rodata       00000054  08003454  08003454  00013454  2**2
                  CONTENTS, ALLOC, LOAD, READONLY, DATA
  3 .ARM.extab    00000000  080034a8  080034a8  00020064  2**0
                  CONTENTS
  4 .ARM          00000008  080034a8  080034a8  000134a8  2**2
                  CONTENTS, ALLOC, LOAD, READONLY, DATA
  5 .preinit_array 00000000  080034b0  080034b0  00020064  2**0
                  CONTENTS, ALLOC, LOAD, DATA
  6 .init_array   00000004  080034b0  080034b0  000134b0  2**2
                  CONTENTS, ALLOC, LOAD, DATA
  7 .fini_array   00000004  080034b4  080034b4  000134b4  2**2
                  CONTENTS, ALLOC, LOAD, DATA
  8 .data         00000064  20000000  080034b8  00020000  2**2
                  CONTENTS, ALLOC, LOAD, DATA
  9 .bss          00000138  20000068  0800351c  00020068  2**3
                  ALLOC
 10 ._user_heap_stack 00000600  200001a0  0800351c  000201a0  2**0
                  ALLOC
 11 .ARM.attributes 00000030  00000000  00000000  00020064  2**0
                  CONTENTS, READONLY
 12 .comment      00000043  00000000  00000000  00020094  2**0
                  CONTENTS, READONLY
 13 .debug_info   00008e8b  00000000  00000000  000200d7  2**0
                  CONTENTS, READONLY, DEBUGGING, OCTETS
 14 .debug_abbrev 00001928  00000000  00000000  00028f62  2**0
                  CONTENTS, READONLY, DEBUGGING, OCTETS
 15 .debug_aranges 00000790  00000000  00000000  0002a890  2**3
                  CONTENTS, READONLY, DEBUGGING, OCTETS
 16 .debug_rnglists 000005c3  00000000  00000000  0002b020  2**0
                  CONTENTS, READONLY, DEBUGGING, OCTETS
 17 .debug_macro  00015580  00000000  00000000  0002b5e3  2**0
                  CONTENTS, READONLY, DEBUGGING, OCTETS
 18 .debug_line   000096d7  00000000  00000000  00040b63  2**0
                  CONTENTS, READONLY, DEBUGGING, OCTETS
 19 .debug_str    00085298  00000000  00000000  0004a23a  2**0
                  CONTENTS, READONLY, DEBUGGING, OCTETS
 20 .debug_frame  00001e38  00000000  00000000  000cf4d4  2**2
                  CONTENTS, READONLY, DEBUGGING, OCTETS
 21 .debug_line_str 00000079  00000000  00000000  000d130c  2**0
                  CONTENTS, READONLY, DEBUGGING, OCTETS

Disassembly of section .text:

08000198 <__do_global_dtors_aux>:
 8000198:	b510      	push	{r4, lr}
 800019a:	4c05      	ldr	r4, [pc, #20]	; (80001b0 <__do_global_dtors_aux+0x18>)
 800019c:	7823      	ldrb	r3, [r4, #0]
 800019e:	b933      	cbnz	r3, 80001ae <__do_global_dtors_aux+0x16>
 80001a0:	4b04      	ldr	r3, [pc, #16]	; (80001b4 <__do_global_dtors_aux+0x1c>)
 80001a2:	b113      	cbz	r3, 80001aa <__do_global_dtors_aux+0x12>
 80001a4:	4804      	ldr	r0, [pc, #16]	; (80001b8 <__do_global_dtors_aux+0x20>)
 80001a6:	f3af 8000 	nop.w
 80001aa:	2301      	movs	r3, #1
 80001ac:	7023      	strb	r3, [r4, #0]
 80001ae:	bd10      	pop	{r4, pc}
 80001b0:	20000068 	.word	0x20000068
 80001b4:	00000000 	.word	0x00000000
 80001b8:	0800343c 	.word	0x0800343c

080001bc <frame_dummy>:
 80001bc:	b508      	push	{r3, lr}
 80001be:	4b03      	ldr	r3, [pc, #12]	; (80001cc <frame_dummy+0x10>)
 80001c0:	b11b      	cbz	r3, 80001ca <frame_dummy+0xe>
 80001c2:	4903      	ldr	r1, [pc, #12]	; (80001d0 <frame_dummy+0x14>)
 80001c4:	4803      	ldr	r0, [pc, #12]	; (80001d4 <frame_dummy+0x18>)
 80001c6:	f3af 8000 	nop.w
 80001ca:	bd08      	pop	{r3, pc}
 80001cc:	00000000 	.word	0x00000000
 80001d0:	2000006c 	.word	0x2000006c
 80001d4:	0800343c 	.word	0x0800343c

080001d8 <__aeabi_drsub>:
 80001d8:	f081 4100 	eor.w	r1, r1, #2147483648	; 0x80000000
 80001dc:	e002      	b.n	80001e4 <__adddf3>
 80001de:	bf00      	nop

080001e0 <__aeabi_dsub>:
 80001e0:	f083 4300 	eor.w	r3, r3, #2147483648	; 0x80000000

080001e4 <__adddf3>:
 80001e4:	b530      	push	{r4, r5, lr}
 80001e6:	ea4f 0441 	mov.w	r4, r1, lsl #1
 80001ea:	ea4f 0543 	mov.w	r5, r3, lsl #1
 80001ee:	ea94 0f05 	teq	r4, r5
 80001f2:	bf08      	it	eq
 80001f4:	ea90 0f02 	teqeq	r0, r2
 80001f8:	bf1f      	itttt	ne
 80001fa:	ea54 0c00 	orrsne.w	ip, r4, r0
 80001fe:	ea55 0c02 	orrsne.w	ip, r5, r2
 8000202:	ea7f 5c64 	mvnsne.w	ip, r4, asr #21
 8000206:	ea7f 5c65 	mvnsne.w	ip, r5, asr #21
 800020a:	f000 80e2 	beq.w	80003d2 <__adddf3+0x1ee>
 800020e:	ea4f 5454 	mov.w	r4, r4, lsr #21
 8000212:	ebd4 5555 	rsbs	r5, r4, r5, lsr #21
 8000216:	bfb8      	it	lt
 8000218:	426d      	neglt	r5, r5
 800021a:	dd0c      	ble.n	8000236 <__adddf3+0x52>
 800021c:	442c      	add	r4, r5
 800021e:	ea80 0202 	eor.w	r2, r0, r2
 8000222:	ea81 0303 	eor.w	r3, r1, r3
 8000226:	ea82 0000 	eor.w	r0, r2, r0
 800022a:	ea83 0101 	eor.w	r1, r3, r1
 800022e:	ea80 0202 	eor.w	r2, r0, r2
 8000232:	ea81 0303 	eor.w	r3, r1, r3
 8000236:	2d36      	cmp	r5, #54	; 0x36
 8000238:	bf88      	it	hi
 800023a:	bd30      	pophi	{r4, r5, pc}
 800023c:	f011 4f00 	tst.w	r1, #2147483648	; 0x80000000
 8000240:	ea4f 3101 	mov.w	r1, r1, lsl #12
 8000244:	f44f 1c80 	mov.w	ip, #1048576	; 0x100000
 8000248:	ea4c 3111 	orr.w	r1, ip, r1, lsr #12
 800024c:	d002      	beq.n	8000254 <__adddf3+0x70>
 800024e:	4240      	negs	r0, r0
 8000250:	eb61 0141 	sbc.w	r1, r1, r1, lsl #1
 8000254:	f013 4f00 	tst.w	r3, #2147483648	; 0x80000000
 8000258:	ea4f 3303 	mov.w	r3, r3, lsl #12
 800025c:	ea4c 3313 	orr.w	r3, ip, r3, lsr #12
 8000260:	d002      	beq.n	8000268 <__adddf3+0x84>
 8000262:	4252      	negs	r2, r2
 8000264:	eb63 0343 	sbc.w	r3, r3, r3, lsl #1
 8000268:	ea94 0f05 	teq	r4, r5
 800026c:	f000 80a7 	beq.w	80003be <__adddf3+0x1da>
 8000270:	f1a4 0401 	sub.w	r4, r4, #1
 8000274:	f1d5 0e20 	rsbs	lr, r5, #32
 8000278:	db0d      	blt.n	8000296 <__adddf3+0xb2>
 800027a:	fa02 fc0e 	lsl.w	ip, r2, lr
 800027e:	fa22 f205 	lsr.w	r2, r2, r5
 8000282:	1880      	adds	r0, r0, r2
 8000284:	f141 0100 	adc.w	r1, r1, #0
 8000288:	fa03 f20e 	lsl.w	r2, r3, lr
 800028c:	1880      	adds	r0, r0, r2
 800028e:	fa43 f305 	asr.w	r3, r3, r5
 8000292:	4159      	adcs	r1, r3
 8000294:	e00e      	b.n	80002b4 <__adddf3+0xd0>
 8000296:	f1a5 0520 	sub.w	r5, r5, #32
 800029a:	f10e 0e20 	add.w	lr, lr, #32
 800029e:	2a01      	cmp	r2, #1
 80002a0:	fa03 fc0e 	lsl.w	ip, r3, lr
 80002a4:	bf28      	it	cs
 80002a6:	f04c 0c02 	orrcs.w	ip, ip, #2
 80002aa:	fa43 f305 	asr.w	r3, r3, r5
 80002ae:	18c0      	adds	r0, r0, r3
 80002b0:	eb51 71e3 	adcs.w	r1, r1, r3, asr #31
 80002b4:	f001 4500 	and.w	r5, r1, #2147483648	; 0x80000000
 80002b8:	d507      	bpl.n	80002ca <__adddf3+0xe6>
 80002ba:	f04f 0e00 	mov.w	lr, #0
 80002be:	f1dc 0c00 	rsbs	ip, ip, #0
 80002c2:	eb7e 0000 	sbcs.w	r0, lr, r0
 80002c6:	eb6e 0101 	sbc.w	r1, lr, r1
 80002ca:	f5b1 1f80 	cmp.w	r1, #1048576	; 0x100000
 80002ce:	d31b      	bcc.n	8000308 <__adddf3+0x124>
 80002d0:	f5b1 1f00 	cmp.w	r1, #2097152	; 0x200000
 80002d4:	d30c      	bcc.n	80002f0 <__adddf3+0x10c>
 80002d6:	0849      	lsrs	r1, r1, #1
 80002d8:	ea5f 0030 	movs.w	r0, r0, rrx
 80002dc:	ea4f 0c3c 	mov.w	ip, ip, rrx
 80002e0:	f104 0401 	add.w	r4, r4, #1
 80002e4:	ea4f 5244 	mov.w	r2, r4, lsl #21
 80002e8:	f512 0f80 	cmn.w	r2, #4194304	; 0x400000
 80002ec:	f080 809a 	bcs.w	8000424 <__adddf3+0x240>
 80002f0:	f1bc 4f00 	cmp.w	ip, #2147483648	; 0x80000000
 80002f4:	bf08      	it	eq
 80002f6:	ea5f 0c50 	movseq.w	ip, r0, lsr #1
 80002fa:	f150 0000 	adcs.w	r0, r0, #0
 80002fe:	eb41 5104 	adc.w	r1, r1, r4, lsl #20
 8000302:	ea41 0105 	orr.w	r1, r1, r5
 8000306:	bd30      	pop	{r4, r5, pc}
 8000308:	ea5f 0c4c 	movs.w	ip, ip, lsl #1
 800030c:	4140      	adcs	r0, r0
 800030e:	eb41 0101 	adc.w	r1, r1, r1
 8000312:	3c01      	subs	r4, #1
 8000314:	bf28      	it	cs
 8000316:	f5b1 1f80 	cmpcs.w	r1, #1048576	; 0x100000
 800031a:	d2e9      	bcs.n	80002f0 <__adddf3+0x10c>
 800031c:	f091 0f00 	teq	r1, #0
 8000320:	bf04      	itt	eq
 8000322:	4601      	moveq	r1, r0
 8000324:	2000      	moveq	r0, #0
 8000326:	fab1 f381 	clz	r3, r1
 800032a:	bf08      	it	eq
 800032c:	3320      	addeq	r3, #32
 800032e:	f1a3 030b 	sub.w	r3, r3, #11
 8000332:	f1b3 0220 	subs.w	r2, r3, #32
 8000336:	da0c      	bge.n	8000352 <__adddf3+0x16e>
 8000338:	320c      	adds	r2, #12
 800033a:	dd08      	ble.n	800034e <__adddf3+0x16a>
 800033c:	f102 0c14 	add.w	ip, r2, #20
 8000340:	f1c2 020c 	rsb	r2, r2, #12
 8000344:	fa01 f00c 	lsl.w	r0, r1, ip
 8000348:	fa21 f102 	lsr.w	r1, r1, r2
 800034c:	e00c      	b.n	8000368 <__adddf3+0x184>
 800034e:	f102 0214 	add.w	r2, r2, #20
 8000352:	bfd8      	it	le
 8000354:	f1c2 0c20 	rsble	ip, r2, #32
 8000358:	fa01 f102 	lsl.w	r1, r1, r2
 800035c:	fa20 fc0c 	lsr.w	ip, r0, ip
 8000360:	bfdc      	itt	le
 8000362:	ea41 010c 	orrle.w	r1, r1, ip
 8000366:	4090      	lslle	r0, r2
 8000368:	1ae4      	subs	r4, r4, r3
 800036a:	bfa2      	ittt	ge
 800036c:	eb01 5104 	addge.w	r1, r1, r4, lsl #20
 8000370:	4329      	orrge	r1, r5
 8000372:	bd30      	popge	{r4, r5, pc}
 8000374:	ea6f 0404 	mvn.w	r4, r4
 8000378:	3c1f      	subs	r4, #31
 800037a:	da1c      	bge.n	80003b6 <__adddf3+0x1d2>
 800037c:	340c      	adds	r4, #12
 800037e:	dc0e      	bgt.n	800039e <__adddf3+0x1ba>
 8000380:	f104 0414 	add.w	r4, r4, #20
 8000384:	f1c4 0220 	rsb	r2, r4, #32
 8000388:	fa20 f004 	lsr.w	r0, r0, r4
 800038c:	fa01 f302 	lsl.w	r3, r1, r2
 8000390:	ea40 0003 	orr.w	r0, r0, r3
 8000394:	fa21 f304 	lsr.w	r3, r1, r4
 8000398:	ea45 0103 	orr.w	r1, r5, r3
 800039c:	bd30      	pop	{r4, r5, pc}
 800039e:	f1c4 040c 	rsb	r4, r4, #12
 80003a2:	f1c4 0220 	rsb	r2, r4, #32
 80003a6:	fa20 f002 	lsr.w	r0, r0, r2
 80003aa:	fa01 f304 	lsl.w	r3, r1, r4
 80003ae:	ea40 0003 	orr.w	r0, r0, r3
 80003b2:	4629      	mov	r1, r5
 80003b4:	bd30      	pop	{r4, r5, pc}
 80003b6:	fa21 f004 	lsr.w	r0, r1, r4
 80003ba:	4629      	mov	r1, r5
 80003bc:	bd30      	pop	{r4, r5, pc}
 80003be:	f094 0f00 	teq	r4, #0
 80003c2:	f483 1380 	eor.w	r3, r3, #1048576	; 0x100000
 80003c6:	bf06      	itte	eq
 80003c8:	f481 1180 	eoreq.w	r1, r1, #1048576	; 0x100000
 80003cc:	3401      	addeq	r4, #1
 80003ce:	3d01      	subne	r5, #1
 80003d0:	e74e      	b.n	8000270 <__adddf3+0x8c>
 80003d2:	ea7f 5c64 	mvns.w	ip, r4, asr #21
 80003d6:	bf18      	it	ne
 80003d8:	ea7f 5c65 	mvnsne.w	ip, r5, asr #21
 80003dc:	d029      	beq.n	8000432 <__adddf3+0x24e>
 80003de:	ea94 0f05 	teq	r4, r5
 80003e2:	bf08      	it	eq
 80003e4:	ea90 0f02 	teqeq	r0, r2
 80003e8:	d005      	beq.n	80003f6 <__adddf3+0x212>
 80003ea:	ea54 0c00 	orrs.w	ip, r4, r0
 80003ee:	bf04      	itt	eq
 80003f0:	4619      	moveq	r1, r3
 80003f2:	4610      	moveq	r0, r2
 80003f4:	bd30      	pop	{r4, r5, pc}
 80003f6:	ea91 0f03 	teq	r1, r3
 80003fa:	bf1e      	ittt	ne
 80003fc:	2100      	movne	r1, #0
 80003fe:	2000      	movne	r0, #0
 8000400:	bd30      	popne	{r4, r5, pc}
 8000402:	ea5f 5c54 	movs.w	ip, r4, lsr #21
 8000406:	d105      	bne.n	8000414 <__adddf3+0x230>
 8000408:	0040      	lsls	r0, r0, #1
 800040a:	4149      	adcs	r1, r1
 800040c:	bf28      	it	cs
 800040e:	f041 4100 	orrcs.w	r1, r1, #2147483648	; 0x80000000
 8000412:	bd30      	pop	{r4, r5, pc}
 8000414:	f514 0480 	adds.w	r4, r4, #4194304	; 0x400000
 8000418:	bf3c      	itt	cc
 800041a:	f501 1180 	addcc.w	r1, r1, #1048576	; 0x100000
 800041e:	bd30      	popcc	{r4, r5, pc}
 8000420:	f001 4500 	and.w	r5, r1, #2147483648	; 0x80000000
 8000424:	f045 41fe 	orr.w	r1, r5, #2130706432	; 0x7f000000
 8000428:	f441 0170 	orr.w	r1, r1, #15728640	; 0xf00000
 800042c:	f04f 0000 	mov.w	r0, #0
 8000430:	bd30      	pop	{r4, r5, pc}
 8000432:	ea7f 5c64 	mvns.w	ip, r4, asr #21
 8000436:	bf1a      	itte	ne
 8000438:	4619      	movne	r1, r3
 800043a:	4610      	movne	r0, r2
 800043c:	ea7f 5c65 	mvnseq.w	ip, r5, asr #21
 8000440:	bf1c      	itt	ne
 8000442:	460b      	movne	r3, r1
 8000444:	4602      	movne	r2, r0
 8000446:	ea50 3401 	orrs.w	r4, r0, r1, lsl #12
 800044a:	bf06      	itte	eq
 800044c:	ea52 3503 	orrseq.w	r5, r2, r3, lsl #12
 8000450:	ea91 0f03 	teqeq	r1, r3
 8000454:	f441 2100 	orrne.w	r1, r1, #524288	; 0x80000
 8000458:	bd30      	pop	{r4, r5, pc}
 800045a:	bf00      	nop

0800045c <__aeabi_ui2d>:
 800045c:	f090 0f00 	teq	r0, #0
 8000460:	bf04      	itt	eq
 8000462:	2100      	moveq	r1, #0
 8000464:	4770      	bxeq	lr
 8000466:	b530      	push	{r4, r5, lr}
 8000468:	f44f 6480 	mov.w	r4, #1024	; 0x400
 800046c:	f104 0432 	add.w	r4, r4, #50	; 0x32
 8000470:	f04f 0500 	mov.w	r5, #0
 8000474:	f04f 0100 	mov.w	r1, #0
 8000478:	e750      	b.n	800031c <__adddf3+0x138>
 800047a:	bf00      	nop

0800047c <__aeabi_i2d>:
 800047c:	f090 0f00 	teq	r0, #0
 8000480:	bf04      	itt	eq
 8000482:	2100      	moveq	r1, #0
 8000484:	4770      	bxeq	lr
 8000486:	b530      	push	{r4, r5, lr}
 8000488:	f44f 6480 	mov.w	r4, #1024	; 0x400
 800048c:	f104 0432 	add.w	r4, r4, #50	; 0x32
 8000490:	f010 4500 	ands.w	r5, r0, #2147483648	; 0x80000000
 8000494:	bf48      	it	mi
 8000496:	4240      	negmi	r0, r0
 8000498:	f04f 0100 	mov.w	r1, #0
 800049c:	e73e      	b.n	800031c <__adddf3+0x138>
 800049e:	bf00      	nop

080004a0 <__aeabi_f2d>:
 80004a0:	0042      	lsls	r2, r0, #1
 80004a2:	ea4f 01e2 	mov.w	r1, r2, asr #3
 80004a6:	ea4f 0131 	mov.w	r1, r1, rrx
 80004aa:	ea4f 7002 	mov.w	r0, r2, lsl #28
 80004ae:	bf1f      	itttt	ne
 80004b0:	f012 437f 	andsne.w	r3, r2, #4278190080	; 0xff000000
 80004b4:	f093 4f7f 	teqne	r3, #4278190080	; 0xff000000
 80004b8:	f081 5160 	eorne.w	r1, r1, #939524096	; 0x38000000
 80004bc:	4770      	bxne	lr
 80004be:	f032 427f 	bics.w	r2, r2, #4278190080	; 0xff000000
 80004c2:	bf08      	it	eq
 80004c4:	4770      	bxeq	lr
 80004c6:	f093 4f7f 	teq	r3, #4278190080	; 0xff000000
 80004ca:	bf04      	itt	eq
 80004cc:	f441 2100 	orreq.w	r1, r1, #524288	; 0x80000
 80004d0:	4770      	bxeq	lr
 80004d2:	b530      	push	{r4, r5, lr}
 80004d4:	f44f 7460 	mov.w	r4, #896	; 0x380
 80004d8:	f001 4500 	and.w	r5, r1, #2147483648	; 0x80000000
 80004dc:	f021 4100 	bic.w	r1, r1, #2147483648	; 0x80000000
 80004e0:	e71c      	b.n	800031c <__adddf3+0x138>
 80004e2:	bf00      	nop

080004e4 <__aeabi_ul2d>:
 80004e4:	ea50 0201 	orrs.w	r2, r0, r1
 80004e8:	bf08      	it	eq
 80004ea:	4770      	bxeq	lr
 80004ec:	b530      	push	{r4, r5, lr}
 80004ee:	f04f 0500 	mov.w	r5, #0
 80004f2:	e00a      	b.n	800050a <__aeabi_l2d+0x16>

080004f4 <__aeabi_l2d>:
 80004f4:	ea50 0201 	orrs.w	r2, r0, r1
 80004f8:	bf08      	it	eq
 80004fa:	4770      	bxeq	lr
 80004fc:	b530      	push	{r4, r5, lr}
 80004fe:	f011 4500 	ands.w	r5, r1, #2147483648	; 0x80000000
 8000502:	d502      	bpl.n	800050a <__aeabi_l2d+0x16>
 8000504:	4240      	negs	r0, r0
 8000506:	eb61 0141 	sbc.w	r1, r1, r1, lsl #1
 800050a:	f44f 6480 	mov.w	r4, #1024	; 0x400
 800050e:	f104 0432 	add.w	r4, r4, #50	; 0x32
 8000512:	ea5f 5c91 	movs.w	ip, r1, lsr #22
 8000516:	f43f aed8 	beq.w	80002ca <__adddf3+0xe6>
 800051a:	f04f 0203 	mov.w	r2, #3
 800051e:	ea5f 0cdc 	movs.w	ip, ip, lsr #3
 8000522:	bf18      	it	ne
 8000524:	3203      	addne	r2, #3
 8000526:	ea5f 0cdc 	movs.w	ip, ip, lsr #3
 800052a:	bf18      	it	ne
 800052c:	3203      	addne	r2, #3
 800052e:	eb02 02dc 	add.w	r2, r2, ip, lsr #3
 8000532:	f1c2 0320 	rsb	r3, r2, #32
 8000536:	fa00 fc03 	lsl.w	ip, r0, r3
 800053a:	fa20 f002 	lsr.w	r0, r0, r2
 800053e:	fa01 fe03 	lsl.w	lr, r1, r3
 8000542:	ea40 000e 	orr.w	r0, r0, lr
 8000546:	fa21 f102 	lsr.w	r1, r1, r2
 800054a:	4414      	add	r4, r2
 800054c:	e6bd      	b.n	80002ca <__adddf3+0xe6>
 800054e:	bf00      	nop

08000550 <__aeabi_uldivmod>:
 8000550:	b953      	cbnz	r3, 8000568 <__aeabi_uldivmod+0x18>
 8000552:	b94a      	cbnz	r2, 8000568 <__aeabi_uldivmod+0x18>
 8000554:	2900      	cmp	r1, #0
 8000556:	bf08      	it	eq
 8000558:	2800      	cmpeq	r0, #0
 800055a:	bf1c      	itt	ne
 800055c:	f04f 31ff 	movne.w	r1, #4294967295
 8000560:	f04f 30ff 	movne.w	r0, #4294967295
 8000564:	f000 b970 	b.w	8000848 <__aeabi_idiv0>
 8000568:	f1ad 0c08 	sub.w	ip, sp, #8
 800056c:	e96d ce04 	strd	ip, lr, [sp, #-16]!
 8000570:	f000 f806 	bl	8000580 <__udivmoddi4>
 8000574:	f8dd e004 	ldr.w	lr, [sp, #4]
 8000578:	e9dd 2302 	ldrd	r2, r3, [sp, #8]
 800057c:	b004      	add	sp, #16
 800057e:	4770      	bx	lr

08000580 <__udivmoddi4>:
 8000580:	e92d 47f0 	stmdb	sp!, {r4, r5, r6, r7, r8, r9, sl, lr}
 8000584:	9e08      	ldr	r6, [sp, #32]
 8000586:	460d      	mov	r5, r1
 8000588:	4604      	mov	r4, r0
 800058a:	460f      	mov	r7, r1
 800058c:	2b00      	cmp	r3, #0
 800058e:	d14a      	bne.n	8000626 <__udivmoddi4+0xa6>
 8000590:	428a      	cmp	r2, r1
 8000592:	4694      	mov	ip, r2
 8000594:	d965      	bls.n	8000662 <__udivmoddi4+0xe2>
 8000596:	fab2 f382 	clz	r3, r2
 800059a:	b143      	cbz	r3, 80005ae <__udivmoddi4+0x2e>
 800059c:	fa02 fc03 	lsl.w	ip, r2, r3
 80005a0:	f1c3 0220 	rsb	r2, r3, #32
 80005a4:	409f      	lsls	r7, r3
 80005a6:	fa20 f202 	lsr.w	r2, r0, r2
 80005aa:	4317      	orrs	r7, r2
 80005ac:	409c      	lsls	r4, r3
 80005ae:	ea4f 4e1c 	mov.w	lr, ip, lsr #16
 80005b2:	fa1f f58c 	uxth.w	r5, ip
 80005b6:	fbb7 f1fe 	udiv	r1, r7, lr
 80005ba:	0c22      	lsrs	r2, r4, #16
 80005bc:	fb0e 7711 	mls	r7, lr, r1, r7
 80005c0:	ea42 4207 	orr.w	r2, r2, r7, lsl #16
 80005c4:	fb01 f005 	mul.w	r0, r1, r5
 80005c8:	4290      	cmp	r0, r2
 80005ca:	d90a      	bls.n	80005e2 <__udivmoddi4+0x62>
 80005cc:	eb1c 0202 	adds.w	r2, ip, r2
 80005d0:	f101 37ff 	add.w	r7, r1, #4294967295
 80005d4:	f080 811c 	bcs.w	8000810 <__udivmoddi4+0x290>
 80005d8:	4290      	cmp	r0, r2
 80005da:	f240 8119 	bls.w	8000810 <__udivmoddi4+0x290>
 80005de:	3902      	subs	r1, #2
 80005e0:	4462      	add	r2, ip
 80005e2:	1a12      	subs	r2, r2, r0
 80005e4:	b2a4      	uxth	r4, r4
 80005e6:	fbb2 f0fe 	udiv	r0, r2, lr
 80005ea:	fb0e 2210 	mls	r2, lr, r0, r2
 80005ee:	ea44 4402 	orr.w	r4, r4, r2, lsl #16
 80005f2:	fb00 f505 	mul.w	r5, r0, r5
 80005f6:	42a5      	cmp	r5, r4
 80005f8:	d90a      	bls.n	8000610 <__udivmoddi4+0x90>
 80005fa:	eb1c 0404 	adds.w	r4, ip, r4
 80005fe:	f100 32ff 	add.w	r2, r0, #4294967295
 8000602:	f080 8107 	bcs.w	8000814 <__udivmoddi4+0x294>
 8000606:	42a5      	cmp	r5, r4
 8000608:	f240 8104 	bls.w	8000814 <__udivmoddi4+0x294>
 800060c:	4464      	add	r4, ip
 800060e:	3802      	subs	r0, #2
 8000610:	ea40 4001 	orr.w	r0, r0, r1, lsl #16
 8000614:	1b64      	subs	r4, r4, r5
 8000616:	2100      	movs	r1, #0
 8000618:	b11e      	cbz	r6, 8000622 <__udivmoddi4+0xa2>
 800061a:	40dc      	lsrs	r4, r3
 800061c:	2300      	movs	r3, #0
 800061e:	e9c6 4300 	strd	r4, r3, [r6]
 8000622:	e8bd 87f0 	ldmia.w	sp!, {r4, r5, r6, r7, r8, r9, sl, pc}
 8000626:	428b      	cmp	r3, r1
 8000628:	d908      	bls.n	800063c <__udivmoddi4+0xbc>
 800062a:	2e00      	cmp	r6, #0
 800062c:	f000 80ed 	beq.w	800080a <__udivmoddi4+0x28a>
 8000630:	2100      	movs	r1, #0
 8000632:	e9c6 0500 	strd	r0, r5, [r6]
 8000636:	4608      	mov	r0, r1
 8000638:	e8bd 87f0 	ldmia.w	sp!, {r4, r5, r6, r7, r8, r9, sl, pc}
 800063c:	fab3 f183 	clz	r1, r3
 8000640:	2900      	cmp	r1, #0
 8000642:	d149      	bne.n	80006d8 <__udivmoddi4+0x158>
 8000644:	42ab      	cmp	r3, r5
 8000646:	d302      	bcc.n	800064e <__udivmoddi4+0xce>
 8000648:	4282      	cmp	r2, r0
 800064a:	f200 80f8 	bhi.w	800083e <__udivmoddi4+0x2be>
 800064e:	1a84      	subs	r4, r0, r2
 8000650:	eb65 0203 	sbc.w	r2, r5, r3
 8000654:	2001      	movs	r0, #1
 8000656:	4617      	mov	r7, r2
 8000658:	2e00      	cmp	r6, #0
 800065a:	d0e2      	beq.n	8000622 <__udivmoddi4+0xa2>
 800065c:	e9c6 4700 	strd	r4, r7, [r6]
 8000660:	e7df      	b.n	8000622 <__udivmoddi4+0xa2>
 8000662:	b902      	cbnz	r2, 8000666 <__udivmoddi4+0xe6>
 8000664:	deff      	udf	#255	; 0xff
 8000666:	fab2 f382 	clz	r3, r2
 800066a:	2b00      	cmp	r3, #0
 800066c:	f040 8090 	bne.w	8000790 <__udivmoddi4+0x210>
 8000670:	1a8a      	subs	r2, r1, r2
 8000672:	ea4f 471c 	mov.w	r7, ip, lsr #16
 8000676:	fa1f fe8c 	uxth.w	lr, ip
 800067a:	2101      	movs	r1, #1
 800067c:	fbb2 f5f7 	udiv	r5, r2, r7
 8000680:	fb07 2015 	mls	r0, r7, r5, r2
 8000684:	0c22      	lsrs	r2, r4, #16
 8000686:	ea42 4200 	orr.w	r2, r2, r0, lsl #16
 800068a:	fb0e f005 	mul.w	r0, lr, r5
 800068e:	4290      	cmp	r0, r2
 8000690:	d908      	bls.n	80006a4 <__udivmoddi4+0x124>
 8000692:	eb1c 0202 	adds.w	r2, ip, r2
 8000696:	f105 38ff 	add.w	r8, r5, #4294967295
 800069a:	d202      	bcs.n	80006a2 <__udivmoddi4+0x122>
 800069c:	4290      	cmp	r0, r2
 800069e:	f200 80cb 	bhi.w	8000838 <__udivmoddi4+0x2b8>
 80006a2:	4645      	mov	r5, r8
 80006a4:	1a12      	subs	r2, r2, r0
 80006a6:	b2a4      	uxth	r4, r4
 80006a8:	fbb2 f0f7 	udiv	r0, r2, r7
 80006ac:	fb07 2210 	mls	r2, r7, r0, r2
 80006b0:	ea44 4402 	orr.w	r4, r4, r2, lsl #16
 80006b4:	fb0e fe00 	mul.w	lr, lr, r0
 80006b8:	45a6      	cmp	lr, r4
 80006ba:	d908      	bls.n	80006ce <__udivmoddi4+0x14e>
 80006bc:	eb1c 0404 	adds.w	r4, ip, r4
 80006c0:	f100 32ff 	add.w	r2, r0, #4294967295
 80006c4:	d202      	bcs.n	80006cc <__udivmoddi4+0x14c>
 80006c6:	45a6      	cmp	lr, r4
 80006c8:	f200 80bb 	bhi.w	8000842 <__udivmoddi4+0x2c2>
 80006cc:	4610      	mov	r0, r2
 80006ce:	eba4 040e 	sub.w	r4, r4, lr
 80006d2:	ea40 4005 	orr.w	r0, r0, r5, lsl #16
 80006d6:	e79f      	b.n	8000618 <__udivmoddi4+0x98>
 80006d8:	f1c1 0720 	rsb	r7, r1, #32
 80006dc:	408b      	lsls	r3, r1
 80006de:	fa22 fc07 	lsr.w	ip, r2, r7
 80006e2:	ea4c 0c03 	orr.w	ip, ip, r3
 80006e6:	fa05 f401 	lsl.w	r4, r5, r1
 80006ea:	fa20 f307 	lsr.w	r3, r0, r7
 80006ee:	40fd      	lsrs	r5, r7
 80006f0:	ea4f 491c 	mov.w	r9, ip, lsr #16
 80006f4:	4323      	orrs	r3, r4
 80006f6:	fbb5 f8f9 	udiv	r8, r5, r9
 80006fa:	fa1f fe8c 	uxth.w	lr, ip
 80006fe:	fb09 5518 	mls	r5, r9, r8, r5
 8000702:	0c1c      	lsrs	r4, r3, #16
 8000704:	ea44 4405 	orr.w	r4, r4, r5, lsl #16
 8000708:	fb08 f50e 	mul.w	r5, r8, lr
 800070c:	42a5      	cmp	r5, r4
 800070e:	fa02 f201 	lsl.w	r2, r2, r1
 8000712:	fa00 f001 	lsl.w	r0, r0, r1
 8000716:	d90b      	bls.n	8000730 <__udivmoddi4+0x1b0>
 8000718:	eb1c 0404 	adds.w	r4, ip, r4
 800071c:	f108 3aff 	add.w	sl, r8, #4294967295
 8000720:	f080 8088 	bcs.w	8000834 <__udivmoddi4+0x2b4>
 8000724:	42a5      	cmp	r5, r4
 8000726:	f240 8085 	bls.w	8000834 <__udivmoddi4+0x2b4>
 800072a:	f1a8 0802 	sub.w	r8, r8, #2
 800072e:	4464      	add	r4, ip
 8000730:	1b64      	subs	r4, r4, r5
 8000732:	b29d      	uxth	r5, r3
 8000734:	fbb4 f3f9 	udiv	r3, r4, r9
 8000738:	fb09 4413 	mls	r4, r9, r3, r4
 800073c:	ea45 4404 	orr.w	r4, r5, r4, lsl #16
 8000740:	fb03 fe0e 	mul.w	lr, r3, lr
 8000744:	45a6      	cmp	lr, r4
 8000746:	d908      	bls.n	800075a <__udivmoddi4+0x1da>
 8000748:	eb1c 0404 	adds.w	r4, ip, r4
 800074c:	f103 35ff 	add.w	r5, r3, #4294967295
 8000750:	d26c      	bcs.n	800082c <__udivmoddi4+0x2ac>
 8000752:	45a6      	cmp	lr, r4
 8000754:	d96a      	bls.n	800082c <__udivmoddi4+0x2ac>
 8000756:	3b02      	subs	r3, #2
 8000758:	4464      	add	r4, ip
 800075a:	ea43 4308 	orr.w	r3, r3, r8, lsl #16
 800075e:	fba3 9502 	umull	r9, r5, r3, r2
 8000762:	eba4 040e 	sub.w	r4, r4, lr
 8000766:	42ac      	cmp	r4, r5
 8000768:	46c8      	mov	r8, r9
 800076a:	46ae      	mov	lr, r5
 800076c:	d356      	bcc.n	800081c <__udivmoddi4+0x29c>
 800076e:	d053      	beq.n	8000818 <__udivmoddi4+0x298>
 8000770:	b156      	cbz	r6, 8000788 <__udivmoddi4+0x208>
 8000772:	ebb0 0208 	subs.w	r2, r0, r8
 8000776:	eb64 040e 	sbc.w	r4, r4, lr
 800077a:	fa04 f707 	lsl.w	r7, r4, r7
 800077e:	40ca      	lsrs	r2, r1
 8000780:	40cc      	lsrs	r4, r1
 8000782:	4317      	orrs	r7, r2
 8000784:	e9c6 7400 	strd	r7, r4, [r6]
 8000788:	4618      	mov	r0, r3
 800078a:	2100      	movs	r1, #0
 800078c:	e8bd 87f0 	ldmia.w	sp!, {r4, r5, r6, r7, r8, r9, sl, pc}
 8000790:	f1c3 0120 	rsb	r1, r3, #32
 8000794:	fa02 fc03 	lsl.w	ip, r2, r3
 8000798:	fa20 f201 	lsr.w	r2, r0, r1
 800079c:	fa25 f101 	lsr.w	r1, r5, r1
 80007a0:	409d      	lsls	r5, r3
 80007a2:	432a      	orrs	r2, r5
 80007a4:	ea4f 471c 	mov.w	r7, ip, lsr #16
 80007a8:	fa1f fe8c 	uxth.w	lr, ip
 80007ac:	fbb1 f0f7 	udiv	r0, r1, r7
 80007b0:	fb07 1510 	mls	r5, r7, r0, r1
 80007b4:	0c11      	lsrs	r1, r2, #16
 80007b6:	ea41 4105 	orr.w	r1, r1, r5, lsl #16
 80007ba:	fb00 f50e 	mul.w	r5, r0, lr
 80007be:	428d      	cmp	r5, r1
 80007c0:	fa04 f403 	lsl.w	r4, r4, r3
 80007c4:	d908      	bls.n	80007d8 <__udivmoddi4+0x258>
 80007c6:	eb1c 0101 	adds.w	r1, ip, r1
 80007ca:	f100 38ff 	add.w	r8, r0, #4294967295
 80007ce:	d22f      	bcs.n	8000830 <__udivmoddi4+0x2b0>
 80007d0:	428d      	cmp	r5, r1
 80007d2:	d92d      	bls.n	8000830 <__udivmoddi4+0x2b0>
 80007d4:	3802      	subs	r0, #2
 80007d6:	4461      	add	r1, ip
 80007d8:	1b49      	subs	r1, r1, r5
 80007da:	b292      	uxth	r2, r2
 80007dc:	fbb1 f5f7 	udiv	r5, r1, r7
 80007e0:	fb07 1115 	mls	r1, r7, r5, r1
 80007e4:	ea42 4201 	orr.w	r2, r2, r1, lsl #16
 80007e8:	fb05 f10e 	mul.w	r1, r5, lr
 80007ec:	4291      	cmp	r1, r2
 80007ee:	d908      	bls.n	8000802 <__udivmoddi4+0x282>
 80007f0:	eb1c 0202 	adds.w	r2, ip, r2
 80007f4:	f105 38ff 	add.w	r8, r5, #4294967295
 80007f8:	d216      	bcs.n	8000828 <__udivmoddi4+0x2a8>
 80007fa:	4291      	cmp	r1, r2
 80007fc:	d914      	bls.n	8000828 <__udivmoddi4+0x2a8>
 80007fe:	3d02      	subs	r5, #2
 8000800:	4462      	add	r2, ip
 8000802:	1a52      	subs	r2, r2, r1
 8000804:	ea45 4100 	orr.w	r1, r5, r0, lsl #16
 8000808:	e738      	b.n	800067c <__udivmoddi4+0xfc>
 800080a:	4631      	mov	r1, r6
 800080c:	4630      	mov	r0, r6
 800080e:	e708      	b.n	8000622 <__udivmoddi4+0xa2>
 8000810:	4639      	mov	r1, r7
 8000812:	e6e6      	b.n	80005e2 <__udivmoddi4+0x62>
 8000814:	4610      	mov	r0, r2
 8000816:	e6fb      	b.n	8000610 <__udivmoddi4+0x90>
 8000818:	4548      	cmp	r0, r9
 800081a:	d2a9      	bcs.n	8000770 <__udivmoddi4+0x1f0>
 800081c:	ebb9 0802 	subs.w	r8, r9, r2
 8000820:	eb65 0e0c 	sbc.w	lr, r5, ip
 8000824:	3b01      	subs	r3, #1
 8000826:	e7a3      	b.n	8000770 <__udivmoddi4+0x1f0>
 8000828:	4645      	mov	r5, r8
 800082a:	e7ea      	b.n	8000802 <__udivmoddi4+0x282>
 800082c:	462b      	mov	r3, r5
 800082e:	e794      	b.n	800075a <__udivmoddi4+0x1da>
 8000830:	4640      	mov	r0, r8
 8000832:	e7d1      	b.n	80007d8 <__udivmoddi4+0x258>
 8000834:	46d0      	mov	r8, sl
 8000836:	e77b      	b.n	8000730 <__udivmoddi4+0x1b0>
 8000838:	3d02      	subs	r5, #2
 800083a:	4462      	add	r2, ip
 800083c:	e732      	b.n	80006a4 <__udivmoddi4+0x124>
 800083e:	4608      	mov	r0, r1
 8000840:	e70a      	b.n	8000658 <__udivmoddi4+0xd8>
 8000842:	4464      	add	r4, ip
 8000844:	3802      	subs	r0, #2
 8000846:	e742      	b.n	80006ce <__udivmoddi4+0x14e>

08000848 <__aeabi_idiv0>:
 8000848:	4770      	bx	lr
 800084a:	bf00      	nop

0800084c <APC1_Send_Command>:
		"Poor",
		"Very poor",
		"Extremely Poor"
};

HAL_StatusTypeDef APC1_Send_Command(UART_HandleTypeDef *huart, uint8_t *command) {
 800084c:	b580      	push	{r7, lr}
 800084e:	b082      	sub	sp, #8
 8000850:	af00      	add	r7, sp, #0
 8000852:	6078      	str	r0, [r7, #4]
 8000854:	6039      	str	r1, [r7, #0]

	return HAL_UART_Transmit(huart, command, COMMAND_LENGHT, 2000);
 8000856:	f44f 63fa 	mov.w	r3, #2000	; 0x7d0
 800085a:	2207      	movs	r2, #7
 800085c:	6839      	ldr	r1, [r7, #0]
 800085e:	6878      	ldr	r0, [r7, #4]
 8000860:	f001 fd95 	bl	800238e <HAL_UART_Transmit>
 8000864:	4603      	mov	r3, r0

}
 8000866:	4618      	mov	r0, r3
 8000868:	3708      	adds	r7, #8
 800086a:	46bd      	mov	sp, r7
 800086c:	bd80      	pop	{r7, pc}

0800086e <APC1_Receive_Response>:

HAL_StatusTypeDef APC1_Receive_Response(UART_HandleTypeDef *huart, uint8_t *buffer, uint16_t size) {
 800086e:	b580      	push	{r7, lr}
 8000870:	b084      	sub	sp, #16
 8000872:	af00      	add	r7, sp, #0
 8000874:	60f8      	str	r0, [r7, #12]
 8000876:	60b9      	str	r1, [r7, #8]
 8000878:	4613      	mov	r3, r2
 800087a:	80fb      	strh	r3, [r7, #6]

	// memset(buffer, 0, BUFFER_SIZE);
	return HAL_UART_Receive_IT(huart, buffer, size);
 800087c:	88fb      	ldrh	r3, [r7, #6]
 800087e:	461a      	mov	r2, r3
 8000880:	68b9      	ldr	r1, [r7, #8]
 8000882:	68f8      	ldr	r0, [r7, #12]
 8000884:	f001 fe15 	bl	80024b2 <HAL_UART_Receive_IT>
 8000888:	4603      	mov	r3, r0

}
 800088a:	4618      	mov	r0, r3
 800088c:	3710      	adds	r7, #16
 800088e:	46bd      	mov	sp, r7
 8000890:	bd80      	pop	{r7, pc}
	...

08000894 <APC1_Read_Mea_Data>:

	return APC1_OK;

}

enum APC1_Status APC1_Read_Mea_Data(void) {
 8000894:	b580      	push	{r7, lr}
 8000896:	b082      	sub	sp, #8
 8000898:	af00      	add	r7, sp, #0

	if (APC1_Receive_Response(&huart1, buffer, command[APC1_CMD_READ_MEA_DATA].response_size) != HAL_OK) {
 800089a:	4b2d      	ldr	r3, [pc, #180]	; (8000950 <APC1_Read_Mea_Data+0xbc>)
 800089c:	7d5b      	ldrb	r3, [r3, #21]
 800089e:	b29b      	uxth	r3, r3
 80008a0:	461a      	mov	r2, r3
 80008a2:	492c      	ldr	r1, [pc, #176]	; (8000954 <APC1_Read_Mea_Data+0xc0>)
 80008a4:	482c      	ldr	r0, [pc, #176]	; (8000958 <APC1_Read_Mea_Data+0xc4>)
 80008a6:	f7ff ffe2 	bl	800086e <APC1_Receive_Response>
 80008aa:	4603      	mov	r3, r0
 80008ac:	2b00      	cmp	r3, #0
 80008ae:	d001      	beq.n	80008b4 <APC1_Read_Mea_Data+0x20>
		Error_Handler();
 80008b0:	f000 fbc2 	bl	8001038 <Error_Handler>
	}

	if (APC1_Send_Command(&huart1, command[APC1_CMD_READ_MEA_DATA].cmd) != HAL_OK) {
 80008b4:	4929      	ldr	r1, [pc, #164]	; (800095c <APC1_Read_Mea_Data+0xc8>)
 80008b6:	4828      	ldr	r0, [pc, #160]	; (8000958 <APC1_Read_Mea_Data+0xc4>)
 80008b8:	f7ff ffc8 	bl	800084c <APC1_Send_Command>
 80008bc:	4603      	mov	r3, r0
 80008be:	2b00      	cmp	r3, #0
 80008c0:	d001      	beq.n	80008c6 <APC1_Read_Mea_Data+0x32>
		Error_Handler();
 80008c2:	f000 fbb9 	bl	8001038 <Error_Handler>
	}

	while (received_response == 0);
 80008c6:	bf00      	nop
 80008c8:	4b25      	ldr	r3, [pc, #148]	; (8000960 <APC1_Read_Mea_Data+0xcc>)
 80008ca:	681b      	ldr	r3, [r3, #0]
 80008cc:	2b00      	cmp	r3, #0
 80008ce:	d0fb      	beq.n	80008c8 <APC1_Read_Mea_Data+0x34>
	received_response = 0;
 80008d0:	4b23      	ldr	r3, [pc, #140]	; (8000960 <APC1_Read_Mea_Data+0xcc>)
 80008d2:	2200      	movs	r2, #0
 80008d4:	601a      	str	r2, [r3, #0]

	if (APC1_Check_Checksum(SUM_OF_VALUES, CHECKSUM_LOW_OUTPUT_REGISTER, CHECKSUM_HIGH_OUTPUT_REGISTER) == APC1_ERROR_CRC) {
 80008d6:	223f      	movs	r2, #63	; 0x3f
 80008d8:	213e      	movs	r1, #62	; 0x3e
 80008da:	203e      	movs	r0, #62	; 0x3e
 80008dc:	f000 f844 	bl	8000968 <APC1_Check_Checksum>
 80008e0:	4603      	mov	r3, r0
 80008e2:	2b80      	cmp	r3, #128	; 0x80
 80008e4:	d101      	bne.n	80008ea <APC1_Read_Mea_Data+0x56>
		return APC1_ERROR_CRC;
 80008e6:	2380      	movs	r3, #128	; 0x80
 80008e8:	e02d      	b.n	8000946 <APC1_Read_Mea_Data+0xb2>
	}

	// if (APC1_Check_For_Error())

	uint16_t index = 4, i = 0;
 80008ea:	2304      	movs	r3, #4
 80008ec:	80fb      	strh	r3, [r7, #6]
 80008ee:	2300      	movs	r3, #0
 80008f0:	80bb      	strh	r3, [r7, #4]
	uint16_t *struct_member = &processed_data.pm1_0;
 80008f2:	4b1c      	ldr	r3, [pc, #112]	; (8000964 <APC1_Read_Mea_Data+0xd0>)
 80008f4:	603b      	str	r3, [r7, #0]
	while (index < RS0_OUTPUT_REGISTER) {
 80008f6:	e01c      	b.n	8000932 <APC1_Read_Mea_Data+0x9e>
		if (index == RESERVED_OUTPUT_REGISTER) { // skip reserved two bytes in output data at address 0x20
 80008f8:	88fb      	ldrh	r3, [r7, #6]
 80008fa:	2b20      	cmp	r3, #32
 80008fc:	d102      	bne.n	8000904 <APC1_Read_Mea_Data+0x70>
			index += 2;
 80008fe:	88fb      	ldrh	r3, [r7, #6]
 8000900:	3302      	adds	r3, #2
 8000902:	80fb      	strh	r3, [r7, #6]
		}
		struct_member[i++] = APC1_Convert(buffer[index], buffer[index + 1]);
 8000904:	88fb      	ldrh	r3, [r7, #6]
 8000906:	4a13      	ldr	r2, [pc, #76]	; (8000954 <APC1_Read_Mea_Data+0xc0>)
 8000908:	5cd3      	ldrb	r3, [r2, r3]
 800090a:	021b      	lsls	r3, r3, #8
 800090c:	b21a      	sxth	r2, r3
 800090e:	88fb      	ldrh	r3, [r7, #6]
 8000910:	3301      	adds	r3, #1
 8000912:	4910      	ldr	r1, [pc, #64]	; (8000954 <APC1_Read_Mea_Data+0xc0>)
 8000914:	5ccb      	ldrb	r3, [r1, r3]
 8000916:	b21b      	sxth	r3, r3
 8000918:	4313      	orrs	r3, r2
 800091a:	b219      	sxth	r1, r3
 800091c:	88bb      	ldrh	r3, [r7, #4]
 800091e:	1c5a      	adds	r2, r3, #1
 8000920:	80ba      	strh	r2, [r7, #4]
 8000922:	005b      	lsls	r3, r3, #1
 8000924:	683a      	ldr	r2, [r7, #0]
 8000926:	4413      	add	r3, r2
 8000928:	b28a      	uxth	r2, r1
 800092a:	801a      	strh	r2, [r3, #0]
		index += 2;
 800092c:	88fb      	ldrh	r3, [r7, #6]
 800092e:	3302      	adds	r3, #2
 8000930:	80fb      	strh	r3, [r7, #6]
	while (index < RS0_OUTPUT_REGISTER) {
 8000932:	88fb      	ldrh	r3, [r7, #6]
 8000934:	2b29      	cmp	r3, #41	; 0x29
 8000936:	d9df      	bls.n	80008f8 <APC1_Read_Mea_Data+0x64>
	}
	processed_data.aqi = buffer[AQI_OUTPUT_REGISTER];
 8000938:	4b06      	ldr	r3, [pc, #24]	; (8000954 <APC1_Read_Mea_Data+0xc0>)
 800093a:	f893 203a 	ldrb.w	r2, [r3, #58]	; 0x3a
 800093e:	4b09      	ldr	r3, [pc, #36]	; (8000964 <APC1_Read_Mea_Data+0xd0>)
 8000940:	f883 2024 	strb.w	r2, [r3, #36]	; 0x24

	return APC1_OK;
 8000944:	2300      	movs	r3, #0

}
 8000946:	4618      	mov	r0, r3
 8000948:	3708      	adds	r7, #8
 800094a:	46bd      	mov	sp, r7
 800094c:	bd80      	pop	{r7, pc}
 800094e:	bf00      	nop
 8000950:	20000000 	.word	0x20000000
 8000954:	20000084 	.word	0x20000084
 8000958:	20000158 	.word	0x20000158
 800095c:	2000000b 	.word	0x2000000b
 8000960:	200000e8 	.word	0x200000e8
 8000964:	200000ec 	.word	0x200000ec

08000968 <APC1_Check_Checksum>:

enum APC1_Status APC1_Check_Checksum(int limit, int low, int high) {
 8000968:	b480      	push	{r7}
 800096a:	b087      	sub	sp, #28
 800096c:	af00      	add	r7, sp, #0
 800096e:	60f8      	str	r0, [r7, #12]
 8000970:	60b9      	str	r1, [r7, #8]
 8000972:	607a      	str	r2, [r7, #4]

	int sum = 0;
 8000974:	2300      	movs	r3, #0
 8000976:	617b      	str	r3, [r7, #20]
	for (int i = 0; i<limit; i++) {
 8000978:	2300      	movs	r3, #0
 800097a:	613b      	str	r3, [r7, #16]
 800097c:	e00a      	b.n	8000994 <APC1_Check_Checksum+0x2c>
		sum += buffer[i];
 800097e:	4a12      	ldr	r2, [pc, #72]	; (80009c8 <APC1_Check_Checksum+0x60>)
 8000980:	693b      	ldr	r3, [r7, #16]
 8000982:	4413      	add	r3, r2
 8000984:	781b      	ldrb	r3, [r3, #0]
 8000986:	461a      	mov	r2, r3
 8000988:	697b      	ldr	r3, [r7, #20]
 800098a:	4413      	add	r3, r2
 800098c:	617b      	str	r3, [r7, #20]
	for (int i = 0; i<limit; i++) {
 800098e:	693b      	ldr	r3, [r7, #16]
 8000990:	3301      	adds	r3, #1
 8000992:	613b      	str	r3, [r7, #16]
 8000994:	693a      	ldr	r2, [r7, #16]
 8000996:	68fb      	ldr	r3, [r7, #12]
 8000998:	429a      	cmp	r2, r3
 800099a:	dbf0      	blt.n	800097e <APC1_Check_Checksum+0x16>
	}

	return (APC1_Convert(buffer[low], buffer[high])) == sum ? APC1_OK : APC1_ERROR_CRC;
 800099c:	4a0a      	ldr	r2, [pc, #40]	; (80009c8 <APC1_Check_Checksum+0x60>)
 800099e:	68bb      	ldr	r3, [r7, #8]
 80009a0:	4413      	add	r3, r2
 80009a2:	781b      	ldrb	r3, [r3, #0]
 80009a4:	021b      	lsls	r3, r3, #8
 80009a6:	4908      	ldr	r1, [pc, #32]	; (80009c8 <APC1_Check_Checksum+0x60>)
 80009a8:	687a      	ldr	r2, [r7, #4]
 80009aa:	440a      	add	r2, r1
 80009ac:	7812      	ldrb	r2, [r2, #0]
 80009ae:	4313      	orrs	r3, r2
 80009b0:	697a      	ldr	r2, [r7, #20]
 80009b2:	429a      	cmp	r2, r3
 80009b4:	d101      	bne.n	80009ba <APC1_Check_Checksum+0x52>
 80009b6:	2300      	movs	r3, #0
 80009b8:	e000      	b.n	80009bc <APC1_Check_Checksum+0x54>
 80009ba:	2380      	movs	r3, #128	; 0x80

}
 80009bc:	4618      	mov	r0, r3
 80009be:	371c      	adds	r7, #28
 80009c0:	46bd      	mov	sp, r7
 80009c2:	f85d 7b04 	ldr.w	r7, [sp], #4
 80009c6:	4770      	bx	lr
 80009c8:	20000084 	.word	0x20000084

080009cc <APC1_Get_PM1_0>:

	return APC1_OK;

}

uint16_t APC1_Get_PM1_0(void) {
 80009cc:	b480      	push	{r7}
 80009ce:	af00      	add	r7, sp, #0

	return processed_data.pm1_0;
 80009d0:	4b03      	ldr	r3, [pc, #12]	; (80009e0 <APC1_Get_PM1_0+0x14>)
 80009d2:	881b      	ldrh	r3, [r3, #0]

}
 80009d4:	4618      	mov	r0, r3
 80009d6:	46bd      	mov	sp, r7
 80009d8:	f85d 7b04 	ldr.w	r7, [sp], #4
 80009dc:	4770      	bx	lr
 80009de:	bf00      	nop
 80009e0:	200000ec 	.word	0x200000ec

080009e4 <APC1_Get_PM2_5>:

uint16_t APC1_Get_PM2_5(void) {
 80009e4:	b480      	push	{r7}
 80009e6:	af00      	add	r7, sp, #0

	return processed_data.pm2_5;
 80009e8:	4b03      	ldr	r3, [pc, #12]	; (80009f8 <APC1_Get_PM2_5+0x14>)
 80009ea:	885b      	ldrh	r3, [r3, #2]

}
 80009ec:	4618      	mov	r0, r3
 80009ee:	46bd      	mov	sp, r7
 80009f0:	f85d 7b04 	ldr.w	r7, [sp], #4
 80009f4:	4770      	bx	lr
 80009f6:	bf00      	nop
 80009f8:	200000ec 	.word	0x200000ec

080009fc <APC1_Get_PM10>:

uint16_t APC1_Get_PM10(void) {
 80009fc:	b480      	push	{r7}
 80009fe:	af00      	add	r7, sp, #0

	return processed_data.pm10;
 8000a00:	4b03      	ldr	r3, [pc, #12]	; (8000a10 <APC1_Get_PM10+0x14>)
 8000a02:	889b      	ldrh	r3, [r3, #4]

}
 8000a04:	4618      	mov	r0, r3
 8000a06:	46bd      	mov	sp, r7
 8000a08:	f85d 7b04 	ldr.w	r7, [sp], #4
 8000a0c:	4770      	bx	lr
 8000a0e:	bf00      	nop
 8000a10:	200000ec 	.word	0x200000ec

08000a14 <APC1_Get_PM1_0_air>:

uint16_t APC1_Get_PM1_0_air(void) {
 8000a14:	b480      	push	{r7}
 8000a16:	af00      	add	r7, sp, #0

	return processed_data.pm1_0_air;
 8000a18:	4b03      	ldr	r3, [pc, #12]	; (8000a28 <APC1_Get_PM1_0_air+0x14>)
 8000a1a:	88db      	ldrh	r3, [r3, #6]

}
 8000a1c:	4618      	mov	r0, r3
 8000a1e:	46bd      	mov	sp, r7
 8000a20:	f85d 7b04 	ldr.w	r7, [sp], #4
 8000a24:	4770      	bx	lr
 8000a26:	bf00      	nop
 8000a28:	200000ec 	.word	0x200000ec

08000a2c <APC1_Get_PM2_5_air>:

uint16_t APC1_Get_PM2_5_air(void) {
 8000a2c:	b480      	push	{r7}
 8000a2e:	af00      	add	r7, sp, #0

	return processed_data.pm2_5_air;
 8000a30:	4b03      	ldr	r3, [pc, #12]	; (8000a40 <APC1_Get_PM2_5_air+0x14>)
 8000a32:	891b      	ldrh	r3, [r3, #8]

}
 8000a34:	4618      	mov	r0, r3
 8000a36:	46bd      	mov	sp, r7
 8000a38:	f85d 7b04 	ldr.w	r7, [sp], #4
 8000a3c:	4770      	bx	lr
 8000a3e:	bf00      	nop
 8000a40:	200000ec 	.word	0x200000ec

08000a44 <APC1_Get_PM10_air>:

uint16_t APC1_Get_PM10_air(void) {
 8000a44:	b480      	push	{r7}
 8000a46:	af00      	add	r7, sp, #0

	return processed_data.pm10_air;
 8000a48:	4b03      	ldr	r3, [pc, #12]	; (8000a58 <APC1_Get_PM10_air+0x14>)
 8000a4a:	895b      	ldrh	r3, [r3, #10]

}
 8000a4c:	4618      	mov	r0, r3
 8000a4e:	46bd      	mov	sp, r7
 8000a50:	f85d 7b04 	ldr.w	r7, [sp], #4
 8000a54:	4770      	bx	lr
 8000a56:	bf00      	nop
 8000a58:	200000ec 	.word	0x200000ec

08000a5c <APC1_Get_Particles_GT_0_3>:

uint16_t APC1_Get_Particles_GT_0_3(void) {
 8000a5c:	b480      	push	{r7}
 8000a5e:	af00      	add	r7, sp, #0

	return processed_data.particles_0_3;
 8000a60:	4b03      	ldr	r3, [pc, #12]	; (8000a70 <APC1_Get_Particles_GT_0_3+0x14>)
 8000a62:	899b      	ldrh	r3, [r3, #12]

}
 8000a64:	4618      	mov	r0, r3
 8000a66:	46bd      	mov	sp, r7
 8000a68:	f85d 7b04 	ldr.w	r7, [sp], #4
 8000a6c:	4770      	bx	lr
 8000a6e:	bf00      	nop
 8000a70:	200000ec 	.word	0x200000ec

08000a74 <APC1_Get_Particles_GT_0_5>:

uint16_t APC1_Get_Particles_GT_0_5(void) {
 8000a74:	b480      	push	{r7}
 8000a76:	af00      	add	r7, sp, #0

	return processed_data.particles_0_5 - processed_data.particles_0_3;
 8000a78:	4b05      	ldr	r3, [pc, #20]	; (8000a90 <APC1_Get_Particles_GT_0_5+0x1c>)
 8000a7a:	89da      	ldrh	r2, [r3, #14]
 8000a7c:	4b04      	ldr	r3, [pc, #16]	; (8000a90 <APC1_Get_Particles_GT_0_5+0x1c>)
 8000a7e:	899b      	ldrh	r3, [r3, #12]
 8000a80:	1ad3      	subs	r3, r2, r3
 8000a82:	b29b      	uxth	r3, r3

}
 8000a84:	4618      	mov	r0, r3
 8000a86:	46bd      	mov	sp, r7
 8000a88:	f85d 7b04 	ldr.w	r7, [sp], #4
 8000a8c:	4770      	bx	lr
 8000a8e:	bf00      	nop
 8000a90:	200000ec 	.word	0x200000ec

08000a94 <APC1_Get_Particles_GT_1_0>:

uint16_t APC1_Get_Particles_GT_1_0(void) {
 8000a94:	b480      	push	{r7}
 8000a96:	af00      	add	r7, sp, #0

	return processed_data.particles_1_0 - processed_data.particles_0_3;
 8000a98:	4b05      	ldr	r3, [pc, #20]	; (8000ab0 <APC1_Get_Particles_GT_1_0+0x1c>)
 8000a9a:	8a1a      	ldrh	r2, [r3, #16]
 8000a9c:	4b04      	ldr	r3, [pc, #16]	; (8000ab0 <APC1_Get_Particles_GT_1_0+0x1c>)
 8000a9e:	899b      	ldrh	r3, [r3, #12]
 8000aa0:	1ad3      	subs	r3, r2, r3
 8000aa2:	b29b      	uxth	r3, r3

}
 8000aa4:	4618      	mov	r0, r3
 8000aa6:	46bd      	mov	sp, r7
 8000aa8:	f85d 7b04 	ldr.w	r7, [sp], #4
 8000aac:	4770      	bx	lr
 8000aae:	bf00      	nop
 8000ab0:	200000ec 	.word	0x200000ec

08000ab4 <APC1_Get_Particles_GT_2_5>:

uint16_t APC1_Get_Particles_GT_2_5(void) {
 8000ab4:	b480      	push	{r7}
 8000ab6:	af00      	add	r7, sp, #0

	return processed_data.particles_2_5 - processed_data.particles_0_3;
 8000ab8:	4b05      	ldr	r3, [pc, #20]	; (8000ad0 <APC1_Get_Particles_GT_2_5+0x1c>)
 8000aba:	8a5a      	ldrh	r2, [r3, #18]
 8000abc:	4b04      	ldr	r3, [pc, #16]	; (8000ad0 <APC1_Get_Particles_GT_2_5+0x1c>)
 8000abe:	899b      	ldrh	r3, [r3, #12]
 8000ac0:	1ad3      	subs	r3, r2, r3
 8000ac2:	b29b      	uxth	r3, r3

}
 8000ac4:	4618      	mov	r0, r3
 8000ac6:	46bd      	mov	sp, r7
 8000ac8:	f85d 7b04 	ldr.w	r7, [sp], #4
 8000acc:	4770      	bx	lr
 8000ace:	bf00      	nop
 8000ad0:	200000ec 	.word	0x200000ec

08000ad4 <APC1_Get_Particles_GT_5_0>:

uint16_t APC1_Get_Particles_GT_5_0(void) {
 8000ad4:	b480      	push	{r7}
 8000ad6:	af00      	add	r7, sp, #0

	return processed_data.particles_5_0 - processed_data.particles_0_3;
 8000ad8:	4b05      	ldr	r3, [pc, #20]	; (8000af0 <APC1_Get_Particles_GT_5_0+0x1c>)
 8000ada:	8a9a      	ldrh	r2, [r3, #20]
 8000adc:	4b04      	ldr	r3, [pc, #16]	; (8000af0 <APC1_Get_Particles_GT_5_0+0x1c>)
 8000ade:	899b      	ldrh	r3, [r3, #12]
 8000ae0:	1ad3      	subs	r3, r2, r3
 8000ae2:	b29b      	uxth	r3, r3

}
 8000ae4:	4618      	mov	r0, r3
 8000ae6:	46bd      	mov	sp, r7
 8000ae8:	f85d 7b04 	ldr.w	r7, [sp], #4
 8000aec:	4770      	bx	lr
 8000aee:	bf00      	nop
 8000af0:	200000ec 	.word	0x200000ec

08000af4 <APC1_Get_Particles_GT_10>:

uint16_t APC1_Get_Particles_GT_10(void) {
 8000af4:	b480      	push	{r7}
 8000af6:	af00      	add	r7, sp, #0

	return processed_data.particles_10 - processed_data.particles_0_3;
 8000af8:	4b05      	ldr	r3, [pc, #20]	; (8000b10 <APC1_Get_Particles_GT_10+0x1c>)
 8000afa:	8ada      	ldrh	r2, [r3, #22]
 8000afc:	4b04      	ldr	r3, [pc, #16]	; (8000b10 <APC1_Get_Particles_GT_10+0x1c>)
 8000afe:	899b      	ldrh	r3, [r3, #12]
 8000b00:	1ad3      	subs	r3, r2, r3
 8000b02:	b29b      	uxth	r3, r3

}
 8000b04:	4618      	mov	r0, r3
 8000b06:	46bd      	mov	sp, r7
 8000b08:	f85d 7b04 	ldr.w	r7, [sp], #4
 8000b0c:	4770      	bx	lr
 8000b0e:	bf00      	nop
 8000b10:	200000ec 	.word	0x200000ec

08000b14 <APC1_Get_TVOC>:

uint16_t APC1_Get_TVOC(void) {
 8000b14:	b480      	push	{r7}
 8000b16:	af00      	add	r7, sp, #0

	return processed_data.TVOC;
 8000b18:	4b03      	ldr	r3, [pc, #12]	; (8000b28 <APC1_Get_TVOC+0x14>)
 8000b1a:	8b1b      	ldrh	r3, [r3, #24]

}
 8000b1c:	4618      	mov	r0, r3
 8000b1e:	46bd      	mov	sp, r7
 8000b20:	f85d 7b04 	ldr.w	r7, [sp], #4
 8000b24:	4770      	bx	lr
 8000b26:	bf00      	nop
 8000b28:	200000ec 	.word	0x200000ec

08000b2c <APC1_Get_eCO2>:

uint16_t APC1_Get_eCO2(void) {
 8000b2c:	b480      	push	{r7}
 8000b2e:	af00      	add	r7, sp, #0

	return processed_data.eCO2;
 8000b30:	4b03      	ldr	r3, [pc, #12]	; (8000b40 <APC1_Get_eCO2+0x14>)
 8000b32:	8b5b      	ldrh	r3, [r3, #26]

}
 8000b34:	4618      	mov	r0, r3
 8000b36:	46bd      	mov	sp, r7
 8000b38:	f85d 7b04 	ldr.w	r7, [sp], #4
 8000b3c:	4770      	bx	lr
 8000b3e:	bf00      	nop
 8000b40:	200000ec 	.word	0x200000ec

08000b44 <APC1_Get_T_Comp>:

double APC1_Get_T_Comp(void) {
 8000b44:	b580      	push	{r7, lr}
 8000b46:	af00      	add	r7, sp, #0

	return processed_data.t_comp * 0.1f;
 8000b48:	4b0b      	ldr	r3, [pc, #44]	; (8000b78 <APC1_Get_T_Comp+0x34>)
 8000b4a:	8b9b      	ldrh	r3, [r3, #28]
 8000b4c:	ee07 3a90 	vmov	s15, r3
 8000b50:	eef8 7ae7 	vcvt.f32.s32	s15, s15
 8000b54:	ed9f 7a09 	vldr	s14, [pc, #36]	; 8000b7c <APC1_Get_T_Comp+0x38>
 8000b58:	ee67 7a87 	vmul.f32	s15, s15, s14
 8000b5c:	ee17 0a90 	vmov	r0, s15
 8000b60:	f7ff fc9e 	bl	80004a0 <__aeabi_f2d>
 8000b64:	4602      	mov	r2, r0
 8000b66:	460b      	mov	r3, r1
 8000b68:	ec43 2b17 	vmov	d7, r2, r3

}
 8000b6c:	eeb0 0a47 	vmov.f32	s0, s14
 8000b70:	eef0 0a67 	vmov.f32	s1, s15
 8000b74:	bd80      	pop	{r7, pc}
 8000b76:	bf00      	nop
 8000b78:	200000ec 	.word	0x200000ec
 8000b7c:	3dcccccd 	.word	0x3dcccccd

08000b80 <APC1_Get_RH_Comp>:

double APC1_Get_RH_Comp(void) {
 8000b80:	b580      	push	{r7, lr}
 8000b82:	af00      	add	r7, sp, #0

	return processed_data.rh_comp * 0.1f;
 8000b84:	4b0b      	ldr	r3, [pc, #44]	; (8000bb4 <APC1_Get_RH_Comp+0x34>)
 8000b86:	8bdb      	ldrh	r3, [r3, #30]
 8000b88:	ee07 3a90 	vmov	s15, r3
 8000b8c:	eef8 7ae7 	vcvt.f32.s32	s15, s15
 8000b90:	ed9f 7a09 	vldr	s14, [pc, #36]	; 8000bb8 <APC1_Get_RH_Comp+0x38>
 8000b94:	ee67 7a87 	vmul.f32	s15, s15, s14
 8000b98:	ee17 0a90 	vmov	r0, s15
 8000b9c:	f7ff fc80 	bl	80004a0 <__aeabi_f2d>
 8000ba0:	4602      	mov	r2, r0
 8000ba2:	460b      	mov	r3, r1
 8000ba4:	ec43 2b17 	vmov	d7, r2, r3

}
 8000ba8:	eeb0 0a47 	vmov.f32	s0, s14
 8000bac:	eef0 0a67 	vmov.f32	s1, s15
 8000bb0:	bd80      	pop	{r7, pc}
 8000bb2:	bf00      	nop
 8000bb4:	200000ec 	.word	0x200000ec
 8000bb8:	3dcccccd 	.word	0x3dcccccd

08000bbc <APC1_Get_T_Raw>:

double APC1_Get_T_Raw(void) {
 8000bbc:	b580      	push	{r7, lr}
 8000bbe:	af00      	add	r7, sp, #0

	return processed_data.t_raw * 0.1f;
 8000bc0:	4b0b      	ldr	r3, [pc, #44]	; (8000bf0 <APC1_Get_T_Raw+0x34>)
 8000bc2:	8c1b      	ldrh	r3, [r3, #32]
 8000bc4:	ee07 3a90 	vmov	s15, r3
 8000bc8:	eef8 7ae7 	vcvt.f32.s32	s15, s15
 8000bcc:	ed9f 7a09 	vldr	s14, [pc, #36]	; 8000bf4 <APC1_Get_T_Raw+0x38>
 8000bd0:	ee67 7a87 	vmul.f32	s15, s15, s14
 8000bd4:	ee17 0a90 	vmov	r0, s15
 8000bd8:	f7ff fc62 	bl	80004a0 <__aeabi_f2d>
 8000bdc:	4602      	mov	r2, r0
 8000bde:	460b      	mov	r3, r1
 8000be0:	ec43 2b17 	vmov	d7, r2, r3

}
 8000be4:	eeb0 0a47 	vmov.f32	s0, s14
 8000be8:	eef0 0a67 	vmov.f32	s1, s15
 8000bec:	bd80      	pop	{r7, pc}
 8000bee:	bf00      	nop
 8000bf0:	200000ec 	.word	0x200000ec
 8000bf4:	3dcccccd 	.word	0x3dcccccd

08000bf8 <APC1_Get_RH_Raw>:

double APC1_Get_RH_Raw(void) {
 8000bf8:	b580      	push	{r7, lr}
 8000bfa:	af00      	add	r7, sp, #0

	return processed_data.rh_raw * 0.1f;
 8000bfc:	4b0b      	ldr	r3, [pc, #44]	; (8000c2c <APC1_Get_RH_Raw+0x34>)
 8000bfe:	8c5b      	ldrh	r3, [r3, #34]	; 0x22
 8000c00:	ee07 3a90 	vmov	s15, r3
 8000c04:	eef8 7ae7 	vcvt.f32.s32	s15, s15
 8000c08:	ed9f 7a09 	vldr	s14, [pc, #36]	; 8000c30 <APC1_Get_RH_Raw+0x38>
 8000c0c:	ee67 7a87 	vmul.f32	s15, s15, s14
 8000c10:	ee17 0a90 	vmov	r0, s15
 8000c14:	f7ff fc44 	bl	80004a0 <__aeabi_f2d>
 8000c18:	4602      	mov	r2, r0
 8000c1a:	460b      	mov	r3, r1
 8000c1c:	ec43 2b17 	vmov	d7, r2, r3

}
 8000c20:	eeb0 0a47 	vmov.f32	s0, s14
 8000c24:	eef0 0a67 	vmov.f32	s1, s15
 8000c28:	bd80      	pop	{r7, pc}
 8000c2a:	bf00      	nop
 8000c2c:	200000ec 	.word	0x200000ec
 8000c30:	3dcccccd 	.word	0x3dcccccd

08000c34 <APC1_Get_AQI>:

uint8_t	APC1_Get_AQI(void) {
 8000c34:	b480      	push	{r7}
 8000c36:	af00      	add	r7, sp, #0

	return processed_data.aqi;
 8000c38:	4b03      	ldr	r3, [pc, #12]	; (8000c48 <APC1_Get_AQI+0x14>)
 8000c3a:	f893 3024 	ldrb.w	r3, [r3, #36]	; 0x24

}
 8000c3e:	4618      	mov	r0, r3
 8000c40:	46bd      	mov	sp, r7
 8000c42:	f85d 7b04 	ldr.w	r7, [sp], #4
 8000c46:	4770      	bx	lr
 8000c48:	200000ec 	.word	0x200000ec

08000c4c <APC1_Get_AQI_String>:

const char *APC1_Get_AQI_String(void) {
 8000c4c:	b580      	push	{r7, lr}
 8000c4e:	b082      	sub	sp, #8
 8000c50:	af00      	add	r7, sp, #0

	// if somehow we get a wrong index
	uint8_t index = APC1_Get_AQI();
 8000c52:	f7ff ffef 	bl	8000c34 <APC1_Get_AQI>
 8000c56:	4603      	mov	r3, r0
 8000c58:	71fb      	strb	r3, [r7, #7]
	return (index <= 5 && index >= 1) ? APC1_AQI_Strings[index - 1] : "Error";
 8000c5a:	79fb      	ldrb	r3, [r7, #7]
 8000c5c:	2b05      	cmp	r3, #5
 8000c5e:	d808      	bhi.n	8000c72 <APC1_Get_AQI_String+0x26>
 8000c60:	79fb      	ldrb	r3, [r7, #7]
 8000c62:	2b00      	cmp	r3, #0
 8000c64:	d005      	beq.n	8000c72 <APC1_Get_AQI_String+0x26>
 8000c66:	79fb      	ldrb	r3, [r7, #7]
 8000c68:	3b01      	subs	r3, #1
 8000c6a:	4a04      	ldr	r2, [pc, #16]	; (8000c7c <APC1_Get_AQI_String+0x30>)
 8000c6c:	f852 3023 	ldr.w	r3, [r2, r3, lsl #2]
 8000c70:	e000      	b.n	8000c74 <APC1_Get_AQI_String+0x28>
 8000c72:	4b03      	ldr	r3, [pc, #12]	; (8000c80 <APC1_Get_AQI_String+0x34>)

}
 8000c74:	4618      	mov	r0, r3
 8000c76:	3708      	adds	r7, #8
 8000c78:	46bd      	mov	sp, r7
 8000c7a:	bd80      	pop	{r7, pc}
 8000c7c:	20000044 	.word	0x20000044
 8000c80:	08003488 	.word	0x08003488

08000c84 <HAL_UART_RxCpltCallback>:

void HAL_UART_RxCpltCallback(UART_HandleTypeDef *huart) {
 8000c84:	b480      	push	{r7}
 8000c86:	b083      	sub	sp, #12
 8000c88:	af00      	add	r7, sp, #0
 8000c8a:	6078      	str	r0, [r7, #4]

	if (huart->Instance == USART1) {
 8000c8c:	687b      	ldr	r3, [r7, #4]
 8000c8e:	681b      	ldr	r3, [r3, #0]
 8000c90:	4a05      	ldr	r2, [pc, #20]	; (8000ca8 <HAL_UART_RxCpltCallback+0x24>)
 8000c92:	4293      	cmp	r3, r2
 8000c94:	d102      	bne.n	8000c9c <HAL_UART_RxCpltCallback+0x18>
		received_response = 1;
 8000c96:	4b05      	ldr	r3, [pc, #20]	; (8000cac <HAL_UART_RxCpltCallback+0x28>)
 8000c98:	2201      	movs	r2, #1
 8000c9a:	601a      	str	r2, [r3, #0]
	}

}
 8000c9c:	bf00      	nop
 8000c9e:	370c      	adds	r7, #12
 8000ca0:	46bd      	mov	sp, r7
 8000ca2:	f85d 7b04 	ldr.w	r7, [sp], #4
 8000ca6:	4770      	bx	lr
 8000ca8:	40011000 	.word	0x40011000
 8000cac:	200000e8 	.word	0x200000e8

08000cb0 <main>:
/**
  * @brief  The application entry point.
  * @retval int
  */
int main(void)
{
 8000cb0:	b580      	push	{r7, lr}
 8000cb2:	af00      	add	r7, sp, #0
  /* USER CODE END 1 */

  /* MCU Configuration--------------------------------------------------------*/

  /* Reset of all peripherals, Initializes the Flash interface and the Systick. */
  HAL_Init();
 8000cb4:	f000 faae 	bl	8001214 <HAL_Init>
  /* USER CODE BEGIN Init */

  /* USER CODE END Init */

  /* Configure the system clock */
  SystemClock_Config();
 8000cb8:	f000 f8bc 	bl	8000e34 <SystemClock_Config>
  /* USER CODE BEGIN SysInit */

  /* USER CODE END SysInit */

  /* Initialize all configured peripherals */
  MX_GPIO_Init();
 8000cbc:	f000 f94e 	bl	8000f5c <MX_GPIO_Init>
  MX_USART1_UART_Init();
 8000cc0:	f000 f922 	bl	8000f08 <MX_USART1_UART_Init>

  /* Infinite loop */
  /* USER CODE BEGIN WHILE */
  while (1)
  {
	  if (APC1_Read_Mea_Data() != APC1_OK) {
 8000cc4:	f7ff fde6 	bl	8000894 <APC1_Read_Mea_Data>
 8000cc8:	4603      	mov	r3, r0
 8000cca:	2b00      	cmp	r3, #0
 8000ccc:	d001      	beq.n	8000cd2 <main+0x22>
		  Error_Handler();
 8000cce:	f000 f9b3 	bl	8001038 <Error_Handler>
	  }
	  T_pm1_0 = APC1_Get_PM1_0();
 8000cd2:	f7ff fe7b 	bl	80009cc <APC1_Get_PM1_0>
 8000cd6:	4603      	mov	r3, r0
 8000cd8:	461a      	mov	r2, r3
 8000cda:	4b42      	ldr	r3, [pc, #264]	; (8000de4 <main+0x134>)
 8000cdc:	801a      	strh	r2, [r3, #0]
	  T_pm2_5 = APC1_Get_PM2_5();
 8000cde:	f7ff fe81 	bl	80009e4 <APC1_Get_PM2_5>
 8000ce2:	4603      	mov	r3, r0
 8000ce4:	461a      	mov	r2, r3
 8000ce6:	4b40      	ldr	r3, [pc, #256]	; (8000de8 <main+0x138>)
 8000ce8:	801a      	strh	r2, [r3, #0]
	  T_pm10 = APC1_Get_PM10();
 8000cea:	f7ff fe87 	bl	80009fc <APC1_Get_PM10>
 8000cee:	4603      	mov	r3, r0
 8000cf0:	461a      	mov	r2, r3
 8000cf2:	4b3e      	ldr	r3, [pc, #248]	; (8000dec <main+0x13c>)
 8000cf4:	801a      	strh	r2, [r3, #0]
	  T_pm1_0_air = APC1_Get_PM1_0_air();
 8000cf6:	f7ff fe8d 	bl	8000a14 <APC1_Get_PM1_0_air>
 8000cfa:	4603      	mov	r3, r0
 8000cfc:	461a      	mov	r2, r3
 8000cfe:	4b3c      	ldr	r3, [pc, #240]	; (8000df0 <main+0x140>)
 8000d00:	801a      	strh	r2, [r3, #0]
	  T_pm2_5_air = APC1_Get_PM2_5_air();
 8000d02:	f7ff fe93 	bl	8000a2c <APC1_Get_PM2_5_air>
 8000d06:	4603      	mov	r3, r0
 8000d08:	461a      	mov	r2, r3
 8000d0a:	4b3a      	ldr	r3, [pc, #232]	; (8000df4 <main+0x144>)
 8000d0c:	801a      	strh	r2, [r3, #0]
	  T_pm10_air = APC1_Get_PM10_air();
 8000d0e:	f7ff fe99 	bl	8000a44 <APC1_Get_PM10_air>
 8000d12:	4603      	mov	r3, r0
 8000d14:	461a      	mov	r2, r3
 8000d16:	4b38      	ldr	r3, [pc, #224]	; (8000df8 <main+0x148>)
 8000d18:	801a      	strh	r2, [r3, #0]
	  T_particles_0_3 = APC1_Get_Particles_GT_0_3();
 8000d1a:	f7ff fe9f 	bl	8000a5c <APC1_Get_Particles_GT_0_3>
 8000d1e:	4603      	mov	r3, r0
 8000d20:	461a      	mov	r2, r3
 8000d22:	4b36      	ldr	r3, [pc, #216]	; (8000dfc <main+0x14c>)
 8000d24:	801a      	strh	r2, [r3, #0]
	  T_particles_0_5 = APC1_Get_Particles_GT_0_5();
 8000d26:	f7ff fea5 	bl	8000a74 <APC1_Get_Particles_GT_0_5>
 8000d2a:	4603      	mov	r3, r0
 8000d2c:	461a      	mov	r2, r3
 8000d2e:	4b34      	ldr	r3, [pc, #208]	; (8000e00 <main+0x150>)
 8000d30:	801a      	strh	r2, [r3, #0]
	  T_particles_1_0 = APC1_Get_Particles_GT_1_0();
 8000d32:	f7ff feaf 	bl	8000a94 <APC1_Get_Particles_GT_1_0>
 8000d36:	4603      	mov	r3, r0
 8000d38:	461a      	mov	r2, r3
 8000d3a:	4b32      	ldr	r3, [pc, #200]	; (8000e04 <main+0x154>)
 8000d3c:	801a      	strh	r2, [r3, #0]
	  T_particles_2_5 = APC1_Get_Particles_GT_2_5();
 8000d3e:	f7ff feb9 	bl	8000ab4 <APC1_Get_Particles_GT_2_5>
 8000d42:	4603      	mov	r3, r0
 8000d44:	461a      	mov	r2, r3
 8000d46:	4b30      	ldr	r3, [pc, #192]	; (8000e08 <main+0x158>)
 8000d48:	801a      	strh	r2, [r3, #0]
	  T_particles_5_0 = APC1_Get_Particles_GT_5_0();
 8000d4a:	f7ff fec3 	bl	8000ad4 <APC1_Get_Particles_GT_5_0>
 8000d4e:	4603      	mov	r3, r0
 8000d50:	461a      	mov	r2, r3
 8000d52:	4b2e      	ldr	r3, [pc, #184]	; (8000e0c <main+0x15c>)
 8000d54:	801a      	strh	r2, [r3, #0]
	  T_particles_10 = APC1_Get_Particles_GT_10();
 8000d56:	f7ff fecd 	bl	8000af4 <APC1_Get_Particles_GT_10>
 8000d5a:	4603      	mov	r3, r0
 8000d5c:	461a      	mov	r2, r3
 8000d5e:	4b2c      	ldr	r3, [pc, #176]	; (8000e10 <main+0x160>)
 8000d60:	801a      	strh	r2, [r3, #0]
	  T_TVOC = APC1_Get_TVOC();
 8000d62:	f7ff fed7 	bl	8000b14 <APC1_Get_TVOC>
 8000d66:	4603      	mov	r3, r0
 8000d68:	461a      	mov	r2, r3
 8000d6a:	4b2a      	ldr	r3, [pc, #168]	; (8000e14 <main+0x164>)
 8000d6c:	801a      	strh	r2, [r3, #0]
	  T_eCO2 = APC1_Get_eCO2();
 8000d6e:	f7ff fedd 	bl	8000b2c <APC1_Get_eCO2>
 8000d72:	4603      	mov	r3, r0
 8000d74:	461a      	mov	r2, r3
 8000d76:	4b28      	ldr	r3, [pc, #160]	; (8000e18 <main+0x168>)
 8000d78:	801a      	strh	r2, [r3, #0]
	  T_t_comp = APC1_Get_T_Comp();
 8000d7a:	f7ff fee3 	bl	8000b44 <APC1_Get_T_Comp>
 8000d7e:	eeb0 7a40 	vmov.f32	s14, s0
 8000d82:	eef0 7a60 	vmov.f32	s15, s1
 8000d86:	4b25      	ldr	r3, [pc, #148]	; (8000e1c <main+0x16c>)
 8000d88:	ed83 7b00 	vstr	d7, [r3]
	  T_rh_comp = APC1_Get_RH_Comp();
 8000d8c:	f7ff fef8 	bl	8000b80 <APC1_Get_RH_Comp>
 8000d90:	eeb0 7a40 	vmov.f32	s14, s0
 8000d94:	eef0 7a60 	vmov.f32	s15, s1
 8000d98:	4b21      	ldr	r3, [pc, #132]	; (8000e20 <main+0x170>)
 8000d9a:	ed83 7b00 	vstr	d7, [r3]
	  T_t_raw = APC1_Get_T_Raw();
 8000d9e:	f7ff ff0d 	bl	8000bbc <APC1_Get_T_Raw>
 8000da2:	eeb0 7a40 	vmov.f32	s14, s0
 8000da6:	eef0 7a60 	vmov.f32	s15, s1
 8000daa:	4b1e      	ldr	r3, [pc, #120]	; (8000e24 <main+0x174>)
 8000dac:	ed83 7b00 	vstr	d7, [r3]
	  T_rh_raw = APC1_Get_RH_Raw();
 8000db0:	f7ff ff22 	bl	8000bf8 <APC1_Get_RH_Raw>
 8000db4:	eeb0 7a40 	vmov.f32	s14, s0
 8000db8:	eef0 7a60 	vmov.f32	s15, s1
 8000dbc:	4b1a      	ldr	r3, [pc, #104]	; (8000e28 <main+0x178>)
 8000dbe:	ed83 7b00 	vstr	d7, [r3]
	  T_aqi = APC1_Get_AQI();
 8000dc2:	f7ff ff37 	bl	8000c34 <APC1_Get_AQI>
 8000dc6:	4603      	mov	r3, r0
 8000dc8:	461a      	mov	r2, r3
 8000dca:	4b18      	ldr	r3, [pc, #96]	; (8000e2c <main+0x17c>)
 8000dcc:	701a      	strb	r2, [r3, #0]
	  aqi_string = APC1_Get_AQI_String();
 8000dce:	f7ff ff3d 	bl	8000c4c <APC1_Get_AQI_String>
 8000dd2:	4603      	mov	r3, r0
 8000dd4:	4a16      	ldr	r2, [pc, #88]	; (8000e30 <main+0x180>)
 8000dd6:	6013      	str	r3, [r2, #0]
	  HAL_Delay(2000);
 8000dd8:	f44f 60fa 	mov.w	r0, #2000	; 0x7d0
 8000ddc:	f000 fa8c 	bl	80012f8 <HAL_Delay>
	  if (APC1_Read_Mea_Data() != APC1_OK) {
 8000de0:	e770      	b.n	8000cc4 <main+0x14>
 8000de2:	bf00      	nop
 8000de4:	20000112 	.word	0x20000112
 8000de8:	20000114 	.word	0x20000114
 8000dec:	20000116 	.word	0x20000116
 8000df0:	20000118 	.word	0x20000118
 8000df4:	2000011a 	.word	0x2000011a
 8000df8:	2000011c 	.word	0x2000011c
 8000dfc:	2000011e 	.word	0x2000011e
 8000e00:	20000120 	.word	0x20000120
 8000e04:	20000122 	.word	0x20000122
 8000e08:	20000124 	.word	0x20000124
 8000e0c:	20000126 	.word	0x20000126
 8000e10:	20000128 	.word	0x20000128
 8000e14:	2000012a 	.word	0x2000012a
 8000e18:	2000012c 	.word	0x2000012c
 8000e1c:	20000130 	.word	0x20000130
 8000e20:	20000138 	.word	0x20000138
 8000e24:	20000140 	.word	0x20000140
 8000e28:	20000148 	.word	0x20000148
 8000e2c:	20000154 	.word	0x20000154
 8000e30:	20000150 	.word	0x20000150

08000e34 <SystemClock_Config>:
/**
  * @brief System Clock Configuration
  * @retval None
  */
void SystemClock_Config(void)
{
 8000e34:	b580      	push	{r7, lr}
 8000e36:	b094      	sub	sp, #80	; 0x50
 8000e38:	af00      	add	r7, sp, #0
  RCC_OscInitTypeDef RCC_OscInitStruct = {0};
 8000e3a:	f107 0320 	add.w	r3, r7, #32
 8000e3e:	2230      	movs	r2, #48	; 0x30
 8000e40:	2100      	movs	r1, #0
 8000e42:	4618      	mov	r0, r3
 8000e44:	f002 face 	bl	80033e4 <memset>
  RCC_ClkInitTypeDef RCC_ClkInitStruct = {0};
 8000e48:	f107 030c 	add.w	r3, r7, #12
 8000e4c:	2200      	movs	r2, #0
 8000e4e:	601a      	str	r2, [r3, #0]
 8000e50:	605a      	str	r2, [r3, #4]
 8000e52:	609a      	str	r2, [r3, #8]
 8000e54:	60da      	str	r2, [r3, #12]
 8000e56:	611a      	str	r2, [r3, #16]

  /** Configure the main internal regulator output voltage
  */
  __HAL_RCC_PWR_CLK_ENABLE();
 8000e58:	2300      	movs	r3, #0
 8000e5a:	60bb      	str	r3, [r7, #8]
 8000e5c:	4b28      	ldr	r3, [pc, #160]	; (8000f00 <SystemClock_Config+0xcc>)
 8000e5e:	6c1b      	ldr	r3, [r3, #64]	; 0x40
 8000e60:	4a27      	ldr	r2, [pc, #156]	; (8000f00 <SystemClock_Config+0xcc>)
 8000e62:	f043 5380 	orr.w	r3, r3, #268435456	; 0x10000000
 8000e66:	6413      	str	r3, [r2, #64]	; 0x40
 8000e68:	4b25      	ldr	r3, [pc, #148]	; (8000f00 <SystemClock_Config+0xcc>)
 8000e6a:	6c1b      	ldr	r3, [r3, #64]	; 0x40
 8000e6c:	f003 5380 	and.w	r3, r3, #268435456	; 0x10000000
 8000e70:	60bb      	str	r3, [r7, #8]
 8000e72:	68bb      	ldr	r3, [r7, #8]
  __HAL_PWR_VOLTAGESCALING_CONFIG(PWR_REGULATOR_VOLTAGE_SCALE1);
 8000e74:	2300      	movs	r3, #0
 8000e76:	607b      	str	r3, [r7, #4]
 8000e78:	4b22      	ldr	r3, [pc, #136]	; (8000f04 <SystemClock_Config+0xd0>)
 8000e7a:	681b      	ldr	r3, [r3, #0]
 8000e7c:	4a21      	ldr	r2, [pc, #132]	; (8000f04 <SystemClock_Config+0xd0>)
 8000e7e:	f443 4340 	orr.w	r3, r3, #49152	; 0xc000
 8000e82:	6013      	str	r3, [r2, #0]
 8000e84:	4b1f      	ldr	r3, [pc, #124]	; (8000f04 <SystemClock_Config+0xd0>)
 8000e86:	681b      	ldr	r3, [r3, #0]
 8000e88:	f403 4340 	and.w	r3, r3, #49152	; 0xc000
 8000e8c:	607b      	str	r3, [r7, #4]
 8000e8e:	687b      	ldr	r3, [r7, #4]

  /** Initializes the RCC Oscillators according to the specified parameters
  * in the RCC_OscInitTypeDef structure.
  */
  RCC_OscInitStruct.OscillatorType = RCC_OSCILLATORTYPE_HSI;
 8000e90:	2302      	movs	r3, #2
 8000e92:	623b      	str	r3, [r7, #32]
  RCC_OscInitStruct.HSIState = RCC_HSI_ON;
 8000e94:	2301      	movs	r3, #1
 8000e96:	62fb      	str	r3, [r7, #44]	; 0x2c
  RCC_OscInitStruct.HSICalibrationValue = RCC_HSICALIBRATION_DEFAULT;
 8000e98:	2310      	movs	r3, #16
 8000e9a:	633b      	str	r3, [r7, #48]	; 0x30
  RCC_OscInitStruct.PLL.PLLState = RCC_PLL_ON;
 8000e9c:	2302      	movs	r3, #2
 8000e9e:	63bb      	str	r3, [r7, #56]	; 0x38
  RCC_OscInitStruct.PLL.PLLSource = RCC_PLLSOURCE_HSI;
 8000ea0:	2300      	movs	r3, #0
 8000ea2:	63fb      	str	r3, [r7, #60]	; 0x3c
  RCC_OscInitStruct.PLL.PLLM = 16;
 8000ea4:	2310      	movs	r3, #16
 8000ea6:	643b      	str	r3, [r7, #64]	; 0x40
  RCC_OscInitStruct.PLL.PLLN = 336;
 8000ea8:	f44f 73a8 	mov.w	r3, #336	; 0x150
 8000eac:	647b      	str	r3, [r7, #68]	; 0x44
  RCC_OscInitStruct.PLL.PLLP = RCC_PLLP_DIV4;
 8000eae:	2304      	movs	r3, #4
 8000eb0:	64bb      	str	r3, [r7, #72]	; 0x48
  RCC_OscInitStruct.PLL.PLLQ = 4;
 8000eb2:	2304      	movs	r3, #4
 8000eb4:	64fb      	str	r3, [r7, #76]	; 0x4c
  if (HAL_RCC_OscConfig(&RCC_OscInitStruct) != HAL_OK)
 8000eb6:	f107 0320 	add.w	r3, r7, #32
 8000eba:	4618      	mov	r0, r3
 8000ebc:	f000 fd82 	bl	80019c4 <HAL_RCC_OscConfig>
 8000ec0:	4603      	mov	r3, r0
 8000ec2:	2b00      	cmp	r3, #0
 8000ec4:	d001      	beq.n	8000eca <SystemClock_Config+0x96>
  {
    Error_Handler();
 8000ec6:	f000 f8b7 	bl	8001038 <Error_Handler>
  }

  /** Initializes the CPU, AHB and APB buses clocks
  */
  RCC_ClkInitStruct.ClockType = RCC_CLOCKTYPE_HCLK|RCC_CLOCKTYPE_SYSCLK
 8000eca:	230f      	movs	r3, #15
 8000ecc:	60fb      	str	r3, [r7, #12]
                              |RCC_CLOCKTYPE_PCLK1|RCC_CLOCKTYPE_PCLK2;
  RCC_ClkInitStruct.SYSCLKSource = RCC_SYSCLKSOURCE_PLLCLK;
 8000ece:	2302      	movs	r3, #2
 8000ed0:	613b      	str	r3, [r7, #16]
  RCC_ClkInitStruct.AHBCLKDivider = RCC_SYSCLK_DIV1;
 8000ed2:	2300      	movs	r3, #0
 8000ed4:	617b      	str	r3, [r7, #20]
  RCC_ClkInitStruct.APB1CLKDivider = RCC_HCLK_DIV2;
 8000ed6:	f44f 5380 	mov.w	r3, #4096	; 0x1000
 8000eda:	61bb      	str	r3, [r7, #24]
  RCC_ClkInitStruct.APB2CLKDivider = RCC_HCLK_DIV1;
 8000edc:	2300      	movs	r3, #0
 8000ede:	61fb      	str	r3, [r7, #28]

  if (HAL_RCC_ClockConfig(&RCC_ClkInitStruct, FLASH_LATENCY_2) != HAL_OK)
 8000ee0:	f107 030c 	add.w	r3, r7, #12
 8000ee4:	2102      	movs	r1, #2
 8000ee6:	4618      	mov	r0, r3
 8000ee8:	f000 ffe4 	bl	8001eb4 <HAL_RCC_ClockConfig>
 8000eec:	4603      	mov	r3, r0
 8000eee:	2b00      	cmp	r3, #0
 8000ef0:	d001      	beq.n	8000ef6 <SystemClock_Config+0xc2>
  {
    Error_Handler();
 8000ef2:	f000 f8a1 	bl	8001038 <Error_Handler>
  }
}
 8000ef6:	bf00      	nop
 8000ef8:	3750      	adds	r7, #80	; 0x50
 8000efa:	46bd      	mov	sp, r7
 8000efc:	bd80      	pop	{r7, pc}
 8000efe:	bf00      	nop
 8000f00:	40023800 	.word	0x40023800
 8000f04:	40007000 	.word	0x40007000

08000f08 <MX_USART1_UART_Init>:
  * @brief USART1 Initialization Function
  * @param None
  * @retval None
  */
static void MX_USART1_UART_Init(void)
{
 8000f08:	b580      	push	{r7, lr}
 8000f0a:	af00      	add	r7, sp, #0
  /* USER CODE END USART1_Init 0 */

  /* USER CODE BEGIN USART1_Init 1 */

  /* USER CODE END USART1_Init 1 */
  huart1.Instance = USART1;
 8000f0c:	4b11      	ldr	r3, [pc, #68]	; (8000f54 <MX_USART1_UART_Init+0x4c>)
 8000f0e:	4a12      	ldr	r2, [pc, #72]	; (8000f58 <MX_USART1_UART_Init+0x50>)
 8000f10:	601a      	str	r2, [r3, #0]
  huart1.Init.BaudRate = 9600;
 8000f12:	4b10      	ldr	r3, [pc, #64]	; (8000f54 <MX_USART1_UART_Init+0x4c>)
 8000f14:	f44f 5216 	mov.w	r2, #9600	; 0x2580
 8000f18:	605a      	str	r2, [r3, #4]
  huart1.Init.WordLength = UART_WORDLENGTH_8B;
 8000f1a:	4b0e      	ldr	r3, [pc, #56]	; (8000f54 <MX_USART1_UART_Init+0x4c>)
 8000f1c:	2200      	movs	r2, #0
 8000f1e:	609a      	str	r2, [r3, #8]
  huart1.Init.StopBits = UART_STOPBITS_1;
 8000f20:	4b0c      	ldr	r3, [pc, #48]	; (8000f54 <MX_USART1_UART_Init+0x4c>)
 8000f22:	2200      	movs	r2, #0
 8000f24:	60da      	str	r2, [r3, #12]
  huart1.Init.Parity = UART_PARITY_NONE;
 8000f26:	4b0b      	ldr	r3, [pc, #44]	; (8000f54 <MX_USART1_UART_Init+0x4c>)
 8000f28:	2200      	movs	r2, #0
 8000f2a:	611a      	str	r2, [r3, #16]
  huart1.Init.Mode = UART_MODE_TX_RX;
 8000f2c:	4b09      	ldr	r3, [pc, #36]	; (8000f54 <MX_USART1_UART_Init+0x4c>)
 8000f2e:	220c      	movs	r2, #12
 8000f30:	615a      	str	r2, [r3, #20]
  huart1.Init.HwFlowCtl = UART_HWCONTROL_NONE;
 8000f32:	4b08      	ldr	r3, [pc, #32]	; (8000f54 <MX_USART1_UART_Init+0x4c>)
 8000f34:	2200      	movs	r2, #0
 8000f36:	619a      	str	r2, [r3, #24]
  huart1.Init.OverSampling = UART_OVERSAMPLING_16;
 8000f38:	4b06      	ldr	r3, [pc, #24]	; (8000f54 <MX_USART1_UART_Init+0x4c>)
 8000f3a:	2200      	movs	r2, #0
 8000f3c:	61da      	str	r2, [r3, #28]
  if (HAL_UART_Init(&huart1) != HAL_OK)
 8000f3e:	4805      	ldr	r0, [pc, #20]	; (8000f54 <MX_USART1_UART_Init+0x4c>)
 8000f40:	f001 f9d8 	bl	80022f4 <HAL_UART_Init>
 8000f44:	4603      	mov	r3, r0
 8000f46:	2b00      	cmp	r3, #0
 8000f48:	d001      	beq.n	8000f4e <MX_USART1_UART_Init+0x46>
  {
    Error_Handler();
 8000f4a:	f000 f875 	bl	8001038 <Error_Handler>
  }
  /* USER CODE BEGIN USART1_Init 2 */

  /* USER CODE END USART1_Init 2 */

}
 8000f4e:	bf00      	nop
 8000f50:	bd80      	pop	{r7, pc}
 8000f52:	bf00      	nop
 8000f54:	20000158 	.word	0x20000158
 8000f58:	40011000 	.word	0x40011000

08000f5c <MX_GPIO_Init>:
  * @brief GPIO Initialization Function
  * @param None
  * @retval None
  */
static void MX_GPIO_Init(void)
{
 8000f5c:	b580      	push	{r7, lr}
 8000f5e:	b08a      	sub	sp, #40	; 0x28
 8000f60:	af00      	add	r7, sp, #0
  GPIO_InitTypeDef GPIO_InitStruct = {0};
 8000f62:	f107 0314 	add.w	r3, r7, #20
 8000f66:	2200      	movs	r2, #0
 8000f68:	601a      	str	r2, [r3, #0]
 8000f6a:	605a      	str	r2, [r3, #4]
 8000f6c:	609a      	str	r2, [r3, #8]
 8000f6e:	60da      	str	r2, [r3, #12]
 8000f70:	611a      	str	r2, [r3, #16]
/* USER CODE BEGIN MX_GPIO_Init_1 */
/* USER CODE END MX_GPIO_Init_1 */

  /* GPIO Ports Clock Enable */
  __HAL_RCC_GPIOC_CLK_ENABLE();
 8000f72:	2300      	movs	r3, #0
 8000f74:	613b      	str	r3, [r7, #16]
 8000f76:	4b2d      	ldr	r3, [pc, #180]	; (800102c <MX_GPIO_Init+0xd0>)
 8000f78:	6b1b      	ldr	r3, [r3, #48]	; 0x30
 8000f7a:	4a2c      	ldr	r2, [pc, #176]	; (800102c <MX_GPIO_Init+0xd0>)
 8000f7c:	f043 0304 	orr.w	r3, r3, #4
 8000f80:	6313      	str	r3, [r2, #48]	; 0x30
 8000f82:	4b2a      	ldr	r3, [pc, #168]	; (800102c <MX_GPIO_Init+0xd0>)
 8000f84:	6b1b      	ldr	r3, [r3, #48]	; 0x30
 8000f86:	f003 0304 	and.w	r3, r3, #4
 8000f8a:	613b      	str	r3, [r7, #16]
 8000f8c:	693b      	ldr	r3, [r7, #16]
  __HAL_RCC_GPIOH_CLK_ENABLE();
 8000f8e:	2300      	movs	r3, #0
 8000f90:	60fb      	str	r3, [r7, #12]
 8000f92:	4b26      	ldr	r3, [pc, #152]	; (800102c <MX_GPIO_Init+0xd0>)
 8000f94:	6b1b      	ldr	r3, [r3, #48]	; 0x30
 8000f96:	4a25      	ldr	r2, [pc, #148]	; (800102c <MX_GPIO_Init+0xd0>)
 8000f98:	f043 0380 	orr.w	r3, r3, #128	; 0x80
 8000f9c:	6313      	str	r3, [r2, #48]	; 0x30
 8000f9e:	4b23      	ldr	r3, [pc, #140]	; (800102c <MX_GPIO_Init+0xd0>)
 8000fa0:	6b1b      	ldr	r3, [r3, #48]	; 0x30
 8000fa2:	f003 0380 	and.w	r3, r3, #128	; 0x80
 8000fa6:	60fb      	str	r3, [r7, #12]
 8000fa8:	68fb      	ldr	r3, [r7, #12]
  __HAL_RCC_GPIOA_CLK_ENABLE();
 8000faa:	2300      	movs	r3, #0
 8000fac:	60bb      	str	r3, [r7, #8]
 8000fae:	4b1f      	ldr	r3, [pc, #124]	; (800102c <MX_GPIO_Init+0xd0>)
 8000fb0:	6b1b      	ldr	r3, [r3, #48]	; 0x30
 8000fb2:	4a1e      	ldr	r2, [pc, #120]	; (800102c <MX_GPIO_Init+0xd0>)
 8000fb4:	f043 0301 	orr.w	r3, r3, #1
 8000fb8:	6313      	str	r3, [r2, #48]	; 0x30
 8000fba:	4b1c      	ldr	r3, [pc, #112]	; (800102c <MX_GPIO_Init+0xd0>)
 8000fbc:	6b1b      	ldr	r3, [r3, #48]	; 0x30
 8000fbe:	f003 0301 	and.w	r3, r3, #1
 8000fc2:	60bb      	str	r3, [r7, #8]
 8000fc4:	68bb      	ldr	r3, [r7, #8]
  __HAL_RCC_GPIOB_CLK_ENABLE();
 8000fc6:	2300      	movs	r3, #0
 8000fc8:	607b      	str	r3, [r7, #4]
 8000fca:	4b18      	ldr	r3, [pc, #96]	; (800102c <MX_GPIO_Init+0xd0>)
 8000fcc:	6b1b      	ldr	r3, [r3, #48]	; 0x30
 8000fce:	4a17      	ldr	r2, [pc, #92]	; (800102c <MX_GPIO_Init+0xd0>)
 8000fd0:	f043 0302 	orr.w	r3, r3, #2
 8000fd4:	6313      	str	r3, [r2, #48]	; 0x30
 8000fd6:	4b15      	ldr	r3, [pc, #84]	; (800102c <MX_GPIO_Init+0xd0>)
 8000fd8:	6b1b      	ldr	r3, [r3, #48]	; 0x30
 8000fda:	f003 0302 	and.w	r3, r3, #2
 8000fde:	607b      	str	r3, [r7, #4]
 8000fe0:	687b      	ldr	r3, [r7, #4]

  /*Configure GPIO pin Output Level */
  HAL_GPIO_WritePin(LD2_GPIO_Port, LD2_Pin, GPIO_PIN_RESET);
 8000fe2:	2200      	movs	r2, #0
 8000fe4:	2120      	movs	r1, #32
 8000fe6:	4812      	ldr	r0, [pc, #72]	; (8001030 <MX_GPIO_Init+0xd4>)
 8000fe8:	f000 fcd2 	bl	8001990 <HAL_GPIO_WritePin>

  /*Configure GPIO pin : B1_Pin */
  GPIO_InitStruct.Pin = B1_Pin;
 8000fec:	f44f 5300 	mov.w	r3, #8192	; 0x2000
 8000ff0:	617b      	str	r3, [r7, #20]
  GPIO_InitStruct.Mode = GPIO_MODE_IT_FALLING;
 8000ff2:	f44f 1304 	mov.w	r3, #2162688	; 0x210000
 8000ff6:	61bb      	str	r3, [r7, #24]
  GPIO_InitStruct.Pull = GPIO_NOPULL;
 8000ff8:	2300      	movs	r3, #0
 8000ffa:	61fb      	str	r3, [r7, #28]
  HAL_GPIO_Init(B1_GPIO_Port, &GPIO_InitStruct);
 8000ffc:	f107 0314 	add.w	r3, r7, #20
 8001000:	4619      	mov	r1, r3
 8001002:	480c      	ldr	r0, [pc, #48]	; (8001034 <MX_GPIO_Init+0xd8>)
 8001004:	f000 fb40 	bl	8001688 <HAL_GPIO_Init>

  /*Configure GPIO pin : LD2_Pin */
  GPIO_InitStruct.Pin = LD2_Pin;
 8001008:	2320      	movs	r3, #32
 800100a:	617b      	str	r3, [r7, #20]
  GPIO_InitStruct.Mode = GPIO_MODE_OUTPUT_PP;
 800100c:	2301      	movs	r3, #1
 800100e:	61bb      	str	r3, [r7, #24]
  GPIO_InitStruct.Pull = GPIO_NOPULL;
 8001010:	2300      	movs	r3, #0
 8001012:	61fb      	str	r3, [r7, #28]
  GPIO_InitStruct.Speed = GPIO_SPEED_FREQ_LOW;
 8001014:	2300      	movs	r3, #0
 8001016:	623b      	str	r3, [r7, #32]
  HAL_GPIO_Init(LD2_GPIO_Port, &GPIO_InitStruct);
 8001018:	f107 0314 	add.w	r3, r7, #20
 800101c:	4619      	mov	r1, r3
 800101e:	4804      	ldr	r0, [pc, #16]	; (8001030 <MX_GPIO_Init+0xd4>)
 8001020:	f000 fb32 	bl	8001688 <HAL_GPIO_Init>

/* USER CODE BEGIN MX_GPIO_Init_2 */
/* USER CODE END MX_GPIO_Init_2 */
}
 8001024:	bf00      	nop
 8001026:	3728      	adds	r7, #40	; 0x28
 8001028:	46bd      	mov	sp, r7
 800102a:	bd80      	pop	{r7, pc}
 800102c:	40023800 	.word	0x40023800
 8001030:	40020000 	.word	0x40020000
 8001034:	40020800 	.word	0x40020800

08001038 <Error_Handler>:
/**
  * @brief  This function is executed in case of error occurrence.
  * @retval None
  */
void Error_Handler(void)
{
 8001038:	b480      	push	{r7}
 800103a:	af00      	add	r7, sp, #0
  \details Disables IRQ interrupts by setting the I-bit in the CPSR.
           Can only be executed in Privileged modes.
 */
__STATIC_FORCEINLINE void __disable_irq(void)
{
  __ASM volatile ("cpsid i" : : : "memory");
 800103c:	b672      	cpsid	i
}
 800103e:	bf00      	nop
  /* USER CODE BEGIN Error_Handler_Debug */
  /* User can add his own implementation to report the HAL error return state */
  __disable_irq();
  while (1)
 8001040:	e7fe      	b.n	8001040 <Error_Handler+0x8>
	...

08001044 <HAL_MspInit>:
/* USER CODE END 0 */
/**
  * Initializes the Global MSP.
  */
void HAL_MspInit(void)
{
 8001044:	b580      	push	{r7, lr}
 8001046:	b082      	sub	sp, #8
 8001048:	af00      	add	r7, sp, #0
  /* USER CODE BEGIN MspInit 0 */

  /* USER CODE END MspInit 0 */

  __HAL_RCC_SYSCFG_CLK_ENABLE();
 800104a:	2300      	movs	r3, #0
 800104c:	607b      	str	r3, [r7, #4]
 800104e:	4b10      	ldr	r3, [pc, #64]	; (8001090 <HAL_MspInit+0x4c>)
 8001050:	6c5b      	ldr	r3, [r3, #68]	; 0x44
 8001052:	4a0f      	ldr	r2, [pc, #60]	; (8001090 <HAL_MspInit+0x4c>)
 8001054:	f443 4380 	orr.w	r3, r3, #16384	; 0x4000
 8001058:	6453      	str	r3, [r2, #68]	; 0x44
 800105a:	4b0d      	ldr	r3, [pc, #52]	; (8001090 <HAL_MspInit+0x4c>)
 800105c:	6c5b      	ldr	r3, [r3, #68]	; 0x44
 800105e:	f403 4380 	and.w	r3, r3, #16384	; 0x4000
 8001062:	607b      	str	r3, [r7, #4]
 8001064:	687b      	ldr	r3, [r7, #4]
  __HAL_RCC_PWR_CLK_ENABLE();
 8001066:	2300      	movs	r3, #0
 8001068:	603b      	str	r3, [r7, #0]
 800106a:	4b09      	ldr	r3, [pc, #36]	; (8001090 <HAL_MspInit+0x4c>)
 800106c:	6c1b      	ldr	r3, [r3, #64]	; 0x40
 800106e:	4a08      	ldr	r2, [pc, #32]	; (8001090 <HAL_MspInit+0x4c>)
 8001070:	f043 5380 	orr.w	r3, r3, #268435456	; 0x10000000
 8001074:	6413      	str	r3, [r2, #64]	; 0x40
 8001076:	4b06      	ldr	r3, [pc, #24]	; (8001090 <HAL_MspInit+0x4c>)
 8001078:	6c1b      	ldr	r3, [r3, #64]	; 0x40
 800107a:	f003 5380 	and.w	r3, r3, #268435456	; 0x10000000
 800107e:	603b      	str	r3, [r7, #0]
 8001080:	683b      	ldr	r3, [r7, #0]

  HAL_NVIC_SetPriorityGrouping(NVIC_PRIORITYGROUP_0);
 8001082:	2007      	movs	r0, #7
 8001084:	f000 fa2c 	bl	80014e0 <HAL_NVIC_SetPriorityGrouping>
  /* System interrupt init*/

  /* USER CODE BEGIN MspInit 1 */

  /* USER CODE END MspInit 1 */
}
 8001088:	bf00      	nop
 800108a:	3708      	adds	r7, #8
 800108c:	46bd      	mov	sp, r7
 800108e:	bd80      	pop	{r7, pc}
 8001090:	40023800 	.word	0x40023800

08001094 <HAL_UART_MspInit>:
* This function configures the hardware resources used in this example
* @param huart: UART handle pointer
* @retval None
*/
void HAL_UART_MspInit(UART_HandleTypeDef* huart)
{
 8001094:	b580      	push	{r7, lr}
 8001096:	b08a      	sub	sp, #40	; 0x28
 8001098:	af00      	add	r7, sp, #0
 800109a:	6078      	str	r0, [r7, #4]
  GPIO_InitTypeDef GPIO_InitStruct = {0};
 800109c:	f107 0314 	add.w	r3, r7, #20
 80010a0:	2200      	movs	r2, #0
 80010a2:	601a      	str	r2, [r3, #0]
 80010a4:	605a      	str	r2, [r3, #4]
 80010a6:	609a      	str	r2, [r3, #8]
 80010a8:	60da      	str	r2, [r3, #12]
 80010aa:	611a      	str	r2, [r3, #16]
  if(huart->Instance==USART1)
 80010ac:	687b      	ldr	r3, [r7, #4]
 80010ae:	681b      	ldr	r3, [r3, #0]
 80010b0:	4a1d      	ldr	r2, [pc, #116]	; (8001128 <HAL_UART_MspInit+0x94>)
 80010b2:	4293      	cmp	r3, r2
 80010b4:	d134      	bne.n	8001120 <HAL_UART_MspInit+0x8c>
  {
  /* USER CODE BEGIN USART1_MspInit 0 */

  /* USER CODE END USART1_MspInit 0 */
    /* Peripheral clock enable */
    __HAL_RCC_USART1_CLK_ENABLE();
 80010b6:	2300      	movs	r3, #0
 80010b8:	613b      	str	r3, [r7, #16]
 80010ba:	4b1c      	ldr	r3, [pc, #112]	; (800112c <HAL_UART_MspInit+0x98>)
 80010bc:	6c5b      	ldr	r3, [r3, #68]	; 0x44
 80010be:	4a1b      	ldr	r2, [pc, #108]	; (800112c <HAL_UART_MspInit+0x98>)
 80010c0:	f043 0310 	orr.w	r3, r3, #16
 80010c4:	6453      	str	r3, [r2, #68]	; 0x44
 80010c6:	4b19      	ldr	r3, [pc, #100]	; (800112c <HAL_UART_MspInit+0x98>)
 80010c8:	6c5b      	ldr	r3, [r3, #68]	; 0x44
 80010ca:	f003 0310 	and.w	r3, r3, #16
 80010ce:	613b      	str	r3, [r7, #16]
 80010d0:	693b      	ldr	r3, [r7, #16]

    __HAL_RCC_GPIOA_CLK_ENABLE();
 80010d2:	2300      	movs	r3, #0
 80010d4:	60fb      	str	r3, [r7, #12]
 80010d6:	4b15      	ldr	r3, [pc, #84]	; (800112c <HAL_UART_MspInit+0x98>)
 80010d8:	6b1b      	ldr	r3, [r3, #48]	; 0x30
 80010da:	4a14      	ldr	r2, [pc, #80]	; (800112c <HAL_UART_MspInit+0x98>)
 80010dc:	f043 0301 	orr.w	r3, r3, #1
 80010e0:	6313      	str	r3, [r2, #48]	; 0x30
 80010e2:	4b12      	ldr	r3, [pc, #72]	; (800112c <HAL_UART_MspInit+0x98>)
 80010e4:	6b1b      	ldr	r3, [r3, #48]	; 0x30
 80010e6:	f003 0301 	and.w	r3, r3, #1
 80010ea:	60fb      	str	r3, [r7, #12]
 80010ec:	68fb      	ldr	r3, [r7, #12]
    /**USART1 GPIO Configuration
    PA9     ------> USART1_TX
    PA10     ------> USART1_RX
    */
    GPIO_InitStruct.Pin = GPIO_PIN_9|GPIO_PIN_10;
 80010ee:	f44f 63c0 	mov.w	r3, #1536	; 0x600
 80010f2:	617b      	str	r3, [r7, #20]
    GPIO_InitStruct.Mode = GPIO_MODE_AF_PP;
 80010f4:	2302      	movs	r3, #2
 80010f6:	61bb      	str	r3, [r7, #24]
    GPIO_InitStruct.Pull = GPIO_NOPULL;
 80010f8:	2300      	movs	r3, #0
 80010fa:	61fb      	str	r3, [r7, #28]
    GPIO_InitStruct.Speed = GPIO_SPEED_FREQ_VERY_HIGH;
 80010fc:	2303      	movs	r3, #3
 80010fe:	623b      	str	r3, [r7, #32]
    GPIO_InitStruct.Alternate = GPIO_AF7_USART1;
 8001100:	2307      	movs	r3, #7
 8001102:	627b      	str	r3, [r7, #36]	; 0x24
    HAL_GPIO_Init(GPIOA, &GPIO_InitStruct);
 8001104:	f107 0314 	add.w	r3, r7, #20
 8001108:	4619      	mov	r1, r3
 800110a:	4809      	ldr	r0, [pc, #36]	; (8001130 <HAL_UART_MspInit+0x9c>)
 800110c:	f000 fabc 	bl	8001688 <HAL_GPIO_Init>

    /* USART1 interrupt Init */
    HAL_NVIC_SetPriority(USART1_IRQn, 0, 0);
 8001110:	2200      	movs	r2, #0
 8001112:	2100      	movs	r1, #0
 8001114:	2025      	movs	r0, #37	; 0x25
 8001116:	f000 f9ee 	bl	80014f6 <HAL_NVIC_SetPriority>
    HAL_NVIC_EnableIRQ(USART1_IRQn);
 800111a:	2025      	movs	r0, #37	; 0x25
 800111c:	f000 fa07 	bl	800152e <HAL_NVIC_EnableIRQ>
  /* USER CODE BEGIN USART1_MspInit 1 */

  /* USER CODE END USART1_MspInit 1 */
  }

}
 8001120:	bf00      	nop
 8001122:	3728      	adds	r7, #40	; 0x28
 8001124:	46bd      	mov	sp, r7
 8001126:	bd80      	pop	{r7, pc}
 8001128:	40011000 	.word	0x40011000
 800112c:	40023800 	.word	0x40023800
 8001130:	40020000 	.word	0x40020000

08001134 <NMI_Handler>:
/******************************************************************************/
/**
  * @brief This function handles Non maskable interrupt.
  */
void NMI_Handler(void)
{
 8001134:	b480      	push	{r7}
 8001136:	af00      	add	r7, sp, #0
  /* USER CODE BEGIN NonMaskableInt_IRQn 0 */

  /* USER CODE END NonMaskableInt_IRQn 0 */
  /* USER CODE BEGIN NonMaskableInt_IRQn 1 */
  while (1)
 8001138:	e7fe      	b.n	8001138 <NMI_Handler+0x4>

0800113a <HardFault_Handler>:

/**
  * @brief This function handles Hard fault interrupt.
  */
void HardFault_Handler(void)
{
 800113a:	b480      	push	{r7}
 800113c:	af00      	add	r7, sp, #0
  /* USER CODE BEGIN HardFault_IRQn 0 */

  /* USER CODE END HardFault_IRQn 0 */
  while (1)
 800113e:	e7fe      	b.n	800113e <HardFault_Handler+0x4>

08001140 <MemManage_Handler>:

/**
  * @brief This function handles Memory management fault.
  */
void MemManage_Handler(void)
{
 8001140:	b480      	push	{r7}
 8001142:	af00      	add	r7, sp, #0
  /* USER CODE BEGIN MemoryManagement_IRQn 0 */

  /* USER CODE END MemoryManagement_IRQn 0 */
  while (1)
 8001144:	e7fe      	b.n	8001144 <MemManage_Handler+0x4>

08001146 <BusFault_Handler>:

/**
  * @brief This function handles Pre-fetch fault, memory access fault.
  */
void BusFault_Handler(void)
{
 8001146:	b480      	push	{r7}
 8001148:	af00      	add	r7, sp, #0
  /* USER CODE BEGIN BusFault_IRQn 0 */

  /* USER CODE END BusFault_IRQn 0 */
  while (1)
 800114a:	e7fe      	b.n	800114a <BusFault_Handler+0x4>

0800114c <UsageFault_Handler>:

/**
  * @brief This function handles Undefined instruction or illegal state.
  */
void UsageFault_Handler(void)
{
 800114c:	b480      	push	{r7}
 800114e:	af00      	add	r7, sp, #0
  /* USER CODE BEGIN UsageFault_IRQn 0 */

  /* USER CODE END UsageFault_IRQn 0 */
  while (1)
 8001150:	e7fe      	b.n	8001150 <UsageFault_Handler+0x4>

08001152 <SVC_Handler>:

/**
  * @brief This function handles System service call via SWI instruction.
  */
void SVC_Handler(void)
{
 8001152:	b480      	push	{r7}
 8001154:	af00      	add	r7, sp, #0

  /* USER CODE END SVCall_IRQn 0 */
  /* USER CODE BEGIN SVCall_IRQn 1 */

  /* USER CODE END SVCall_IRQn 1 */
}
 8001156:	bf00      	nop
 8001158:	46bd      	mov	sp, r7
 800115a:	f85d 7b04 	ldr.w	r7, [sp], #4
 800115e:	4770      	bx	lr

08001160 <DebugMon_Handler>:

/**
  * @brief This function handles Debug monitor.
  */
void DebugMon_Handler(void)
{
 8001160:	b480      	push	{r7}
 8001162:	af00      	add	r7, sp, #0

  /* USER CODE END DebugMonitor_IRQn 0 */
  /* USER CODE BEGIN DebugMonitor_IRQn 1 */

  /* USER CODE END DebugMonitor_IRQn 1 */
}
 8001164:	bf00      	nop
 8001166:	46bd      	mov	sp, r7
 8001168:	f85d 7b04 	ldr.w	r7, [sp], #4
 800116c:	4770      	bx	lr

0800116e <PendSV_Handler>:

/**
  * @brief This function handles Pendable request for system service.
  */
void PendSV_Handler(void)
{
 800116e:	b480      	push	{r7}
 8001170:	af00      	add	r7, sp, #0

  /* USER CODE END PendSV_IRQn 0 */
  /* USER CODE BEGIN PendSV_IRQn 1 */

  /* USER CODE END PendSV_IRQn 1 */
}
 8001172:	bf00      	nop
 8001174:	46bd      	mov	sp, r7
 8001176:	f85d 7b04 	ldr.w	r7, [sp], #4
 800117a:	4770      	bx	lr

0800117c <SysTick_Handler>:

/**
  * @brief This function handles System tick timer.
  */
void SysTick_Handler(void)
{
 800117c:	b580      	push	{r7, lr}
 800117e:	af00      	add	r7, sp, #0
  /* USER CODE BEGIN SysTick_IRQn 0 */

  /* USER CODE END SysTick_IRQn 0 */
  HAL_IncTick();
 8001180:	f000 f89a 	bl	80012b8 <HAL_IncTick>
  /* USER CODE BEGIN SysTick_IRQn 1 */

  /* USER CODE END SysTick_IRQn 1 */
}
 8001184:	bf00      	nop
 8001186:	bd80      	pop	{r7, pc}

08001188 <USART1_IRQHandler>:

/**
  * @brief This function handles USART1 global interrupt.
  */
void USART1_IRQHandler(void)
{
 8001188:	b580      	push	{r7, lr}
 800118a:	af00      	add	r7, sp, #0
	//	// uint8_t new_c = USART1->DR;
	//	rx[my_index++] = USART1->DR;
	//}

  /* USER CODE END USART1_IRQn 0 */
  HAL_UART_IRQHandler(&huart1);
 800118c:	4802      	ldr	r0, [pc, #8]	; (8001198 <USART1_IRQHandler+0x10>)
 800118e:	f001 f9c1 	bl	8002514 <HAL_UART_IRQHandler>
  /* USER CODE BEGIN USART1_IRQn 1 */

  /* USER CODE END USART1_IRQn 1 */
}
 8001192:	bf00      	nop
 8001194:	bd80      	pop	{r7, pc}
 8001196:	bf00      	nop
 8001198:	20000158 	.word	0x20000158

0800119c <SystemInit>:
  *         configuration.
  * @param  None
  * @retval None
  */
void SystemInit(void)
{
 800119c:	b480      	push	{r7}
 800119e:	af00      	add	r7, sp, #0
  /* FPU settings ------------------------------------------------------------*/
  #if (__FPU_PRESENT == 1) && (__FPU_USED == 1)
    SCB->CPACR |= ((3UL << 10*2)|(3UL << 11*2));  /* set CP10 and CP11 Full Access */
 80011a0:	4b06      	ldr	r3, [pc, #24]	; (80011bc <SystemInit+0x20>)
 80011a2:	f8d3 3088 	ldr.w	r3, [r3, #136]	; 0x88
 80011a6:	4a05      	ldr	r2, [pc, #20]	; (80011bc <SystemInit+0x20>)
 80011a8:	f443 0370 	orr.w	r3, r3, #15728640	; 0xf00000
 80011ac:	f8c2 3088 	str.w	r3, [r2, #136]	; 0x88

  /* Configure the Vector Table location -------------------------------------*/
#if defined(USER_VECT_TAB_ADDRESS)
  SCB->VTOR = VECT_TAB_BASE_ADDRESS | VECT_TAB_OFFSET; /* Vector Table Relocation in Internal SRAM */
#endif /* USER_VECT_TAB_ADDRESS */
}
 80011b0:	bf00      	nop
 80011b2:	46bd      	mov	sp, r7
 80011b4:	f85d 7b04 	ldr.w	r7, [sp], #4
 80011b8:	4770      	bx	lr
 80011ba:	bf00      	nop
 80011bc:	e000ed00 	.word	0xe000ed00

080011c0 <Reset_Handler>:

    .section  .text.Reset_Handler
  .weak  Reset_Handler
  .type  Reset_Handler, %function
Reset_Handler:  
  ldr   sp, =_estack    		 /* set stack pointer */
 80011c0:	f8df d034 	ldr.w	sp, [pc, #52]	; 80011f8 <LoopFillZerobss+0x12>

/* Copy the data segment initializers from flash to SRAM */  
  ldr r0, =_sdata
 80011c4:	480d      	ldr	r0, [pc, #52]	; (80011fc <LoopFillZerobss+0x16>)
  ldr r1, =_edata
 80011c6:	490e      	ldr	r1, [pc, #56]	; (8001200 <LoopFillZerobss+0x1a>)
  ldr r2, =_sidata
 80011c8:	4a0e      	ldr	r2, [pc, #56]	; (8001204 <LoopFillZerobss+0x1e>)
  movs r3, #0
 80011ca:	2300      	movs	r3, #0
  b LoopCopyDataInit
 80011cc:	e002      	b.n	80011d4 <LoopCopyDataInit>

080011ce <CopyDataInit>:

CopyDataInit:
  ldr r4, [r2, r3]
 80011ce:	58d4      	ldr	r4, [r2, r3]
  str r4, [r0, r3]
 80011d0:	50c4      	str	r4, [r0, r3]
  adds r3, r3, #4
 80011d2:	3304      	adds	r3, #4

080011d4 <LoopCopyDataInit>:

LoopCopyDataInit:
  adds r4, r0, r3
 80011d4:	18c4      	adds	r4, r0, r3
  cmp r4, r1
 80011d6:	428c      	cmp	r4, r1
  bcc CopyDataInit
 80011d8:	d3f9      	bcc.n	80011ce <CopyDataInit>
  
/* Zero fill the bss segment. */
  ldr r2, =_sbss
 80011da:	4a0b      	ldr	r2, [pc, #44]	; (8001208 <LoopFillZerobss+0x22>)
  ldr r4, =_ebss
 80011dc:	4c0b      	ldr	r4, [pc, #44]	; (800120c <LoopFillZerobss+0x26>)
  movs r3, #0
 80011de:	2300      	movs	r3, #0
  b LoopFillZerobss
 80011e0:	e001      	b.n	80011e6 <LoopFillZerobss>

080011e2 <FillZerobss>:

FillZerobss:
  str  r3, [r2]
 80011e2:	6013      	str	r3, [r2, #0]
  adds r2, r2, #4
 80011e4:	3204      	adds	r2, #4

080011e6 <LoopFillZerobss>:

LoopFillZerobss:
  cmp r2, r4
 80011e6:	42a2      	cmp	r2, r4
  bcc FillZerobss
 80011e8:	d3fb      	bcc.n	80011e2 <FillZerobss>

/* Call the clock system initialization function.*/
  bl  SystemInit   
 80011ea:	f7ff ffd7 	bl	800119c <SystemInit>
/* Call static constructors */
    bl __libc_init_array
 80011ee:	f002 f901 	bl	80033f4 <__libc_init_array>
/* Call the application's entry point.*/
  bl  main
 80011f2:	f7ff fd5d 	bl	8000cb0 <main>
  bx  lr    
 80011f6:	4770      	bx	lr
  ldr   sp, =_estack    		 /* set stack pointer */
 80011f8:	20020000 	.word	0x20020000
  ldr r0, =_sdata
 80011fc:	20000000 	.word	0x20000000
  ldr r1, =_edata
 8001200:	20000064 	.word	0x20000064
  ldr r2, =_sidata
 8001204:	080034b8 	.word	0x080034b8
  ldr r2, =_sbss
 8001208:	20000068 	.word	0x20000068
  ldr r4, =_ebss
 800120c:	200001a0 	.word	0x200001a0

08001210 <ADC_IRQHandler>:
 * @retval None       
*/
    .section  .text.Default_Handler,"ax",%progbits
Default_Handler:
Infinite_Loop:
  b  Infinite_Loop
 8001210:	e7fe      	b.n	8001210 <ADC_IRQHandler>
	...

08001214 <HAL_Init>:
  *         need to ensure that the SysTick time base is always set to 1 millisecond
  *         to have correct HAL operation.
  * @retval HAL status
  */
HAL_StatusTypeDef HAL_Init(void)
{
 8001214:	b580      	push	{r7, lr}
 8001216:	af00      	add	r7, sp, #0
  /* Configure Flash prefetch, Instruction cache, Data cache */ 
#if (INSTRUCTION_CACHE_ENABLE != 0U)
  __HAL_FLASH_INSTRUCTION_CACHE_ENABLE();
 8001218:	4b0e      	ldr	r3, [pc, #56]	; (8001254 <HAL_Init+0x40>)
 800121a:	681b      	ldr	r3, [r3, #0]
 800121c:	4a0d      	ldr	r2, [pc, #52]	; (8001254 <HAL_Init+0x40>)
 800121e:	f443 7300 	orr.w	r3, r3, #512	; 0x200
 8001222:	6013      	str	r3, [r2, #0]
#endif /* INSTRUCTION_CACHE_ENABLE */

#if (DATA_CACHE_ENABLE != 0U)
  __HAL_FLASH_DATA_CACHE_ENABLE();
 8001224:	4b0b      	ldr	r3, [pc, #44]	; (8001254 <HAL_Init+0x40>)
 8001226:	681b      	ldr	r3, [r3, #0]
 8001228:	4a0a      	ldr	r2, [pc, #40]	; (8001254 <HAL_Init+0x40>)
 800122a:	f443 6380 	orr.w	r3, r3, #1024	; 0x400
 800122e:	6013      	str	r3, [r2, #0]
#endif /* DATA_CACHE_ENABLE */

#if (PREFETCH_ENABLE != 0U)
  __HAL_FLASH_PREFETCH_BUFFER_ENABLE();
 8001230:	4b08      	ldr	r3, [pc, #32]	; (8001254 <HAL_Init+0x40>)
 8001232:	681b      	ldr	r3, [r3, #0]
 8001234:	4a07      	ldr	r2, [pc, #28]	; (8001254 <HAL_Init+0x40>)
 8001236:	f443 7380 	orr.w	r3, r3, #256	; 0x100
 800123a:	6013      	str	r3, [r2, #0]
#endif /* PREFETCH_ENABLE */

  /* Set Interrupt Group Priority */
  HAL_NVIC_SetPriorityGrouping(NVIC_PRIORITYGROUP_4);
 800123c:	2003      	movs	r0, #3
 800123e:	f000 f94f 	bl	80014e0 <HAL_NVIC_SetPriorityGrouping>

  /* Use systick as time base source and configure 1ms tick (default clock after Reset is HSI) */
  HAL_InitTick(TICK_INT_PRIORITY);
 8001242:	2000      	movs	r0, #0
 8001244:	f000 f808 	bl	8001258 <HAL_InitTick>

  /* Init the low level hardware */
  HAL_MspInit();
 8001248:	f7ff fefc 	bl	8001044 <HAL_MspInit>

  /* Return function status */
  return HAL_OK;
 800124c:	2300      	movs	r3, #0
}
 800124e:	4618      	mov	r0, r3
 8001250:	bd80      	pop	{r7, pc}
 8001252:	bf00      	nop
 8001254:	40023c00 	.word	0x40023c00

08001258 <HAL_InitTick>:
  *       implementation  in user file.
  * @param TickPriority Tick interrupt priority.
  * @retval HAL status
  */
__weak HAL_StatusTypeDef HAL_InitTick(uint32_t TickPriority)
{
 8001258:	b580      	push	{r7, lr}
 800125a:	b082      	sub	sp, #8
 800125c:	af00      	add	r7, sp, #0
 800125e:	6078      	str	r0, [r7, #4]
  /* Configure the SysTick to have interrupt in 1ms time basis*/
  if (HAL_SYSTICK_Config(SystemCoreClock / (1000U / uwTickFreq)) > 0U)
 8001260:	4b12      	ldr	r3, [pc, #72]	; (80012ac <HAL_InitTick+0x54>)
 8001262:	681a      	ldr	r2, [r3, #0]
 8001264:	4b12      	ldr	r3, [pc, #72]	; (80012b0 <HAL_InitTick+0x58>)
 8001266:	781b      	ldrb	r3, [r3, #0]
 8001268:	4619      	mov	r1, r3
 800126a:	f44f 737a 	mov.w	r3, #1000	; 0x3e8
 800126e:	fbb3 f3f1 	udiv	r3, r3, r1
 8001272:	fbb2 f3f3 	udiv	r3, r2, r3
 8001276:	4618      	mov	r0, r3
 8001278:	f000 f967 	bl	800154a <HAL_SYSTICK_Config>
 800127c:	4603      	mov	r3, r0
 800127e:	2b00      	cmp	r3, #0
 8001280:	d001      	beq.n	8001286 <HAL_InitTick+0x2e>
  {
    return HAL_ERROR;
 8001282:	2301      	movs	r3, #1
 8001284:	e00e      	b.n	80012a4 <HAL_InitTick+0x4c>
  }

  /* Configure the SysTick IRQ priority */
  if (TickPriority < (1UL << __NVIC_PRIO_BITS))
 8001286:	687b      	ldr	r3, [r7, #4]
 8001288:	2b0f      	cmp	r3, #15
 800128a:	d80a      	bhi.n	80012a2 <HAL_InitTick+0x4a>
  {
    HAL_NVIC_SetPriority(SysTick_IRQn, TickPriority, 0U);
 800128c:	2200      	movs	r2, #0
 800128e:	6879      	ldr	r1, [r7, #4]
 8001290:	f04f 30ff 	mov.w	r0, #4294967295
 8001294:	f000 f92f 	bl	80014f6 <HAL_NVIC_SetPriority>
    uwTickPrio = TickPriority;
 8001298:	4a06      	ldr	r2, [pc, #24]	; (80012b4 <HAL_InitTick+0x5c>)
 800129a:	687b      	ldr	r3, [r7, #4]
 800129c:	6013      	str	r3, [r2, #0]
  {
    return HAL_ERROR;
  }

  /* Return function status */
  return HAL_OK;
 800129e:	2300      	movs	r3, #0
 80012a0:	e000      	b.n	80012a4 <HAL_InitTick+0x4c>
    return HAL_ERROR;
 80012a2:	2301      	movs	r3, #1
}
 80012a4:	4618      	mov	r0, r3
 80012a6:	3708      	adds	r7, #8
 80012a8:	46bd      	mov	sp, r7
 80012aa:	bd80      	pop	{r7, pc}
 80012ac:	20000058 	.word	0x20000058
 80012b0:	20000060 	.word	0x20000060
 80012b4:	2000005c 	.word	0x2000005c

080012b8 <HAL_IncTick>:
 * @note This function is declared as __weak to be overwritten in case of other 
  *      implementations in user file.
  * @retval None
  */
__weak void HAL_IncTick(void)
{
 80012b8:	b480      	push	{r7}
 80012ba:	af00      	add	r7, sp, #0
  uwTick += uwTickFreq;
 80012bc:	4b06      	ldr	r3, [pc, #24]	; (80012d8 <HAL_IncTick+0x20>)
 80012be:	781b      	ldrb	r3, [r3, #0]
 80012c0:	461a      	mov	r2, r3
 80012c2:	4b06      	ldr	r3, [pc, #24]	; (80012dc <HAL_IncTick+0x24>)
 80012c4:	681b      	ldr	r3, [r3, #0]
 80012c6:	4413      	add	r3, r2
 80012c8:	4a04      	ldr	r2, [pc, #16]	; (80012dc <HAL_IncTick+0x24>)
 80012ca:	6013      	str	r3, [r2, #0]
}
 80012cc:	bf00      	nop
 80012ce:	46bd      	mov	sp, r7
 80012d0:	f85d 7b04 	ldr.w	r7, [sp], #4
 80012d4:	4770      	bx	lr
 80012d6:	bf00      	nop
 80012d8:	20000060 	.word	0x20000060
 80012dc:	2000019c 	.word	0x2000019c

080012e0 <HAL_GetTick>:
  * @note This function is declared as __weak to be overwritten in case of other 
  *       implementations in user file.
  * @retval tick value
  */
__weak uint32_t HAL_GetTick(void)
{
 80012e0:	b480      	push	{r7}
 80012e2:	af00      	add	r7, sp, #0
  return uwTick;
 80012e4:	4b03      	ldr	r3, [pc, #12]	; (80012f4 <HAL_GetTick+0x14>)
 80012e6:	681b      	ldr	r3, [r3, #0]
}
 80012e8:	4618      	mov	r0, r3
 80012ea:	46bd      	mov	sp, r7
 80012ec:	f85d 7b04 	ldr.w	r7, [sp], #4
 80012f0:	4770      	bx	lr
 80012f2:	bf00      	nop
 80012f4:	2000019c 	.word	0x2000019c

080012f8 <HAL_Delay>:
  *       implementations in user file.
  * @param Delay specifies the delay time length, in milliseconds.
  * @retval None
  */
__weak void HAL_Delay(uint32_t Delay)
{
 80012f8:	b580      	push	{r7, lr}
 80012fa:	b084      	sub	sp, #16
 80012fc:	af00      	add	r7, sp, #0
 80012fe:	6078      	str	r0, [r7, #4]
  uint32_t tickstart = HAL_GetTick();
 8001300:	f7ff ffee 	bl	80012e0 <HAL_GetTick>
 8001304:	60b8      	str	r0, [r7, #8]
  uint32_t wait = Delay;
 8001306:	687b      	ldr	r3, [r7, #4]
 8001308:	60fb      	str	r3, [r7, #12]

  /* Add a freq to guarantee minimum wait */
  if (wait < HAL_MAX_DELAY)
 800130a:	68fb      	ldr	r3, [r7, #12]
 800130c:	f1b3 3fff 	cmp.w	r3, #4294967295
 8001310:	d005      	beq.n	800131e <HAL_Delay+0x26>
  {
    wait += (uint32_t)(uwTickFreq);
 8001312:	4b0a      	ldr	r3, [pc, #40]	; (800133c <HAL_Delay+0x44>)
 8001314:	781b      	ldrb	r3, [r3, #0]
 8001316:	461a      	mov	r2, r3
 8001318:	68fb      	ldr	r3, [r7, #12]
 800131a:	4413      	add	r3, r2
 800131c:	60fb      	str	r3, [r7, #12]
  }

  while((HAL_GetTick() - tickstart) < wait)
 800131e:	bf00      	nop
 8001320:	f7ff ffde 	bl	80012e0 <HAL_GetTick>
 8001324:	4602      	mov	r2, r0
 8001326:	68bb      	ldr	r3, [r7, #8]
 8001328:	1ad3      	subs	r3, r2, r3
 800132a:	68fa      	ldr	r2, [r7, #12]
 800132c:	429a      	cmp	r2, r3
 800132e:	d8f7      	bhi.n	8001320 <HAL_Delay+0x28>
  {
  }
}
 8001330:	bf00      	nop
 8001332:	bf00      	nop
 8001334:	3710      	adds	r7, #16
 8001336:	46bd      	mov	sp, r7
 8001338:	bd80      	pop	{r7, pc}
 800133a:	bf00      	nop
 800133c:	20000060 	.word	0x20000060

08001340 <__NVIC_SetPriorityGrouping>:
           In case of a conflict between priority grouping and available
           priority bits (__NVIC_PRIO_BITS), the smallest possible priority group is set.
  \param [in]      PriorityGroup  Priority grouping field.
 */
__STATIC_INLINE void __NVIC_SetPriorityGrouping(uint32_t PriorityGroup)
{
 8001340:	b480      	push	{r7}
 8001342:	b085      	sub	sp, #20
 8001344:	af00      	add	r7, sp, #0
 8001346:	6078      	str	r0, [r7, #4]
  uint32_t reg_value;
  uint32_t PriorityGroupTmp = (PriorityGroup & (uint32_t)0x07UL);             /* only values 0..7 are used          */
 8001348:	687b      	ldr	r3, [r7, #4]
 800134a:	f003 0307 	and.w	r3, r3, #7
 800134e:	60fb      	str	r3, [r7, #12]

  reg_value  =  SCB->AIRCR;                                                   /* read old register configuration    */
 8001350:	4b0c      	ldr	r3, [pc, #48]	; (8001384 <__NVIC_SetPriorityGrouping+0x44>)
 8001352:	68db      	ldr	r3, [r3, #12]
 8001354:	60bb      	str	r3, [r7, #8]
  reg_value &= ~((uint32_t)(SCB_AIRCR_VECTKEY_Msk | SCB_AIRCR_PRIGROUP_Msk)); /* clear bits to change               */
 8001356:	68ba      	ldr	r2, [r7, #8]
 8001358:	f64f 03ff 	movw	r3, #63743	; 0xf8ff
 800135c:	4013      	ands	r3, r2
 800135e:	60bb      	str	r3, [r7, #8]
  reg_value  =  (reg_value                                   |
                ((uint32_t)0x5FAUL << SCB_AIRCR_VECTKEY_Pos) |
                (PriorityGroupTmp << SCB_AIRCR_PRIGROUP_Pos)  );              /* Insert write key and priority group */
 8001360:	68fb      	ldr	r3, [r7, #12]
 8001362:	021a      	lsls	r2, r3, #8
                ((uint32_t)0x5FAUL << SCB_AIRCR_VECTKEY_Pos) |
 8001364:	68bb      	ldr	r3, [r7, #8]
 8001366:	4313      	orrs	r3, r2
  reg_value  =  (reg_value                                   |
 8001368:	f043 63bf 	orr.w	r3, r3, #100139008	; 0x5f80000
 800136c:	f443 3300 	orr.w	r3, r3, #131072	; 0x20000
 8001370:	60bb      	str	r3, [r7, #8]
  SCB->AIRCR =  reg_value;
 8001372:	4a04      	ldr	r2, [pc, #16]	; (8001384 <__NVIC_SetPriorityGrouping+0x44>)
 8001374:	68bb      	ldr	r3, [r7, #8]
 8001376:	60d3      	str	r3, [r2, #12]
}
 8001378:	bf00      	nop
 800137a:	3714      	adds	r7, #20
 800137c:	46bd      	mov	sp, r7
 800137e:	f85d 7b04 	ldr.w	r7, [sp], #4
 8001382:	4770      	bx	lr
 8001384:	e000ed00 	.word	0xe000ed00

08001388 <__NVIC_GetPriorityGrouping>:
  \brief   Get Priority Grouping
  \details Reads the priority grouping field from the NVIC Interrupt Controller.
  \return                Priority grouping field (SCB->AIRCR [10:8] PRIGROUP field).
 */
__STATIC_INLINE uint32_t __NVIC_GetPriorityGrouping(void)
{
 8001388:	b480      	push	{r7}
 800138a:	af00      	add	r7, sp, #0
  return ((uint32_t)((SCB->AIRCR & SCB_AIRCR_PRIGROUP_Msk) >> SCB_AIRCR_PRIGROUP_Pos));
 800138c:	4b04      	ldr	r3, [pc, #16]	; (80013a0 <__NVIC_GetPriorityGrouping+0x18>)
 800138e:	68db      	ldr	r3, [r3, #12]
 8001390:	0a1b      	lsrs	r3, r3, #8
 8001392:	f003 0307 	and.w	r3, r3, #7
}
 8001396:	4618      	mov	r0, r3
 8001398:	46bd      	mov	sp, r7
 800139a:	f85d 7b04 	ldr.w	r7, [sp], #4
 800139e:	4770      	bx	lr
 80013a0:	e000ed00 	.word	0xe000ed00

080013a4 <__NVIC_EnableIRQ>:
  \details Enables a device specific interrupt in the NVIC interrupt controller.
  \param [in]      IRQn  Device specific interrupt number.
  \note    IRQn must not be negative.
 */
__STATIC_INLINE void __NVIC_EnableIRQ(IRQn_Type IRQn)
{
 80013a4:	b480      	push	{r7}
 80013a6:	b083      	sub	sp, #12
 80013a8:	af00      	add	r7, sp, #0
 80013aa:	4603      	mov	r3, r0
 80013ac:	71fb      	strb	r3, [r7, #7]
  if ((int32_t)(IRQn) >= 0)
 80013ae:	f997 3007 	ldrsb.w	r3, [r7, #7]
 80013b2:	2b00      	cmp	r3, #0
 80013b4:	db0b      	blt.n	80013ce <__NVIC_EnableIRQ+0x2a>
  {
    NVIC->ISER[(((uint32_t)IRQn) >> 5UL)] = (uint32_t)(1UL << (((uint32_t)IRQn) & 0x1FUL));
 80013b6:	79fb      	ldrb	r3, [r7, #7]
 80013b8:	f003 021f 	and.w	r2, r3, #31
 80013bc:	4907      	ldr	r1, [pc, #28]	; (80013dc <__NVIC_EnableIRQ+0x38>)
 80013be:	f997 3007 	ldrsb.w	r3, [r7, #7]
 80013c2:	095b      	lsrs	r3, r3, #5
 80013c4:	2001      	movs	r0, #1
 80013c6:	fa00 f202 	lsl.w	r2, r0, r2
 80013ca:	f841 2023 	str.w	r2, [r1, r3, lsl #2]
  }
}
 80013ce:	bf00      	nop
 80013d0:	370c      	adds	r7, #12
 80013d2:	46bd      	mov	sp, r7
 80013d4:	f85d 7b04 	ldr.w	r7, [sp], #4
 80013d8:	4770      	bx	lr
 80013da:	bf00      	nop
 80013dc:	e000e100 	.word	0xe000e100

080013e0 <__NVIC_SetPriority>:
  \param [in]      IRQn  Interrupt number.
  \param [in]  priority  Priority to set.
  \note    The priority cannot be set for every processor exception.
 */
__STATIC_INLINE void __NVIC_SetPriority(IRQn_Type IRQn, uint32_t priority)
{
 80013e0:	b480      	push	{r7}
 80013e2:	b083      	sub	sp, #12
 80013e4:	af00      	add	r7, sp, #0
 80013e6:	4603      	mov	r3, r0
 80013e8:	6039      	str	r1, [r7, #0]
 80013ea:	71fb      	strb	r3, [r7, #7]
  if ((int32_t)(IRQn) >= 0)
 80013ec:	f997 3007 	ldrsb.w	r3, [r7, #7]
 80013f0:	2b00      	cmp	r3, #0
 80013f2:	db0a      	blt.n	800140a <__NVIC_SetPriority+0x2a>
  {
    NVIC->IP[((uint32_t)IRQn)]               = (uint8_t)((priority << (8U - __NVIC_PRIO_BITS)) & (uint32_t)0xFFUL);
 80013f4:	683b      	ldr	r3, [r7, #0]
 80013f6:	b2da      	uxtb	r2, r3
 80013f8:	490c      	ldr	r1, [pc, #48]	; (800142c <__NVIC_SetPriority+0x4c>)
 80013fa:	f997 3007 	ldrsb.w	r3, [r7, #7]
 80013fe:	0112      	lsls	r2, r2, #4
 8001400:	b2d2      	uxtb	r2, r2
 8001402:	440b      	add	r3, r1
 8001404:	f883 2300 	strb.w	r2, [r3, #768]	; 0x300
  }
  else
  {
    SCB->SHP[(((uint32_t)IRQn) & 0xFUL)-4UL] = (uint8_t)((priority << (8U - __NVIC_PRIO_BITS)) & (uint32_t)0xFFUL);
  }
}
 8001408:	e00a      	b.n	8001420 <__NVIC_SetPriority+0x40>
    SCB->SHP[(((uint32_t)IRQn) & 0xFUL)-4UL] = (uint8_t)((priority << (8U - __NVIC_PRIO_BITS)) & (uint32_t)0xFFUL);
 800140a:	683b      	ldr	r3, [r7, #0]
 800140c:	b2da      	uxtb	r2, r3
 800140e:	4908      	ldr	r1, [pc, #32]	; (8001430 <__NVIC_SetPriority+0x50>)
 8001410:	79fb      	ldrb	r3, [r7, #7]
 8001412:	f003 030f 	and.w	r3, r3, #15
 8001416:	3b04      	subs	r3, #4
 8001418:	0112      	lsls	r2, r2, #4
 800141a:	b2d2      	uxtb	r2, r2
 800141c:	440b      	add	r3, r1
 800141e:	761a      	strb	r2, [r3, #24]
}
 8001420:	bf00      	nop
 8001422:	370c      	adds	r7, #12
 8001424:	46bd      	mov	sp, r7
 8001426:	f85d 7b04 	ldr.w	r7, [sp], #4
 800142a:	4770      	bx	lr
 800142c:	e000e100 	.word	0xe000e100
 8001430:	e000ed00 	.word	0xe000ed00

08001434 <NVIC_EncodePriority>:
  \param [in]   PreemptPriority  Preemptive priority value (starting from 0).
  \param [in]       SubPriority  Subpriority value (starting from 0).
  \return                        Encoded priority. Value can be used in the function \ref NVIC_SetPriority().
 */
__STATIC_INLINE uint32_t NVIC_EncodePriority (uint32_t PriorityGroup, uint32_t PreemptPriority, uint32_t SubPriority)
{
 8001434:	b480      	push	{r7}
 8001436:	b089      	sub	sp, #36	; 0x24
 8001438:	af00      	add	r7, sp, #0
 800143a:	60f8      	str	r0, [r7, #12]
 800143c:	60b9      	str	r1, [r7, #8]
 800143e:	607a      	str	r2, [r7, #4]
  uint32_t PriorityGroupTmp = (PriorityGroup & (uint32_t)0x07UL);   /* only values 0..7 are used          */
 8001440:	68fb      	ldr	r3, [r7, #12]
 8001442:	f003 0307 	and.w	r3, r3, #7
 8001446:	61fb      	str	r3, [r7, #28]
  uint32_t PreemptPriorityBits;
  uint32_t SubPriorityBits;

  PreemptPriorityBits = ((7UL - PriorityGroupTmp) > (uint32_t)(__NVIC_PRIO_BITS)) ? (uint32_t)(__NVIC_PRIO_BITS) : (uint32_t)(7UL - PriorityGroupTmp);
 8001448:	69fb      	ldr	r3, [r7, #28]
 800144a:	f1c3 0307 	rsb	r3, r3, #7
 800144e:	2b04      	cmp	r3, #4
 8001450:	bf28      	it	cs
 8001452:	2304      	movcs	r3, #4
 8001454:	61bb      	str	r3, [r7, #24]
  SubPriorityBits     = ((PriorityGroupTmp + (uint32_t)(__NVIC_PRIO_BITS)) < (uint32_t)7UL) ? (uint32_t)0UL : (uint32_t)((PriorityGroupTmp - 7UL) + (uint32_t)(__NVIC_PRIO_BITS));
 8001456:	69fb      	ldr	r3, [r7, #28]
 8001458:	3304      	adds	r3, #4
 800145a:	2b06      	cmp	r3, #6
 800145c:	d902      	bls.n	8001464 <NVIC_EncodePriority+0x30>
 800145e:	69fb      	ldr	r3, [r7, #28]
 8001460:	3b03      	subs	r3, #3
 8001462:	e000      	b.n	8001466 <NVIC_EncodePriority+0x32>
 8001464:	2300      	movs	r3, #0
 8001466:	617b      	str	r3, [r7, #20]

  return (
           ((PreemptPriority & (uint32_t)((1UL << (PreemptPriorityBits)) - 1UL)) << SubPriorityBits) |
 8001468:	f04f 32ff 	mov.w	r2, #4294967295
 800146c:	69bb      	ldr	r3, [r7, #24]
 800146e:	fa02 f303 	lsl.w	r3, r2, r3
 8001472:	43da      	mvns	r2, r3
 8001474:	68bb      	ldr	r3, [r7, #8]
 8001476:	401a      	ands	r2, r3
 8001478:	697b      	ldr	r3, [r7, #20]
 800147a:	409a      	lsls	r2, r3
           ((SubPriority     & (uint32_t)((1UL << (SubPriorityBits    )) - 1UL)))
 800147c:	f04f 31ff 	mov.w	r1, #4294967295
 8001480:	697b      	ldr	r3, [r7, #20]
 8001482:	fa01 f303 	lsl.w	r3, r1, r3
 8001486:	43d9      	mvns	r1, r3
 8001488:	687b      	ldr	r3, [r7, #4]
 800148a:	400b      	ands	r3, r1
           ((PreemptPriority & (uint32_t)((1UL << (PreemptPriorityBits)) - 1UL)) << SubPriorityBits) |
 800148c:	4313      	orrs	r3, r2
         );
}
 800148e:	4618      	mov	r0, r3
 8001490:	3724      	adds	r7, #36	; 0x24
 8001492:	46bd      	mov	sp, r7
 8001494:	f85d 7b04 	ldr.w	r7, [sp], #4
 8001498:	4770      	bx	lr
	...

0800149c <SysTick_Config>:
  \note    When the variable <b>__Vendor_SysTickConfig</b> is set to 1, then the
           function <b>SysTick_Config</b> is not included. In this case, the file <b><i>device</i>.h</b>
           must contain a vendor-specific implementation of this function.
 */
__STATIC_INLINE uint32_t SysTick_Config(uint32_t ticks)
{
 800149c:	b580      	push	{r7, lr}
 800149e:	b082      	sub	sp, #8
 80014a0:	af00      	add	r7, sp, #0
 80014a2:	6078      	str	r0, [r7, #4]
  if ((ticks - 1UL) > SysTick_LOAD_RELOAD_Msk)
 80014a4:	687b      	ldr	r3, [r7, #4]
 80014a6:	3b01      	subs	r3, #1
 80014a8:	f1b3 7f80 	cmp.w	r3, #16777216	; 0x1000000
 80014ac:	d301      	bcc.n	80014b2 <SysTick_Config+0x16>
  {
    return (1UL);                                                   /* Reload value impossible */
 80014ae:	2301      	movs	r3, #1
 80014b0:	e00f      	b.n	80014d2 <SysTick_Config+0x36>
  }

  SysTick->LOAD  = (uint32_t)(ticks - 1UL);                         /* set reload register */
 80014b2:	4a0a      	ldr	r2, [pc, #40]	; (80014dc <SysTick_Config+0x40>)
 80014b4:	687b      	ldr	r3, [r7, #4]
 80014b6:	3b01      	subs	r3, #1
 80014b8:	6053      	str	r3, [r2, #4]
  NVIC_SetPriority (SysTick_IRQn, (1UL << __NVIC_PRIO_BITS) - 1UL); /* set Priority for Systick Interrupt */
 80014ba:	210f      	movs	r1, #15
 80014bc:	f04f 30ff 	mov.w	r0, #4294967295
 80014c0:	f7ff ff8e 	bl	80013e0 <__NVIC_SetPriority>
  SysTick->VAL   = 0UL;                                             /* Load the SysTick Counter Value */
 80014c4:	4b05      	ldr	r3, [pc, #20]	; (80014dc <SysTick_Config+0x40>)
 80014c6:	2200      	movs	r2, #0
 80014c8:	609a      	str	r2, [r3, #8]
  SysTick->CTRL  = SysTick_CTRL_CLKSOURCE_Msk |
 80014ca:	4b04      	ldr	r3, [pc, #16]	; (80014dc <SysTick_Config+0x40>)
 80014cc:	2207      	movs	r2, #7
 80014ce:	601a      	str	r2, [r3, #0]
                   SysTick_CTRL_TICKINT_Msk   |
                   SysTick_CTRL_ENABLE_Msk;                         /* Enable SysTick IRQ and SysTick Timer */
  return (0UL);                                                     /* Function successful */
 80014d0:	2300      	movs	r3, #0
}
 80014d2:	4618      	mov	r0, r3
 80014d4:	3708      	adds	r7, #8
 80014d6:	46bd      	mov	sp, r7
 80014d8:	bd80      	pop	{r7, pc}
 80014da:	bf00      	nop
 80014dc:	e000e010 	.word	0xe000e010

080014e0 <HAL_NVIC_SetPriorityGrouping>:
  * @note   When the NVIC_PriorityGroup_0 is selected, IRQ preemption is no more possible. 
  *         The pending IRQ priority will be managed only by the subpriority. 
  * @retval None
  */
void HAL_NVIC_SetPriorityGrouping(uint32_t PriorityGroup)
{
 80014e0:	b580      	push	{r7, lr}
 80014e2:	b082      	sub	sp, #8
 80014e4:	af00      	add	r7, sp, #0
 80014e6:	6078      	str	r0, [r7, #4]
  /* Check the parameters */
  assert_param(IS_NVIC_PRIORITY_GROUP(PriorityGroup));
  
  /* Set the PRIGROUP[10:8] bits according to the PriorityGroup parameter value */
  NVIC_SetPriorityGrouping(PriorityGroup);
 80014e8:	6878      	ldr	r0, [r7, #4]
 80014ea:	f7ff ff29 	bl	8001340 <__NVIC_SetPriorityGrouping>
}
 80014ee:	bf00      	nop
 80014f0:	3708      	adds	r7, #8
 80014f2:	46bd      	mov	sp, r7
 80014f4:	bd80      	pop	{r7, pc}

080014f6 <HAL_NVIC_SetPriority>:
  *         This parameter can be a value between 0 and 15
  *         A lower priority value indicates a higher priority.          
  * @retval None
  */
void HAL_NVIC_SetPriority(IRQn_Type IRQn, uint32_t PreemptPriority, uint32_t SubPriority)
{ 
 80014f6:	b580      	push	{r7, lr}
 80014f8:	b086      	sub	sp, #24
 80014fa:	af00      	add	r7, sp, #0
 80014fc:	4603      	mov	r3, r0
 80014fe:	60b9      	str	r1, [r7, #8]
 8001500:	607a      	str	r2, [r7, #4]
 8001502:	73fb      	strb	r3, [r7, #15]
  uint32_t prioritygroup = 0x00U;
 8001504:	2300      	movs	r3, #0
 8001506:	617b      	str	r3, [r7, #20]
  
  /* Check the parameters */
  assert_param(IS_NVIC_SUB_PRIORITY(SubPriority));
  assert_param(IS_NVIC_PREEMPTION_PRIORITY(PreemptPriority));
  
  prioritygroup = NVIC_GetPriorityGrouping();
 8001508:	f7ff ff3e 	bl	8001388 <__NVIC_GetPriorityGrouping>
 800150c:	6178      	str	r0, [r7, #20]
  
  NVIC_SetPriority(IRQn, NVIC_EncodePriority(prioritygroup, PreemptPriority, SubPriority));
 800150e:	687a      	ldr	r2, [r7, #4]
 8001510:	68b9      	ldr	r1, [r7, #8]
 8001512:	6978      	ldr	r0, [r7, #20]
 8001514:	f7ff ff8e 	bl	8001434 <NVIC_EncodePriority>
 8001518:	4602      	mov	r2, r0
 800151a:	f997 300f 	ldrsb.w	r3, [r7, #15]
 800151e:	4611      	mov	r1, r2
 8001520:	4618      	mov	r0, r3
 8001522:	f7ff ff5d 	bl	80013e0 <__NVIC_SetPriority>
}
 8001526:	bf00      	nop
 8001528:	3718      	adds	r7, #24
 800152a:	46bd      	mov	sp, r7
 800152c:	bd80      	pop	{r7, pc}

0800152e <HAL_NVIC_EnableIRQ>:
  *         This parameter can be an enumerator of IRQn_Type enumeration
  *         (For the complete STM32 Devices IRQ Channels list, please refer to the appropriate CMSIS device file (stm32f4xxxx.h))
  * @retval None
  */
void HAL_NVIC_EnableIRQ(IRQn_Type IRQn)
{
 800152e:	b580      	push	{r7, lr}
 8001530:	b082      	sub	sp, #8
 8001532:	af00      	add	r7, sp, #0
 8001534:	4603      	mov	r3, r0
 8001536:	71fb      	strb	r3, [r7, #7]
  /* Check the parameters */
  assert_param(IS_NVIC_DEVICE_IRQ(IRQn));
  
  /* Enable interrupt */
  NVIC_EnableIRQ(IRQn);
 8001538:	f997 3007 	ldrsb.w	r3, [r7, #7]
 800153c:	4618      	mov	r0, r3
 800153e:	f7ff ff31 	bl	80013a4 <__NVIC_EnableIRQ>
}
 8001542:	bf00      	nop
 8001544:	3708      	adds	r7, #8
 8001546:	46bd      	mov	sp, r7
 8001548:	bd80      	pop	{r7, pc}

0800154a <HAL_SYSTICK_Config>:
  * @param  TicksNumb Specifies the ticks Number of ticks between two interrupts.
  * @retval status:  - 0  Function succeeded.
  *                  - 1  Function failed.
  */
uint32_t HAL_SYSTICK_Config(uint32_t TicksNumb)
{
 800154a:	b580      	push	{r7, lr}
 800154c:	b082      	sub	sp, #8
 800154e:	af00      	add	r7, sp, #0
 8001550:	6078      	str	r0, [r7, #4]
   return SysTick_Config(TicksNumb);
 8001552:	6878      	ldr	r0, [r7, #4]
 8001554:	f7ff ffa2 	bl	800149c <SysTick_Config>
 8001558:	4603      	mov	r3, r0
}
 800155a:	4618      	mov	r0, r3
 800155c:	3708      	adds	r7, #8
 800155e:	46bd      	mov	sp, r7
 8001560:	bd80      	pop	{r7, pc}

08001562 <HAL_DMA_Abort>:
  *        and the Stream will be effectively disabled only after the transfer of
  *        this single data is finished.  
  * @retval HAL status
  */
HAL_StatusTypeDef HAL_DMA_Abort(DMA_HandleTypeDef *hdma)
{
 8001562:	b580      	push	{r7, lr}
 8001564:	b084      	sub	sp, #16
 8001566:	af00      	add	r7, sp, #0
 8001568:	6078      	str	r0, [r7, #4]
  /* calculate DMA base and stream number */
  DMA_Base_Registers *regs = (DMA_Base_Registers *)hdma->StreamBaseAddress;
 800156a:	687b      	ldr	r3, [r7, #4]
 800156c:	6d9b      	ldr	r3, [r3, #88]	; 0x58
 800156e:	60fb      	str	r3, [r7, #12]
  
  uint32_t tickstart = HAL_GetTick();
 8001570:	f7ff feb6 	bl	80012e0 <HAL_GetTick>
 8001574:	60b8      	str	r0, [r7, #8]
  
  if(hdma->State != HAL_DMA_STATE_BUSY)
 8001576:	687b      	ldr	r3, [r7, #4]
 8001578:	f893 3035 	ldrb.w	r3, [r3, #53]	; 0x35
 800157c:	b2db      	uxtb	r3, r3
 800157e:	2b02      	cmp	r3, #2
 8001580:	d008      	beq.n	8001594 <HAL_DMA_Abort+0x32>
  {
    hdma->ErrorCode = HAL_DMA_ERROR_NO_XFER;
 8001582:	687b      	ldr	r3, [r7, #4]
 8001584:	2280      	movs	r2, #128	; 0x80
 8001586:	655a      	str	r2, [r3, #84]	; 0x54
    
    /* Process Unlocked */
    __HAL_UNLOCK(hdma);
 8001588:	687b      	ldr	r3, [r7, #4]
 800158a:	2200      	movs	r2, #0
 800158c:	f883 2034 	strb.w	r2, [r3, #52]	; 0x34
    
    return HAL_ERROR;
 8001590:	2301      	movs	r3, #1
 8001592:	e052      	b.n	800163a <HAL_DMA_Abort+0xd8>
  }
  else
  {
    /* Disable all the transfer interrupts */
    hdma->Instance->CR  &= ~(DMA_IT_TC | DMA_IT_TE | DMA_IT_DME);
 8001594:	687b      	ldr	r3, [r7, #4]
 8001596:	681b      	ldr	r3, [r3, #0]
 8001598:	681a      	ldr	r2, [r3, #0]
 800159a:	687b      	ldr	r3, [r7, #4]
 800159c:	681b      	ldr	r3, [r3, #0]
 800159e:	f022 0216 	bic.w	r2, r2, #22
 80015a2:	601a      	str	r2, [r3, #0]
    hdma->Instance->FCR &= ~(DMA_IT_FE);
 80015a4:	687b      	ldr	r3, [r7, #4]
 80015a6:	681b      	ldr	r3, [r3, #0]
 80015a8:	695a      	ldr	r2, [r3, #20]
 80015aa:	687b      	ldr	r3, [r7, #4]
 80015ac:	681b      	ldr	r3, [r3, #0]
 80015ae:	f022 0280 	bic.w	r2, r2, #128	; 0x80
 80015b2:	615a      	str	r2, [r3, #20]
    
    if((hdma->XferHalfCpltCallback != NULL) || (hdma->XferM1HalfCpltCallback != NULL))
 80015b4:	687b      	ldr	r3, [r7, #4]
 80015b6:	6c1b      	ldr	r3, [r3, #64]	; 0x40
 80015b8:	2b00      	cmp	r3, #0
 80015ba:	d103      	bne.n	80015c4 <HAL_DMA_Abort+0x62>
 80015bc:	687b      	ldr	r3, [r7, #4]
 80015be:	6c9b      	ldr	r3, [r3, #72]	; 0x48
 80015c0:	2b00      	cmp	r3, #0
 80015c2:	d007      	beq.n	80015d4 <HAL_DMA_Abort+0x72>
    {
      hdma->Instance->CR  &= ~(DMA_IT_HT);
 80015c4:	687b      	ldr	r3, [r7, #4]
 80015c6:	681b      	ldr	r3, [r3, #0]
 80015c8:	681a      	ldr	r2, [r3, #0]
 80015ca:	687b      	ldr	r3, [r7, #4]
 80015cc:	681b      	ldr	r3, [r3, #0]
 80015ce:	f022 0208 	bic.w	r2, r2, #8
 80015d2:	601a      	str	r2, [r3, #0]
    }
    
    /* Disable the stream */
    __HAL_DMA_DISABLE(hdma);
 80015d4:	687b      	ldr	r3, [r7, #4]
 80015d6:	681b      	ldr	r3, [r3, #0]
 80015d8:	681a      	ldr	r2, [r3, #0]
 80015da:	687b      	ldr	r3, [r7, #4]
 80015dc:	681b      	ldr	r3, [r3, #0]
 80015de:	f022 0201 	bic.w	r2, r2, #1
 80015e2:	601a      	str	r2, [r3, #0]
    
    /* Check if the DMA Stream is effectively disabled */
    while((hdma->Instance->CR & DMA_SxCR_EN) != RESET)
 80015e4:	e013      	b.n	800160e <HAL_DMA_Abort+0xac>
    {
      /* Check for the Timeout */
      if((HAL_GetTick() - tickstart ) > HAL_TIMEOUT_DMA_ABORT)
 80015e6:	f7ff fe7b 	bl	80012e0 <HAL_GetTick>
 80015ea:	4602      	mov	r2, r0
 80015ec:	68bb      	ldr	r3, [r7, #8]
 80015ee:	1ad3      	subs	r3, r2, r3
 80015f0:	2b05      	cmp	r3, #5
 80015f2:	d90c      	bls.n	800160e <HAL_DMA_Abort+0xac>
      {
        /* Update error code */
        hdma->ErrorCode = HAL_DMA_ERROR_TIMEOUT;
 80015f4:	687b      	ldr	r3, [r7, #4]
 80015f6:	2220      	movs	r2, #32
 80015f8:	655a      	str	r2, [r3, #84]	; 0x54
        
        /* Change the DMA state */
        hdma->State = HAL_DMA_STATE_TIMEOUT;
 80015fa:	687b      	ldr	r3, [r7, #4]
 80015fc:	2203      	movs	r2, #3
 80015fe:	f883 2035 	strb.w	r2, [r3, #53]	; 0x35
        
        /* Process Unlocked */
        __HAL_UNLOCK(hdma);
 8001602:	687b      	ldr	r3, [r7, #4]
 8001604:	2200      	movs	r2, #0
 8001606:	f883 2034 	strb.w	r2, [r3, #52]	; 0x34
        
        return HAL_TIMEOUT;
 800160a:	2303      	movs	r3, #3
 800160c:	e015      	b.n	800163a <HAL_DMA_Abort+0xd8>
    while((hdma->Instance->CR & DMA_SxCR_EN) != RESET)
 800160e:	687b      	ldr	r3, [r7, #4]
 8001610:	681b      	ldr	r3, [r3, #0]
 8001612:	681b      	ldr	r3, [r3, #0]
 8001614:	f003 0301 	and.w	r3, r3, #1
 8001618:	2b00      	cmp	r3, #0
 800161a:	d1e4      	bne.n	80015e6 <HAL_DMA_Abort+0x84>
      }
    }
    
    /* Clear all interrupt flags at correct offset within the register */
    regs->IFCR = 0x3FU << hdma->StreamIndex;
 800161c:	687b      	ldr	r3, [r7, #4]
 800161e:	6ddb      	ldr	r3, [r3, #92]	; 0x5c
 8001620:	223f      	movs	r2, #63	; 0x3f
 8001622:	409a      	lsls	r2, r3
 8001624:	68fb      	ldr	r3, [r7, #12]
 8001626:	609a      	str	r2, [r3, #8]
    
    /* Change the DMA state*/
    hdma->State = HAL_DMA_STATE_READY;
 8001628:	687b      	ldr	r3, [r7, #4]
 800162a:	2201      	movs	r2, #1
 800162c:	f883 2035 	strb.w	r2, [r3, #53]	; 0x35
    
    /* Process Unlocked */
    __HAL_UNLOCK(hdma);
 8001630:	687b      	ldr	r3, [r7, #4]
 8001632:	2200      	movs	r2, #0
 8001634:	f883 2034 	strb.w	r2, [r3, #52]	; 0x34
  }
  return HAL_OK;
 8001638:	2300      	movs	r3, #0
}
 800163a:	4618      	mov	r0, r3
 800163c:	3710      	adds	r7, #16
 800163e:	46bd      	mov	sp, r7
 8001640:	bd80      	pop	{r7, pc}

08001642 <HAL_DMA_Abort_IT>:
  * @param  hdma   pointer to a DMA_HandleTypeDef structure that contains
  *                 the configuration information for the specified DMA Stream.
  * @retval HAL status
  */
HAL_StatusTypeDef HAL_DMA_Abort_IT(DMA_HandleTypeDef *hdma)
{
 8001642:	b480      	push	{r7}
 8001644:	b083      	sub	sp, #12
 8001646:	af00      	add	r7, sp, #0
 8001648:	6078      	str	r0, [r7, #4]
  if(hdma->State != HAL_DMA_STATE_BUSY)
 800164a:	687b      	ldr	r3, [r7, #4]
 800164c:	f893 3035 	ldrb.w	r3, [r3, #53]	; 0x35
 8001650:	b2db      	uxtb	r3, r3
 8001652:	2b02      	cmp	r3, #2
 8001654:	d004      	beq.n	8001660 <HAL_DMA_Abort_IT+0x1e>
  {
    hdma->ErrorCode = HAL_DMA_ERROR_NO_XFER;
 8001656:	687b      	ldr	r3, [r7, #4]
 8001658:	2280      	movs	r2, #128	; 0x80
 800165a:	655a      	str	r2, [r3, #84]	; 0x54
    return HAL_ERROR;
 800165c:	2301      	movs	r3, #1
 800165e:	e00c      	b.n	800167a <HAL_DMA_Abort_IT+0x38>
  }
  else
  {
    /* Set Abort State  */
    hdma->State = HAL_DMA_STATE_ABORT;
 8001660:	687b      	ldr	r3, [r7, #4]
 8001662:	2205      	movs	r2, #5
 8001664:	f883 2035 	strb.w	r2, [r3, #53]	; 0x35
    
    /* Disable the stream */
    __HAL_DMA_DISABLE(hdma);
 8001668:	687b      	ldr	r3, [r7, #4]
 800166a:	681b      	ldr	r3, [r3, #0]
 800166c:	681a      	ldr	r2, [r3, #0]
 800166e:	687b      	ldr	r3, [r7, #4]
 8001670:	681b      	ldr	r3, [r3, #0]
 8001672:	f022 0201 	bic.w	r2, r2, #1
 8001676:	601a      	str	r2, [r3, #0]
  }

  return HAL_OK;
 8001678:	2300      	movs	r3, #0
}
 800167a:	4618      	mov	r0, r3
 800167c:	370c      	adds	r7, #12
 800167e:	46bd      	mov	sp, r7
 8001680:	f85d 7b04 	ldr.w	r7, [sp], #4
 8001684:	4770      	bx	lr
	...

08001688 <HAL_GPIO_Init>:
  * @param  GPIO_Init pointer to a GPIO_InitTypeDef structure that contains
  *         the configuration information for the specified GPIO peripheral.
  * @retval None
  */
void HAL_GPIO_Init(GPIO_TypeDef  *GPIOx, GPIO_InitTypeDef *GPIO_Init)
{
 8001688:	b480      	push	{r7}
 800168a:	b089      	sub	sp, #36	; 0x24
 800168c:	af00      	add	r7, sp, #0
 800168e:	6078      	str	r0, [r7, #4]
 8001690:	6039      	str	r1, [r7, #0]
  uint32_t position;
  uint32_t ioposition = 0x00U;
 8001692:	2300      	movs	r3, #0
 8001694:	617b      	str	r3, [r7, #20]
  uint32_t iocurrent = 0x00U;
 8001696:	2300      	movs	r3, #0
 8001698:	613b      	str	r3, [r7, #16]
  uint32_t temp = 0x00U;
 800169a:	2300      	movs	r3, #0
 800169c:	61bb      	str	r3, [r7, #24]
  assert_param(IS_GPIO_ALL_INSTANCE(GPIOx));
  assert_param(IS_GPIO_PIN(GPIO_Init->Pin));
  assert_param(IS_GPIO_MODE(GPIO_Init->Mode));

  /* Configure the port pins */
  for(position = 0U; position < GPIO_NUMBER; position++)
 800169e:	2300      	movs	r3, #0
 80016a0:	61fb      	str	r3, [r7, #28]
 80016a2:	e159      	b.n	8001958 <HAL_GPIO_Init+0x2d0>
  {
    /* Get the IO position */
    ioposition = 0x01U << position;
 80016a4:	2201      	movs	r2, #1
 80016a6:	69fb      	ldr	r3, [r7, #28]
 80016a8:	fa02 f303 	lsl.w	r3, r2, r3
 80016ac:	617b      	str	r3, [r7, #20]
    /* Get the current IO position */
    iocurrent = (uint32_t)(GPIO_Init->Pin) & ioposition;
 80016ae:	683b      	ldr	r3, [r7, #0]
 80016b0:	681b      	ldr	r3, [r3, #0]
 80016b2:	697a      	ldr	r2, [r7, #20]
 80016b4:	4013      	ands	r3, r2
 80016b6:	613b      	str	r3, [r7, #16]

    if(iocurrent == ioposition)
 80016b8:	693a      	ldr	r2, [r7, #16]
 80016ba:	697b      	ldr	r3, [r7, #20]
 80016bc:	429a      	cmp	r2, r3
 80016be:	f040 8148 	bne.w	8001952 <HAL_GPIO_Init+0x2ca>
    {
      /*--------------------- GPIO Mode Configuration ------------------------*/
      /* In case of Output or Alternate function mode selection */
      if(((GPIO_Init->Mode & GPIO_MODE) == MODE_OUTPUT) || \
 80016c2:	683b      	ldr	r3, [r7, #0]
 80016c4:	685b      	ldr	r3, [r3, #4]
 80016c6:	f003 0303 	and.w	r3, r3, #3
 80016ca:	2b01      	cmp	r3, #1
 80016cc:	d005      	beq.n	80016da <HAL_GPIO_Init+0x52>
          (GPIO_Init->Mode & GPIO_MODE) == MODE_AF)
 80016ce:	683b      	ldr	r3, [r7, #0]
 80016d0:	685b      	ldr	r3, [r3, #4]
 80016d2:	f003 0303 	and.w	r3, r3, #3
      if(((GPIO_Init->Mode & GPIO_MODE) == MODE_OUTPUT) || \
 80016d6:	2b02      	cmp	r3, #2
 80016d8:	d130      	bne.n	800173c <HAL_GPIO_Init+0xb4>
      {
        /* Check the Speed parameter */
        assert_param(IS_GPIO_SPEED(GPIO_Init->Speed));
        /* Configure the IO Speed */
        temp = GPIOx->OSPEEDR; 
 80016da:	687b      	ldr	r3, [r7, #4]
 80016dc:	689b      	ldr	r3, [r3, #8]
 80016de:	61bb      	str	r3, [r7, #24]
        temp &= ~(GPIO_OSPEEDER_OSPEEDR0 << (position * 2U));
 80016e0:	69fb      	ldr	r3, [r7, #28]
 80016e2:	005b      	lsls	r3, r3, #1
 80016e4:	2203      	movs	r2, #3
 80016e6:	fa02 f303 	lsl.w	r3, r2, r3
 80016ea:	43db      	mvns	r3, r3
 80016ec:	69ba      	ldr	r2, [r7, #24]
 80016ee:	4013      	ands	r3, r2
 80016f0:	61bb      	str	r3, [r7, #24]
        temp |= (GPIO_Init->Speed << (position * 2U));
 80016f2:	683b      	ldr	r3, [r7, #0]
 80016f4:	68da      	ldr	r2, [r3, #12]
 80016f6:	69fb      	ldr	r3, [r7, #28]
 80016f8:	005b      	lsls	r3, r3, #1
 80016fa:	fa02 f303 	lsl.w	r3, r2, r3
 80016fe:	69ba      	ldr	r2, [r7, #24]
 8001700:	4313      	orrs	r3, r2
 8001702:	61bb      	str	r3, [r7, #24]
        GPIOx->OSPEEDR = temp;
 8001704:	687b      	ldr	r3, [r7, #4]
 8001706:	69ba      	ldr	r2, [r7, #24]
 8001708:	609a      	str	r2, [r3, #8]

        /* Configure the IO Output Type */
        temp = GPIOx->OTYPER;
 800170a:	687b      	ldr	r3, [r7, #4]
 800170c:	685b      	ldr	r3, [r3, #4]
 800170e:	61bb      	str	r3, [r7, #24]
        temp &= ~(GPIO_OTYPER_OT_0 << position) ;
 8001710:	2201      	movs	r2, #1
 8001712:	69fb      	ldr	r3, [r7, #28]
 8001714:	fa02 f303 	lsl.w	r3, r2, r3
 8001718:	43db      	mvns	r3, r3
 800171a:	69ba      	ldr	r2, [r7, #24]
 800171c:	4013      	ands	r3, r2
 800171e:	61bb      	str	r3, [r7, #24]
        temp |= (((GPIO_Init->Mode & OUTPUT_TYPE) >> OUTPUT_TYPE_Pos) << position);
 8001720:	683b      	ldr	r3, [r7, #0]
 8001722:	685b      	ldr	r3, [r3, #4]
 8001724:	091b      	lsrs	r3, r3, #4
 8001726:	f003 0201 	and.w	r2, r3, #1
 800172a:	69fb      	ldr	r3, [r7, #28]
 800172c:	fa02 f303 	lsl.w	r3, r2, r3
 8001730:	69ba      	ldr	r2, [r7, #24]
 8001732:	4313      	orrs	r3, r2
 8001734:	61bb      	str	r3, [r7, #24]
        GPIOx->OTYPER = temp;
 8001736:	687b      	ldr	r3, [r7, #4]
 8001738:	69ba      	ldr	r2, [r7, #24]
 800173a:	605a      	str	r2, [r3, #4]
       }

      if((GPIO_Init->Mode & GPIO_MODE) != MODE_ANALOG)
 800173c:	683b      	ldr	r3, [r7, #0]
 800173e:	685b      	ldr	r3, [r3, #4]
 8001740:	f003 0303 	and.w	r3, r3, #3
 8001744:	2b03      	cmp	r3, #3
 8001746:	d017      	beq.n	8001778 <HAL_GPIO_Init+0xf0>
      {
        /* Check the parameters */
        assert_param(IS_GPIO_PULL(GPIO_Init->Pull));
        
        /* Activate the Pull-up or Pull down resistor for the current IO */
        temp = GPIOx->PUPDR;
 8001748:	687b      	ldr	r3, [r7, #4]
 800174a:	68db      	ldr	r3, [r3, #12]
 800174c:	61bb      	str	r3, [r7, #24]
        temp &= ~(GPIO_PUPDR_PUPDR0 << (position * 2U));
 800174e:	69fb      	ldr	r3, [r7, #28]
 8001750:	005b      	lsls	r3, r3, #1
 8001752:	2203      	movs	r2, #3
 8001754:	fa02 f303 	lsl.w	r3, r2, r3
 8001758:	43db      	mvns	r3, r3
 800175a:	69ba      	ldr	r2, [r7, #24]
 800175c:	4013      	ands	r3, r2
 800175e:	61bb      	str	r3, [r7, #24]
        temp |= ((GPIO_Init->Pull) << (position * 2U));
 8001760:	683b      	ldr	r3, [r7, #0]
 8001762:	689a      	ldr	r2, [r3, #8]
 8001764:	69fb      	ldr	r3, [r7, #28]
 8001766:	005b      	lsls	r3, r3, #1
 8001768:	fa02 f303 	lsl.w	r3, r2, r3
 800176c:	69ba      	ldr	r2, [r7, #24]
 800176e:	4313      	orrs	r3, r2
 8001770:	61bb      	str	r3, [r7, #24]
        GPIOx->PUPDR = temp;
 8001772:	687b      	ldr	r3, [r7, #4]
 8001774:	69ba      	ldr	r2, [r7, #24]
 8001776:	60da      	str	r2, [r3, #12]
      }

      /* In case of Alternate function mode selection */
      if((GPIO_Init->Mode & GPIO_MODE) == MODE_AF)
 8001778:	683b      	ldr	r3, [r7, #0]
 800177a:	685b      	ldr	r3, [r3, #4]
 800177c:	f003 0303 	and.w	r3, r3, #3
 8001780:	2b02      	cmp	r3, #2
 8001782:	d123      	bne.n	80017cc <HAL_GPIO_Init+0x144>
      {
        /* Check the Alternate function parameter */
        assert_param(IS_GPIO_AF(GPIO_Init->Alternate));
        /* Configure Alternate function mapped with the current IO */
        temp = GPIOx->AFR[position >> 3U];
 8001784:	69fb      	ldr	r3, [r7, #28]
 8001786:	08da      	lsrs	r2, r3, #3
 8001788:	687b      	ldr	r3, [r7, #4]
 800178a:	3208      	adds	r2, #8
 800178c:	f853 3022 	ldr.w	r3, [r3, r2, lsl #2]
 8001790:	61bb      	str	r3, [r7, #24]
        temp &= ~(0xFU << ((uint32_t)(position & 0x07U) * 4U)) ;
 8001792:	69fb      	ldr	r3, [r7, #28]
 8001794:	f003 0307 	and.w	r3, r3, #7
 8001798:	009b      	lsls	r3, r3, #2
 800179a:	220f      	movs	r2, #15
 800179c:	fa02 f303 	lsl.w	r3, r2, r3
 80017a0:	43db      	mvns	r3, r3
 80017a2:	69ba      	ldr	r2, [r7, #24]
 80017a4:	4013      	ands	r3, r2
 80017a6:	61bb      	str	r3, [r7, #24]
        temp |= ((uint32_t)(GPIO_Init->Alternate) << (((uint32_t)position & 0x07U) * 4U));
 80017a8:	683b      	ldr	r3, [r7, #0]
 80017aa:	691a      	ldr	r2, [r3, #16]
 80017ac:	69fb      	ldr	r3, [r7, #28]
 80017ae:	f003 0307 	and.w	r3, r3, #7
 80017b2:	009b      	lsls	r3, r3, #2
 80017b4:	fa02 f303 	lsl.w	r3, r2, r3
 80017b8:	69ba      	ldr	r2, [r7, #24]
 80017ba:	4313      	orrs	r3, r2
 80017bc:	61bb      	str	r3, [r7, #24]
        GPIOx->AFR[position >> 3U] = temp;
 80017be:	69fb      	ldr	r3, [r7, #28]
 80017c0:	08da      	lsrs	r2, r3, #3
 80017c2:	687b      	ldr	r3, [r7, #4]
 80017c4:	3208      	adds	r2, #8
 80017c6:	69b9      	ldr	r1, [r7, #24]
 80017c8:	f843 1022 	str.w	r1, [r3, r2, lsl #2]
      }

      /* Configure IO Direction mode (Input, Output, Alternate or Analog) */
      temp = GPIOx->MODER;
 80017cc:	687b      	ldr	r3, [r7, #4]
 80017ce:	681b      	ldr	r3, [r3, #0]
 80017d0:	61bb      	str	r3, [r7, #24]
      temp &= ~(GPIO_MODER_MODER0 << (position * 2U));
 80017d2:	69fb      	ldr	r3, [r7, #28]
 80017d4:	005b      	lsls	r3, r3, #1
 80017d6:	2203      	movs	r2, #3
 80017d8:	fa02 f303 	lsl.w	r3, r2, r3
 80017dc:	43db      	mvns	r3, r3
 80017de:	69ba      	ldr	r2, [r7, #24]
 80017e0:	4013      	ands	r3, r2
 80017e2:	61bb      	str	r3, [r7, #24]
      temp |= ((GPIO_Init->Mode & GPIO_MODE) << (position * 2U));
 80017e4:	683b      	ldr	r3, [r7, #0]
 80017e6:	685b      	ldr	r3, [r3, #4]
 80017e8:	f003 0203 	and.w	r2, r3, #3
 80017ec:	69fb      	ldr	r3, [r7, #28]
 80017ee:	005b      	lsls	r3, r3, #1
 80017f0:	fa02 f303 	lsl.w	r3, r2, r3
 80017f4:	69ba      	ldr	r2, [r7, #24]
 80017f6:	4313      	orrs	r3, r2
 80017f8:	61bb      	str	r3, [r7, #24]
      GPIOx->MODER = temp;
 80017fa:	687b      	ldr	r3, [r7, #4]
 80017fc:	69ba      	ldr	r2, [r7, #24]
 80017fe:	601a      	str	r2, [r3, #0]

      /*--------------------- EXTI Mode Configuration ------------------------*/
      /* Configure the External Interrupt or event for the current IO */
      if((GPIO_Init->Mode & EXTI_MODE) != 0x00U)
 8001800:	683b      	ldr	r3, [r7, #0]
 8001802:	685b      	ldr	r3, [r3, #4]
 8001804:	f403 3340 	and.w	r3, r3, #196608	; 0x30000
 8001808:	2b00      	cmp	r3, #0
 800180a:	f000 80a2 	beq.w	8001952 <HAL_GPIO_Init+0x2ca>
      {
        /* Enable SYSCFG Clock */
        __HAL_RCC_SYSCFG_CLK_ENABLE();
 800180e:	2300      	movs	r3, #0
 8001810:	60fb      	str	r3, [r7, #12]
 8001812:	4b57      	ldr	r3, [pc, #348]	; (8001970 <HAL_GPIO_Init+0x2e8>)
 8001814:	6c5b      	ldr	r3, [r3, #68]	; 0x44
 8001816:	4a56      	ldr	r2, [pc, #344]	; (8001970 <HAL_GPIO_Init+0x2e8>)
 8001818:	f443 4380 	orr.w	r3, r3, #16384	; 0x4000
 800181c:	6453      	str	r3, [r2, #68]	; 0x44
 800181e:	4b54      	ldr	r3, [pc, #336]	; (8001970 <HAL_GPIO_Init+0x2e8>)
 8001820:	6c5b      	ldr	r3, [r3, #68]	; 0x44
 8001822:	f403 4380 	and.w	r3, r3, #16384	; 0x4000
 8001826:	60fb      	str	r3, [r7, #12]
 8001828:	68fb      	ldr	r3, [r7, #12]

        temp = SYSCFG->EXTICR[position >> 2U];
 800182a:	4a52      	ldr	r2, [pc, #328]	; (8001974 <HAL_GPIO_Init+0x2ec>)
 800182c:	69fb      	ldr	r3, [r7, #28]
 800182e:	089b      	lsrs	r3, r3, #2
 8001830:	3302      	adds	r3, #2
 8001832:	f852 3023 	ldr.w	r3, [r2, r3, lsl #2]
 8001836:	61bb      	str	r3, [r7, #24]
        temp &= ~(0x0FU << (4U * (position & 0x03U)));
 8001838:	69fb      	ldr	r3, [r7, #28]
 800183a:	f003 0303 	and.w	r3, r3, #3
 800183e:	009b      	lsls	r3, r3, #2
 8001840:	220f      	movs	r2, #15
 8001842:	fa02 f303 	lsl.w	r3, r2, r3
 8001846:	43db      	mvns	r3, r3
 8001848:	69ba      	ldr	r2, [r7, #24]
 800184a:	4013      	ands	r3, r2
 800184c:	61bb      	str	r3, [r7, #24]
        temp |= ((uint32_t)(GPIO_GET_INDEX(GPIOx)) << (4U * (position & 0x03U)));
 800184e:	687b      	ldr	r3, [r7, #4]
 8001850:	4a49      	ldr	r2, [pc, #292]	; (8001978 <HAL_GPIO_Init+0x2f0>)
 8001852:	4293      	cmp	r3, r2
 8001854:	d019      	beq.n	800188a <HAL_GPIO_Init+0x202>
 8001856:	687b      	ldr	r3, [r7, #4]
 8001858:	4a48      	ldr	r2, [pc, #288]	; (800197c <HAL_GPIO_Init+0x2f4>)
 800185a:	4293      	cmp	r3, r2
 800185c:	d013      	beq.n	8001886 <HAL_GPIO_Init+0x1fe>
 800185e:	687b      	ldr	r3, [r7, #4]
 8001860:	4a47      	ldr	r2, [pc, #284]	; (8001980 <HAL_GPIO_Init+0x2f8>)
 8001862:	4293      	cmp	r3, r2
 8001864:	d00d      	beq.n	8001882 <HAL_GPIO_Init+0x1fa>
 8001866:	687b      	ldr	r3, [r7, #4]
 8001868:	4a46      	ldr	r2, [pc, #280]	; (8001984 <HAL_GPIO_Init+0x2fc>)
 800186a:	4293      	cmp	r3, r2
 800186c:	d007      	beq.n	800187e <HAL_GPIO_Init+0x1f6>
 800186e:	687b      	ldr	r3, [r7, #4]
 8001870:	4a45      	ldr	r2, [pc, #276]	; (8001988 <HAL_GPIO_Init+0x300>)
 8001872:	4293      	cmp	r3, r2
 8001874:	d101      	bne.n	800187a <HAL_GPIO_Init+0x1f2>
 8001876:	2304      	movs	r3, #4
 8001878:	e008      	b.n	800188c <HAL_GPIO_Init+0x204>
 800187a:	2307      	movs	r3, #7
 800187c:	e006      	b.n	800188c <HAL_GPIO_Init+0x204>
 800187e:	2303      	movs	r3, #3
 8001880:	e004      	b.n	800188c <HAL_GPIO_Init+0x204>
 8001882:	2302      	movs	r3, #2
 8001884:	e002      	b.n	800188c <HAL_GPIO_Init+0x204>
 8001886:	2301      	movs	r3, #1
 8001888:	e000      	b.n	800188c <HAL_GPIO_Init+0x204>
 800188a:	2300      	movs	r3, #0
 800188c:	69fa      	ldr	r2, [r7, #28]
 800188e:	f002 0203 	and.w	r2, r2, #3
 8001892:	0092      	lsls	r2, r2, #2
 8001894:	4093      	lsls	r3, r2
 8001896:	69ba      	ldr	r2, [r7, #24]
 8001898:	4313      	orrs	r3, r2
 800189a:	61bb      	str	r3, [r7, #24]
        SYSCFG->EXTICR[position >> 2U] = temp;
 800189c:	4935      	ldr	r1, [pc, #212]	; (8001974 <HAL_GPIO_Init+0x2ec>)
 800189e:	69fb      	ldr	r3, [r7, #28]
 80018a0:	089b      	lsrs	r3, r3, #2
 80018a2:	3302      	adds	r3, #2
 80018a4:	69ba      	ldr	r2, [r7, #24]
 80018a6:	f841 2023 	str.w	r2, [r1, r3, lsl #2]

        /* Clear Rising Falling edge configuration */
        temp = EXTI->RTSR;
 80018aa:	4b38      	ldr	r3, [pc, #224]	; (800198c <HAL_GPIO_Init+0x304>)
 80018ac:	689b      	ldr	r3, [r3, #8]
 80018ae:	61bb      	str	r3, [r7, #24]
        temp &= ~((uint32_t)iocurrent);
 80018b0:	693b      	ldr	r3, [r7, #16]
 80018b2:	43db      	mvns	r3, r3
 80018b4:	69ba      	ldr	r2, [r7, #24]
 80018b6:	4013      	ands	r3, r2
 80018b8:	61bb      	str	r3, [r7, #24]
        if((GPIO_Init->Mode & TRIGGER_RISING) != 0x00U)
 80018ba:	683b      	ldr	r3, [r7, #0]
 80018bc:	685b      	ldr	r3, [r3, #4]
 80018be:	f403 1380 	and.w	r3, r3, #1048576	; 0x100000
 80018c2:	2b00      	cmp	r3, #0
 80018c4:	d003      	beq.n	80018ce <HAL_GPIO_Init+0x246>
        {
          temp |= iocurrent;
 80018c6:	69ba      	ldr	r2, [r7, #24]
 80018c8:	693b      	ldr	r3, [r7, #16]
 80018ca:	4313      	orrs	r3, r2
 80018cc:	61bb      	str	r3, [r7, #24]
        }
        EXTI->RTSR = temp;
 80018ce:	4a2f      	ldr	r2, [pc, #188]	; (800198c <HAL_GPIO_Init+0x304>)
 80018d0:	69bb      	ldr	r3, [r7, #24]
 80018d2:	6093      	str	r3, [r2, #8]

        temp = EXTI->FTSR;
 80018d4:	4b2d      	ldr	r3, [pc, #180]	; (800198c <HAL_GPIO_Init+0x304>)
 80018d6:	68db      	ldr	r3, [r3, #12]
 80018d8:	61bb      	str	r3, [r7, #24]
        temp &= ~((uint32_t)iocurrent);
 80018da:	693b      	ldr	r3, [r7, #16]
 80018dc:	43db      	mvns	r3, r3
 80018de:	69ba      	ldr	r2, [r7, #24]
 80018e0:	4013      	ands	r3, r2
 80018e2:	61bb      	str	r3, [r7, #24]
        if((GPIO_Init->Mode & TRIGGER_FALLING) != 0x00U)
 80018e4:	683b      	ldr	r3, [r7, #0]
 80018e6:	685b      	ldr	r3, [r3, #4]
 80018e8:	f403 1300 	and.w	r3, r3, #2097152	; 0x200000
 80018ec:	2b00      	cmp	r3, #0
 80018ee:	d003      	beq.n	80018f8 <HAL_GPIO_Init+0x270>
        {
          temp |= iocurrent;
 80018f0:	69ba      	ldr	r2, [r7, #24]
 80018f2:	693b      	ldr	r3, [r7, #16]
 80018f4:	4313      	orrs	r3, r2
 80018f6:	61bb      	str	r3, [r7, #24]
        }
        EXTI->FTSR = temp;
 80018f8:	4a24      	ldr	r2, [pc, #144]	; (800198c <HAL_GPIO_Init+0x304>)
 80018fa:	69bb      	ldr	r3, [r7, #24]
 80018fc:	60d3      	str	r3, [r2, #12]

        temp = EXTI->EMR;
 80018fe:	4b23      	ldr	r3, [pc, #140]	; (800198c <HAL_GPIO_Init+0x304>)
 8001900:	685b      	ldr	r3, [r3, #4]
 8001902:	61bb      	str	r3, [r7, #24]
        temp &= ~((uint32_t)iocurrent);
 8001904:	693b      	ldr	r3, [r7, #16]
 8001906:	43db      	mvns	r3, r3
 8001908:	69ba      	ldr	r2, [r7, #24]
 800190a:	4013      	ands	r3, r2
 800190c:	61bb      	str	r3, [r7, #24]
        if((GPIO_Init->Mode & EXTI_EVT) != 0x00U)
 800190e:	683b      	ldr	r3, [r7, #0]
 8001910:	685b      	ldr	r3, [r3, #4]
 8001912:	f403 3300 	and.w	r3, r3, #131072	; 0x20000
 8001916:	2b00      	cmp	r3, #0
 8001918:	d003      	beq.n	8001922 <HAL_GPIO_Init+0x29a>
        {
          temp |= iocurrent;
 800191a:	69ba      	ldr	r2, [r7, #24]
 800191c:	693b      	ldr	r3, [r7, #16]
 800191e:	4313      	orrs	r3, r2
 8001920:	61bb      	str	r3, [r7, #24]
        }
        EXTI->EMR = temp;
 8001922:	4a1a      	ldr	r2, [pc, #104]	; (800198c <HAL_GPIO_Init+0x304>)
 8001924:	69bb      	ldr	r3, [r7, #24]
 8001926:	6053      	str	r3, [r2, #4]

        /* Clear EXTI line configuration */
        temp = EXTI->IMR;
 8001928:	4b18      	ldr	r3, [pc, #96]	; (800198c <HAL_GPIO_Init+0x304>)
 800192a:	681b      	ldr	r3, [r3, #0]
 800192c:	61bb      	str	r3, [r7, #24]
        temp &= ~((uint32_t)iocurrent);
 800192e:	693b      	ldr	r3, [r7, #16]
 8001930:	43db      	mvns	r3, r3
 8001932:	69ba      	ldr	r2, [r7, #24]
 8001934:	4013      	ands	r3, r2
 8001936:	61bb      	str	r3, [r7, #24]
        if((GPIO_Init->Mode & EXTI_IT) != 0x00U)
 8001938:	683b      	ldr	r3, [r7, #0]
 800193a:	685b      	ldr	r3, [r3, #4]
 800193c:	f403 3380 	and.w	r3, r3, #65536	; 0x10000
 8001940:	2b00      	cmp	r3, #0
 8001942:	d003      	beq.n	800194c <HAL_GPIO_Init+0x2c4>
        {
          temp |= iocurrent;
 8001944:	69ba      	ldr	r2, [r7, #24]
 8001946:	693b      	ldr	r3, [r7, #16]
 8001948:	4313      	orrs	r3, r2
 800194a:	61bb      	str	r3, [r7, #24]
        }
        EXTI->IMR = temp;
 800194c:	4a0f      	ldr	r2, [pc, #60]	; (800198c <HAL_GPIO_Init+0x304>)
 800194e:	69bb      	ldr	r3, [r7, #24]
 8001950:	6013      	str	r3, [r2, #0]
  for(position = 0U; position < GPIO_NUMBER; position++)
 8001952:	69fb      	ldr	r3, [r7, #28]
 8001954:	3301      	adds	r3, #1
 8001956:	61fb      	str	r3, [r7, #28]
 8001958:	69fb      	ldr	r3, [r7, #28]
 800195a:	2b0f      	cmp	r3, #15
 800195c:	f67f aea2 	bls.w	80016a4 <HAL_GPIO_Init+0x1c>
      }
    }
  }
}
 8001960:	bf00      	nop
 8001962:	bf00      	nop
 8001964:	3724      	adds	r7, #36	; 0x24
 8001966:	46bd      	mov	sp, r7
 8001968:	f85d 7b04 	ldr.w	r7, [sp], #4
 800196c:	4770      	bx	lr
 800196e:	bf00      	nop
 8001970:	40023800 	.word	0x40023800
 8001974:	40013800 	.word	0x40013800
 8001978:	40020000 	.word	0x40020000
 800197c:	40020400 	.word	0x40020400
 8001980:	40020800 	.word	0x40020800
 8001984:	40020c00 	.word	0x40020c00
 8001988:	40021000 	.word	0x40021000
 800198c:	40013c00 	.word	0x40013c00

08001990 <HAL_GPIO_WritePin>:
  *            @arg GPIO_PIN_RESET: to clear the port pin
  *            @arg GPIO_PIN_SET: to set the port pin
  * @retval None
  */
void HAL_GPIO_WritePin(GPIO_TypeDef* GPIOx, uint16_t GPIO_Pin, GPIO_PinState PinState)
{
 8001990:	b480      	push	{r7}
 8001992:	b083      	sub	sp, #12
 8001994:	af00      	add	r7, sp, #0
 8001996:	6078      	str	r0, [r7, #4]
 8001998:	460b      	mov	r3, r1
 800199a:	807b      	strh	r3, [r7, #2]
 800199c:	4613      	mov	r3, r2
 800199e:	707b      	strb	r3, [r7, #1]
  /* Check the parameters */
  assert_param(IS_GPIO_PIN(GPIO_Pin));
  assert_param(IS_GPIO_PIN_ACTION(PinState));

  if(PinState != GPIO_PIN_RESET)
 80019a0:	787b      	ldrb	r3, [r7, #1]
 80019a2:	2b00      	cmp	r3, #0
 80019a4:	d003      	beq.n	80019ae <HAL_GPIO_WritePin+0x1e>
  {
    GPIOx->BSRR = GPIO_Pin;
 80019a6:	887a      	ldrh	r2, [r7, #2]
 80019a8:	687b      	ldr	r3, [r7, #4]
 80019aa:	619a      	str	r2, [r3, #24]
  }
  else
  {
    GPIOx->BSRR = (uint32_t)GPIO_Pin << 16U;
  }
}
 80019ac:	e003      	b.n	80019b6 <HAL_GPIO_WritePin+0x26>
    GPIOx->BSRR = (uint32_t)GPIO_Pin << 16U;
 80019ae:	887b      	ldrh	r3, [r7, #2]
 80019b0:	041a      	lsls	r2, r3, #16
 80019b2:	687b      	ldr	r3, [r7, #4]
 80019b4:	619a      	str	r2, [r3, #24]
}
 80019b6:	bf00      	nop
 80019b8:	370c      	adds	r7, #12
 80019ba:	46bd      	mov	sp, r7
 80019bc:	f85d 7b04 	ldr.w	r7, [sp], #4
 80019c0:	4770      	bx	lr
	...

080019c4 <HAL_RCC_OscConfig>:
  *         supported by this API. User should request a transition to HSE Off
  *         first and then HSE On or HSE Bypass.
  * @retval HAL status
  */
__weak HAL_StatusTypeDef HAL_RCC_OscConfig(RCC_OscInitTypeDef  *RCC_OscInitStruct)
{
 80019c4:	b580      	push	{r7, lr}
 80019c6:	b086      	sub	sp, #24
 80019c8:	af00      	add	r7, sp, #0
 80019ca:	6078      	str	r0, [r7, #4]
  uint32_t tickstart, pll_config;

  /* Check Null pointer */
  if(RCC_OscInitStruct == NULL)
 80019cc:	687b      	ldr	r3, [r7, #4]
 80019ce:	2b00      	cmp	r3, #0
 80019d0:	d101      	bne.n	80019d6 <HAL_RCC_OscConfig+0x12>
  {
    return HAL_ERROR;
 80019d2:	2301      	movs	r3, #1
 80019d4:	e267      	b.n	8001ea6 <HAL_RCC_OscConfig+0x4e2>
  }

  /* Check the parameters */
  assert_param(IS_RCC_OSCILLATORTYPE(RCC_OscInitStruct->OscillatorType));
  /*------------------------------- HSE Configuration ------------------------*/
  if(((RCC_OscInitStruct->OscillatorType) & RCC_OSCILLATORTYPE_HSE) == RCC_OSCILLATORTYPE_HSE)
 80019d6:	687b      	ldr	r3, [r7, #4]
 80019d8:	681b      	ldr	r3, [r3, #0]
 80019da:	f003 0301 	and.w	r3, r3, #1
 80019de:	2b00      	cmp	r3, #0
 80019e0:	d075      	beq.n	8001ace <HAL_RCC_OscConfig+0x10a>
  {
    /* Check the parameters */
    assert_param(IS_RCC_HSE(RCC_OscInitStruct->HSEState));
    /* When the HSE is used as system clock or clock source for PLL in these cases HSE will not disabled */
    if((__HAL_RCC_GET_SYSCLK_SOURCE() == RCC_CFGR_SWS_HSE) ||\
 80019e2:	4b88      	ldr	r3, [pc, #544]	; (8001c04 <HAL_RCC_OscConfig+0x240>)
 80019e4:	689b      	ldr	r3, [r3, #8]
 80019e6:	f003 030c 	and.w	r3, r3, #12
 80019ea:	2b04      	cmp	r3, #4
 80019ec:	d00c      	beq.n	8001a08 <HAL_RCC_OscConfig+0x44>
      ((__HAL_RCC_GET_SYSCLK_SOURCE() == RCC_CFGR_SWS_PLL) && ((RCC->PLLCFGR & RCC_PLLCFGR_PLLSRC) == RCC_PLLCFGR_PLLSRC_HSE)))
 80019ee:	4b85      	ldr	r3, [pc, #532]	; (8001c04 <HAL_RCC_OscConfig+0x240>)
 80019f0:	689b      	ldr	r3, [r3, #8]
 80019f2:	f003 030c 	and.w	r3, r3, #12
    if((__HAL_RCC_GET_SYSCLK_SOURCE() == RCC_CFGR_SWS_HSE) ||\
 80019f6:	2b08      	cmp	r3, #8
 80019f8:	d112      	bne.n	8001a20 <HAL_RCC_OscConfig+0x5c>
      ((__HAL_RCC_GET_SYSCLK_SOURCE() == RCC_CFGR_SWS_PLL) && ((RCC->PLLCFGR & RCC_PLLCFGR_PLLSRC) == RCC_PLLCFGR_PLLSRC_HSE)))
 80019fa:	4b82      	ldr	r3, [pc, #520]	; (8001c04 <HAL_RCC_OscConfig+0x240>)
 80019fc:	685b      	ldr	r3, [r3, #4]
 80019fe:	f403 0380 	and.w	r3, r3, #4194304	; 0x400000
 8001a02:	f5b3 0f80 	cmp.w	r3, #4194304	; 0x400000
 8001a06:	d10b      	bne.n	8001a20 <HAL_RCC_OscConfig+0x5c>
    {
      if((__HAL_RCC_GET_FLAG(RCC_FLAG_HSERDY) != RESET) && (RCC_OscInitStruct->HSEState == RCC_HSE_OFF))
 8001a08:	4b7e      	ldr	r3, [pc, #504]	; (8001c04 <HAL_RCC_OscConfig+0x240>)
 8001a0a:	681b      	ldr	r3, [r3, #0]
 8001a0c:	f403 3300 	and.w	r3, r3, #131072	; 0x20000
 8001a10:	2b00      	cmp	r3, #0
 8001a12:	d05b      	beq.n	8001acc <HAL_RCC_OscConfig+0x108>
 8001a14:	687b      	ldr	r3, [r7, #4]
 8001a16:	685b      	ldr	r3, [r3, #4]
 8001a18:	2b00      	cmp	r3, #0
 8001a1a:	d157      	bne.n	8001acc <HAL_RCC_OscConfig+0x108>
      {
        return HAL_ERROR;
 8001a1c:	2301      	movs	r3, #1
 8001a1e:	e242      	b.n	8001ea6 <HAL_RCC_OscConfig+0x4e2>
      }
    }
    else
    {
      /* Set the new HSE configuration ---------------------------------------*/
      __HAL_RCC_HSE_CONFIG(RCC_OscInitStruct->HSEState);
 8001a20:	687b      	ldr	r3, [r7, #4]
 8001a22:	685b      	ldr	r3, [r3, #4]
 8001a24:	f5b3 3f80 	cmp.w	r3, #65536	; 0x10000
 8001a28:	d106      	bne.n	8001a38 <HAL_RCC_OscConfig+0x74>
 8001a2a:	4b76      	ldr	r3, [pc, #472]	; (8001c04 <HAL_RCC_OscConfig+0x240>)
 8001a2c:	681b      	ldr	r3, [r3, #0]
 8001a2e:	4a75      	ldr	r2, [pc, #468]	; (8001c04 <HAL_RCC_OscConfig+0x240>)
 8001a30:	f443 3380 	orr.w	r3, r3, #65536	; 0x10000
 8001a34:	6013      	str	r3, [r2, #0]
 8001a36:	e01d      	b.n	8001a74 <HAL_RCC_OscConfig+0xb0>
 8001a38:	687b      	ldr	r3, [r7, #4]
 8001a3a:	685b      	ldr	r3, [r3, #4]
 8001a3c:	f5b3 2fa0 	cmp.w	r3, #327680	; 0x50000
 8001a40:	d10c      	bne.n	8001a5c <HAL_RCC_OscConfig+0x98>
 8001a42:	4b70      	ldr	r3, [pc, #448]	; (8001c04 <HAL_RCC_OscConfig+0x240>)
 8001a44:	681b      	ldr	r3, [r3, #0]
 8001a46:	4a6f      	ldr	r2, [pc, #444]	; (8001c04 <HAL_RCC_OscConfig+0x240>)
 8001a48:	f443 2380 	orr.w	r3, r3, #262144	; 0x40000
 8001a4c:	6013      	str	r3, [r2, #0]
 8001a4e:	4b6d      	ldr	r3, [pc, #436]	; (8001c04 <HAL_RCC_OscConfig+0x240>)
 8001a50:	681b      	ldr	r3, [r3, #0]
 8001a52:	4a6c      	ldr	r2, [pc, #432]	; (8001c04 <HAL_RCC_OscConfig+0x240>)
 8001a54:	f443 3380 	orr.w	r3, r3, #65536	; 0x10000
 8001a58:	6013      	str	r3, [r2, #0]
 8001a5a:	e00b      	b.n	8001a74 <HAL_RCC_OscConfig+0xb0>
 8001a5c:	4b69      	ldr	r3, [pc, #420]	; (8001c04 <HAL_RCC_OscConfig+0x240>)
 8001a5e:	681b      	ldr	r3, [r3, #0]
 8001a60:	4a68      	ldr	r2, [pc, #416]	; (8001c04 <HAL_RCC_OscConfig+0x240>)
 8001a62:	f423 3380 	bic.w	r3, r3, #65536	; 0x10000
 8001a66:	6013      	str	r3, [r2, #0]
 8001a68:	4b66      	ldr	r3, [pc, #408]	; (8001c04 <HAL_RCC_OscConfig+0x240>)
 8001a6a:	681b      	ldr	r3, [r3, #0]
 8001a6c:	4a65      	ldr	r2, [pc, #404]	; (8001c04 <HAL_RCC_OscConfig+0x240>)
 8001a6e:	f423 2380 	bic.w	r3, r3, #262144	; 0x40000
 8001a72:	6013      	str	r3, [r2, #0]

      /* Check the HSE State */
      if((RCC_OscInitStruct->HSEState) != RCC_HSE_OFF)
 8001a74:	687b      	ldr	r3, [r7, #4]
 8001a76:	685b      	ldr	r3, [r3, #4]
 8001a78:	2b00      	cmp	r3, #0
 8001a7a:	d013      	beq.n	8001aa4 <HAL_RCC_OscConfig+0xe0>
      {
        /* Get Start Tick */
        tickstart = HAL_GetTick();
 8001a7c:	f7ff fc30 	bl	80012e0 <HAL_GetTick>
 8001a80:	6138      	str	r0, [r7, #16]

        /* Wait till HSE is ready */
        while(__HAL_RCC_GET_FLAG(RCC_FLAG_HSERDY) == RESET)
 8001a82:	e008      	b.n	8001a96 <HAL_RCC_OscConfig+0xd2>
        {
          if((HAL_GetTick() - tickstart ) > HSE_TIMEOUT_VALUE)
 8001a84:	f7ff fc2c 	bl	80012e0 <HAL_GetTick>
 8001a88:	4602      	mov	r2, r0
 8001a8a:	693b      	ldr	r3, [r7, #16]
 8001a8c:	1ad3      	subs	r3, r2, r3
 8001a8e:	2b64      	cmp	r3, #100	; 0x64
 8001a90:	d901      	bls.n	8001a96 <HAL_RCC_OscConfig+0xd2>
          {
            return HAL_TIMEOUT;
 8001a92:	2303      	movs	r3, #3
 8001a94:	e207      	b.n	8001ea6 <HAL_RCC_OscConfig+0x4e2>
        while(__HAL_RCC_GET_FLAG(RCC_FLAG_HSERDY) == RESET)
 8001a96:	4b5b      	ldr	r3, [pc, #364]	; (8001c04 <HAL_RCC_OscConfig+0x240>)
 8001a98:	681b      	ldr	r3, [r3, #0]
 8001a9a:	f403 3300 	and.w	r3, r3, #131072	; 0x20000
 8001a9e:	2b00      	cmp	r3, #0
 8001aa0:	d0f0      	beq.n	8001a84 <HAL_RCC_OscConfig+0xc0>
 8001aa2:	e014      	b.n	8001ace <HAL_RCC_OscConfig+0x10a>
        }
      }
      else
      {
        /* Get Start Tick */
        tickstart = HAL_GetTick();
 8001aa4:	f7ff fc1c 	bl	80012e0 <HAL_GetTick>
 8001aa8:	6138      	str	r0, [r7, #16]

        /* Wait till HSE is bypassed or disabled */
        while(__HAL_RCC_GET_FLAG(RCC_FLAG_HSERDY) != RESET)
 8001aaa:	e008      	b.n	8001abe <HAL_RCC_OscConfig+0xfa>
        {
          if((HAL_GetTick() - tickstart ) > HSE_TIMEOUT_VALUE)
 8001aac:	f7ff fc18 	bl	80012e0 <HAL_GetTick>
 8001ab0:	4602      	mov	r2, r0
 8001ab2:	693b      	ldr	r3, [r7, #16]
 8001ab4:	1ad3      	subs	r3, r2, r3
 8001ab6:	2b64      	cmp	r3, #100	; 0x64
 8001ab8:	d901      	bls.n	8001abe <HAL_RCC_OscConfig+0xfa>
          {
            return HAL_TIMEOUT;
 8001aba:	2303      	movs	r3, #3
 8001abc:	e1f3      	b.n	8001ea6 <HAL_RCC_OscConfig+0x4e2>
        while(__HAL_RCC_GET_FLAG(RCC_FLAG_HSERDY) != RESET)
 8001abe:	4b51      	ldr	r3, [pc, #324]	; (8001c04 <HAL_RCC_OscConfig+0x240>)
 8001ac0:	681b      	ldr	r3, [r3, #0]
 8001ac2:	f403 3300 	and.w	r3, r3, #131072	; 0x20000
 8001ac6:	2b00      	cmp	r3, #0
 8001ac8:	d1f0      	bne.n	8001aac <HAL_RCC_OscConfig+0xe8>
 8001aca:	e000      	b.n	8001ace <HAL_RCC_OscConfig+0x10a>
      if((__HAL_RCC_GET_FLAG(RCC_FLAG_HSERDY) != RESET) && (RCC_OscInitStruct->HSEState == RCC_HSE_OFF))
 8001acc:	bf00      	nop
        }
      }
    }
  }
  /*----------------------------- HSI Configuration --------------------------*/
  if(((RCC_OscInitStruct->OscillatorType) & RCC_OSCILLATORTYPE_HSI) == RCC_OSCILLATORTYPE_HSI)
 8001ace:	687b      	ldr	r3, [r7, #4]
 8001ad0:	681b      	ldr	r3, [r3, #0]
 8001ad2:	f003 0302 	and.w	r3, r3, #2
 8001ad6:	2b00      	cmp	r3, #0
 8001ad8:	d063      	beq.n	8001ba2 <HAL_RCC_OscConfig+0x1de>
    /* Check the parameters */
    assert_param(IS_RCC_HSI(RCC_OscInitStruct->HSIState));
    assert_param(IS_RCC_CALIBRATION_VALUE(RCC_OscInitStruct->HSICalibrationValue));

    /* Check if HSI is used as system clock or as PLL source when PLL is selected as system clock */
    if((__HAL_RCC_GET_SYSCLK_SOURCE() == RCC_CFGR_SWS_HSI) ||\
 8001ada:	4b4a      	ldr	r3, [pc, #296]	; (8001c04 <HAL_RCC_OscConfig+0x240>)
 8001adc:	689b      	ldr	r3, [r3, #8]
 8001ade:	f003 030c 	and.w	r3, r3, #12
 8001ae2:	2b00      	cmp	r3, #0
 8001ae4:	d00b      	beq.n	8001afe <HAL_RCC_OscConfig+0x13a>
      ((__HAL_RCC_GET_SYSCLK_SOURCE() == RCC_CFGR_SWS_PLL) && ((RCC->PLLCFGR & RCC_PLLCFGR_PLLSRC) == RCC_PLLCFGR_PLLSRC_HSI)))
 8001ae6:	4b47      	ldr	r3, [pc, #284]	; (8001c04 <HAL_RCC_OscConfig+0x240>)
 8001ae8:	689b      	ldr	r3, [r3, #8]
 8001aea:	f003 030c 	and.w	r3, r3, #12
    if((__HAL_RCC_GET_SYSCLK_SOURCE() == RCC_CFGR_SWS_HSI) ||\
 8001aee:	2b08      	cmp	r3, #8
 8001af0:	d11c      	bne.n	8001b2c <HAL_RCC_OscConfig+0x168>
      ((__HAL_RCC_GET_SYSCLK_SOURCE() == RCC_CFGR_SWS_PLL) && ((RCC->PLLCFGR & RCC_PLLCFGR_PLLSRC) == RCC_PLLCFGR_PLLSRC_HSI)))
 8001af2:	4b44      	ldr	r3, [pc, #272]	; (8001c04 <HAL_RCC_OscConfig+0x240>)
 8001af4:	685b      	ldr	r3, [r3, #4]
 8001af6:	f403 0380 	and.w	r3, r3, #4194304	; 0x400000
 8001afa:	2b00      	cmp	r3, #0
 8001afc:	d116      	bne.n	8001b2c <HAL_RCC_OscConfig+0x168>
    {
      /* When HSI is used as system clock it will not disabled */
      if((__HAL_RCC_GET_FLAG(RCC_FLAG_HSIRDY) != RESET) && (RCC_OscInitStruct->HSIState != RCC_HSI_ON))
 8001afe:	4b41      	ldr	r3, [pc, #260]	; (8001c04 <HAL_RCC_OscConfig+0x240>)
 8001b00:	681b      	ldr	r3, [r3, #0]
 8001b02:	f003 0302 	and.w	r3, r3, #2
 8001b06:	2b00      	cmp	r3, #0
 8001b08:	d005      	beq.n	8001b16 <HAL_RCC_OscConfig+0x152>
 8001b0a:	687b      	ldr	r3, [r7, #4]
 8001b0c:	68db      	ldr	r3, [r3, #12]
 8001b0e:	2b01      	cmp	r3, #1
 8001b10:	d001      	beq.n	8001b16 <HAL_RCC_OscConfig+0x152>
      {
        return HAL_ERROR;
 8001b12:	2301      	movs	r3, #1
 8001b14:	e1c7      	b.n	8001ea6 <HAL_RCC_OscConfig+0x4e2>
      }
      /* Otherwise, just the calibration is allowed */
      else
      {
        /* Adjusts the Internal High Speed oscillator (HSI) calibration value.*/
        __HAL_RCC_HSI_CALIBRATIONVALUE_ADJUST(RCC_OscInitStruct->HSICalibrationValue);
 8001b16:	4b3b      	ldr	r3, [pc, #236]	; (8001c04 <HAL_RCC_OscConfig+0x240>)
 8001b18:	681b      	ldr	r3, [r3, #0]
 8001b1a:	f023 02f8 	bic.w	r2, r3, #248	; 0xf8
 8001b1e:	687b      	ldr	r3, [r7, #4]
 8001b20:	691b      	ldr	r3, [r3, #16]
 8001b22:	00db      	lsls	r3, r3, #3
 8001b24:	4937      	ldr	r1, [pc, #220]	; (8001c04 <HAL_RCC_OscConfig+0x240>)
 8001b26:	4313      	orrs	r3, r2
 8001b28:	600b      	str	r3, [r1, #0]
      if((__HAL_RCC_GET_FLAG(RCC_FLAG_HSIRDY) != RESET) && (RCC_OscInitStruct->HSIState != RCC_HSI_ON))
 8001b2a:	e03a      	b.n	8001ba2 <HAL_RCC_OscConfig+0x1de>
      }
    }
    else
    {
      /* Check the HSI State */
      if((RCC_OscInitStruct->HSIState)!= RCC_HSI_OFF)
 8001b2c:	687b      	ldr	r3, [r7, #4]
 8001b2e:	68db      	ldr	r3, [r3, #12]
 8001b30:	2b00      	cmp	r3, #0
 8001b32:	d020      	beq.n	8001b76 <HAL_RCC_OscConfig+0x1b2>
      {
        /* Enable the Internal High Speed oscillator (HSI). */
        __HAL_RCC_HSI_ENABLE();
 8001b34:	4b34      	ldr	r3, [pc, #208]	; (8001c08 <HAL_RCC_OscConfig+0x244>)
 8001b36:	2201      	movs	r2, #1
 8001b38:	601a      	str	r2, [r3, #0]

        /* Get Start Tick*/
        tickstart = HAL_GetTick();
 8001b3a:	f7ff fbd1 	bl	80012e0 <HAL_GetTick>
 8001b3e:	6138      	str	r0, [r7, #16]

        /* Wait till HSI is ready */
        while(__HAL_RCC_GET_FLAG(RCC_FLAG_HSIRDY) == RESET)
 8001b40:	e008      	b.n	8001b54 <HAL_RCC_OscConfig+0x190>
        {
          if((HAL_GetTick() - tickstart ) > HSI_TIMEOUT_VALUE)
 8001b42:	f7ff fbcd 	bl	80012e0 <HAL_GetTick>
 8001b46:	4602      	mov	r2, r0
 8001b48:	693b      	ldr	r3, [r7, #16]
 8001b4a:	1ad3      	subs	r3, r2, r3
 8001b4c:	2b02      	cmp	r3, #2
 8001b4e:	d901      	bls.n	8001b54 <HAL_RCC_OscConfig+0x190>
          {
            return HAL_TIMEOUT;
 8001b50:	2303      	movs	r3, #3
 8001b52:	e1a8      	b.n	8001ea6 <HAL_RCC_OscConfig+0x4e2>
        while(__HAL_RCC_GET_FLAG(RCC_FLAG_HSIRDY) == RESET)
 8001b54:	4b2b      	ldr	r3, [pc, #172]	; (8001c04 <HAL_RCC_OscConfig+0x240>)
 8001b56:	681b      	ldr	r3, [r3, #0]
 8001b58:	f003 0302 	and.w	r3, r3, #2
 8001b5c:	2b00      	cmp	r3, #0
 8001b5e:	d0f0      	beq.n	8001b42 <HAL_RCC_OscConfig+0x17e>
          }
        }

        /* Adjusts the Internal High Speed oscillator (HSI) calibration value. */
        __HAL_RCC_HSI_CALIBRATIONVALUE_ADJUST(RCC_OscInitStruct->HSICalibrationValue);
 8001b60:	4b28      	ldr	r3, [pc, #160]	; (8001c04 <HAL_RCC_OscConfig+0x240>)
 8001b62:	681b      	ldr	r3, [r3, #0]
 8001b64:	f023 02f8 	bic.w	r2, r3, #248	; 0xf8
 8001b68:	687b      	ldr	r3, [r7, #4]
 8001b6a:	691b      	ldr	r3, [r3, #16]
 8001b6c:	00db      	lsls	r3, r3, #3
 8001b6e:	4925      	ldr	r1, [pc, #148]	; (8001c04 <HAL_RCC_OscConfig+0x240>)
 8001b70:	4313      	orrs	r3, r2
 8001b72:	600b      	str	r3, [r1, #0]
 8001b74:	e015      	b.n	8001ba2 <HAL_RCC_OscConfig+0x1de>
      }
      else
      {
        /* Disable the Internal High Speed oscillator (HSI). */
        __HAL_RCC_HSI_DISABLE();
 8001b76:	4b24      	ldr	r3, [pc, #144]	; (8001c08 <HAL_RCC_OscConfig+0x244>)
 8001b78:	2200      	movs	r2, #0
 8001b7a:	601a      	str	r2, [r3, #0]

        /* Get Start Tick*/
        tickstart = HAL_GetTick();
 8001b7c:	f7ff fbb0 	bl	80012e0 <HAL_GetTick>
 8001b80:	6138      	str	r0, [r7, #16]

        /* Wait till HSI is ready */
        while(__HAL_RCC_GET_FLAG(RCC_FLAG_HSIRDY) != RESET)
 8001b82:	e008      	b.n	8001b96 <HAL_RCC_OscConfig+0x1d2>
        {
          if((HAL_GetTick() - tickstart ) > HSI_TIMEOUT_VALUE)
 8001b84:	f7ff fbac 	bl	80012e0 <HAL_GetTick>
 8001b88:	4602      	mov	r2, r0
 8001b8a:	693b      	ldr	r3, [r7, #16]
 8001b8c:	1ad3      	subs	r3, r2, r3
 8001b8e:	2b02      	cmp	r3, #2
 8001b90:	d901      	bls.n	8001b96 <HAL_RCC_OscConfig+0x1d2>
          {
            return HAL_TIMEOUT;
 8001b92:	2303      	movs	r3, #3
 8001b94:	e187      	b.n	8001ea6 <HAL_RCC_OscConfig+0x4e2>
        while(__HAL_RCC_GET_FLAG(RCC_FLAG_HSIRDY) != RESET)
 8001b96:	4b1b      	ldr	r3, [pc, #108]	; (8001c04 <HAL_RCC_OscConfig+0x240>)
 8001b98:	681b      	ldr	r3, [r3, #0]
 8001b9a:	f003 0302 	and.w	r3, r3, #2
 8001b9e:	2b00      	cmp	r3, #0
 8001ba0:	d1f0      	bne.n	8001b84 <HAL_RCC_OscConfig+0x1c0>
        }
      }
    }
  }
  /*------------------------------ LSI Configuration -------------------------*/
  if(((RCC_OscInitStruct->OscillatorType) & RCC_OSCILLATORTYPE_LSI) == RCC_OSCILLATORTYPE_LSI)
 8001ba2:	687b      	ldr	r3, [r7, #4]
 8001ba4:	681b      	ldr	r3, [r3, #0]
 8001ba6:	f003 0308 	and.w	r3, r3, #8
 8001baa:	2b00      	cmp	r3, #0
 8001bac:	d036      	beq.n	8001c1c <HAL_RCC_OscConfig+0x258>
  {
    /* Check the parameters */
    assert_param(IS_RCC_LSI(RCC_OscInitStruct->LSIState));

    /* Check the LSI State */
    if((RCC_OscInitStruct->LSIState)!= RCC_LSI_OFF)
 8001bae:	687b      	ldr	r3, [r7, #4]
 8001bb0:	695b      	ldr	r3, [r3, #20]
 8001bb2:	2b00      	cmp	r3, #0
 8001bb4:	d016      	beq.n	8001be4 <HAL_RCC_OscConfig+0x220>
    {
      /* Enable the Internal Low Speed oscillator (LSI). */
      __HAL_RCC_LSI_ENABLE();
 8001bb6:	4b15      	ldr	r3, [pc, #84]	; (8001c0c <HAL_RCC_OscConfig+0x248>)
 8001bb8:	2201      	movs	r2, #1
 8001bba:	601a      	str	r2, [r3, #0]

      /* Get Start Tick*/
      tickstart = HAL_GetTick();
 8001bbc:	f7ff fb90 	bl	80012e0 <HAL_GetTick>
 8001bc0:	6138      	str	r0, [r7, #16]

      /* Wait till LSI is ready */
      while(__HAL_RCC_GET_FLAG(RCC_FLAG_LSIRDY) == RESET)
 8001bc2:	e008      	b.n	8001bd6 <HAL_RCC_OscConfig+0x212>
      {
        if((HAL_GetTick() - tickstart ) > LSI_TIMEOUT_VALUE)
 8001bc4:	f7ff fb8c 	bl	80012e0 <HAL_GetTick>
 8001bc8:	4602      	mov	r2, r0
 8001bca:	693b      	ldr	r3, [r7, #16]
 8001bcc:	1ad3      	subs	r3, r2, r3
 8001bce:	2b02      	cmp	r3, #2
 8001bd0:	d901      	bls.n	8001bd6 <HAL_RCC_OscConfig+0x212>
        {
          return HAL_TIMEOUT;
 8001bd2:	2303      	movs	r3, #3
 8001bd4:	e167      	b.n	8001ea6 <HAL_RCC_OscConfig+0x4e2>
      while(__HAL_RCC_GET_FLAG(RCC_FLAG_LSIRDY) == RESET)
 8001bd6:	4b0b      	ldr	r3, [pc, #44]	; (8001c04 <HAL_RCC_OscConfig+0x240>)
 8001bd8:	6f5b      	ldr	r3, [r3, #116]	; 0x74
 8001bda:	f003 0302 	and.w	r3, r3, #2
 8001bde:	2b00      	cmp	r3, #0
 8001be0:	d0f0      	beq.n	8001bc4 <HAL_RCC_OscConfig+0x200>
 8001be2:	e01b      	b.n	8001c1c <HAL_RCC_OscConfig+0x258>
      }
    }
    else
    {
      /* Disable the Internal Low Speed oscillator (LSI). */
      __HAL_RCC_LSI_DISABLE();
 8001be4:	4b09      	ldr	r3, [pc, #36]	; (8001c0c <HAL_RCC_OscConfig+0x248>)
 8001be6:	2200      	movs	r2, #0
 8001be8:	601a      	str	r2, [r3, #0]

      /* Get Start Tick */
      tickstart = HAL_GetTick();
 8001bea:	f7ff fb79 	bl	80012e0 <HAL_GetTick>
 8001bee:	6138      	str	r0, [r7, #16]

      /* Wait till LSI is ready */
      while(__HAL_RCC_GET_FLAG(RCC_FLAG_LSIRDY) != RESET)
 8001bf0:	e00e      	b.n	8001c10 <HAL_RCC_OscConfig+0x24c>
      {
        if((HAL_GetTick() - tickstart ) > LSI_TIMEOUT_VALUE)
 8001bf2:	f7ff fb75 	bl	80012e0 <HAL_GetTick>
 8001bf6:	4602      	mov	r2, r0
 8001bf8:	693b      	ldr	r3, [r7, #16]
 8001bfa:	1ad3      	subs	r3, r2, r3
 8001bfc:	2b02      	cmp	r3, #2
 8001bfe:	d907      	bls.n	8001c10 <HAL_RCC_OscConfig+0x24c>
        {
          return HAL_TIMEOUT;
 8001c00:	2303      	movs	r3, #3
 8001c02:	e150      	b.n	8001ea6 <HAL_RCC_OscConfig+0x4e2>
 8001c04:	40023800 	.word	0x40023800
 8001c08:	42470000 	.word	0x42470000
 8001c0c:	42470e80 	.word	0x42470e80
      while(__HAL_RCC_GET_FLAG(RCC_FLAG_LSIRDY) != RESET)
 8001c10:	4b88      	ldr	r3, [pc, #544]	; (8001e34 <HAL_RCC_OscConfig+0x470>)
 8001c12:	6f5b      	ldr	r3, [r3, #116]	; 0x74
 8001c14:	f003 0302 	and.w	r3, r3, #2
 8001c18:	2b00      	cmp	r3, #0
 8001c1a:	d1ea      	bne.n	8001bf2 <HAL_RCC_OscConfig+0x22e>
        }
      }
    }
  }
  /*------------------------------ LSE Configuration -------------------------*/
  if(((RCC_OscInitStruct->OscillatorType) & RCC_OSCILLATORTYPE_LSE) == RCC_OSCILLATORTYPE_LSE)
 8001c1c:	687b      	ldr	r3, [r7, #4]
 8001c1e:	681b      	ldr	r3, [r3, #0]
 8001c20:	f003 0304 	and.w	r3, r3, #4
 8001c24:	2b00      	cmp	r3, #0
 8001c26:	f000 8097 	beq.w	8001d58 <HAL_RCC_OscConfig+0x394>
  {
    FlagStatus       pwrclkchanged = RESET;
 8001c2a:	2300      	movs	r3, #0
 8001c2c:	75fb      	strb	r3, [r7, #23]
    /* Check the parameters */
    assert_param(IS_RCC_LSE(RCC_OscInitStruct->LSEState));

    /* Update LSE configuration in Backup Domain control register    */
    /* Requires to enable write access to Backup Domain of necessary */
    if(__HAL_RCC_PWR_IS_CLK_DISABLED())
 8001c2e:	4b81      	ldr	r3, [pc, #516]	; (8001e34 <HAL_RCC_OscConfig+0x470>)
 8001c30:	6c1b      	ldr	r3, [r3, #64]	; 0x40
 8001c32:	f003 5380 	and.w	r3, r3, #268435456	; 0x10000000
 8001c36:	2b00      	cmp	r3, #0
 8001c38:	d10f      	bne.n	8001c5a <HAL_RCC_OscConfig+0x296>
    {
      __HAL_RCC_PWR_CLK_ENABLE();
 8001c3a:	2300      	movs	r3, #0
 8001c3c:	60bb      	str	r3, [r7, #8]
 8001c3e:	4b7d      	ldr	r3, [pc, #500]	; (8001e34 <HAL_RCC_OscConfig+0x470>)
 8001c40:	6c1b      	ldr	r3, [r3, #64]	; 0x40
 8001c42:	4a7c      	ldr	r2, [pc, #496]	; (8001e34 <HAL_RCC_OscConfig+0x470>)
 8001c44:	f043 5380 	orr.w	r3, r3, #268435456	; 0x10000000
 8001c48:	6413      	str	r3, [r2, #64]	; 0x40
 8001c4a:	4b7a      	ldr	r3, [pc, #488]	; (8001e34 <HAL_RCC_OscConfig+0x470>)
 8001c4c:	6c1b      	ldr	r3, [r3, #64]	; 0x40
 8001c4e:	f003 5380 	and.w	r3, r3, #268435456	; 0x10000000
 8001c52:	60bb      	str	r3, [r7, #8]
 8001c54:	68bb      	ldr	r3, [r7, #8]
      pwrclkchanged = SET;
 8001c56:	2301      	movs	r3, #1
 8001c58:	75fb      	strb	r3, [r7, #23]
    }

    if(HAL_IS_BIT_CLR(PWR->CR, PWR_CR_DBP))
 8001c5a:	4b77      	ldr	r3, [pc, #476]	; (8001e38 <HAL_RCC_OscConfig+0x474>)
 8001c5c:	681b      	ldr	r3, [r3, #0]
 8001c5e:	f403 7380 	and.w	r3, r3, #256	; 0x100
 8001c62:	2b00      	cmp	r3, #0
 8001c64:	d118      	bne.n	8001c98 <HAL_RCC_OscConfig+0x2d4>
    {
      /* Enable write access to Backup domain */
      SET_BIT(PWR->CR, PWR_CR_DBP);
 8001c66:	4b74      	ldr	r3, [pc, #464]	; (8001e38 <HAL_RCC_OscConfig+0x474>)
 8001c68:	681b      	ldr	r3, [r3, #0]
 8001c6a:	4a73      	ldr	r2, [pc, #460]	; (8001e38 <HAL_RCC_OscConfig+0x474>)
 8001c6c:	f443 7380 	orr.w	r3, r3, #256	; 0x100
 8001c70:	6013      	str	r3, [r2, #0]

      /* Wait for Backup domain Write protection disable */
      tickstart = HAL_GetTick();
 8001c72:	f7ff fb35 	bl	80012e0 <HAL_GetTick>
 8001c76:	6138      	str	r0, [r7, #16]

      while(HAL_IS_BIT_CLR(PWR->CR, PWR_CR_DBP))
 8001c78:	e008      	b.n	8001c8c <HAL_RCC_OscConfig+0x2c8>
      {
        if((HAL_GetTick() - tickstart) > RCC_DBP_TIMEOUT_VALUE)
 8001c7a:	f7ff fb31 	bl	80012e0 <HAL_GetTick>
 8001c7e:	4602      	mov	r2, r0
 8001c80:	693b      	ldr	r3, [r7, #16]
 8001c82:	1ad3      	subs	r3, r2, r3
 8001c84:	2b02      	cmp	r3, #2
 8001c86:	d901      	bls.n	8001c8c <HAL_RCC_OscConfig+0x2c8>
        {
          return HAL_TIMEOUT;
 8001c88:	2303      	movs	r3, #3
 8001c8a:	e10c      	b.n	8001ea6 <HAL_RCC_OscConfig+0x4e2>
      while(HAL_IS_BIT_CLR(PWR->CR, PWR_CR_DBP))
 8001c8c:	4b6a      	ldr	r3, [pc, #424]	; (8001e38 <HAL_RCC_OscConfig+0x474>)
 8001c8e:	681b      	ldr	r3, [r3, #0]
 8001c90:	f403 7380 	and.w	r3, r3, #256	; 0x100
 8001c94:	2b00      	cmp	r3, #0
 8001c96:	d0f0      	beq.n	8001c7a <HAL_RCC_OscConfig+0x2b6>
        }
      }
    }

    /* Set the new LSE configuration -----------------------------------------*/
    __HAL_RCC_LSE_CONFIG(RCC_OscInitStruct->LSEState);
 8001c98:	687b      	ldr	r3, [r7, #4]
 8001c9a:	689b      	ldr	r3, [r3, #8]
 8001c9c:	2b01      	cmp	r3, #1
 8001c9e:	d106      	bne.n	8001cae <HAL_RCC_OscConfig+0x2ea>
 8001ca0:	4b64      	ldr	r3, [pc, #400]	; (8001e34 <HAL_RCC_OscConfig+0x470>)
 8001ca2:	6f1b      	ldr	r3, [r3, #112]	; 0x70
 8001ca4:	4a63      	ldr	r2, [pc, #396]	; (8001e34 <HAL_RCC_OscConfig+0x470>)
 8001ca6:	f043 0301 	orr.w	r3, r3, #1
 8001caa:	6713      	str	r3, [r2, #112]	; 0x70
 8001cac:	e01c      	b.n	8001ce8 <HAL_RCC_OscConfig+0x324>
 8001cae:	687b      	ldr	r3, [r7, #4]
 8001cb0:	689b      	ldr	r3, [r3, #8]
 8001cb2:	2b05      	cmp	r3, #5
 8001cb4:	d10c      	bne.n	8001cd0 <HAL_RCC_OscConfig+0x30c>
 8001cb6:	4b5f      	ldr	r3, [pc, #380]	; (8001e34 <HAL_RCC_OscConfig+0x470>)
 8001cb8:	6f1b      	ldr	r3, [r3, #112]	; 0x70
 8001cba:	4a5e      	ldr	r2, [pc, #376]	; (8001e34 <HAL_RCC_OscConfig+0x470>)
 8001cbc:	f043 0304 	orr.w	r3, r3, #4
 8001cc0:	6713      	str	r3, [r2, #112]	; 0x70
 8001cc2:	4b5c      	ldr	r3, [pc, #368]	; (8001e34 <HAL_RCC_OscConfig+0x470>)
 8001cc4:	6f1b      	ldr	r3, [r3, #112]	; 0x70
 8001cc6:	4a5b      	ldr	r2, [pc, #364]	; (8001e34 <HAL_RCC_OscConfig+0x470>)
 8001cc8:	f043 0301 	orr.w	r3, r3, #1
 8001ccc:	6713      	str	r3, [r2, #112]	; 0x70
 8001cce:	e00b      	b.n	8001ce8 <HAL_RCC_OscConfig+0x324>
 8001cd0:	4b58      	ldr	r3, [pc, #352]	; (8001e34 <HAL_RCC_OscConfig+0x470>)
 8001cd2:	6f1b      	ldr	r3, [r3, #112]	; 0x70
 8001cd4:	4a57      	ldr	r2, [pc, #348]	; (8001e34 <HAL_RCC_OscConfig+0x470>)
 8001cd6:	f023 0301 	bic.w	r3, r3, #1
 8001cda:	6713      	str	r3, [r2, #112]	; 0x70
 8001cdc:	4b55      	ldr	r3, [pc, #340]	; (8001e34 <HAL_RCC_OscConfig+0x470>)
 8001cde:	6f1b      	ldr	r3, [r3, #112]	; 0x70
 8001ce0:	4a54      	ldr	r2, [pc, #336]	; (8001e34 <HAL_RCC_OscConfig+0x470>)
 8001ce2:	f023 0304 	bic.w	r3, r3, #4
 8001ce6:	6713      	str	r3, [r2, #112]	; 0x70
    /* Check the LSE State */
    if((RCC_OscInitStruct->LSEState) != RCC_LSE_OFF)
 8001ce8:	687b      	ldr	r3, [r7, #4]
 8001cea:	689b      	ldr	r3, [r3, #8]
 8001cec:	2b00      	cmp	r3, #0
 8001cee:	d015      	beq.n	8001d1c <HAL_RCC_OscConfig+0x358>
    {
      /* Get Start Tick*/
      tickstart = HAL_GetTick();
 8001cf0:	f7ff faf6 	bl	80012e0 <HAL_GetTick>
 8001cf4:	6138      	str	r0, [r7, #16]

      /* Wait till LSE is ready */
      while(__HAL_RCC_GET_FLAG(RCC_FLAG_LSERDY) == RESET)
 8001cf6:	e00a      	b.n	8001d0e <HAL_RCC_OscConfig+0x34a>
      {
        if((HAL_GetTick() - tickstart ) > RCC_LSE_TIMEOUT_VALUE)
 8001cf8:	f7ff faf2 	bl	80012e0 <HAL_GetTick>
 8001cfc:	4602      	mov	r2, r0
 8001cfe:	693b      	ldr	r3, [r7, #16]
 8001d00:	1ad3      	subs	r3, r2, r3
 8001d02:	f241 3288 	movw	r2, #5000	; 0x1388
 8001d06:	4293      	cmp	r3, r2
 8001d08:	d901      	bls.n	8001d0e <HAL_RCC_OscConfig+0x34a>
        {
          return HAL_TIMEOUT;
 8001d0a:	2303      	movs	r3, #3
 8001d0c:	e0cb      	b.n	8001ea6 <HAL_RCC_OscConfig+0x4e2>
      while(__HAL_RCC_GET_FLAG(RCC_FLAG_LSERDY) == RESET)
 8001d0e:	4b49      	ldr	r3, [pc, #292]	; (8001e34 <HAL_RCC_OscConfig+0x470>)
 8001d10:	6f1b      	ldr	r3, [r3, #112]	; 0x70
 8001d12:	f003 0302 	and.w	r3, r3, #2
 8001d16:	2b00      	cmp	r3, #0
 8001d18:	d0ee      	beq.n	8001cf8 <HAL_RCC_OscConfig+0x334>
 8001d1a:	e014      	b.n	8001d46 <HAL_RCC_OscConfig+0x382>
      }
    }
    else
    {
      /* Get Start Tick */
      tickstart = HAL_GetTick();
 8001d1c:	f7ff fae0 	bl	80012e0 <HAL_GetTick>
 8001d20:	6138      	str	r0, [r7, #16]

      /* Wait till LSE is ready */
      while(__HAL_RCC_GET_FLAG(RCC_FLAG_LSERDY) != RESET)
 8001d22:	e00a      	b.n	8001d3a <HAL_RCC_OscConfig+0x376>
      {
        if((HAL_GetTick() - tickstart ) > RCC_LSE_TIMEOUT_VALUE)
 8001d24:	f7ff fadc 	bl	80012e0 <HAL_GetTick>
 8001d28:	4602      	mov	r2, r0
 8001d2a:	693b      	ldr	r3, [r7, #16]
 8001d2c:	1ad3      	subs	r3, r2, r3
 8001d2e:	f241 3288 	movw	r2, #5000	; 0x1388
 8001d32:	4293      	cmp	r3, r2
 8001d34:	d901      	bls.n	8001d3a <HAL_RCC_OscConfig+0x376>
        {
          return HAL_TIMEOUT;
 8001d36:	2303      	movs	r3, #3
 8001d38:	e0b5      	b.n	8001ea6 <HAL_RCC_OscConfig+0x4e2>
      while(__HAL_RCC_GET_FLAG(RCC_FLAG_LSERDY) != RESET)
 8001d3a:	4b3e      	ldr	r3, [pc, #248]	; (8001e34 <HAL_RCC_OscConfig+0x470>)
 8001d3c:	6f1b      	ldr	r3, [r3, #112]	; 0x70
 8001d3e:	f003 0302 	and.w	r3, r3, #2
 8001d42:	2b00      	cmp	r3, #0
 8001d44:	d1ee      	bne.n	8001d24 <HAL_RCC_OscConfig+0x360>
        }
      }
    }

    /* Restore clock configuration if changed */
    if(pwrclkchanged == SET)
 8001d46:	7dfb      	ldrb	r3, [r7, #23]
 8001d48:	2b01      	cmp	r3, #1
 8001d4a:	d105      	bne.n	8001d58 <HAL_RCC_OscConfig+0x394>
    {
      __HAL_RCC_PWR_CLK_DISABLE();
 8001d4c:	4b39      	ldr	r3, [pc, #228]	; (8001e34 <HAL_RCC_OscConfig+0x470>)
 8001d4e:	6c1b      	ldr	r3, [r3, #64]	; 0x40
 8001d50:	4a38      	ldr	r2, [pc, #224]	; (8001e34 <HAL_RCC_OscConfig+0x470>)
 8001d52:	f023 5380 	bic.w	r3, r3, #268435456	; 0x10000000
 8001d56:	6413      	str	r3, [r2, #64]	; 0x40
    }
  }
  /*-------------------------------- PLL Configuration -----------------------*/
  /* Check the parameters */
  assert_param(IS_RCC_PLL(RCC_OscInitStruct->PLL.PLLState));
  if ((RCC_OscInitStruct->PLL.PLLState) != RCC_PLL_NONE)
 8001d58:	687b      	ldr	r3, [r7, #4]
 8001d5a:	699b      	ldr	r3, [r3, #24]
 8001d5c:	2b00      	cmp	r3, #0
 8001d5e:	f000 80a1 	beq.w	8001ea4 <HAL_RCC_OscConfig+0x4e0>
  {
    /* Check if the PLL is used as system clock or not */
    if(__HAL_RCC_GET_SYSCLK_SOURCE() != RCC_CFGR_SWS_PLL)
 8001d62:	4b34      	ldr	r3, [pc, #208]	; (8001e34 <HAL_RCC_OscConfig+0x470>)
 8001d64:	689b      	ldr	r3, [r3, #8]
 8001d66:	f003 030c 	and.w	r3, r3, #12
 8001d6a:	2b08      	cmp	r3, #8
 8001d6c:	d05c      	beq.n	8001e28 <HAL_RCC_OscConfig+0x464>
    {
      if((RCC_OscInitStruct->PLL.PLLState) == RCC_PLL_ON)
 8001d6e:	687b      	ldr	r3, [r7, #4]
 8001d70:	699b      	ldr	r3, [r3, #24]
 8001d72:	2b02      	cmp	r3, #2
 8001d74:	d141      	bne.n	8001dfa <HAL_RCC_OscConfig+0x436>
        assert_param(IS_RCC_PLLN_VALUE(RCC_OscInitStruct->PLL.PLLN));
        assert_param(IS_RCC_PLLP_VALUE(RCC_OscInitStruct->PLL.PLLP));
        assert_param(IS_RCC_PLLQ_VALUE(RCC_OscInitStruct->PLL.PLLQ));

        /* Disable the main PLL. */
        __HAL_RCC_PLL_DISABLE();
 8001d76:	4b31      	ldr	r3, [pc, #196]	; (8001e3c <HAL_RCC_OscConfig+0x478>)
 8001d78:	2200      	movs	r2, #0
 8001d7a:	601a      	str	r2, [r3, #0]

        /* Get Start Tick */
        tickstart = HAL_GetTick();
 8001d7c:	f7ff fab0 	bl	80012e0 <HAL_GetTick>
 8001d80:	6138      	str	r0, [r7, #16]

        /* Wait till PLL is ready */
        while(__HAL_RCC_GET_FLAG(RCC_FLAG_PLLRDY) != RESET)
 8001d82:	e008      	b.n	8001d96 <HAL_RCC_OscConfig+0x3d2>
        {
          if((HAL_GetTick() - tickstart ) > PLL_TIMEOUT_VALUE)
 8001d84:	f7ff faac 	bl	80012e0 <HAL_GetTick>
 8001d88:	4602      	mov	r2, r0
 8001d8a:	693b      	ldr	r3, [r7, #16]
 8001d8c:	1ad3      	subs	r3, r2, r3
 8001d8e:	2b02      	cmp	r3, #2
 8001d90:	d901      	bls.n	8001d96 <HAL_RCC_OscConfig+0x3d2>
          {
            return HAL_TIMEOUT;
 8001d92:	2303      	movs	r3, #3
 8001d94:	e087      	b.n	8001ea6 <HAL_RCC_OscConfig+0x4e2>
        while(__HAL_RCC_GET_FLAG(RCC_FLAG_PLLRDY) != RESET)
 8001d96:	4b27      	ldr	r3, [pc, #156]	; (8001e34 <HAL_RCC_OscConfig+0x470>)
 8001d98:	681b      	ldr	r3, [r3, #0]
 8001d9a:	f003 7300 	and.w	r3, r3, #33554432	; 0x2000000
 8001d9e:	2b00      	cmp	r3, #0
 8001da0:	d1f0      	bne.n	8001d84 <HAL_RCC_OscConfig+0x3c0>
          }
        }

        /* Configure the main PLL clock source, multiplication and division factors. */
        WRITE_REG(RCC->PLLCFGR, (RCC_OscInitStruct->PLL.PLLSource                                            | \
 8001da2:	687b      	ldr	r3, [r7, #4]
 8001da4:	69da      	ldr	r2, [r3, #28]
 8001da6:	687b      	ldr	r3, [r7, #4]
 8001da8:	6a1b      	ldr	r3, [r3, #32]
 8001daa:	431a      	orrs	r2, r3
 8001dac:	687b      	ldr	r3, [r7, #4]
 8001dae:	6a5b      	ldr	r3, [r3, #36]	; 0x24
 8001db0:	019b      	lsls	r3, r3, #6
 8001db2:	431a      	orrs	r2, r3
 8001db4:	687b      	ldr	r3, [r7, #4]
 8001db6:	6a9b      	ldr	r3, [r3, #40]	; 0x28
 8001db8:	085b      	lsrs	r3, r3, #1
 8001dba:	3b01      	subs	r3, #1
 8001dbc:	041b      	lsls	r3, r3, #16
 8001dbe:	431a      	orrs	r2, r3
 8001dc0:	687b      	ldr	r3, [r7, #4]
 8001dc2:	6adb      	ldr	r3, [r3, #44]	; 0x2c
 8001dc4:	061b      	lsls	r3, r3, #24
 8001dc6:	491b      	ldr	r1, [pc, #108]	; (8001e34 <HAL_RCC_OscConfig+0x470>)
 8001dc8:	4313      	orrs	r3, r2
 8001dca:	604b      	str	r3, [r1, #4]
                                 RCC_OscInitStruct->PLL.PLLM                                                 | \
                                 (RCC_OscInitStruct->PLL.PLLN << RCC_PLLCFGR_PLLN_Pos)             | \
                                 (((RCC_OscInitStruct->PLL.PLLP >> 1U) - 1U) << RCC_PLLCFGR_PLLP_Pos) | \
                                 (RCC_OscInitStruct->PLL.PLLQ << RCC_PLLCFGR_PLLQ_Pos)));
        /* Enable the main PLL. */
        __HAL_RCC_PLL_ENABLE();
 8001dcc:	4b1b      	ldr	r3, [pc, #108]	; (8001e3c <HAL_RCC_OscConfig+0x478>)
 8001dce:	2201      	movs	r2, #1
 8001dd0:	601a      	str	r2, [r3, #0]

        /* Get Start Tick */
        tickstart = HAL_GetTick();
 8001dd2:	f7ff fa85 	bl	80012e0 <HAL_GetTick>
 8001dd6:	6138      	str	r0, [r7, #16]

        /* Wait till PLL is ready */
        while(__HAL_RCC_GET_FLAG(RCC_FLAG_PLLRDY) == RESET)
 8001dd8:	e008      	b.n	8001dec <HAL_RCC_OscConfig+0x428>
        {
          if((HAL_GetTick() - tickstart ) > PLL_TIMEOUT_VALUE)
 8001dda:	f7ff fa81 	bl	80012e0 <HAL_GetTick>
 8001dde:	4602      	mov	r2, r0
 8001de0:	693b      	ldr	r3, [r7, #16]
 8001de2:	1ad3      	subs	r3, r2, r3
 8001de4:	2b02      	cmp	r3, #2
 8001de6:	d901      	bls.n	8001dec <HAL_RCC_OscConfig+0x428>
          {
            return HAL_TIMEOUT;
 8001de8:	2303      	movs	r3, #3
 8001dea:	e05c      	b.n	8001ea6 <HAL_RCC_OscConfig+0x4e2>
        while(__HAL_RCC_GET_FLAG(RCC_FLAG_PLLRDY) == RESET)
 8001dec:	4b11      	ldr	r3, [pc, #68]	; (8001e34 <HAL_RCC_OscConfig+0x470>)
 8001dee:	681b      	ldr	r3, [r3, #0]
 8001df0:	f003 7300 	and.w	r3, r3, #33554432	; 0x2000000
 8001df4:	2b00      	cmp	r3, #0
 8001df6:	d0f0      	beq.n	8001dda <HAL_RCC_OscConfig+0x416>
 8001df8:	e054      	b.n	8001ea4 <HAL_RCC_OscConfig+0x4e0>
        }
      }
      else
      {
        /* Disable the main PLL. */
        __HAL_RCC_PLL_DISABLE();
 8001dfa:	4b10      	ldr	r3, [pc, #64]	; (8001e3c <HAL_RCC_OscConfig+0x478>)
 8001dfc:	2200      	movs	r2, #0
 8001dfe:	601a      	str	r2, [r3, #0]

        /* Get Start Tick */
        tickstart = HAL_GetTick();
 8001e00:	f7ff fa6e 	bl	80012e0 <HAL_GetTick>
 8001e04:	6138      	str	r0, [r7, #16]

        /* Wait till PLL is ready */
        while(__HAL_RCC_GET_FLAG(RCC_FLAG_PLLRDY) != RESET)
 8001e06:	e008      	b.n	8001e1a <HAL_RCC_OscConfig+0x456>
        {
          if((HAL_GetTick() - tickstart ) > PLL_TIMEOUT_VALUE)
 8001e08:	f7ff fa6a 	bl	80012e0 <HAL_GetTick>
 8001e0c:	4602      	mov	r2, r0
 8001e0e:	693b      	ldr	r3, [r7, #16]
 8001e10:	1ad3      	subs	r3, r2, r3
 8001e12:	2b02      	cmp	r3, #2
 8001e14:	d901      	bls.n	8001e1a <HAL_RCC_OscConfig+0x456>
          {
            return HAL_TIMEOUT;
 8001e16:	2303      	movs	r3, #3
 8001e18:	e045      	b.n	8001ea6 <HAL_RCC_OscConfig+0x4e2>
        while(__HAL_RCC_GET_FLAG(RCC_FLAG_PLLRDY) != RESET)
 8001e1a:	4b06      	ldr	r3, [pc, #24]	; (8001e34 <HAL_RCC_OscConfig+0x470>)
 8001e1c:	681b      	ldr	r3, [r3, #0]
 8001e1e:	f003 7300 	and.w	r3, r3, #33554432	; 0x2000000
 8001e22:	2b00      	cmp	r3, #0
 8001e24:	d1f0      	bne.n	8001e08 <HAL_RCC_OscConfig+0x444>
 8001e26:	e03d      	b.n	8001ea4 <HAL_RCC_OscConfig+0x4e0>
      }
    }
    else
    {
      /* Check if there is a request to disable the PLL used as System clock source */
      if((RCC_OscInitStruct->PLL.PLLState) == RCC_PLL_OFF)
 8001e28:	687b      	ldr	r3, [r7, #4]
 8001e2a:	699b      	ldr	r3, [r3, #24]
 8001e2c:	2b01      	cmp	r3, #1
 8001e2e:	d107      	bne.n	8001e40 <HAL_RCC_OscConfig+0x47c>
      {
        return HAL_ERROR;
 8001e30:	2301      	movs	r3, #1
 8001e32:	e038      	b.n	8001ea6 <HAL_RCC_OscConfig+0x4e2>
 8001e34:	40023800 	.word	0x40023800
 8001e38:	40007000 	.word	0x40007000
 8001e3c:	42470060 	.word	0x42470060
      }
      else
      {
        /* Do not return HAL_ERROR if request repeats the current configuration */
        pll_config = RCC->PLLCFGR;
 8001e40:	4b1b      	ldr	r3, [pc, #108]	; (8001eb0 <HAL_RCC_OscConfig+0x4ec>)
 8001e42:	685b      	ldr	r3, [r3, #4]
 8001e44:	60fb      	str	r3, [r7, #12]
            (READ_BIT(pll_config, RCC_PLLCFGR_PLLN) != (RCC_OscInitStruct->PLL.PLLN) << RCC_PLLCFGR_PLLN_Pos) ||
            (READ_BIT(pll_config, RCC_PLLCFGR_PLLP) != (((RCC_OscInitStruct->PLL.PLLP >> 1U) - 1U)) << RCC_PLLCFGR_PLLP_Pos) ||
            (READ_BIT(pll_config, RCC_PLLCFGR_PLLQ) != (RCC_OscInitStruct->PLL.PLLQ << RCC_PLLCFGR_PLLQ_Pos)) ||
            (READ_BIT(pll_config, RCC_PLLCFGR_PLLR) != (RCC_OscInitStruct->PLL.PLLR << RCC_PLLCFGR_PLLR_Pos)))
#else
        if (((RCC_OscInitStruct->PLL.PLLState) == RCC_PLL_OFF) ||
 8001e46:	687b      	ldr	r3, [r7, #4]
 8001e48:	699b      	ldr	r3, [r3, #24]
 8001e4a:	2b01      	cmp	r3, #1
 8001e4c:	d028      	beq.n	8001ea0 <HAL_RCC_OscConfig+0x4dc>
            (READ_BIT(pll_config, RCC_PLLCFGR_PLLSRC) != RCC_OscInitStruct->PLL.PLLSource) ||
 8001e4e:	68fb      	ldr	r3, [r7, #12]
 8001e50:	f403 0280 	and.w	r2, r3, #4194304	; 0x400000
 8001e54:	687b      	ldr	r3, [r7, #4]
 8001e56:	69db      	ldr	r3, [r3, #28]
        if (((RCC_OscInitStruct->PLL.PLLState) == RCC_PLL_OFF) ||
 8001e58:	429a      	cmp	r2, r3
 8001e5a:	d121      	bne.n	8001ea0 <HAL_RCC_OscConfig+0x4dc>
            (READ_BIT(pll_config, RCC_PLLCFGR_PLLM) != (RCC_OscInitStruct->PLL.PLLM) << RCC_PLLCFGR_PLLM_Pos) ||
 8001e5c:	68fb      	ldr	r3, [r7, #12]
 8001e5e:	f003 023f 	and.w	r2, r3, #63	; 0x3f
 8001e62:	687b      	ldr	r3, [r7, #4]
 8001e64:	6a1b      	ldr	r3, [r3, #32]
            (READ_BIT(pll_config, RCC_PLLCFGR_PLLSRC) != RCC_OscInitStruct->PLL.PLLSource) ||
 8001e66:	429a      	cmp	r2, r3
 8001e68:	d11a      	bne.n	8001ea0 <HAL_RCC_OscConfig+0x4dc>
            (READ_BIT(pll_config, RCC_PLLCFGR_PLLN) != (RCC_OscInitStruct->PLL.PLLN) << RCC_PLLCFGR_PLLN_Pos) ||
 8001e6a:	68fa      	ldr	r2, [r7, #12]
 8001e6c:	f647 73c0 	movw	r3, #32704	; 0x7fc0
 8001e70:	4013      	ands	r3, r2
 8001e72:	687a      	ldr	r2, [r7, #4]
 8001e74:	6a52      	ldr	r2, [r2, #36]	; 0x24
 8001e76:	0192      	lsls	r2, r2, #6
            (READ_BIT(pll_config, RCC_PLLCFGR_PLLM) != (RCC_OscInitStruct->PLL.PLLM) << RCC_PLLCFGR_PLLM_Pos) ||
 8001e78:	4293      	cmp	r3, r2
 8001e7a:	d111      	bne.n	8001ea0 <HAL_RCC_OscConfig+0x4dc>
            (READ_BIT(pll_config, RCC_PLLCFGR_PLLP) != (((RCC_OscInitStruct->PLL.PLLP >> 1U) - 1U)) << RCC_PLLCFGR_PLLP_Pos) ||
 8001e7c:	68fb      	ldr	r3, [r7, #12]
 8001e7e:	f403 3240 	and.w	r2, r3, #196608	; 0x30000
 8001e82:	687b      	ldr	r3, [r7, #4]
 8001e84:	6a9b      	ldr	r3, [r3, #40]	; 0x28
 8001e86:	085b      	lsrs	r3, r3, #1
 8001e88:	3b01      	subs	r3, #1
 8001e8a:	041b      	lsls	r3, r3, #16
            (READ_BIT(pll_config, RCC_PLLCFGR_PLLN) != (RCC_OscInitStruct->PLL.PLLN) << RCC_PLLCFGR_PLLN_Pos) ||
 8001e8c:	429a      	cmp	r2, r3
 8001e8e:	d107      	bne.n	8001ea0 <HAL_RCC_OscConfig+0x4dc>
            (READ_BIT(pll_config, RCC_PLLCFGR_PLLQ) != (RCC_OscInitStruct->PLL.PLLQ << RCC_PLLCFGR_PLLQ_Pos)))
 8001e90:	68fb      	ldr	r3, [r7, #12]
 8001e92:	f003 6270 	and.w	r2, r3, #251658240	; 0xf000000
 8001e96:	687b      	ldr	r3, [r7, #4]
 8001e98:	6adb      	ldr	r3, [r3, #44]	; 0x2c
 8001e9a:	061b      	lsls	r3, r3, #24
            (READ_BIT(pll_config, RCC_PLLCFGR_PLLP) != (((RCC_OscInitStruct->PLL.PLLP >> 1U) - 1U)) << RCC_PLLCFGR_PLLP_Pos) ||
 8001e9c:	429a      	cmp	r2, r3
 8001e9e:	d001      	beq.n	8001ea4 <HAL_RCC_OscConfig+0x4e0>
#endif
        {
          return HAL_ERROR;
 8001ea0:	2301      	movs	r3, #1
 8001ea2:	e000      	b.n	8001ea6 <HAL_RCC_OscConfig+0x4e2>
        }
      }
    }
  }
  return HAL_OK;
 8001ea4:	2300      	movs	r3, #0
}
 8001ea6:	4618      	mov	r0, r3
 8001ea8:	3718      	adds	r7, #24
 8001eaa:	46bd      	mov	sp, r7
 8001eac:	bd80      	pop	{r7, pc}
 8001eae:	bf00      	nop
 8001eb0:	40023800 	.word	0x40023800

08001eb4 <HAL_RCC_ClockConfig>:
  *         HPRE[3:0] bits to ensure that HCLK not exceed the maximum allowed frequency
  *         (for more details refer to section above "Initialization/de-initialization functions")
  * @retval None
  */
HAL_StatusTypeDef HAL_RCC_ClockConfig(RCC_ClkInitTypeDef  *RCC_ClkInitStruct, uint32_t FLatency)
{
 8001eb4:	b580      	push	{r7, lr}
 8001eb6:	b084      	sub	sp, #16
 8001eb8:	af00      	add	r7, sp, #0
 8001eba:	6078      	str	r0, [r7, #4]
 8001ebc:	6039      	str	r1, [r7, #0]
  uint32_t tickstart;

  /* Check Null pointer */
  if(RCC_ClkInitStruct == NULL)
 8001ebe:	687b      	ldr	r3, [r7, #4]
 8001ec0:	2b00      	cmp	r3, #0
 8001ec2:	d101      	bne.n	8001ec8 <HAL_RCC_ClockConfig+0x14>
  {
    return HAL_ERROR;
 8001ec4:	2301      	movs	r3, #1
 8001ec6:	e0cc      	b.n	8002062 <HAL_RCC_ClockConfig+0x1ae>
  /* To correctly read data from FLASH memory, the number of wait states (LATENCY)
    must be correctly programmed according to the frequency of the CPU clock
    (HCLK) and the supply voltage of the device. */

  /* Increasing the number of wait states because of higher CPU frequency */
  if(FLatency > __HAL_FLASH_GET_LATENCY())
 8001ec8:	4b68      	ldr	r3, [pc, #416]	; (800206c <HAL_RCC_ClockConfig+0x1b8>)
 8001eca:	681b      	ldr	r3, [r3, #0]
 8001ecc:	f003 0307 	and.w	r3, r3, #7
 8001ed0:	683a      	ldr	r2, [r7, #0]
 8001ed2:	429a      	cmp	r2, r3
 8001ed4:	d90c      	bls.n	8001ef0 <HAL_RCC_ClockConfig+0x3c>
  {
    /* Program the new number of wait states to the LATENCY bits in the FLASH_ACR register */
    __HAL_FLASH_SET_LATENCY(FLatency);
 8001ed6:	4b65      	ldr	r3, [pc, #404]	; (800206c <HAL_RCC_ClockConfig+0x1b8>)
 8001ed8:	683a      	ldr	r2, [r7, #0]
 8001eda:	b2d2      	uxtb	r2, r2
 8001edc:	701a      	strb	r2, [r3, #0]

    /* Check that the new number of wait states is taken into account to access the Flash
    memory by reading the FLASH_ACR register */
    if(__HAL_FLASH_GET_LATENCY() != FLatency)
 8001ede:	4b63      	ldr	r3, [pc, #396]	; (800206c <HAL_RCC_ClockConfig+0x1b8>)
 8001ee0:	681b      	ldr	r3, [r3, #0]
 8001ee2:	f003 0307 	and.w	r3, r3, #7
 8001ee6:	683a      	ldr	r2, [r7, #0]
 8001ee8:	429a      	cmp	r2, r3
 8001eea:	d001      	beq.n	8001ef0 <HAL_RCC_ClockConfig+0x3c>
    {
      return HAL_ERROR;
 8001eec:	2301      	movs	r3, #1
 8001eee:	e0b8      	b.n	8002062 <HAL_RCC_ClockConfig+0x1ae>
    }
  }

  /*-------------------------- HCLK Configuration --------------------------*/
  if(((RCC_ClkInitStruct->ClockType) & RCC_CLOCKTYPE_HCLK) == RCC_CLOCKTYPE_HCLK)
 8001ef0:	687b      	ldr	r3, [r7, #4]
 8001ef2:	681b      	ldr	r3, [r3, #0]
 8001ef4:	f003 0302 	and.w	r3, r3, #2
 8001ef8:	2b00      	cmp	r3, #0
 8001efa:	d020      	beq.n	8001f3e <HAL_RCC_ClockConfig+0x8a>
  {
    /* Set the highest APBx dividers in order to ensure that we do not go through
       a non-spec phase whatever we decrease or increase HCLK. */
    if(((RCC_ClkInitStruct->ClockType) & RCC_CLOCKTYPE_PCLK1) == RCC_CLOCKTYPE_PCLK1)
 8001efc:	687b      	ldr	r3, [r7, #4]
 8001efe:	681b      	ldr	r3, [r3, #0]
 8001f00:	f003 0304 	and.w	r3, r3, #4
 8001f04:	2b00      	cmp	r3, #0
 8001f06:	d005      	beq.n	8001f14 <HAL_RCC_ClockConfig+0x60>
    {
      MODIFY_REG(RCC->CFGR, RCC_CFGR_PPRE1, RCC_HCLK_DIV16);
 8001f08:	4b59      	ldr	r3, [pc, #356]	; (8002070 <HAL_RCC_ClockConfig+0x1bc>)
 8001f0a:	689b      	ldr	r3, [r3, #8]
 8001f0c:	4a58      	ldr	r2, [pc, #352]	; (8002070 <HAL_RCC_ClockConfig+0x1bc>)
 8001f0e:	f443 53e0 	orr.w	r3, r3, #7168	; 0x1c00
 8001f12:	6093      	str	r3, [r2, #8]
    }

    if(((RCC_ClkInitStruct->ClockType) & RCC_CLOCKTYPE_PCLK2) == RCC_CLOCKTYPE_PCLK2)
 8001f14:	687b      	ldr	r3, [r7, #4]
 8001f16:	681b      	ldr	r3, [r3, #0]
 8001f18:	f003 0308 	and.w	r3, r3, #8
 8001f1c:	2b00      	cmp	r3, #0
 8001f1e:	d005      	beq.n	8001f2c <HAL_RCC_ClockConfig+0x78>
    {
      MODIFY_REG(RCC->CFGR, RCC_CFGR_PPRE2, (RCC_HCLK_DIV16 << 3));
 8001f20:	4b53      	ldr	r3, [pc, #332]	; (8002070 <HAL_RCC_ClockConfig+0x1bc>)
 8001f22:	689b      	ldr	r3, [r3, #8]
 8001f24:	4a52      	ldr	r2, [pc, #328]	; (8002070 <HAL_RCC_ClockConfig+0x1bc>)
 8001f26:	f443 4360 	orr.w	r3, r3, #57344	; 0xe000
 8001f2a:	6093      	str	r3, [r2, #8]
    }

    assert_param(IS_RCC_HCLK(RCC_ClkInitStruct->AHBCLKDivider));
    MODIFY_REG(RCC->CFGR, RCC_CFGR_HPRE, RCC_ClkInitStruct->AHBCLKDivider);
 8001f2c:	4b50      	ldr	r3, [pc, #320]	; (8002070 <HAL_RCC_ClockConfig+0x1bc>)
 8001f2e:	689b      	ldr	r3, [r3, #8]
 8001f30:	f023 02f0 	bic.w	r2, r3, #240	; 0xf0
 8001f34:	687b      	ldr	r3, [r7, #4]
 8001f36:	689b      	ldr	r3, [r3, #8]
 8001f38:	494d      	ldr	r1, [pc, #308]	; (8002070 <HAL_RCC_ClockConfig+0x1bc>)
 8001f3a:	4313      	orrs	r3, r2
 8001f3c:	608b      	str	r3, [r1, #8]
  }

  /*------------------------- SYSCLK Configuration ---------------------------*/
  if(((RCC_ClkInitStruct->ClockType) & RCC_CLOCKTYPE_SYSCLK) == RCC_CLOCKTYPE_SYSCLK)
 8001f3e:	687b      	ldr	r3, [r7, #4]
 8001f40:	681b      	ldr	r3, [r3, #0]
 8001f42:	f003 0301 	and.w	r3, r3, #1
 8001f46:	2b00      	cmp	r3, #0
 8001f48:	d044      	beq.n	8001fd4 <HAL_RCC_ClockConfig+0x120>
  {
    assert_param(IS_RCC_SYSCLKSOURCE(RCC_ClkInitStruct->SYSCLKSource));

    /* HSE is selected as System Clock Source */
    if(RCC_ClkInitStruct->SYSCLKSource == RCC_SYSCLKSOURCE_HSE)
 8001f4a:	687b      	ldr	r3, [r7, #4]
 8001f4c:	685b      	ldr	r3, [r3, #4]
 8001f4e:	2b01      	cmp	r3, #1
 8001f50:	d107      	bne.n	8001f62 <HAL_RCC_ClockConfig+0xae>
    {
      /* Check the HSE ready flag */
      if(__HAL_RCC_GET_FLAG(RCC_FLAG_HSERDY) == RESET)
 8001f52:	4b47      	ldr	r3, [pc, #284]	; (8002070 <HAL_RCC_ClockConfig+0x1bc>)
 8001f54:	681b      	ldr	r3, [r3, #0]
 8001f56:	f403 3300 	and.w	r3, r3, #131072	; 0x20000
 8001f5a:	2b00      	cmp	r3, #0
 8001f5c:	d119      	bne.n	8001f92 <HAL_RCC_ClockConfig+0xde>
      {
        return HAL_ERROR;
 8001f5e:	2301      	movs	r3, #1
 8001f60:	e07f      	b.n	8002062 <HAL_RCC_ClockConfig+0x1ae>
      }
    }
    /* PLL is selected as System Clock Source */
    else if((RCC_ClkInitStruct->SYSCLKSource == RCC_SYSCLKSOURCE_PLLCLK)   ||
 8001f62:	687b      	ldr	r3, [r7, #4]
 8001f64:	685b      	ldr	r3, [r3, #4]
 8001f66:	2b02      	cmp	r3, #2
 8001f68:	d003      	beq.n	8001f72 <HAL_RCC_ClockConfig+0xbe>
            (RCC_ClkInitStruct->SYSCLKSource == RCC_SYSCLKSOURCE_PLLRCLK))
 8001f6a:	687b      	ldr	r3, [r7, #4]
 8001f6c:	685b      	ldr	r3, [r3, #4]
    else if((RCC_ClkInitStruct->SYSCLKSource == RCC_SYSCLKSOURCE_PLLCLK)   ||
 8001f6e:	2b03      	cmp	r3, #3
 8001f70:	d107      	bne.n	8001f82 <HAL_RCC_ClockConfig+0xce>
    {
      /* Check the PLL ready flag */
      if(__HAL_RCC_GET_FLAG(RCC_FLAG_PLLRDY) == RESET)
 8001f72:	4b3f      	ldr	r3, [pc, #252]	; (8002070 <HAL_RCC_ClockConfig+0x1bc>)
 8001f74:	681b      	ldr	r3, [r3, #0]
 8001f76:	f003 7300 	and.w	r3, r3, #33554432	; 0x2000000
 8001f7a:	2b00      	cmp	r3, #0
 8001f7c:	d109      	bne.n	8001f92 <HAL_RCC_ClockConfig+0xde>
      {
        return HAL_ERROR;
 8001f7e:	2301      	movs	r3, #1
 8001f80:	e06f      	b.n	8002062 <HAL_RCC_ClockConfig+0x1ae>
    }
    /* HSI is selected as System Clock Source */
    else
    {
      /* Check the HSI ready flag */
      if(__HAL_RCC_GET_FLAG(RCC_FLAG_HSIRDY) == RESET)
 8001f82:	4b3b      	ldr	r3, [pc, #236]	; (8002070 <HAL_RCC_ClockConfig+0x1bc>)
 8001f84:	681b      	ldr	r3, [r3, #0]
 8001f86:	f003 0302 	and.w	r3, r3, #2
 8001f8a:	2b00      	cmp	r3, #0
 8001f8c:	d101      	bne.n	8001f92 <HAL_RCC_ClockConfig+0xde>
      {
        return HAL_ERROR;
 8001f8e:	2301      	movs	r3, #1
 8001f90:	e067      	b.n	8002062 <HAL_RCC_ClockConfig+0x1ae>
      }
    }

    __HAL_RCC_SYSCLK_CONFIG(RCC_ClkInitStruct->SYSCLKSource);
 8001f92:	4b37      	ldr	r3, [pc, #220]	; (8002070 <HAL_RCC_ClockConfig+0x1bc>)
 8001f94:	689b      	ldr	r3, [r3, #8]
 8001f96:	f023 0203 	bic.w	r2, r3, #3
 8001f9a:	687b      	ldr	r3, [r7, #4]
 8001f9c:	685b      	ldr	r3, [r3, #4]
 8001f9e:	4934      	ldr	r1, [pc, #208]	; (8002070 <HAL_RCC_ClockConfig+0x1bc>)
 8001fa0:	4313      	orrs	r3, r2
 8001fa2:	608b      	str	r3, [r1, #8]

    /* Get Start Tick */
    tickstart = HAL_GetTick();
 8001fa4:	f7ff f99c 	bl	80012e0 <HAL_GetTick>
 8001fa8:	60f8      	str	r0, [r7, #12]

    while (__HAL_RCC_GET_SYSCLK_SOURCE() != (RCC_ClkInitStruct->SYSCLKSource << RCC_CFGR_SWS_Pos))
 8001faa:	e00a      	b.n	8001fc2 <HAL_RCC_ClockConfig+0x10e>
    {
      if ((HAL_GetTick() - tickstart) > CLOCKSWITCH_TIMEOUT_VALUE)
 8001fac:	f7ff f998 	bl	80012e0 <HAL_GetTick>
 8001fb0:	4602      	mov	r2, r0
 8001fb2:	68fb      	ldr	r3, [r7, #12]
 8001fb4:	1ad3      	subs	r3, r2, r3
 8001fb6:	f241 3288 	movw	r2, #5000	; 0x1388
 8001fba:	4293      	cmp	r3, r2
 8001fbc:	d901      	bls.n	8001fc2 <HAL_RCC_ClockConfig+0x10e>
      {
        return HAL_TIMEOUT;
 8001fbe:	2303      	movs	r3, #3
 8001fc0:	e04f      	b.n	8002062 <HAL_RCC_ClockConfig+0x1ae>
    while (__HAL_RCC_GET_SYSCLK_SOURCE() != (RCC_ClkInitStruct->SYSCLKSource << RCC_CFGR_SWS_Pos))
 8001fc2:	4b2b      	ldr	r3, [pc, #172]	; (8002070 <HAL_RCC_ClockConfig+0x1bc>)
 8001fc4:	689b      	ldr	r3, [r3, #8]
 8001fc6:	f003 020c 	and.w	r2, r3, #12
 8001fca:	687b      	ldr	r3, [r7, #4]
 8001fcc:	685b      	ldr	r3, [r3, #4]
 8001fce:	009b      	lsls	r3, r3, #2
 8001fd0:	429a      	cmp	r2, r3
 8001fd2:	d1eb      	bne.n	8001fac <HAL_RCC_ClockConfig+0xf8>
      }
    }
  }

  /* Decreasing the number of wait states because of lower CPU frequency */
  if(FLatency < __HAL_FLASH_GET_LATENCY())
 8001fd4:	4b25      	ldr	r3, [pc, #148]	; (800206c <HAL_RCC_ClockConfig+0x1b8>)
 8001fd6:	681b      	ldr	r3, [r3, #0]
 8001fd8:	f003 0307 	and.w	r3, r3, #7
 8001fdc:	683a      	ldr	r2, [r7, #0]
 8001fde:	429a      	cmp	r2, r3
 8001fe0:	d20c      	bcs.n	8001ffc <HAL_RCC_ClockConfig+0x148>
  {
     /* Program the new number of wait states to the LATENCY bits in the FLASH_ACR register */
    __HAL_FLASH_SET_LATENCY(FLatency);
 8001fe2:	4b22      	ldr	r3, [pc, #136]	; (800206c <HAL_RCC_ClockConfig+0x1b8>)
 8001fe4:	683a      	ldr	r2, [r7, #0]
 8001fe6:	b2d2      	uxtb	r2, r2
 8001fe8:	701a      	strb	r2, [r3, #0]

    /* Check that the new number of wait states is taken into account to access the Flash
    memory by reading the FLASH_ACR register */
    if(__HAL_FLASH_GET_LATENCY() != FLatency)
 8001fea:	4b20      	ldr	r3, [pc, #128]	; (800206c <HAL_RCC_ClockConfig+0x1b8>)
 8001fec:	681b      	ldr	r3, [r3, #0]
 8001fee:	f003 0307 	and.w	r3, r3, #7
 8001ff2:	683a      	ldr	r2, [r7, #0]
 8001ff4:	429a      	cmp	r2, r3
 8001ff6:	d001      	beq.n	8001ffc <HAL_RCC_ClockConfig+0x148>
    {
      return HAL_ERROR;
 8001ff8:	2301      	movs	r3, #1
 8001ffa:	e032      	b.n	8002062 <HAL_RCC_ClockConfig+0x1ae>
    }
  }

  /*-------------------------- PCLK1 Configuration ---------------------------*/
  if(((RCC_ClkInitStruct->ClockType) & RCC_CLOCKTYPE_PCLK1) == RCC_CLOCKTYPE_PCLK1)
 8001ffc:	687b      	ldr	r3, [r7, #4]
 8001ffe:	681b      	ldr	r3, [r3, #0]
 8002000:	f003 0304 	and.w	r3, r3, #4
 8002004:	2b00      	cmp	r3, #0
 8002006:	d008      	beq.n	800201a <HAL_RCC_ClockConfig+0x166>
  {
    assert_param(IS_RCC_PCLK(RCC_ClkInitStruct->APB1CLKDivider));
    MODIFY_REG(RCC->CFGR, RCC_CFGR_PPRE1, RCC_ClkInitStruct->APB1CLKDivider);
 8002008:	4b19      	ldr	r3, [pc, #100]	; (8002070 <HAL_RCC_ClockConfig+0x1bc>)
 800200a:	689b      	ldr	r3, [r3, #8]
 800200c:	f423 52e0 	bic.w	r2, r3, #7168	; 0x1c00
 8002010:	687b      	ldr	r3, [r7, #4]
 8002012:	68db      	ldr	r3, [r3, #12]
 8002014:	4916      	ldr	r1, [pc, #88]	; (8002070 <HAL_RCC_ClockConfig+0x1bc>)
 8002016:	4313      	orrs	r3, r2
 8002018:	608b      	str	r3, [r1, #8]
  }

  /*-------------------------- PCLK2 Configuration ---------------------------*/
  if(((RCC_ClkInitStruct->ClockType) & RCC_CLOCKTYPE_PCLK2) == RCC_CLOCKTYPE_PCLK2)
 800201a:	687b      	ldr	r3, [r7, #4]
 800201c:	681b      	ldr	r3, [r3, #0]
 800201e:	f003 0308 	and.w	r3, r3, #8
 8002022:	2b00      	cmp	r3, #0
 8002024:	d009      	beq.n	800203a <HAL_RCC_ClockConfig+0x186>
  {
    assert_param(IS_RCC_PCLK(RCC_ClkInitStruct->APB2CLKDivider));
    MODIFY_REG(RCC->CFGR, RCC_CFGR_PPRE2, ((RCC_ClkInitStruct->APB2CLKDivider) << 3U));
 8002026:	4b12      	ldr	r3, [pc, #72]	; (8002070 <HAL_RCC_ClockConfig+0x1bc>)
 8002028:	689b      	ldr	r3, [r3, #8]
 800202a:	f423 4260 	bic.w	r2, r3, #57344	; 0xe000
 800202e:	687b      	ldr	r3, [r7, #4]
 8002030:	691b      	ldr	r3, [r3, #16]
 8002032:	00db      	lsls	r3, r3, #3
 8002034:	490e      	ldr	r1, [pc, #56]	; (8002070 <HAL_RCC_ClockConfig+0x1bc>)
 8002036:	4313      	orrs	r3, r2
 8002038:	608b      	str	r3, [r1, #8]
  }

  /* Update the SystemCoreClock global variable */
  SystemCoreClock = HAL_RCC_GetSysClockFreq() >> AHBPrescTable[(RCC->CFGR & RCC_CFGR_HPRE)>> RCC_CFGR_HPRE_Pos];
 800203a:	f000 f821 	bl	8002080 <HAL_RCC_GetSysClockFreq>
 800203e:	4602      	mov	r2, r0
 8002040:	4b0b      	ldr	r3, [pc, #44]	; (8002070 <HAL_RCC_ClockConfig+0x1bc>)
 8002042:	689b      	ldr	r3, [r3, #8]
 8002044:	091b      	lsrs	r3, r3, #4
 8002046:	f003 030f 	and.w	r3, r3, #15
 800204a:	490a      	ldr	r1, [pc, #40]	; (8002074 <HAL_RCC_ClockConfig+0x1c0>)
 800204c:	5ccb      	ldrb	r3, [r1, r3]
 800204e:	fa22 f303 	lsr.w	r3, r2, r3
 8002052:	4a09      	ldr	r2, [pc, #36]	; (8002078 <HAL_RCC_ClockConfig+0x1c4>)
 8002054:	6013      	str	r3, [r2, #0]

  /* Configure the source of time base considering new system clocks settings */
  HAL_InitTick (uwTickPrio);
 8002056:	4b09      	ldr	r3, [pc, #36]	; (800207c <HAL_RCC_ClockConfig+0x1c8>)
 8002058:	681b      	ldr	r3, [r3, #0]
 800205a:	4618      	mov	r0, r3
 800205c:	f7ff f8fc 	bl	8001258 <HAL_InitTick>

  return HAL_OK;
 8002060:	2300      	movs	r3, #0
}
 8002062:	4618      	mov	r0, r3
 8002064:	3710      	adds	r7, #16
 8002066:	46bd      	mov	sp, r7
 8002068:	bd80      	pop	{r7, pc}
 800206a:	bf00      	nop
 800206c:	40023c00 	.word	0x40023c00
 8002070:	40023800 	.word	0x40023800
 8002074:	08003490 	.word	0x08003490
 8002078:	20000058 	.word	0x20000058
 800207c:	2000005c 	.word	0x2000005c

08002080 <HAL_RCC_GetSysClockFreq>:
  *
  *
  * @retval SYSCLK frequency
  */
__weak uint32_t HAL_RCC_GetSysClockFreq(void)
{
 8002080:	e92d 4fb0 	stmdb	sp!, {r4, r5, r7, r8, r9, sl, fp, lr}
 8002084:	b094      	sub	sp, #80	; 0x50
 8002086:	af00      	add	r7, sp, #0
  uint32_t pllm = 0U, pllvco = 0U, pllp = 0U;
 8002088:	2300      	movs	r3, #0
 800208a:	647b      	str	r3, [r7, #68]	; 0x44
 800208c:	2300      	movs	r3, #0
 800208e:	64fb      	str	r3, [r7, #76]	; 0x4c
 8002090:	2300      	movs	r3, #0
 8002092:	643b      	str	r3, [r7, #64]	; 0x40
  uint32_t sysclockfreq = 0U;
 8002094:	2300      	movs	r3, #0
 8002096:	64bb      	str	r3, [r7, #72]	; 0x48

  /* Get SYSCLK source -------------------------------------------------------*/
  switch (RCC->CFGR & RCC_CFGR_SWS)
 8002098:	4b79      	ldr	r3, [pc, #484]	; (8002280 <HAL_RCC_GetSysClockFreq+0x200>)
 800209a:	689b      	ldr	r3, [r3, #8]
 800209c:	f003 030c 	and.w	r3, r3, #12
 80020a0:	2b08      	cmp	r3, #8
 80020a2:	d00d      	beq.n	80020c0 <HAL_RCC_GetSysClockFreq+0x40>
 80020a4:	2b08      	cmp	r3, #8
 80020a6:	f200 80e1 	bhi.w	800226c <HAL_RCC_GetSysClockFreq+0x1ec>
 80020aa:	2b00      	cmp	r3, #0
 80020ac:	d002      	beq.n	80020b4 <HAL_RCC_GetSysClockFreq+0x34>
 80020ae:	2b04      	cmp	r3, #4
 80020b0:	d003      	beq.n	80020ba <HAL_RCC_GetSysClockFreq+0x3a>
 80020b2:	e0db      	b.n	800226c <HAL_RCC_GetSysClockFreq+0x1ec>
  {
    case RCC_CFGR_SWS_HSI:  /* HSI used as system clock source */
    {
      sysclockfreq = HSI_VALUE;
 80020b4:	4b73      	ldr	r3, [pc, #460]	; (8002284 <HAL_RCC_GetSysClockFreq+0x204>)
 80020b6:	64bb      	str	r3, [r7, #72]	; 0x48
       break;
 80020b8:	e0db      	b.n	8002272 <HAL_RCC_GetSysClockFreq+0x1f2>
    }
    case RCC_CFGR_SWS_HSE:  /* HSE used as system clock  source */
    {
      sysclockfreq = HSE_VALUE;
 80020ba:	4b73      	ldr	r3, [pc, #460]	; (8002288 <HAL_RCC_GetSysClockFreq+0x208>)
 80020bc:	64bb      	str	r3, [r7, #72]	; 0x48
      break;
 80020be:	e0d8      	b.n	8002272 <HAL_RCC_GetSysClockFreq+0x1f2>
    }
    case RCC_CFGR_SWS_PLL:  /* PLL used as system clock  source */
    {
      /* PLL_VCO = (HSE_VALUE or HSI_VALUE / PLLM) * PLLN
      SYSCLK = PLL_VCO / PLLP */
      pllm = RCC->PLLCFGR & RCC_PLLCFGR_PLLM;
 80020c0:	4b6f      	ldr	r3, [pc, #444]	; (8002280 <HAL_RCC_GetSysClockFreq+0x200>)
 80020c2:	685b      	ldr	r3, [r3, #4]
 80020c4:	f003 033f 	and.w	r3, r3, #63	; 0x3f
 80020c8:	647b      	str	r3, [r7, #68]	; 0x44
      if(__HAL_RCC_GET_PLL_OSCSOURCE() != RCC_PLLSOURCE_HSI)
 80020ca:	4b6d      	ldr	r3, [pc, #436]	; (8002280 <HAL_RCC_GetSysClockFreq+0x200>)
 80020cc:	685b      	ldr	r3, [r3, #4]
 80020ce:	f403 0380 	and.w	r3, r3, #4194304	; 0x400000
 80020d2:	2b00      	cmp	r3, #0
 80020d4:	d063      	beq.n	800219e <HAL_RCC_GetSysClockFreq+0x11e>
      {
        /* HSE used as PLL clock source */
        pllvco = (uint32_t) ((((uint64_t) HSE_VALUE * ((uint64_t) ((RCC->PLLCFGR & RCC_PLLCFGR_PLLN) >> RCC_PLLCFGR_PLLN_Pos)))) / (uint64_t)pllm);
 80020d6:	4b6a      	ldr	r3, [pc, #424]	; (8002280 <HAL_RCC_GetSysClockFreq+0x200>)
 80020d8:	685b      	ldr	r3, [r3, #4]
 80020da:	099b      	lsrs	r3, r3, #6
 80020dc:	2200      	movs	r2, #0
 80020de:	63bb      	str	r3, [r7, #56]	; 0x38
 80020e0:	63fa      	str	r2, [r7, #60]	; 0x3c
 80020e2:	6bbb      	ldr	r3, [r7, #56]	; 0x38
 80020e4:	f3c3 0308 	ubfx	r3, r3, #0, #9
 80020e8:	633b      	str	r3, [r7, #48]	; 0x30
 80020ea:	2300      	movs	r3, #0
 80020ec:	637b      	str	r3, [r7, #52]	; 0x34
 80020ee:	e9d7 450c 	ldrd	r4, r5, [r7, #48]	; 0x30
 80020f2:	4622      	mov	r2, r4
 80020f4:	462b      	mov	r3, r5
 80020f6:	f04f 0000 	mov.w	r0, #0
 80020fa:	f04f 0100 	mov.w	r1, #0
 80020fe:	0159      	lsls	r1, r3, #5
 8002100:	ea41 61d2 	orr.w	r1, r1, r2, lsr #27
 8002104:	0150      	lsls	r0, r2, #5
 8002106:	4602      	mov	r2, r0
 8002108:	460b      	mov	r3, r1
 800210a:	4621      	mov	r1, r4
 800210c:	1a51      	subs	r1, r2, r1
 800210e:	6139      	str	r1, [r7, #16]
 8002110:	4629      	mov	r1, r5
 8002112:	eb63 0301 	sbc.w	r3, r3, r1
 8002116:	617b      	str	r3, [r7, #20]
 8002118:	f04f 0200 	mov.w	r2, #0
 800211c:	f04f 0300 	mov.w	r3, #0
 8002120:	e9d7 ab04 	ldrd	sl, fp, [r7, #16]
 8002124:	4659      	mov	r1, fp
 8002126:	018b      	lsls	r3, r1, #6
 8002128:	4651      	mov	r1, sl
 800212a:	ea43 6391 	orr.w	r3, r3, r1, lsr #26
 800212e:	4651      	mov	r1, sl
 8002130:	018a      	lsls	r2, r1, #6
 8002132:	4651      	mov	r1, sl
 8002134:	ebb2 0801 	subs.w	r8, r2, r1
 8002138:	4659      	mov	r1, fp
 800213a:	eb63 0901 	sbc.w	r9, r3, r1
 800213e:	f04f 0200 	mov.w	r2, #0
 8002142:	f04f 0300 	mov.w	r3, #0
 8002146:	ea4f 03c9 	mov.w	r3, r9, lsl #3
 800214a:	ea43 7358 	orr.w	r3, r3, r8, lsr #29
 800214e:	ea4f 02c8 	mov.w	r2, r8, lsl #3
 8002152:	4690      	mov	r8, r2
 8002154:	4699      	mov	r9, r3
 8002156:	4623      	mov	r3, r4
 8002158:	eb18 0303 	adds.w	r3, r8, r3
 800215c:	60bb      	str	r3, [r7, #8]
 800215e:	462b      	mov	r3, r5
 8002160:	eb49 0303 	adc.w	r3, r9, r3
 8002164:	60fb      	str	r3, [r7, #12]
 8002166:	f04f 0200 	mov.w	r2, #0
 800216a:	f04f 0300 	mov.w	r3, #0
 800216e:	e9d7 4502 	ldrd	r4, r5, [r7, #8]
 8002172:	4629      	mov	r1, r5
 8002174:	024b      	lsls	r3, r1, #9
 8002176:	4621      	mov	r1, r4
 8002178:	ea43 53d1 	orr.w	r3, r3, r1, lsr #23
 800217c:	4621      	mov	r1, r4
 800217e:	024a      	lsls	r2, r1, #9
 8002180:	4610      	mov	r0, r2
 8002182:	4619      	mov	r1, r3
 8002184:	6c7b      	ldr	r3, [r7, #68]	; 0x44
 8002186:	2200      	movs	r2, #0
 8002188:	62bb      	str	r3, [r7, #40]	; 0x28
 800218a:	62fa      	str	r2, [r7, #44]	; 0x2c
 800218c:	e9d7 230a 	ldrd	r2, r3, [r7, #40]	; 0x28
 8002190:	f7fe f9de 	bl	8000550 <__aeabi_uldivmod>
 8002194:	4602      	mov	r2, r0
 8002196:	460b      	mov	r3, r1
 8002198:	4613      	mov	r3, r2
 800219a:	64fb      	str	r3, [r7, #76]	; 0x4c
 800219c:	e058      	b.n	8002250 <HAL_RCC_GetSysClockFreq+0x1d0>
      }
      else
      {
        /* HSI used as PLL clock source */
        pllvco = (uint32_t) ((((uint64_t) HSI_VALUE * ((uint64_t) ((RCC->PLLCFGR & RCC_PLLCFGR_PLLN) >> RCC_PLLCFGR_PLLN_Pos)))) / (uint64_t)pllm);
 800219e:	4b38      	ldr	r3, [pc, #224]	; (8002280 <HAL_RCC_GetSysClockFreq+0x200>)
 80021a0:	685b      	ldr	r3, [r3, #4]
 80021a2:	099b      	lsrs	r3, r3, #6
 80021a4:	2200      	movs	r2, #0
 80021a6:	4618      	mov	r0, r3
 80021a8:	4611      	mov	r1, r2
 80021aa:	f3c0 0308 	ubfx	r3, r0, #0, #9
 80021ae:	623b      	str	r3, [r7, #32]
 80021b0:	2300      	movs	r3, #0
 80021b2:	627b      	str	r3, [r7, #36]	; 0x24
 80021b4:	e9d7 8908 	ldrd	r8, r9, [r7, #32]
 80021b8:	4642      	mov	r2, r8
 80021ba:	464b      	mov	r3, r9
 80021bc:	f04f 0000 	mov.w	r0, #0
 80021c0:	f04f 0100 	mov.w	r1, #0
 80021c4:	0159      	lsls	r1, r3, #5
 80021c6:	ea41 61d2 	orr.w	r1, r1, r2, lsr #27
 80021ca:	0150      	lsls	r0, r2, #5
 80021cc:	4602      	mov	r2, r0
 80021ce:	460b      	mov	r3, r1
 80021d0:	4641      	mov	r1, r8
 80021d2:	ebb2 0a01 	subs.w	sl, r2, r1
 80021d6:	4649      	mov	r1, r9
 80021d8:	eb63 0b01 	sbc.w	fp, r3, r1
 80021dc:	f04f 0200 	mov.w	r2, #0
 80021e0:	f04f 0300 	mov.w	r3, #0
 80021e4:	ea4f 138b 	mov.w	r3, fp, lsl #6
 80021e8:	ea43 639a 	orr.w	r3, r3, sl, lsr #26
 80021ec:	ea4f 128a 	mov.w	r2, sl, lsl #6
 80021f0:	ebb2 040a 	subs.w	r4, r2, sl
 80021f4:	eb63 050b 	sbc.w	r5, r3, fp
 80021f8:	f04f 0200 	mov.w	r2, #0
 80021fc:	f04f 0300 	mov.w	r3, #0
 8002200:	00eb      	lsls	r3, r5, #3
 8002202:	ea43 7354 	orr.w	r3, r3, r4, lsr #29
 8002206:	00e2      	lsls	r2, r4, #3
 8002208:	4614      	mov	r4, r2
 800220a:	461d      	mov	r5, r3
 800220c:	4643      	mov	r3, r8
 800220e:	18e3      	adds	r3, r4, r3
 8002210:	603b      	str	r3, [r7, #0]
 8002212:	464b      	mov	r3, r9
 8002214:	eb45 0303 	adc.w	r3, r5, r3
 8002218:	607b      	str	r3, [r7, #4]
 800221a:	f04f 0200 	mov.w	r2, #0
 800221e:	f04f 0300 	mov.w	r3, #0
 8002222:	e9d7 4500 	ldrd	r4, r5, [r7]
 8002226:	4629      	mov	r1, r5
 8002228:	028b      	lsls	r3, r1, #10
 800222a:	4621      	mov	r1, r4
 800222c:	ea43 5391 	orr.w	r3, r3, r1, lsr #22
 8002230:	4621      	mov	r1, r4
 8002232:	028a      	lsls	r2, r1, #10
 8002234:	4610      	mov	r0, r2
 8002236:	4619      	mov	r1, r3
 8002238:	6c7b      	ldr	r3, [r7, #68]	; 0x44
 800223a:	2200      	movs	r2, #0
 800223c:	61bb      	str	r3, [r7, #24]
 800223e:	61fa      	str	r2, [r7, #28]
 8002240:	e9d7 2306 	ldrd	r2, r3, [r7, #24]
 8002244:	f7fe f984 	bl	8000550 <__aeabi_uldivmod>
 8002248:	4602      	mov	r2, r0
 800224a:	460b      	mov	r3, r1
 800224c:	4613      	mov	r3, r2
 800224e:	64fb      	str	r3, [r7, #76]	; 0x4c
      }
      pllp = ((((RCC->PLLCFGR & RCC_PLLCFGR_PLLP) >> RCC_PLLCFGR_PLLP_Pos) + 1U) *2U);
 8002250:	4b0b      	ldr	r3, [pc, #44]	; (8002280 <HAL_RCC_GetSysClockFreq+0x200>)
 8002252:	685b      	ldr	r3, [r3, #4]
 8002254:	0c1b      	lsrs	r3, r3, #16
 8002256:	f003 0303 	and.w	r3, r3, #3
 800225a:	3301      	adds	r3, #1
 800225c:	005b      	lsls	r3, r3, #1
 800225e:	643b      	str	r3, [r7, #64]	; 0x40

      sysclockfreq = pllvco/pllp;
 8002260:	6cfa      	ldr	r2, [r7, #76]	; 0x4c
 8002262:	6c3b      	ldr	r3, [r7, #64]	; 0x40
 8002264:	fbb2 f3f3 	udiv	r3, r2, r3
 8002268:	64bb      	str	r3, [r7, #72]	; 0x48
      break;
 800226a:	e002      	b.n	8002272 <HAL_RCC_GetSysClockFreq+0x1f2>
    }
    default:
    {
      sysclockfreq = HSI_VALUE;
 800226c:	4b05      	ldr	r3, [pc, #20]	; (8002284 <HAL_RCC_GetSysClockFreq+0x204>)
 800226e:	64bb      	str	r3, [r7, #72]	; 0x48
      break;
 8002270:	bf00      	nop
    }
  }
  return sysclockfreq;
 8002272:	6cbb      	ldr	r3, [r7, #72]	; 0x48
}
 8002274:	4618      	mov	r0, r3
 8002276:	3750      	adds	r7, #80	; 0x50
 8002278:	46bd      	mov	sp, r7
 800227a:	e8bd 8fb0 	ldmia.w	sp!, {r4, r5, r7, r8, r9, sl, fp, pc}
 800227e:	bf00      	nop
 8002280:	40023800 	.word	0x40023800
 8002284:	00f42400 	.word	0x00f42400
 8002288:	007a1200 	.word	0x007a1200

0800228c <HAL_RCC_GetHCLKFreq>:
  * @note   The SystemCoreClock CMSIS variable is used to store System Clock Frequency
  *         and updated within this function
  * @retval HCLK frequency
  */
uint32_t HAL_RCC_GetHCLKFreq(void)
{
 800228c:	b480      	push	{r7}
 800228e:	af00      	add	r7, sp, #0
  return SystemCoreClock;
 8002290:	4b03      	ldr	r3, [pc, #12]	; (80022a0 <HAL_RCC_GetHCLKFreq+0x14>)
 8002292:	681b      	ldr	r3, [r3, #0]
}
 8002294:	4618      	mov	r0, r3
 8002296:	46bd      	mov	sp, r7
 8002298:	f85d 7b04 	ldr.w	r7, [sp], #4
 800229c:	4770      	bx	lr
 800229e:	bf00      	nop
 80022a0:	20000058 	.word	0x20000058

080022a4 <HAL_RCC_GetPCLK1Freq>:
  * @note   Each time PCLK1 changes, this function must be called to update the
  *         right PCLK1 value. Otherwise, any configuration based on this function will be incorrect.
  * @retval PCLK1 frequency
  */
uint32_t HAL_RCC_GetPCLK1Freq(void)
{
 80022a4:	b580      	push	{r7, lr}
 80022a6:	af00      	add	r7, sp, #0
  /* Get HCLK source and Compute PCLK1 frequency ---------------------------*/
  return (HAL_RCC_GetHCLKFreq() >> APBPrescTable[(RCC->CFGR & RCC_CFGR_PPRE1)>> RCC_CFGR_PPRE1_Pos]);
 80022a8:	f7ff fff0 	bl	800228c <HAL_RCC_GetHCLKFreq>
 80022ac:	4602      	mov	r2, r0
 80022ae:	4b05      	ldr	r3, [pc, #20]	; (80022c4 <HAL_RCC_GetPCLK1Freq+0x20>)
 80022b0:	689b      	ldr	r3, [r3, #8]
 80022b2:	0a9b      	lsrs	r3, r3, #10
 80022b4:	f003 0307 	and.w	r3, r3, #7
 80022b8:	4903      	ldr	r1, [pc, #12]	; (80022c8 <HAL_RCC_GetPCLK1Freq+0x24>)
 80022ba:	5ccb      	ldrb	r3, [r1, r3]
 80022bc:	fa22 f303 	lsr.w	r3, r2, r3
}
 80022c0:	4618      	mov	r0, r3
 80022c2:	bd80      	pop	{r7, pc}
 80022c4:	40023800 	.word	0x40023800
 80022c8:	080034a0 	.word	0x080034a0

080022cc <HAL_RCC_GetPCLK2Freq>:
  * @note   Each time PCLK2 changes, this function must be called to update the
  *         right PCLK2 value. Otherwise, any configuration based on this function will be incorrect.
  * @retval PCLK2 frequency
  */
uint32_t HAL_RCC_GetPCLK2Freq(void)
{
 80022cc:	b580      	push	{r7, lr}
 80022ce:	af00      	add	r7, sp, #0
  /* Get HCLK source and Compute PCLK2 frequency ---------------------------*/
  return (HAL_RCC_GetHCLKFreq()>> APBPrescTable[(RCC->CFGR & RCC_CFGR_PPRE2)>> RCC_CFGR_PPRE2_Pos]);
 80022d0:	f7ff ffdc 	bl	800228c <HAL_RCC_GetHCLKFreq>
 80022d4:	4602      	mov	r2, r0
 80022d6:	4b05      	ldr	r3, [pc, #20]	; (80022ec <HAL_RCC_GetPCLK2Freq+0x20>)
 80022d8:	689b      	ldr	r3, [r3, #8]
 80022da:	0b5b      	lsrs	r3, r3, #13
 80022dc:	f003 0307 	and.w	r3, r3, #7
 80022e0:	4903      	ldr	r1, [pc, #12]	; (80022f0 <HAL_RCC_GetPCLK2Freq+0x24>)
 80022e2:	5ccb      	ldrb	r3, [r1, r3]
 80022e4:	fa22 f303 	lsr.w	r3, r2, r3
}
 80022e8:	4618      	mov	r0, r3
 80022ea:	bd80      	pop	{r7, pc}
 80022ec:	40023800 	.word	0x40023800
 80022f0:	080034a0 	.word	0x080034a0

080022f4 <HAL_UART_Init>:
  * @param  huart  Pointer to a UART_HandleTypeDef structure that contains
  *                the configuration information for the specified UART module.
  * @retval HAL status
  */
HAL_StatusTypeDef HAL_UART_Init(UART_HandleTypeDef *huart)
{
 80022f4:	b580      	push	{r7, lr}
 80022f6:	b082      	sub	sp, #8
 80022f8:	af00      	add	r7, sp, #0
 80022fa:	6078      	str	r0, [r7, #4]
  /* Check the UART handle allocation */
  if (huart == NULL)
 80022fc:	687b      	ldr	r3, [r7, #4]
 80022fe:	2b00      	cmp	r3, #0
 8002300:	d101      	bne.n	8002306 <HAL_UART_Init+0x12>
  {
    return HAL_ERROR;
 8002302:	2301      	movs	r3, #1
 8002304:	e03f      	b.n	8002386 <HAL_UART_Init+0x92>
    assert_param(IS_UART_INSTANCE(huart->Instance));
  }
  assert_param(IS_UART_WORD_LENGTH(huart->Init.WordLength));
  assert_param(IS_UART_OVERSAMPLING(huart->Init.OverSampling));

  if (huart->gState == HAL_UART_STATE_RESET)
 8002306:	687b      	ldr	r3, [r7, #4]
 8002308:	f893 303d 	ldrb.w	r3, [r3, #61]	; 0x3d
 800230c:	b2db      	uxtb	r3, r3
 800230e:	2b00      	cmp	r3, #0
 8002310:	d106      	bne.n	8002320 <HAL_UART_Init+0x2c>
  {
    /* Allocate lock resource and initialize it */
    huart->Lock = HAL_UNLOCKED;
 8002312:	687b      	ldr	r3, [r7, #4]
 8002314:	2200      	movs	r2, #0
 8002316:	f883 203c 	strb.w	r2, [r3, #60]	; 0x3c

    /* Init the low level hardware */
    huart->MspInitCallback(huart);
#else
    /* Init the low level hardware : GPIO, CLOCK */
    HAL_UART_MspInit(huart);
 800231a:	6878      	ldr	r0, [r7, #4]
 800231c:	f7fe feba 	bl	8001094 <HAL_UART_MspInit>
#endif /* (USE_HAL_UART_REGISTER_CALLBACKS) */
  }

  huart->gState = HAL_UART_STATE_BUSY;
 8002320:	687b      	ldr	r3, [r7, #4]
 8002322:	2224      	movs	r2, #36	; 0x24
 8002324:	f883 203d 	strb.w	r2, [r3, #61]	; 0x3d

  /* Disable the peripheral */
  __HAL_UART_DISABLE(huart);
 8002328:	687b      	ldr	r3, [r7, #4]
 800232a:	681b      	ldr	r3, [r3, #0]
 800232c:	68da      	ldr	r2, [r3, #12]
 800232e:	687b      	ldr	r3, [r7, #4]
 8002330:	681b      	ldr	r3, [r3, #0]
 8002332:	f422 5200 	bic.w	r2, r2, #8192	; 0x2000
 8002336:	60da      	str	r2, [r3, #12]

  /* Set the UART Communication parameters */
  UART_SetConfig(huart);
 8002338:	6878      	ldr	r0, [r7, #4]
 800233a:	f000 fddf 	bl	8002efc <UART_SetConfig>

  /* In asynchronous mode, the following bits must be kept cleared:
     - LINEN and CLKEN bits in the USART_CR2 register,
     - SCEN, HDSEL and IREN  bits in the USART_CR3 register.*/
  CLEAR_BIT(huart->Instance->CR2, (USART_CR2_LINEN | USART_CR2_CLKEN));
 800233e:	687b      	ldr	r3, [r7, #4]
 8002340:	681b      	ldr	r3, [r3, #0]
 8002342:	691a      	ldr	r2, [r3, #16]
 8002344:	687b      	ldr	r3, [r7, #4]
 8002346:	681b      	ldr	r3, [r3, #0]
 8002348:	f422 4290 	bic.w	r2, r2, #18432	; 0x4800
 800234c:	611a      	str	r2, [r3, #16]
  CLEAR_BIT(huart->Instance->CR3, (USART_CR3_SCEN | USART_CR3_HDSEL | USART_CR3_IREN));
 800234e:	687b      	ldr	r3, [r7, #4]
 8002350:	681b      	ldr	r3, [r3, #0]
 8002352:	695a      	ldr	r2, [r3, #20]
 8002354:	687b      	ldr	r3, [r7, #4]
 8002356:	681b      	ldr	r3, [r3, #0]
 8002358:	f022 022a 	bic.w	r2, r2, #42	; 0x2a
 800235c:	615a      	str	r2, [r3, #20]

  /* Enable the peripheral */
  __HAL_UART_ENABLE(huart);
 800235e:	687b      	ldr	r3, [r7, #4]
 8002360:	681b      	ldr	r3, [r3, #0]
 8002362:	68da      	ldr	r2, [r3, #12]
 8002364:	687b      	ldr	r3, [r7, #4]
 8002366:	681b      	ldr	r3, [r3, #0]
 8002368:	f442 5200 	orr.w	r2, r2, #8192	; 0x2000
 800236c:	60da      	str	r2, [r3, #12]

  /* Initialize the UART state */
  huart->ErrorCode = HAL_UART_ERROR_NONE;
 800236e:	687b      	ldr	r3, [r7, #4]
 8002370:	2200      	movs	r2, #0
 8002372:	641a      	str	r2, [r3, #64]	; 0x40
  huart->gState = HAL_UART_STATE_READY;
 8002374:	687b      	ldr	r3, [r7, #4]
 8002376:	2220      	movs	r2, #32
 8002378:	f883 203d 	strb.w	r2, [r3, #61]	; 0x3d
  huart->RxState = HAL_UART_STATE_READY;
 800237c:	687b      	ldr	r3, [r7, #4]
 800237e:	2220      	movs	r2, #32
 8002380:	f883 203e 	strb.w	r2, [r3, #62]	; 0x3e

  return HAL_OK;
 8002384:	2300      	movs	r3, #0
}
 8002386:	4618      	mov	r0, r3
 8002388:	3708      	adds	r7, #8
 800238a:	46bd      	mov	sp, r7
 800238c:	bd80      	pop	{r7, pc}

0800238e <HAL_UART_Transmit>:
  * @param  Size  Amount of data elements (u8 or u16) to be sent
  * @param  Timeout Timeout duration
  * @retval HAL status
  */
HAL_StatusTypeDef HAL_UART_Transmit(UART_HandleTypeDef *huart, const uint8_t *pData, uint16_t Size, uint32_t Timeout)
{
 800238e:	b580      	push	{r7, lr}
 8002390:	b08a      	sub	sp, #40	; 0x28
 8002392:	af02      	add	r7, sp, #8
 8002394:	60f8      	str	r0, [r7, #12]
 8002396:	60b9      	str	r1, [r7, #8]
 8002398:	603b      	str	r3, [r7, #0]
 800239a:	4613      	mov	r3, r2
 800239c:	80fb      	strh	r3, [r7, #6]
  const uint8_t  *pdata8bits;
  const uint16_t *pdata16bits;
  uint32_t tickstart = 0U;
 800239e:	2300      	movs	r3, #0
 80023a0:	617b      	str	r3, [r7, #20]

  /* Check that a Tx process is not already ongoing */
  if (huart->gState == HAL_UART_STATE_READY)
 80023a2:	68fb      	ldr	r3, [r7, #12]
 80023a4:	f893 303d 	ldrb.w	r3, [r3, #61]	; 0x3d
 80023a8:	b2db      	uxtb	r3, r3
 80023aa:	2b20      	cmp	r3, #32
 80023ac:	d17c      	bne.n	80024a8 <HAL_UART_Transmit+0x11a>
  {
    if ((pData == NULL) || (Size == 0U))
 80023ae:	68bb      	ldr	r3, [r7, #8]
 80023b0:	2b00      	cmp	r3, #0
 80023b2:	d002      	beq.n	80023ba <HAL_UART_Transmit+0x2c>
 80023b4:	88fb      	ldrh	r3, [r7, #6]
 80023b6:	2b00      	cmp	r3, #0
 80023b8:	d101      	bne.n	80023be <HAL_UART_Transmit+0x30>
    {
      return  HAL_ERROR;
 80023ba:	2301      	movs	r3, #1
 80023bc:	e075      	b.n	80024aa <HAL_UART_Transmit+0x11c>
    }

    /* Process Locked */
    __HAL_LOCK(huart);
 80023be:	68fb      	ldr	r3, [r7, #12]
 80023c0:	f893 303c 	ldrb.w	r3, [r3, #60]	; 0x3c
 80023c4:	2b01      	cmp	r3, #1
 80023c6:	d101      	bne.n	80023cc <HAL_UART_Transmit+0x3e>
 80023c8:	2302      	movs	r3, #2
 80023ca:	e06e      	b.n	80024aa <HAL_UART_Transmit+0x11c>
 80023cc:	68fb      	ldr	r3, [r7, #12]
 80023ce:	2201      	movs	r2, #1
 80023d0:	f883 203c 	strb.w	r2, [r3, #60]	; 0x3c

    huart->ErrorCode = HAL_UART_ERROR_NONE;
 80023d4:	68fb      	ldr	r3, [r7, #12]
 80023d6:	2200      	movs	r2, #0
 80023d8:	641a      	str	r2, [r3, #64]	; 0x40
    huart->gState = HAL_UART_STATE_BUSY_TX;
 80023da:	68fb      	ldr	r3, [r7, #12]
 80023dc:	2221      	movs	r2, #33	; 0x21
 80023de:	f883 203d 	strb.w	r2, [r3, #61]	; 0x3d

    /* Init tickstart for timeout management */
    tickstart = HAL_GetTick();
 80023e2:	f7fe ff7d 	bl	80012e0 <HAL_GetTick>
 80023e6:	6178      	str	r0, [r7, #20]

    huart->TxXferSize = Size;
 80023e8:	68fb      	ldr	r3, [r7, #12]
 80023ea:	88fa      	ldrh	r2, [r7, #6]
 80023ec:	849a      	strh	r2, [r3, #36]	; 0x24
    huart->TxXferCount = Size;
 80023ee:	68fb      	ldr	r3, [r7, #12]
 80023f0:	88fa      	ldrh	r2, [r7, #6]
 80023f2:	84da      	strh	r2, [r3, #38]	; 0x26

    /* In case of 9bits/No Parity transfer, pData needs to be handled as a uint16_t pointer */
    if ((huart->Init.WordLength == UART_WORDLENGTH_9B) && (huart->Init.Parity == UART_PARITY_NONE))
 80023f4:	68fb      	ldr	r3, [r7, #12]
 80023f6:	689b      	ldr	r3, [r3, #8]
 80023f8:	f5b3 5f80 	cmp.w	r3, #4096	; 0x1000
 80023fc:	d108      	bne.n	8002410 <HAL_UART_Transmit+0x82>
 80023fe:	68fb      	ldr	r3, [r7, #12]
 8002400:	691b      	ldr	r3, [r3, #16]
 8002402:	2b00      	cmp	r3, #0
 8002404:	d104      	bne.n	8002410 <HAL_UART_Transmit+0x82>
    {
      pdata8bits  = NULL;
 8002406:	2300      	movs	r3, #0
 8002408:	61fb      	str	r3, [r7, #28]
      pdata16bits = (const uint16_t *) pData;
 800240a:	68bb      	ldr	r3, [r7, #8]
 800240c:	61bb      	str	r3, [r7, #24]
 800240e:	e003      	b.n	8002418 <HAL_UART_Transmit+0x8a>
    }
    else
    {
      pdata8bits  = pData;
 8002410:	68bb      	ldr	r3, [r7, #8]
 8002412:	61fb      	str	r3, [r7, #28]
      pdata16bits = NULL;
 8002414:	2300      	movs	r3, #0
 8002416:	61bb      	str	r3, [r7, #24]
    }

    /* Process Unlocked */
    __HAL_UNLOCK(huart);
 8002418:	68fb      	ldr	r3, [r7, #12]
 800241a:	2200      	movs	r2, #0
 800241c:	f883 203c 	strb.w	r2, [r3, #60]	; 0x3c

    while (huart->TxXferCount > 0U)
 8002420:	e02a      	b.n	8002478 <HAL_UART_Transmit+0xea>
    {
      if (UART_WaitOnFlagUntilTimeout(huart, UART_FLAG_TXE, RESET, tickstart, Timeout) != HAL_OK)
 8002422:	683b      	ldr	r3, [r7, #0]
 8002424:	9300      	str	r3, [sp, #0]
 8002426:	697b      	ldr	r3, [r7, #20]
 8002428:	2200      	movs	r2, #0
 800242a:	2180      	movs	r1, #128	; 0x80
 800242c:	68f8      	ldr	r0, [r7, #12]
 800242e:	f000 fb1f 	bl	8002a70 <UART_WaitOnFlagUntilTimeout>
 8002432:	4603      	mov	r3, r0
 8002434:	2b00      	cmp	r3, #0
 8002436:	d001      	beq.n	800243c <HAL_UART_Transmit+0xae>
      {
        return HAL_TIMEOUT;
 8002438:	2303      	movs	r3, #3
 800243a:	e036      	b.n	80024aa <HAL_UART_Transmit+0x11c>
      }
      if (pdata8bits == NULL)
 800243c:	69fb      	ldr	r3, [r7, #28]
 800243e:	2b00      	cmp	r3, #0
 8002440:	d10b      	bne.n	800245a <HAL_UART_Transmit+0xcc>
      {
        huart->Instance->DR = (uint16_t)(*pdata16bits & 0x01FFU);
 8002442:	69bb      	ldr	r3, [r7, #24]
 8002444:	881b      	ldrh	r3, [r3, #0]
 8002446:	461a      	mov	r2, r3
 8002448:	68fb      	ldr	r3, [r7, #12]
 800244a:	681b      	ldr	r3, [r3, #0]
 800244c:	f3c2 0208 	ubfx	r2, r2, #0, #9
 8002450:	605a      	str	r2, [r3, #4]
        pdata16bits++;
 8002452:	69bb      	ldr	r3, [r7, #24]
 8002454:	3302      	adds	r3, #2
 8002456:	61bb      	str	r3, [r7, #24]
 8002458:	e007      	b.n	800246a <HAL_UART_Transmit+0xdc>
      }
      else
      {
        huart->Instance->DR = (uint8_t)(*pdata8bits & 0xFFU);
 800245a:	69fb      	ldr	r3, [r7, #28]
 800245c:	781a      	ldrb	r2, [r3, #0]
 800245e:	68fb      	ldr	r3, [r7, #12]
 8002460:	681b      	ldr	r3, [r3, #0]
 8002462:	605a      	str	r2, [r3, #4]
        pdata8bits++;
 8002464:	69fb      	ldr	r3, [r7, #28]
 8002466:	3301      	adds	r3, #1
 8002468:	61fb      	str	r3, [r7, #28]
      }
      huart->TxXferCount--;
 800246a:	68fb      	ldr	r3, [r7, #12]
 800246c:	8cdb      	ldrh	r3, [r3, #38]	; 0x26
 800246e:	b29b      	uxth	r3, r3
 8002470:	3b01      	subs	r3, #1
 8002472:	b29a      	uxth	r2, r3
 8002474:	68fb      	ldr	r3, [r7, #12]
 8002476:	84da      	strh	r2, [r3, #38]	; 0x26
    while (huart->TxXferCount > 0U)
 8002478:	68fb      	ldr	r3, [r7, #12]
 800247a:	8cdb      	ldrh	r3, [r3, #38]	; 0x26
 800247c:	b29b      	uxth	r3, r3
 800247e:	2b00      	cmp	r3, #0
 8002480:	d1cf      	bne.n	8002422 <HAL_UART_Transmit+0x94>
    }

    if (UART_WaitOnFlagUntilTimeout(huart, UART_FLAG_TC, RESET, tickstart, Timeout) != HAL_OK)
 8002482:	683b      	ldr	r3, [r7, #0]
 8002484:	9300      	str	r3, [sp, #0]
 8002486:	697b      	ldr	r3, [r7, #20]
 8002488:	2200      	movs	r2, #0
 800248a:	2140      	movs	r1, #64	; 0x40
 800248c:	68f8      	ldr	r0, [r7, #12]
 800248e:	f000 faef 	bl	8002a70 <UART_WaitOnFlagUntilTimeout>
 8002492:	4603      	mov	r3, r0
 8002494:	2b00      	cmp	r3, #0
 8002496:	d001      	beq.n	800249c <HAL_UART_Transmit+0x10e>
    {
      return HAL_TIMEOUT;
 8002498:	2303      	movs	r3, #3
 800249a:	e006      	b.n	80024aa <HAL_UART_Transmit+0x11c>
    }

    /* At end of Tx process, restore huart->gState to Ready */
    huart->gState = HAL_UART_STATE_READY;
 800249c:	68fb      	ldr	r3, [r7, #12]
 800249e:	2220      	movs	r2, #32
 80024a0:	f883 203d 	strb.w	r2, [r3, #61]	; 0x3d

    return HAL_OK;
 80024a4:	2300      	movs	r3, #0
 80024a6:	e000      	b.n	80024aa <HAL_UART_Transmit+0x11c>
  }
  else
  {
    return HAL_BUSY;
 80024a8:	2302      	movs	r3, #2
  }
}
 80024aa:	4618      	mov	r0, r3
 80024ac:	3720      	adds	r7, #32
 80024ae:	46bd      	mov	sp, r7
 80024b0:	bd80      	pop	{r7, pc}

080024b2 <HAL_UART_Receive_IT>:
  * @param  pData Pointer to data buffer (u8 or u16 data elements).
  * @param  Size  Amount of data elements (u8 or u16) to be received.
  * @retval HAL status
  */
HAL_StatusTypeDef HAL_UART_Receive_IT(UART_HandleTypeDef *huart, uint8_t *pData, uint16_t Size)
{
 80024b2:	b580      	push	{r7, lr}
 80024b4:	b084      	sub	sp, #16
 80024b6:	af00      	add	r7, sp, #0
 80024b8:	60f8      	str	r0, [r7, #12]
 80024ba:	60b9      	str	r1, [r7, #8]
 80024bc:	4613      	mov	r3, r2
 80024be:	80fb      	strh	r3, [r7, #6]
  /* Check that a Rx process is not already ongoing */
  if (huart->RxState == HAL_UART_STATE_READY)
 80024c0:	68fb      	ldr	r3, [r7, #12]
 80024c2:	f893 303e 	ldrb.w	r3, [r3, #62]	; 0x3e
 80024c6:	b2db      	uxtb	r3, r3
 80024c8:	2b20      	cmp	r3, #32
 80024ca:	d11d      	bne.n	8002508 <HAL_UART_Receive_IT+0x56>
  {
    if ((pData == NULL) || (Size == 0U))
 80024cc:	68bb      	ldr	r3, [r7, #8]
 80024ce:	2b00      	cmp	r3, #0
 80024d0:	d002      	beq.n	80024d8 <HAL_UART_Receive_IT+0x26>
 80024d2:	88fb      	ldrh	r3, [r7, #6]
 80024d4:	2b00      	cmp	r3, #0
 80024d6:	d101      	bne.n	80024dc <HAL_UART_Receive_IT+0x2a>
    {
      return HAL_ERROR;
 80024d8:	2301      	movs	r3, #1
 80024da:	e016      	b.n	800250a <HAL_UART_Receive_IT+0x58>
    }

    /* Process Locked */
    __HAL_LOCK(huart);
 80024dc:	68fb      	ldr	r3, [r7, #12]
 80024de:	f893 303c 	ldrb.w	r3, [r3, #60]	; 0x3c
 80024e2:	2b01      	cmp	r3, #1
 80024e4:	d101      	bne.n	80024ea <HAL_UART_Receive_IT+0x38>
 80024e6:	2302      	movs	r3, #2
 80024e8:	e00f      	b.n	800250a <HAL_UART_Receive_IT+0x58>
 80024ea:	68fb      	ldr	r3, [r7, #12]
 80024ec:	2201      	movs	r2, #1
 80024ee:	f883 203c 	strb.w	r2, [r3, #60]	; 0x3c

    /* Set Reception type to Standard reception */
    huart->ReceptionType = HAL_UART_RECEPTION_STANDARD;
 80024f2:	68fb      	ldr	r3, [r7, #12]
 80024f4:	2200      	movs	r2, #0
 80024f6:	631a      	str	r2, [r3, #48]	; 0x30

    return (UART_Start_Receive_IT(huart, pData, Size));
 80024f8:	88fb      	ldrh	r3, [r7, #6]
 80024fa:	461a      	mov	r2, r3
 80024fc:	68b9      	ldr	r1, [r7, #8]
 80024fe:	68f8      	ldr	r0, [r7, #12]
 8002500:	f000 fb24 	bl	8002b4c <UART_Start_Receive_IT>
 8002504:	4603      	mov	r3, r0
 8002506:	e000      	b.n	800250a <HAL_UART_Receive_IT+0x58>
  }
  else
  {
    return HAL_BUSY;
 8002508:	2302      	movs	r3, #2
  }
}
 800250a:	4618      	mov	r0, r3
 800250c:	3710      	adds	r7, #16
 800250e:	46bd      	mov	sp, r7
 8002510:	bd80      	pop	{r7, pc}
	...

08002514 <HAL_UART_IRQHandler>:
  * @param  huart  Pointer to a UART_HandleTypeDef structure that contains
  *                the configuration information for the specified UART module.
  * @retval None
  */
void HAL_UART_IRQHandler(UART_HandleTypeDef *huart)
{
 8002514:	b580      	push	{r7, lr}
 8002516:	b0ba      	sub	sp, #232	; 0xe8
 8002518:	af00      	add	r7, sp, #0
 800251a:	6078      	str	r0, [r7, #4]
  uint32_t isrflags   = READ_REG(huart->Instance->SR);
 800251c:	687b      	ldr	r3, [r7, #4]
 800251e:	681b      	ldr	r3, [r3, #0]
 8002520:	681b      	ldr	r3, [r3, #0]
 8002522:	f8c7 30e4 	str.w	r3, [r7, #228]	; 0xe4
  uint32_t cr1its     = READ_REG(huart->Instance->CR1);
 8002526:	687b      	ldr	r3, [r7, #4]
 8002528:	681b      	ldr	r3, [r3, #0]
 800252a:	68db      	ldr	r3, [r3, #12]
 800252c:	f8c7 30e0 	str.w	r3, [r7, #224]	; 0xe0
  uint32_t cr3its     = READ_REG(huart->Instance->CR3);
 8002530:	687b      	ldr	r3, [r7, #4]
 8002532:	681b      	ldr	r3, [r3, #0]
 8002534:	695b      	ldr	r3, [r3, #20]
 8002536:	f8c7 30dc 	str.w	r3, [r7, #220]	; 0xdc
  uint32_t errorflags = 0x00U;
 800253a:	2300      	movs	r3, #0
 800253c:	f8c7 30d8 	str.w	r3, [r7, #216]	; 0xd8
  uint32_t dmarequest = 0x00U;
 8002540:	2300      	movs	r3, #0
 8002542:	f8c7 30d4 	str.w	r3, [r7, #212]	; 0xd4

  /* If no error occurs */
  errorflags = (isrflags & (uint32_t)(USART_SR_PE | USART_SR_FE | USART_SR_ORE | USART_SR_NE));
 8002546:	f8d7 30e4 	ldr.w	r3, [r7, #228]	; 0xe4
 800254a:	f003 030f 	and.w	r3, r3, #15
 800254e:	f8c7 30d8 	str.w	r3, [r7, #216]	; 0xd8
  if (errorflags == RESET)
 8002552:	f8d7 30d8 	ldr.w	r3, [r7, #216]	; 0xd8
 8002556:	2b00      	cmp	r3, #0
 8002558:	d10f      	bne.n	800257a <HAL_UART_IRQHandler+0x66>
  {
    /* UART in mode Receiver -------------------------------------------------*/
    if (((isrflags & USART_SR_RXNE) != RESET) && ((cr1its & USART_CR1_RXNEIE) != RESET))
 800255a:	f8d7 30e4 	ldr.w	r3, [r7, #228]	; 0xe4
 800255e:	f003 0320 	and.w	r3, r3, #32
 8002562:	2b00      	cmp	r3, #0
 8002564:	d009      	beq.n	800257a <HAL_UART_IRQHandler+0x66>
 8002566:	f8d7 30e0 	ldr.w	r3, [r7, #224]	; 0xe0
 800256a:	f003 0320 	and.w	r3, r3, #32
 800256e:	2b00      	cmp	r3, #0
 8002570:	d003      	beq.n	800257a <HAL_UART_IRQHandler+0x66>
    {
      UART_Receive_IT(huart);
 8002572:	6878      	ldr	r0, [r7, #4]
 8002574:	f000 fc07 	bl	8002d86 <UART_Receive_IT>
      return;
 8002578:	e256      	b.n	8002a28 <HAL_UART_IRQHandler+0x514>
    }
  }

  /* If some errors occur */
  if ((errorflags != RESET) && (((cr3its & USART_CR3_EIE) != RESET)
 800257a:	f8d7 30d8 	ldr.w	r3, [r7, #216]	; 0xd8
 800257e:	2b00      	cmp	r3, #0
 8002580:	f000 80de 	beq.w	8002740 <HAL_UART_IRQHandler+0x22c>
 8002584:	f8d7 30dc 	ldr.w	r3, [r7, #220]	; 0xdc
 8002588:	f003 0301 	and.w	r3, r3, #1
 800258c:	2b00      	cmp	r3, #0
 800258e:	d106      	bne.n	800259e <HAL_UART_IRQHandler+0x8a>
                                || ((cr1its & (USART_CR1_RXNEIE | USART_CR1_PEIE)) != RESET)))
 8002590:	f8d7 30e0 	ldr.w	r3, [r7, #224]	; 0xe0
 8002594:	f403 7390 	and.w	r3, r3, #288	; 0x120
 8002598:	2b00      	cmp	r3, #0
 800259a:	f000 80d1 	beq.w	8002740 <HAL_UART_IRQHandler+0x22c>
  {
    /* UART parity error interrupt occurred ----------------------------------*/
    if (((isrflags & USART_SR_PE) != RESET) && ((cr1its & USART_CR1_PEIE) != RESET))
 800259e:	f8d7 30e4 	ldr.w	r3, [r7, #228]	; 0xe4
 80025a2:	f003 0301 	and.w	r3, r3, #1
 80025a6:	2b00      	cmp	r3, #0
 80025a8:	d00b      	beq.n	80025c2 <HAL_UART_IRQHandler+0xae>
 80025aa:	f8d7 30e0 	ldr.w	r3, [r7, #224]	; 0xe0
 80025ae:	f403 7380 	and.w	r3, r3, #256	; 0x100
 80025b2:	2b00      	cmp	r3, #0
 80025b4:	d005      	beq.n	80025c2 <HAL_UART_IRQHandler+0xae>
    {
      huart->ErrorCode |= HAL_UART_ERROR_PE;
 80025b6:	687b      	ldr	r3, [r7, #4]
 80025b8:	6c1b      	ldr	r3, [r3, #64]	; 0x40
 80025ba:	f043 0201 	orr.w	r2, r3, #1
 80025be:	687b      	ldr	r3, [r7, #4]
 80025c0:	641a      	str	r2, [r3, #64]	; 0x40
    }

    /* UART noise error interrupt occurred -----------------------------------*/
    if (((isrflags & USART_SR_NE) != RESET) && ((cr3its & USART_CR3_EIE) != RESET))
 80025c2:	f8d7 30e4 	ldr.w	r3, [r7, #228]	; 0xe4
 80025c6:	f003 0304 	and.w	r3, r3, #4
 80025ca:	2b00      	cmp	r3, #0
 80025cc:	d00b      	beq.n	80025e6 <HAL_UART_IRQHandler+0xd2>
 80025ce:	f8d7 30dc 	ldr.w	r3, [r7, #220]	; 0xdc
 80025d2:	f003 0301 	and.w	r3, r3, #1
 80025d6:	2b00      	cmp	r3, #0
 80025d8:	d005      	beq.n	80025e6 <HAL_UART_IRQHandler+0xd2>
    {
      huart->ErrorCode |= HAL_UART_ERROR_NE;
 80025da:	687b      	ldr	r3, [r7, #4]
 80025dc:	6c1b      	ldr	r3, [r3, #64]	; 0x40
 80025de:	f043 0202 	orr.w	r2, r3, #2
 80025e2:	687b      	ldr	r3, [r7, #4]
 80025e4:	641a      	str	r2, [r3, #64]	; 0x40
    }

    /* UART frame error interrupt occurred -----------------------------------*/
    if (((isrflags & USART_SR_FE) != RESET) && ((cr3its & USART_CR3_EIE) != RESET))
 80025e6:	f8d7 30e4 	ldr.w	r3, [r7, #228]	; 0xe4
 80025ea:	f003 0302 	and.w	r3, r3, #2
 80025ee:	2b00      	cmp	r3, #0
 80025f0:	d00b      	beq.n	800260a <HAL_UART_IRQHandler+0xf6>
 80025f2:	f8d7 30dc 	ldr.w	r3, [r7, #220]	; 0xdc
 80025f6:	f003 0301 	and.w	r3, r3, #1
 80025fa:	2b00      	cmp	r3, #0
 80025fc:	d005      	beq.n	800260a <HAL_UART_IRQHandler+0xf6>
    {
      huart->ErrorCode |= HAL_UART_ERROR_FE;
 80025fe:	687b      	ldr	r3, [r7, #4]
 8002600:	6c1b      	ldr	r3, [r3, #64]	; 0x40
 8002602:	f043 0204 	orr.w	r2, r3, #4
 8002606:	687b      	ldr	r3, [r7, #4]
 8002608:	641a      	str	r2, [r3, #64]	; 0x40
    }

    /* UART Over-Run interrupt occurred --------------------------------------*/
    if (((isrflags & USART_SR_ORE) != RESET) && (((cr1its & USART_CR1_RXNEIE) != RESET)
 800260a:	f8d7 30e4 	ldr.w	r3, [r7, #228]	; 0xe4
 800260e:	f003 0308 	and.w	r3, r3, #8
 8002612:	2b00      	cmp	r3, #0
 8002614:	d011      	beq.n	800263a <HAL_UART_IRQHandler+0x126>
 8002616:	f8d7 30e0 	ldr.w	r3, [r7, #224]	; 0xe0
 800261a:	f003 0320 	and.w	r3, r3, #32
 800261e:	2b00      	cmp	r3, #0
 8002620:	d105      	bne.n	800262e <HAL_UART_IRQHandler+0x11a>
                                                 || ((cr3its & USART_CR3_EIE) != RESET)))
 8002622:	f8d7 30dc 	ldr.w	r3, [r7, #220]	; 0xdc
 8002626:	f003 0301 	and.w	r3, r3, #1
 800262a:	2b00      	cmp	r3, #0
 800262c:	d005      	beq.n	800263a <HAL_UART_IRQHandler+0x126>
    {
      huart->ErrorCode |= HAL_UART_ERROR_ORE;
 800262e:	687b      	ldr	r3, [r7, #4]
 8002630:	6c1b      	ldr	r3, [r3, #64]	; 0x40
 8002632:	f043 0208 	orr.w	r2, r3, #8
 8002636:	687b      	ldr	r3, [r7, #4]
 8002638:	641a      	str	r2, [r3, #64]	; 0x40
    }

    /* Call UART Error Call back function if need be --------------------------*/
    if (huart->ErrorCode != HAL_UART_ERROR_NONE)
 800263a:	687b      	ldr	r3, [r7, #4]
 800263c:	6c1b      	ldr	r3, [r3, #64]	; 0x40
 800263e:	2b00      	cmp	r3, #0
 8002640:	f000 81ed 	beq.w	8002a1e <HAL_UART_IRQHandler+0x50a>
    {
      /* UART in mode Receiver -----------------------------------------------*/
      if (((isrflags & USART_SR_RXNE) != RESET) && ((cr1its & USART_CR1_RXNEIE) != RESET))
 8002644:	f8d7 30e4 	ldr.w	r3, [r7, #228]	; 0xe4
 8002648:	f003 0320 	and.w	r3, r3, #32
 800264c:	2b00      	cmp	r3, #0
 800264e:	d008      	beq.n	8002662 <HAL_UART_IRQHandler+0x14e>
 8002650:	f8d7 30e0 	ldr.w	r3, [r7, #224]	; 0xe0
 8002654:	f003 0320 	and.w	r3, r3, #32
 8002658:	2b00      	cmp	r3, #0
 800265a:	d002      	beq.n	8002662 <HAL_UART_IRQHandler+0x14e>
      {
        UART_Receive_IT(huart);
 800265c:	6878      	ldr	r0, [r7, #4]
 800265e:	f000 fb92 	bl	8002d86 <UART_Receive_IT>
      }

      /* If Overrun error occurs, or if any error occurs in DMA mode reception,
         consider error as blocking */
      dmarequest = HAL_IS_BIT_SET(huart->Instance->CR3, USART_CR3_DMAR);
 8002662:	687b      	ldr	r3, [r7, #4]
 8002664:	681b      	ldr	r3, [r3, #0]
 8002666:	695b      	ldr	r3, [r3, #20]
 8002668:	f003 0340 	and.w	r3, r3, #64	; 0x40
 800266c:	2b40      	cmp	r3, #64	; 0x40
 800266e:	bf0c      	ite	eq
 8002670:	2301      	moveq	r3, #1
 8002672:	2300      	movne	r3, #0
 8002674:	b2db      	uxtb	r3, r3
 8002676:	f8c7 30d4 	str.w	r3, [r7, #212]	; 0xd4
      if (((huart->ErrorCode & HAL_UART_ERROR_ORE) != RESET) || dmarequest)
 800267a:	687b      	ldr	r3, [r7, #4]
 800267c:	6c1b      	ldr	r3, [r3, #64]	; 0x40
 800267e:	f003 0308 	and.w	r3, r3, #8
 8002682:	2b00      	cmp	r3, #0
 8002684:	d103      	bne.n	800268e <HAL_UART_IRQHandler+0x17a>
 8002686:	f8d7 30d4 	ldr.w	r3, [r7, #212]	; 0xd4
 800268a:	2b00      	cmp	r3, #0
 800268c:	d04f      	beq.n	800272e <HAL_UART_IRQHandler+0x21a>
      {
        /* Blocking error : transfer is aborted
           Set the UART state ready to be able to start again the process,
           Disable Rx Interrupts, and disable Rx DMA request, if ongoing */
        UART_EndRxTransfer(huart);
 800268e:	6878      	ldr	r0, [r7, #4]
 8002690:	f000 fa9a 	bl	8002bc8 <UART_EndRxTransfer>

        /* Disable the UART DMA Rx request if enabled */
        if (HAL_IS_BIT_SET(huart->Instance->CR3, USART_CR3_DMAR))
 8002694:	687b      	ldr	r3, [r7, #4]
 8002696:	681b      	ldr	r3, [r3, #0]
 8002698:	695b      	ldr	r3, [r3, #20]
 800269a:	f003 0340 	and.w	r3, r3, #64	; 0x40
 800269e:	2b40      	cmp	r3, #64	; 0x40
 80026a0:	d141      	bne.n	8002726 <HAL_UART_IRQHandler+0x212>
        {
          ATOMIC_CLEAR_BIT(huart->Instance->CR3, USART_CR3_DMAR);
 80026a2:	687b      	ldr	r3, [r7, #4]
 80026a4:	681b      	ldr	r3, [r3, #0]
 80026a6:	3314      	adds	r3, #20
 80026a8:	f8c7 309c 	str.w	r3, [r7, #156]	; 0x9c
 */
__STATIC_FORCEINLINE uint32_t __LDREXW(volatile uint32_t *addr)
{
    uint32_t result;

   __ASM volatile ("ldrex %0, %1" : "=r" (result) : "Q" (*addr) );
 80026ac:	f8d7 309c 	ldr.w	r3, [r7, #156]	; 0x9c
 80026b0:	e853 3f00 	ldrex	r3, [r3]
 80026b4:	f8c7 3098 	str.w	r3, [r7, #152]	; 0x98
   return(result);
 80026b8:	f8d7 3098 	ldr.w	r3, [r7, #152]	; 0x98
 80026bc:	f023 0340 	bic.w	r3, r3, #64	; 0x40
 80026c0:	f8c7 30d0 	str.w	r3, [r7, #208]	; 0xd0
 80026c4:	687b      	ldr	r3, [r7, #4]
 80026c6:	681b      	ldr	r3, [r3, #0]
 80026c8:	3314      	adds	r3, #20
 80026ca:	f8d7 20d0 	ldr.w	r2, [r7, #208]	; 0xd0
 80026ce:	f8c7 20a8 	str.w	r2, [r7, #168]	; 0xa8
 80026d2:	f8c7 30a4 	str.w	r3, [r7, #164]	; 0xa4
 */
__STATIC_FORCEINLINE uint32_t __STREXW(uint32_t value, volatile uint32_t *addr)
{
   uint32_t result;

   __ASM volatile ("strex %0, %2, %1" : "=&r" (result), "=Q" (*addr) : "r" (value) );
 80026d6:	f8d7 10a4 	ldr.w	r1, [r7, #164]	; 0xa4
 80026da:	f8d7 20a8 	ldr.w	r2, [r7, #168]	; 0xa8
 80026de:	e841 2300 	strex	r3, r2, [r1]
 80026e2:	f8c7 30a0 	str.w	r3, [r7, #160]	; 0xa0
   return(result);
 80026e6:	f8d7 30a0 	ldr.w	r3, [r7, #160]	; 0xa0
 80026ea:	2b00      	cmp	r3, #0
 80026ec:	d1d9      	bne.n	80026a2 <HAL_UART_IRQHandler+0x18e>

          /* Abort the UART DMA Rx stream */
          if (huart->hdmarx != NULL)
 80026ee:	687b      	ldr	r3, [r7, #4]
 80026f0:	6b9b      	ldr	r3, [r3, #56]	; 0x38
 80026f2:	2b00      	cmp	r3, #0
 80026f4:	d013      	beq.n	800271e <HAL_UART_IRQHandler+0x20a>
          {
            /* Set the UART DMA Abort callback :
               will lead to call HAL_UART_ErrorCallback() at end of DMA abort procedure */
            huart->hdmarx->XferAbortCallback = UART_DMAAbortOnError;
 80026f6:	687b      	ldr	r3, [r7, #4]
 80026f8:	6b9b      	ldr	r3, [r3, #56]	; 0x38
 80026fa:	4a7d      	ldr	r2, [pc, #500]	; (80028f0 <HAL_UART_IRQHandler+0x3dc>)
 80026fc:	651a      	str	r2, [r3, #80]	; 0x50
            if (HAL_DMA_Abort_IT(huart->hdmarx) != HAL_OK)
 80026fe:	687b      	ldr	r3, [r7, #4]
 8002700:	6b9b      	ldr	r3, [r3, #56]	; 0x38
 8002702:	4618      	mov	r0, r3
 8002704:	f7fe ff9d 	bl	8001642 <HAL_DMA_Abort_IT>
 8002708:	4603      	mov	r3, r0
 800270a:	2b00      	cmp	r3, #0
 800270c:	d016      	beq.n	800273c <HAL_UART_IRQHandler+0x228>
            {
              /* Call Directly XferAbortCallback function in case of error */
              huart->hdmarx->XferAbortCallback(huart->hdmarx);
 800270e:	687b      	ldr	r3, [r7, #4]
 8002710:	6b9b      	ldr	r3, [r3, #56]	; 0x38
 8002712:	6d1b      	ldr	r3, [r3, #80]	; 0x50
 8002714:	687a      	ldr	r2, [r7, #4]
 8002716:	6b92      	ldr	r2, [r2, #56]	; 0x38
 8002718:	4610      	mov	r0, r2
 800271a:	4798      	blx	r3
        if (HAL_IS_BIT_SET(huart->Instance->CR3, USART_CR3_DMAR))
 800271c:	e00e      	b.n	800273c <HAL_UART_IRQHandler+0x228>
#if (USE_HAL_UART_REGISTER_CALLBACKS == 1)
            /*Call registered error callback*/
            huart->ErrorCallback(huart);
#else
            /*Call legacy weak error callback*/
            HAL_UART_ErrorCallback(huart);
 800271e:	6878      	ldr	r0, [r7, #4]
 8002720:	f000 f990 	bl	8002a44 <HAL_UART_ErrorCallback>
        if (HAL_IS_BIT_SET(huart->Instance->CR3, USART_CR3_DMAR))
 8002724:	e00a      	b.n	800273c <HAL_UART_IRQHandler+0x228>
#if (USE_HAL_UART_REGISTER_CALLBACKS == 1)
          /*Call registered error callback*/
          huart->ErrorCallback(huart);
#else
          /*Call legacy weak error callback*/
          HAL_UART_ErrorCallback(huart);
 8002726:	6878      	ldr	r0, [r7, #4]
 8002728:	f000 f98c 	bl	8002a44 <HAL_UART_ErrorCallback>
        if (HAL_IS_BIT_SET(huart->Instance->CR3, USART_CR3_DMAR))
 800272c:	e006      	b.n	800273c <HAL_UART_IRQHandler+0x228>
#if (USE_HAL_UART_REGISTER_CALLBACKS == 1)
        /*Call registered error callback*/
        huart->ErrorCallback(huart);
#else
        /*Call legacy weak error callback*/
        HAL_UART_ErrorCallback(huart);
 800272e:	6878      	ldr	r0, [r7, #4]
 8002730:	f000 f988 	bl	8002a44 <HAL_UART_ErrorCallback>
#endif /* USE_HAL_UART_REGISTER_CALLBACKS */

        huart->ErrorCode = HAL_UART_ERROR_NONE;
 8002734:	687b      	ldr	r3, [r7, #4]
 8002736:	2200      	movs	r2, #0
 8002738:	641a      	str	r2, [r3, #64]	; 0x40
      }
    }
    return;
 800273a:	e170      	b.n	8002a1e <HAL_UART_IRQHandler+0x50a>
        if (HAL_IS_BIT_SET(huart->Instance->CR3, USART_CR3_DMAR))
 800273c:	bf00      	nop
    return;
 800273e:	e16e      	b.n	8002a1e <HAL_UART_IRQHandler+0x50a>
  } /* End if some error occurs */

  /* Check current reception Mode :
     If Reception till IDLE event has been selected : */
  if ((huart->ReceptionType == HAL_UART_RECEPTION_TOIDLE)
 8002740:	687b      	ldr	r3, [r7, #4]
 8002742:	6b1b      	ldr	r3, [r3, #48]	; 0x30
 8002744:	2b01      	cmp	r3, #1
 8002746:	f040 814a 	bne.w	80029de <HAL_UART_IRQHandler+0x4ca>
      && ((isrflags & USART_SR_IDLE) != 0U)
 800274a:	f8d7 30e4 	ldr.w	r3, [r7, #228]	; 0xe4
 800274e:	f003 0310 	and.w	r3, r3, #16
 8002752:	2b00      	cmp	r3, #0
 8002754:	f000 8143 	beq.w	80029de <HAL_UART_IRQHandler+0x4ca>
      && ((cr1its & USART_SR_IDLE) != 0U))
 8002758:	f8d7 30e0 	ldr.w	r3, [r7, #224]	; 0xe0
 800275c:	f003 0310 	and.w	r3, r3, #16
 8002760:	2b00      	cmp	r3, #0
 8002762:	f000 813c 	beq.w	80029de <HAL_UART_IRQHandler+0x4ca>
  {
    __HAL_UART_CLEAR_IDLEFLAG(huart);
 8002766:	2300      	movs	r3, #0
 8002768:	60bb      	str	r3, [r7, #8]
 800276a:	687b      	ldr	r3, [r7, #4]
 800276c:	681b      	ldr	r3, [r3, #0]
 800276e:	681b      	ldr	r3, [r3, #0]
 8002770:	60bb      	str	r3, [r7, #8]
 8002772:	687b      	ldr	r3, [r7, #4]
 8002774:	681b      	ldr	r3, [r3, #0]
 8002776:	685b      	ldr	r3, [r3, #4]
 8002778:	60bb      	str	r3, [r7, #8]
 800277a:	68bb      	ldr	r3, [r7, #8]

    /* Check if DMA mode is enabled in UART */
    if (HAL_IS_BIT_SET(huart->Instance->CR3, USART_CR3_DMAR))
 800277c:	687b      	ldr	r3, [r7, #4]
 800277e:	681b      	ldr	r3, [r3, #0]
 8002780:	695b      	ldr	r3, [r3, #20]
 8002782:	f003 0340 	and.w	r3, r3, #64	; 0x40
 8002786:	2b40      	cmp	r3, #64	; 0x40
 8002788:	f040 80b4 	bne.w	80028f4 <HAL_UART_IRQHandler+0x3e0>
    {
      /* DMA mode enabled */
      /* Check received length : If all expected data are received, do nothing,
         (DMA cplt callback will be called).
         Otherwise, if at least one data has already been received, IDLE event is to be notified to user */
      uint16_t nb_remaining_rx_data = (uint16_t) __HAL_DMA_GET_COUNTER(huart->hdmarx);
 800278c:	687b      	ldr	r3, [r7, #4]
 800278e:	6b9b      	ldr	r3, [r3, #56]	; 0x38
 8002790:	681b      	ldr	r3, [r3, #0]
 8002792:	685b      	ldr	r3, [r3, #4]
 8002794:	f8a7 30be 	strh.w	r3, [r7, #190]	; 0xbe
      if ((nb_remaining_rx_data > 0U)
 8002798:	f8b7 30be 	ldrh.w	r3, [r7, #190]	; 0xbe
 800279c:	2b00      	cmp	r3, #0
 800279e:	f000 8140 	beq.w	8002a22 <HAL_UART_IRQHandler+0x50e>
          && (nb_remaining_rx_data < huart->RxXferSize))
 80027a2:	687b      	ldr	r3, [r7, #4]
 80027a4:	8d9b      	ldrh	r3, [r3, #44]	; 0x2c
 80027a6:	f8b7 20be 	ldrh.w	r2, [r7, #190]	; 0xbe
 80027aa:	429a      	cmp	r2, r3
 80027ac:	f080 8139 	bcs.w	8002a22 <HAL_UART_IRQHandler+0x50e>
      {
        /* Reception is not complete */
        huart->RxXferCount = nb_remaining_rx_data;
 80027b0:	687b      	ldr	r3, [r7, #4]
 80027b2:	f8b7 20be 	ldrh.w	r2, [r7, #190]	; 0xbe
 80027b6:	85da      	strh	r2, [r3, #46]	; 0x2e

        /* In Normal mode, end DMA xfer and HAL UART Rx process*/
        if (huart->hdmarx->Init.Mode != DMA_CIRCULAR)
 80027b8:	687b      	ldr	r3, [r7, #4]
 80027ba:	6b9b      	ldr	r3, [r3, #56]	; 0x38
 80027bc:	69db      	ldr	r3, [r3, #28]
 80027be:	f5b3 7f80 	cmp.w	r3, #256	; 0x100
 80027c2:	f000 8088 	beq.w	80028d6 <HAL_UART_IRQHandler+0x3c2>
        {
          /* Disable PE and ERR (Frame error, noise error, overrun error) interrupts */
          ATOMIC_CLEAR_BIT(huart->Instance->CR1, USART_CR1_PEIE);
 80027c6:	687b      	ldr	r3, [r7, #4]
 80027c8:	681b      	ldr	r3, [r3, #0]
 80027ca:	330c      	adds	r3, #12
 80027cc:	f8c7 3088 	str.w	r3, [r7, #136]	; 0x88
   __ASM volatile ("ldrex %0, %1" : "=r" (result) : "Q" (*addr) );
 80027d0:	f8d7 3088 	ldr.w	r3, [r7, #136]	; 0x88
 80027d4:	e853 3f00 	ldrex	r3, [r3]
 80027d8:	f8c7 3084 	str.w	r3, [r7, #132]	; 0x84
   return(result);
 80027dc:	f8d7 3084 	ldr.w	r3, [r7, #132]	; 0x84
 80027e0:	f423 7380 	bic.w	r3, r3, #256	; 0x100
 80027e4:	f8c7 30b8 	str.w	r3, [r7, #184]	; 0xb8
 80027e8:	687b      	ldr	r3, [r7, #4]
 80027ea:	681b      	ldr	r3, [r3, #0]
 80027ec:	330c      	adds	r3, #12
 80027ee:	f8d7 20b8 	ldr.w	r2, [r7, #184]	; 0xb8
 80027f2:	f8c7 2094 	str.w	r2, [r7, #148]	; 0x94
 80027f6:	f8c7 3090 	str.w	r3, [r7, #144]	; 0x90
   __ASM volatile ("strex %0, %2, %1" : "=&r" (result), "=Q" (*addr) : "r" (value) );
 80027fa:	f8d7 1090 	ldr.w	r1, [r7, #144]	; 0x90
 80027fe:	f8d7 2094 	ldr.w	r2, [r7, #148]	; 0x94
 8002802:	e841 2300 	strex	r3, r2, [r1]
 8002806:	f8c7 308c 	str.w	r3, [r7, #140]	; 0x8c
   return(result);
 800280a:	f8d7 308c 	ldr.w	r3, [r7, #140]	; 0x8c
 800280e:	2b00      	cmp	r3, #0
 8002810:	d1d9      	bne.n	80027c6 <HAL_UART_IRQHandler+0x2b2>
          ATOMIC_CLEAR_BIT(huart->Instance->CR3, USART_CR3_EIE);
 8002812:	687b      	ldr	r3, [r7, #4]
 8002814:	681b      	ldr	r3, [r3, #0]
 8002816:	3314      	adds	r3, #20
 8002818:	677b      	str	r3, [r7, #116]	; 0x74
   __ASM volatile ("ldrex %0, %1" : "=r" (result) : "Q" (*addr) );
 800281a:	6f7b      	ldr	r3, [r7, #116]	; 0x74
 800281c:	e853 3f00 	ldrex	r3, [r3]
 8002820:	673b      	str	r3, [r7, #112]	; 0x70
   return(result);
 8002822:	6f3b      	ldr	r3, [r7, #112]	; 0x70
 8002824:	f023 0301 	bic.w	r3, r3, #1
 8002828:	f8c7 30b4 	str.w	r3, [r7, #180]	; 0xb4
 800282c:	687b      	ldr	r3, [r7, #4]
 800282e:	681b      	ldr	r3, [r3, #0]
 8002830:	3314      	adds	r3, #20
 8002832:	f8d7 20b4 	ldr.w	r2, [r7, #180]	; 0xb4
 8002836:	f8c7 2080 	str.w	r2, [r7, #128]	; 0x80
 800283a:	67fb      	str	r3, [r7, #124]	; 0x7c
   __ASM volatile ("strex %0, %2, %1" : "=&r" (result), "=Q" (*addr) : "r" (value) );
 800283c:	6ff9      	ldr	r1, [r7, #124]	; 0x7c
 800283e:	f8d7 2080 	ldr.w	r2, [r7, #128]	; 0x80
 8002842:	e841 2300 	strex	r3, r2, [r1]
 8002846:	67bb      	str	r3, [r7, #120]	; 0x78
   return(result);
 8002848:	6fbb      	ldr	r3, [r7, #120]	; 0x78
 800284a:	2b00      	cmp	r3, #0
 800284c:	d1e1      	bne.n	8002812 <HAL_UART_IRQHandler+0x2fe>

          /* Disable the DMA transfer for the receiver request by resetting the DMAR bit
             in the UART CR3 register */
          ATOMIC_CLEAR_BIT(huart->Instance->CR3, USART_CR3_DMAR);
 800284e:	687b      	ldr	r3, [r7, #4]
 8002850:	681b      	ldr	r3, [r3, #0]
 8002852:	3314      	adds	r3, #20
 8002854:	663b      	str	r3, [r7, #96]	; 0x60
   __ASM volatile ("ldrex %0, %1" : "=r" (result) : "Q" (*addr) );
 8002856:	6e3b      	ldr	r3, [r7, #96]	; 0x60
 8002858:	e853 3f00 	ldrex	r3, [r3]
 800285c:	65fb      	str	r3, [r7, #92]	; 0x5c
   return(result);
 800285e:	6dfb      	ldr	r3, [r7, #92]	; 0x5c
 8002860:	f023 0340 	bic.w	r3, r3, #64	; 0x40
 8002864:	f8c7 30b0 	str.w	r3, [r7, #176]	; 0xb0
 8002868:	687b      	ldr	r3, [r7, #4]
 800286a:	681b      	ldr	r3, [r3, #0]
 800286c:	3314      	adds	r3, #20
 800286e:	f8d7 20b0 	ldr.w	r2, [r7, #176]	; 0xb0
 8002872:	66fa      	str	r2, [r7, #108]	; 0x6c
 8002874:	66bb      	str	r3, [r7, #104]	; 0x68
   __ASM volatile ("strex %0, %2, %1" : "=&r" (result), "=Q" (*addr) : "r" (value) );
 8002876:	6eb9      	ldr	r1, [r7, #104]	; 0x68
 8002878:	6efa      	ldr	r2, [r7, #108]	; 0x6c
 800287a:	e841 2300 	strex	r3, r2, [r1]
 800287e:	667b      	str	r3, [r7, #100]	; 0x64
   return(result);
 8002880:	6e7b      	ldr	r3, [r7, #100]	; 0x64
 8002882:	2b00      	cmp	r3, #0
 8002884:	d1e3      	bne.n	800284e <HAL_UART_IRQHandler+0x33a>

          /* At end of Rx process, restore huart->RxState to Ready */
          huart->RxState = HAL_UART_STATE_READY;
 8002886:	687b      	ldr	r3, [r7, #4]
 8002888:	2220      	movs	r2, #32
 800288a:	f883 203e 	strb.w	r2, [r3, #62]	; 0x3e
          huart->ReceptionType = HAL_UART_RECEPTION_STANDARD;
 800288e:	687b      	ldr	r3, [r7, #4]
 8002890:	2200      	movs	r2, #0
 8002892:	631a      	str	r2, [r3, #48]	; 0x30

          ATOMIC_CLEAR_BIT(huart->Instance->CR1, USART_CR1_IDLEIE);
 8002894:	687b      	ldr	r3, [r7, #4]
 8002896:	681b      	ldr	r3, [r3, #0]
 8002898:	330c      	adds	r3, #12
 800289a:	64fb      	str	r3, [r7, #76]	; 0x4c
   __ASM volatile ("ldrex %0, %1" : "=r" (result) : "Q" (*addr) );
 800289c:	6cfb      	ldr	r3, [r7, #76]	; 0x4c
 800289e:	e853 3f00 	ldrex	r3, [r3]
 80028a2:	64bb      	str	r3, [r7, #72]	; 0x48
   return(result);
 80028a4:	6cbb      	ldr	r3, [r7, #72]	; 0x48
 80028a6:	f023 0310 	bic.w	r3, r3, #16
 80028aa:	f8c7 30ac 	str.w	r3, [r7, #172]	; 0xac
 80028ae:	687b      	ldr	r3, [r7, #4]
 80028b0:	681b      	ldr	r3, [r3, #0]
 80028b2:	330c      	adds	r3, #12
 80028b4:	f8d7 20ac 	ldr.w	r2, [r7, #172]	; 0xac
 80028b8:	65ba      	str	r2, [r7, #88]	; 0x58
 80028ba:	657b      	str	r3, [r7, #84]	; 0x54
   __ASM volatile ("strex %0, %2, %1" : "=&r" (result), "=Q" (*addr) : "r" (value) );
 80028bc:	6d79      	ldr	r1, [r7, #84]	; 0x54
 80028be:	6dba      	ldr	r2, [r7, #88]	; 0x58
 80028c0:	e841 2300 	strex	r3, r2, [r1]
 80028c4:	653b      	str	r3, [r7, #80]	; 0x50
   return(result);
 80028c6:	6d3b      	ldr	r3, [r7, #80]	; 0x50
 80028c8:	2b00      	cmp	r3, #0
 80028ca:	d1e3      	bne.n	8002894 <HAL_UART_IRQHandler+0x380>

          /* Last bytes received, so no need as the abort is immediate */
          (void)HAL_DMA_Abort(huart->hdmarx);
 80028cc:	687b      	ldr	r3, [r7, #4]
 80028ce:	6b9b      	ldr	r3, [r3, #56]	; 0x38
 80028d0:	4618      	mov	r0, r3
 80028d2:	f7fe fe46 	bl	8001562 <HAL_DMA_Abort>
#if (USE_HAL_UART_REGISTER_CALLBACKS == 1)
        /*Call registered Rx Event callback*/
        huart->RxEventCallback(huart, (huart->RxXferSize - huart->RxXferCount));
#else
        /*Call legacy weak Rx Event callback*/
        HAL_UARTEx_RxEventCallback(huart, (huart->RxXferSize - huart->RxXferCount));
 80028d6:	687b      	ldr	r3, [r7, #4]
 80028d8:	8d9a      	ldrh	r2, [r3, #44]	; 0x2c
 80028da:	687b      	ldr	r3, [r7, #4]
 80028dc:	8ddb      	ldrh	r3, [r3, #46]	; 0x2e
 80028de:	b29b      	uxth	r3, r3
 80028e0:	1ad3      	subs	r3, r2, r3
 80028e2:	b29b      	uxth	r3, r3
 80028e4:	4619      	mov	r1, r3
 80028e6:	6878      	ldr	r0, [r7, #4]
 80028e8:	f000 f8b6 	bl	8002a58 <HAL_UARTEx_RxEventCallback>
#endif /* USE_HAL_UART_REGISTER_CALLBACKS */
      }
      return;
 80028ec:	e099      	b.n	8002a22 <HAL_UART_IRQHandler+0x50e>
 80028ee:	bf00      	nop
 80028f0:	08002c8f 	.word	0x08002c8f
    else
    {
      /* DMA mode not enabled */
      /* Check received length : If all expected data are received, do nothing.
         Otherwise, if at least one data has already been received, IDLE event is to be notified to user */
      uint16_t nb_rx_data = huart->RxXferSize - huart->RxXferCount;
 80028f4:	687b      	ldr	r3, [r7, #4]
 80028f6:	8d9a      	ldrh	r2, [r3, #44]	; 0x2c
 80028f8:	687b      	ldr	r3, [r7, #4]
 80028fa:	8ddb      	ldrh	r3, [r3, #46]	; 0x2e
 80028fc:	b29b      	uxth	r3, r3
 80028fe:	1ad3      	subs	r3, r2, r3
 8002900:	f8a7 30ce 	strh.w	r3, [r7, #206]	; 0xce
      if ((huart->RxXferCount > 0U)
 8002904:	687b      	ldr	r3, [r7, #4]
 8002906:	8ddb      	ldrh	r3, [r3, #46]	; 0x2e
 8002908:	b29b      	uxth	r3, r3
 800290a:	2b00      	cmp	r3, #0
 800290c:	f000 808b 	beq.w	8002a26 <HAL_UART_IRQHandler+0x512>
          && (nb_rx_data > 0U))
 8002910:	f8b7 30ce 	ldrh.w	r3, [r7, #206]	; 0xce
 8002914:	2b00      	cmp	r3, #0
 8002916:	f000 8086 	beq.w	8002a26 <HAL_UART_IRQHandler+0x512>
      {
        /* Disable the UART Parity Error Interrupt and RXNE interrupts */
        ATOMIC_CLEAR_BIT(huart->Instance->CR1, (USART_CR1_RXNEIE | USART_CR1_PEIE));
 800291a:	687b      	ldr	r3, [r7, #4]
 800291c:	681b      	ldr	r3, [r3, #0]
 800291e:	330c      	adds	r3, #12
 8002920:	63bb      	str	r3, [r7, #56]	; 0x38
   __ASM volatile ("ldrex %0, %1" : "=r" (result) : "Q" (*addr) );
 8002922:	6bbb      	ldr	r3, [r7, #56]	; 0x38
 8002924:	e853 3f00 	ldrex	r3, [r3]
 8002928:	637b      	str	r3, [r7, #52]	; 0x34
   return(result);
 800292a:	6b7b      	ldr	r3, [r7, #52]	; 0x34
 800292c:	f423 7390 	bic.w	r3, r3, #288	; 0x120
 8002930:	f8c7 30c8 	str.w	r3, [r7, #200]	; 0xc8
 8002934:	687b      	ldr	r3, [r7, #4]
 8002936:	681b      	ldr	r3, [r3, #0]
 8002938:	330c      	adds	r3, #12
 800293a:	f8d7 20c8 	ldr.w	r2, [r7, #200]	; 0xc8
 800293e:	647a      	str	r2, [r7, #68]	; 0x44
 8002940:	643b      	str	r3, [r7, #64]	; 0x40
   __ASM volatile ("strex %0, %2, %1" : "=&r" (result), "=Q" (*addr) : "r" (value) );
 8002942:	6c39      	ldr	r1, [r7, #64]	; 0x40
 8002944:	6c7a      	ldr	r2, [r7, #68]	; 0x44
 8002946:	e841 2300 	strex	r3, r2, [r1]
 800294a:	63fb      	str	r3, [r7, #60]	; 0x3c
   return(result);
 800294c:	6bfb      	ldr	r3, [r7, #60]	; 0x3c
 800294e:	2b00      	cmp	r3, #0
 8002950:	d1e3      	bne.n	800291a <HAL_UART_IRQHandler+0x406>

        /* Disable the UART Error Interrupt: (Frame error, noise error, overrun error) */
        ATOMIC_CLEAR_BIT(huart->Instance->CR3, USART_CR3_EIE);
 8002952:	687b      	ldr	r3, [r7, #4]
 8002954:	681b      	ldr	r3, [r3, #0]
 8002956:	3314      	adds	r3, #20
 8002958:	627b      	str	r3, [r7, #36]	; 0x24
   __ASM volatile ("ldrex %0, %1" : "=r" (result) : "Q" (*addr) );
 800295a:	6a7b      	ldr	r3, [r7, #36]	; 0x24
 800295c:	e853 3f00 	ldrex	r3, [r3]
 8002960:	623b      	str	r3, [r7, #32]
   return(result);
 8002962:	6a3b      	ldr	r3, [r7, #32]
 8002964:	f023 0301 	bic.w	r3, r3, #1
 8002968:	f8c7 30c4 	str.w	r3, [r7, #196]	; 0xc4
 800296c:	687b      	ldr	r3, [r7, #4]
 800296e:	681b      	ldr	r3, [r3, #0]
 8002970:	3314      	adds	r3, #20
 8002972:	f8d7 20c4 	ldr.w	r2, [r7, #196]	; 0xc4
 8002976:	633a      	str	r2, [r7, #48]	; 0x30
 8002978:	62fb      	str	r3, [r7, #44]	; 0x2c
   __ASM volatile ("strex %0, %2, %1" : "=&r" (result), "=Q" (*addr) : "r" (value) );
 800297a:	6af9      	ldr	r1, [r7, #44]	; 0x2c
 800297c:	6b3a      	ldr	r2, [r7, #48]	; 0x30
 800297e:	e841 2300 	strex	r3, r2, [r1]
 8002982:	62bb      	str	r3, [r7, #40]	; 0x28
   return(result);
 8002984:	6abb      	ldr	r3, [r7, #40]	; 0x28
 8002986:	2b00      	cmp	r3, #0
 8002988:	d1e3      	bne.n	8002952 <HAL_UART_IRQHandler+0x43e>

        /* Rx process is completed, restore huart->RxState to Ready */
        huart->RxState = HAL_UART_STATE_READY;
 800298a:	687b      	ldr	r3, [r7, #4]
 800298c:	2220      	movs	r2, #32
 800298e:	f883 203e 	strb.w	r2, [r3, #62]	; 0x3e
        huart->ReceptionType = HAL_UART_RECEPTION_STANDARD;
 8002992:	687b      	ldr	r3, [r7, #4]
 8002994:	2200      	movs	r2, #0
 8002996:	631a      	str	r2, [r3, #48]	; 0x30

        ATOMIC_CLEAR_BIT(huart->Instance->CR1, USART_CR1_IDLEIE);
 8002998:	687b      	ldr	r3, [r7, #4]
 800299a:	681b      	ldr	r3, [r3, #0]
 800299c:	330c      	adds	r3, #12
 800299e:	613b      	str	r3, [r7, #16]
   __ASM volatile ("ldrex %0, %1" : "=r" (result) : "Q" (*addr) );
 80029a0:	693b      	ldr	r3, [r7, #16]
 80029a2:	e853 3f00 	ldrex	r3, [r3]
 80029a6:	60fb      	str	r3, [r7, #12]
   return(result);
 80029a8:	68fb      	ldr	r3, [r7, #12]
 80029aa:	f023 0310 	bic.w	r3, r3, #16
 80029ae:	f8c7 30c0 	str.w	r3, [r7, #192]	; 0xc0
 80029b2:	687b      	ldr	r3, [r7, #4]
 80029b4:	681b      	ldr	r3, [r3, #0]
 80029b6:	330c      	adds	r3, #12
 80029b8:	f8d7 20c0 	ldr.w	r2, [r7, #192]	; 0xc0
 80029bc:	61fa      	str	r2, [r7, #28]
 80029be:	61bb      	str	r3, [r7, #24]
   __ASM volatile ("strex %0, %2, %1" : "=&r" (result), "=Q" (*addr) : "r" (value) );
 80029c0:	69b9      	ldr	r1, [r7, #24]
 80029c2:	69fa      	ldr	r2, [r7, #28]
 80029c4:	e841 2300 	strex	r3, r2, [r1]
 80029c8:	617b      	str	r3, [r7, #20]
   return(result);
 80029ca:	697b      	ldr	r3, [r7, #20]
 80029cc:	2b00      	cmp	r3, #0
 80029ce:	d1e3      	bne.n	8002998 <HAL_UART_IRQHandler+0x484>
#if (USE_HAL_UART_REGISTER_CALLBACKS == 1)
        /*Call registered Rx complete callback*/
        huart->RxEventCallback(huart, nb_rx_data);
#else
        /*Call legacy weak Rx Event callback*/
        HAL_UARTEx_RxEventCallback(huart, nb_rx_data);
 80029d0:	f8b7 30ce 	ldrh.w	r3, [r7, #206]	; 0xce
 80029d4:	4619      	mov	r1, r3
 80029d6:	6878      	ldr	r0, [r7, #4]
 80029d8:	f000 f83e 	bl	8002a58 <HAL_UARTEx_RxEventCallback>
#endif /* USE_HAL_UART_REGISTER_CALLBACKS */
      }
      return;
 80029dc:	e023      	b.n	8002a26 <HAL_UART_IRQHandler+0x512>
    }
  }

  /* UART in mode Transmitter ------------------------------------------------*/
  if (((isrflags & USART_SR_TXE) != RESET) && ((cr1its & USART_CR1_TXEIE) != RESET))
 80029de:	f8d7 30e4 	ldr.w	r3, [r7, #228]	; 0xe4
 80029e2:	f003 0380 	and.w	r3, r3, #128	; 0x80
 80029e6:	2b00      	cmp	r3, #0
 80029e8:	d009      	beq.n	80029fe <HAL_UART_IRQHandler+0x4ea>
 80029ea:	f8d7 30e0 	ldr.w	r3, [r7, #224]	; 0xe0
 80029ee:	f003 0380 	and.w	r3, r3, #128	; 0x80
 80029f2:	2b00      	cmp	r3, #0
 80029f4:	d003      	beq.n	80029fe <HAL_UART_IRQHandler+0x4ea>
  {
    UART_Transmit_IT(huart);
 80029f6:	6878      	ldr	r0, [r7, #4]
 80029f8:	f000 f95d 	bl	8002cb6 <UART_Transmit_IT>
    return;
 80029fc:	e014      	b.n	8002a28 <HAL_UART_IRQHandler+0x514>
  }

  /* UART in mode Transmitter end --------------------------------------------*/
  if (((isrflags & USART_SR_TC) != RESET) && ((cr1its & USART_CR1_TCIE) != RESET))
 80029fe:	f8d7 30e4 	ldr.w	r3, [r7, #228]	; 0xe4
 8002a02:	f003 0340 	and.w	r3, r3, #64	; 0x40
 8002a06:	2b00      	cmp	r3, #0
 8002a08:	d00e      	beq.n	8002a28 <HAL_UART_IRQHandler+0x514>
 8002a0a:	f8d7 30e0 	ldr.w	r3, [r7, #224]	; 0xe0
 8002a0e:	f003 0340 	and.w	r3, r3, #64	; 0x40
 8002a12:	2b00      	cmp	r3, #0
 8002a14:	d008      	beq.n	8002a28 <HAL_UART_IRQHandler+0x514>
  {
    UART_EndTransmit_IT(huart);
 8002a16:	6878      	ldr	r0, [r7, #4]
 8002a18:	f000 f99d 	bl	8002d56 <UART_EndTransmit_IT>
    return;
 8002a1c:	e004      	b.n	8002a28 <HAL_UART_IRQHandler+0x514>
    return;
 8002a1e:	bf00      	nop
 8002a20:	e002      	b.n	8002a28 <HAL_UART_IRQHandler+0x514>
      return;
 8002a22:	bf00      	nop
 8002a24:	e000      	b.n	8002a28 <HAL_UART_IRQHandler+0x514>
      return;
 8002a26:	bf00      	nop
  }
}
 8002a28:	37e8      	adds	r7, #232	; 0xe8
 8002a2a:	46bd      	mov	sp, r7
 8002a2c:	bd80      	pop	{r7, pc}
 8002a2e:	bf00      	nop

08002a30 <HAL_UART_TxCpltCallback>:
  * @param  huart  Pointer to a UART_HandleTypeDef structure that contains
  *                the configuration information for the specified UART module.
  * @retval None
  */
__weak void HAL_UART_TxCpltCallback(UART_HandleTypeDef *huart)
{
 8002a30:	b480      	push	{r7}
 8002a32:	b083      	sub	sp, #12
 8002a34:	af00      	add	r7, sp, #0
 8002a36:	6078      	str	r0, [r7, #4]
  /* Prevent unused argument(s) compilation warning */
  UNUSED(huart);
  /* NOTE: This function should not be modified, when the callback is needed,
           the HAL_UART_TxCpltCallback could be implemented in the user file
   */
}
 8002a38:	bf00      	nop
 8002a3a:	370c      	adds	r7, #12
 8002a3c:	46bd      	mov	sp, r7
 8002a3e:	f85d 7b04 	ldr.w	r7, [sp], #4
 8002a42:	4770      	bx	lr

08002a44 <HAL_UART_ErrorCallback>:
  * @param  huart  Pointer to a UART_HandleTypeDef structure that contains
  *                the configuration information for the specified UART module.
  * @retval None
  */
__weak void HAL_UART_ErrorCallback(UART_HandleTypeDef *huart)
{
 8002a44:	b480      	push	{r7}
 8002a46:	b083      	sub	sp, #12
 8002a48:	af00      	add	r7, sp, #0
 8002a4a:	6078      	str	r0, [r7, #4]
  /* Prevent unused argument(s) compilation warning */
  UNUSED(huart);
  /* NOTE: This function should not be modified, when the callback is needed,
           the HAL_UART_ErrorCallback could be implemented in the user file
   */
}
 8002a4c:	bf00      	nop
 8002a4e:	370c      	adds	r7, #12
 8002a50:	46bd      	mov	sp, r7
 8002a52:	f85d 7b04 	ldr.w	r7, [sp], #4
 8002a56:	4770      	bx	lr

08002a58 <HAL_UARTEx_RxEventCallback>:
  * @param  Size  Number of data available in application reception buffer (indicates a position in
  *               reception buffer until which, data are available)
  * @retval None
  */
__weak void HAL_UARTEx_RxEventCallback(UART_HandleTypeDef *huart, uint16_t Size)
{
 8002a58:	b480      	push	{r7}
 8002a5a:	b083      	sub	sp, #12
 8002a5c:	af00      	add	r7, sp, #0
 8002a5e:	6078      	str	r0, [r7, #4]
 8002a60:	460b      	mov	r3, r1
 8002a62:	807b      	strh	r3, [r7, #2]
  UNUSED(Size);

  /* NOTE : This function should not be modified, when the callback is needed,
            the HAL_UARTEx_RxEventCallback can be implemented in the user file.
   */
}
 8002a64:	bf00      	nop
 8002a66:	370c      	adds	r7, #12
 8002a68:	46bd      	mov	sp, r7
 8002a6a:	f85d 7b04 	ldr.w	r7, [sp], #4
 8002a6e:	4770      	bx	lr

08002a70 <UART_WaitOnFlagUntilTimeout>:
  * @param  Timeout Timeout duration
  * @retval HAL status
  */
static HAL_StatusTypeDef UART_WaitOnFlagUntilTimeout(UART_HandleTypeDef *huart, uint32_t Flag, FlagStatus Status,
                                                     uint32_t Tickstart, uint32_t Timeout)
{
 8002a70:	b580      	push	{r7, lr}
 8002a72:	b090      	sub	sp, #64	; 0x40
 8002a74:	af00      	add	r7, sp, #0
 8002a76:	60f8      	str	r0, [r7, #12]
 8002a78:	60b9      	str	r1, [r7, #8]
 8002a7a:	603b      	str	r3, [r7, #0]
 8002a7c:	4613      	mov	r3, r2
 8002a7e:	71fb      	strb	r3, [r7, #7]
  /* Wait until flag is set */
  while ((__HAL_UART_GET_FLAG(huart, Flag) ? SET : RESET) == Status)
 8002a80:	e050      	b.n	8002b24 <UART_WaitOnFlagUntilTimeout+0xb4>
  {
    /* Check for the Timeout */
    if (Timeout != HAL_MAX_DELAY)
 8002a82:	6cbb      	ldr	r3, [r7, #72]	; 0x48
 8002a84:	f1b3 3fff 	cmp.w	r3, #4294967295
 8002a88:	d04c      	beq.n	8002b24 <UART_WaitOnFlagUntilTimeout+0xb4>
    {
      if ((Timeout == 0U) || ((HAL_GetTick() - Tickstart) > Timeout))
 8002a8a:	6cbb      	ldr	r3, [r7, #72]	; 0x48
 8002a8c:	2b00      	cmp	r3, #0
 8002a8e:	d007      	beq.n	8002aa0 <UART_WaitOnFlagUntilTimeout+0x30>
 8002a90:	f7fe fc26 	bl	80012e0 <HAL_GetTick>
 8002a94:	4602      	mov	r2, r0
 8002a96:	683b      	ldr	r3, [r7, #0]
 8002a98:	1ad3      	subs	r3, r2, r3
 8002a9a:	6cba      	ldr	r2, [r7, #72]	; 0x48
 8002a9c:	429a      	cmp	r2, r3
 8002a9e:	d241      	bcs.n	8002b24 <UART_WaitOnFlagUntilTimeout+0xb4>
      {
        /* Disable TXE, RXNE, PE and ERR (Frame error, noise error, overrun error) interrupts for the interrupt process */
        ATOMIC_CLEAR_BIT(huart->Instance->CR1, (USART_CR1_RXNEIE | USART_CR1_PEIE | USART_CR1_TXEIE));
 8002aa0:	68fb      	ldr	r3, [r7, #12]
 8002aa2:	681b      	ldr	r3, [r3, #0]
 8002aa4:	330c      	adds	r3, #12
 8002aa6:	62bb      	str	r3, [r7, #40]	; 0x28
   __ASM volatile ("ldrex %0, %1" : "=r" (result) : "Q" (*addr) );
 8002aa8:	6abb      	ldr	r3, [r7, #40]	; 0x28
 8002aaa:	e853 3f00 	ldrex	r3, [r3]
 8002aae:	627b      	str	r3, [r7, #36]	; 0x24
   return(result);
 8002ab0:	6a7b      	ldr	r3, [r7, #36]	; 0x24
 8002ab2:	f423 73d0 	bic.w	r3, r3, #416	; 0x1a0
 8002ab6:	63fb      	str	r3, [r7, #60]	; 0x3c
 8002ab8:	68fb      	ldr	r3, [r7, #12]
 8002aba:	681b      	ldr	r3, [r3, #0]
 8002abc:	330c      	adds	r3, #12
 8002abe:	6bfa      	ldr	r2, [r7, #60]	; 0x3c
 8002ac0:	637a      	str	r2, [r7, #52]	; 0x34
 8002ac2:	633b      	str	r3, [r7, #48]	; 0x30
   __ASM volatile ("strex %0, %2, %1" : "=&r" (result), "=Q" (*addr) : "r" (value) );
 8002ac4:	6b39      	ldr	r1, [r7, #48]	; 0x30
 8002ac6:	6b7a      	ldr	r2, [r7, #52]	; 0x34
 8002ac8:	e841 2300 	strex	r3, r2, [r1]
 8002acc:	62fb      	str	r3, [r7, #44]	; 0x2c
   return(result);
 8002ace:	6afb      	ldr	r3, [r7, #44]	; 0x2c
 8002ad0:	2b00      	cmp	r3, #0
 8002ad2:	d1e5      	bne.n	8002aa0 <UART_WaitOnFlagUntilTimeout+0x30>
        ATOMIC_CLEAR_BIT(huart->Instance->CR3, USART_CR3_EIE);
 8002ad4:	68fb      	ldr	r3, [r7, #12]
 8002ad6:	681b      	ldr	r3, [r3, #0]
 8002ad8:	3314      	adds	r3, #20
 8002ada:	617b      	str	r3, [r7, #20]
   __ASM volatile ("ldrex %0, %1" : "=r" (result) : "Q" (*addr) );
 8002adc:	697b      	ldr	r3, [r7, #20]
 8002ade:	e853 3f00 	ldrex	r3, [r3]
 8002ae2:	613b      	str	r3, [r7, #16]
   return(result);
 8002ae4:	693b      	ldr	r3, [r7, #16]
 8002ae6:	f023 0301 	bic.w	r3, r3, #1
 8002aea:	63bb      	str	r3, [r7, #56]	; 0x38
 8002aec:	68fb      	ldr	r3, [r7, #12]
 8002aee:	681b      	ldr	r3, [r3, #0]
 8002af0:	3314      	adds	r3, #20
 8002af2:	6bba      	ldr	r2, [r7, #56]	; 0x38
 8002af4:	623a      	str	r2, [r7, #32]
 8002af6:	61fb      	str	r3, [r7, #28]
   __ASM volatile ("strex %0, %2, %1" : "=&r" (result), "=Q" (*addr) : "r" (value) );
 8002af8:	69f9      	ldr	r1, [r7, #28]
 8002afa:	6a3a      	ldr	r2, [r7, #32]
 8002afc:	e841 2300 	strex	r3, r2, [r1]
 8002b00:	61bb      	str	r3, [r7, #24]
   return(result);
 8002b02:	69bb      	ldr	r3, [r7, #24]
 8002b04:	2b00      	cmp	r3, #0
 8002b06:	d1e5      	bne.n	8002ad4 <UART_WaitOnFlagUntilTimeout+0x64>

        huart->gState  = HAL_UART_STATE_READY;
 8002b08:	68fb      	ldr	r3, [r7, #12]
 8002b0a:	2220      	movs	r2, #32
 8002b0c:	f883 203d 	strb.w	r2, [r3, #61]	; 0x3d
        huart->RxState = HAL_UART_STATE_READY;
 8002b10:	68fb      	ldr	r3, [r7, #12]
 8002b12:	2220      	movs	r2, #32
 8002b14:	f883 203e 	strb.w	r2, [r3, #62]	; 0x3e

        /* Process Unlocked */
        __HAL_UNLOCK(huart);
 8002b18:	68fb      	ldr	r3, [r7, #12]
 8002b1a:	2200      	movs	r2, #0
 8002b1c:	f883 203c 	strb.w	r2, [r3, #60]	; 0x3c

        return HAL_TIMEOUT;
 8002b20:	2303      	movs	r3, #3
 8002b22:	e00f      	b.n	8002b44 <UART_WaitOnFlagUntilTimeout+0xd4>
  while ((__HAL_UART_GET_FLAG(huart, Flag) ? SET : RESET) == Status)
 8002b24:	68fb      	ldr	r3, [r7, #12]
 8002b26:	681b      	ldr	r3, [r3, #0]
 8002b28:	681a      	ldr	r2, [r3, #0]
 8002b2a:	68bb      	ldr	r3, [r7, #8]
 8002b2c:	4013      	ands	r3, r2
 8002b2e:	68ba      	ldr	r2, [r7, #8]
 8002b30:	429a      	cmp	r2, r3
 8002b32:	bf0c      	ite	eq
 8002b34:	2301      	moveq	r3, #1
 8002b36:	2300      	movne	r3, #0
 8002b38:	b2db      	uxtb	r3, r3
 8002b3a:	461a      	mov	r2, r3
 8002b3c:	79fb      	ldrb	r3, [r7, #7]
 8002b3e:	429a      	cmp	r2, r3
 8002b40:	d09f      	beq.n	8002a82 <UART_WaitOnFlagUntilTimeout+0x12>
      }
    }
  }
  return HAL_OK;
 8002b42:	2300      	movs	r3, #0
}
 8002b44:	4618      	mov	r0, r3
 8002b46:	3740      	adds	r7, #64	; 0x40
 8002b48:	46bd      	mov	sp, r7
 8002b4a:	bd80      	pop	{r7, pc}

08002b4c <UART_Start_Receive_IT>:
  * @param  pData Pointer to data buffer (u8 or u16 data elements).
  * @param  Size  Amount of data elements (u8 or u16) to be received.
  * @retval HAL status
  */
HAL_StatusTypeDef UART_Start_Receive_IT(UART_HandleTypeDef *huart, uint8_t *pData, uint16_t Size)
{
 8002b4c:	b480      	push	{r7}
 8002b4e:	b085      	sub	sp, #20
 8002b50:	af00      	add	r7, sp, #0
 8002b52:	60f8      	str	r0, [r7, #12]
 8002b54:	60b9      	str	r1, [r7, #8]
 8002b56:	4613      	mov	r3, r2
 8002b58:	80fb      	strh	r3, [r7, #6]
  huart->pRxBuffPtr = pData;
 8002b5a:	68fb      	ldr	r3, [r7, #12]
 8002b5c:	68ba      	ldr	r2, [r7, #8]
 8002b5e:	629a      	str	r2, [r3, #40]	; 0x28
  huart->RxXferSize = Size;
 8002b60:	68fb      	ldr	r3, [r7, #12]
 8002b62:	88fa      	ldrh	r2, [r7, #6]
 8002b64:	859a      	strh	r2, [r3, #44]	; 0x2c
  huart->RxXferCount = Size;
 8002b66:	68fb      	ldr	r3, [r7, #12]
 8002b68:	88fa      	ldrh	r2, [r7, #6]
 8002b6a:	85da      	strh	r2, [r3, #46]	; 0x2e

  huart->ErrorCode = HAL_UART_ERROR_NONE;
 8002b6c:	68fb      	ldr	r3, [r7, #12]
 8002b6e:	2200      	movs	r2, #0
 8002b70:	641a      	str	r2, [r3, #64]	; 0x40
  huart->RxState = HAL_UART_STATE_BUSY_RX;
 8002b72:	68fb      	ldr	r3, [r7, #12]
 8002b74:	2222      	movs	r2, #34	; 0x22
 8002b76:	f883 203e 	strb.w	r2, [r3, #62]	; 0x3e

  /* Process Unlocked */
  __HAL_UNLOCK(huart);
 8002b7a:	68fb      	ldr	r3, [r7, #12]
 8002b7c:	2200      	movs	r2, #0
 8002b7e:	f883 203c 	strb.w	r2, [r3, #60]	; 0x3c

  if (huart->Init.Parity != UART_PARITY_NONE)
 8002b82:	68fb      	ldr	r3, [r7, #12]
 8002b84:	691b      	ldr	r3, [r3, #16]
 8002b86:	2b00      	cmp	r3, #0
 8002b88:	d007      	beq.n	8002b9a <UART_Start_Receive_IT+0x4e>
  {
    /* Enable the UART Parity Error Interrupt */
    __HAL_UART_ENABLE_IT(huart, UART_IT_PE);
 8002b8a:	68fb      	ldr	r3, [r7, #12]
 8002b8c:	681b      	ldr	r3, [r3, #0]
 8002b8e:	68da      	ldr	r2, [r3, #12]
 8002b90:	68fb      	ldr	r3, [r7, #12]
 8002b92:	681b      	ldr	r3, [r3, #0]
 8002b94:	f442 7280 	orr.w	r2, r2, #256	; 0x100
 8002b98:	60da      	str	r2, [r3, #12]
  }

  /* Enable the UART Error Interrupt: (Frame error, noise error, overrun error) */
  __HAL_UART_ENABLE_IT(huart, UART_IT_ERR);
 8002b9a:	68fb      	ldr	r3, [r7, #12]
 8002b9c:	681b      	ldr	r3, [r3, #0]
 8002b9e:	695a      	ldr	r2, [r3, #20]
 8002ba0:	68fb      	ldr	r3, [r7, #12]
 8002ba2:	681b      	ldr	r3, [r3, #0]
 8002ba4:	f042 0201 	orr.w	r2, r2, #1
 8002ba8:	615a      	str	r2, [r3, #20]

  /* Enable the UART Data Register not empty Interrupt */
  __HAL_UART_ENABLE_IT(huart, UART_IT_RXNE);
 8002baa:	68fb      	ldr	r3, [r7, #12]
 8002bac:	681b      	ldr	r3, [r3, #0]
 8002bae:	68da      	ldr	r2, [r3, #12]
 8002bb0:	68fb      	ldr	r3, [r7, #12]
 8002bb2:	681b      	ldr	r3, [r3, #0]
 8002bb4:	f042 0220 	orr.w	r2, r2, #32
 8002bb8:	60da      	str	r2, [r3, #12]

  return HAL_OK;
 8002bba:	2300      	movs	r3, #0
}
 8002bbc:	4618      	mov	r0, r3
 8002bbe:	3714      	adds	r7, #20
 8002bc0:	46bd      	mov	sp, r7
 8002bc2:	f85d 7b04 	ldr.w	r7, [sp], #4
 8002bc6:	4770      	bx	lr

08002bc8 <UART_EndRxTransfer>:
  * @brief  End ongoing Rx transfer on UART peripheral (following error detection or Reception completion).
  * @param  huart UART handle.
  * @retval None
  */
static void UART_EndRxTransfer(UART_HandleTypeDef *huart)
{
 8002bc8:	b480      	push	{r7}
 8002bca:	b095      	sub	sp, #84	; 0x54
 8002bcc:	af00      	add	r7, sp, #0
 8002bce:	6078      	str	r0, [r7, #4]
  /* Disable RXNE, PE and ERR (Frame error, noise error, overrun error) interrupts */
  ATOMIC_CLEAR_BIT(huart->Instance->CR1, (USART_CR1_RXNEIE | USART_CR1_PEIE));
 8002bd0:	687b      	ldr	r3, [r7, #4]
 8002bd2:	681b      	ldr	r3, [r3, #0]
 8002bd4:	330c      	adds	r3, #12
 8002bd6:	637b      	str	r3, [r7, #52]	; 0x34
   __ASM volatile ("ldrex %0, %1" : "=r" (result) : "Q" (*addr) );
 8002bd8:	6b7b      	ldr	r3, [r7, #52]	; 0x34
 8002bda:	e853 3f00 	ldrex	r3, [r3]
 8002bde:	633b      	str	r3, [r7, #48]	; 0x30
   return(result);
 8002be0:	6b3b      	ldr	r3, [r7, #48]	; 0x30
 8002be2:	f423 7390 	bic.w	r3, r3, #288	; 0x120
 8002be6:	64fb      	str	r3, [r7, #76]	; 0x4c
 8002be8:	687b      	ldr	r3, [r7, #4]
 8002bea:	681b      	ldr	r3, [r3, #0]
 8002bec:	330c      	adds	r3, #12
 8002bee:	6cfa      	ldr	r2, [r7, #76]	; 0x4c
 8002bf0:	643a      	str	r2, [r7, #64]	; 0x40
 8002bf2:	63fb      	str	r3, [r7, #60]	; 0x3c
   __ASM volatile ("strex %0, %2, %1" : "=&r" (result), "=Q" (*addr) : "r" (value) );
 8002bf4:	6bf9      	ldr	r1, [r7, #60]	; 0x3c
 8002bf6:	6c3a      	ldr	r2, [r7, #64]	; 0x40
 8002bf8:	e841 2300 	strex	r3, r2, [r1]
 8002bfc:	63bb      	str	r3, [r7, #56]	; 0x38
   return(result);
 8002bfe:	6bbb      	ldr	r3, [r7, #56]	; 0x38
 8002c00:	2b00      	cmp	r3, #0
 8002c02:	d1e5      	bne.n	8002bd0 <UART_EndRxTransfer+0x8>
  ATOMIC_CLEAR_BIT(huart->Instance->CR3, USART_CR3_EIE);
 8002c04:	687b      	ldr	r3, [r7, #4]
 8002c06:	681b      	ldr	r3, [r3, #0]
 8002c08:	3314      	adds	r3, #20
 8002c0a:	623b      	str	r3, [r7, #32]
   __ASM volatile ("ldrex %0, %1" : "=r" (result) : "Q" (*addr) );
 8002c0c:	6a3b      	ldr	r3, [r7, #32]
 8002c0e:	e853 3f00 	ldrex	r3, [r3]
 8002c12:	61fb      	str	r3, [r7, #28]
   return(result);
 8002c14:	69fb      	ldr	r3, [r7, #28]
 8002c16:	f023 0301 	bic.w	r3, r3, #1
 8002c1a:	64bb      	str	r3, [r7, #72]	; 0x48
 8002c1c:	687b      	ldr	r3, [r7, #4]
 8002c1e:	681b      	ldr	r3, [r3, #0]
 8002c20:	3314      	adds	r3, #20
 8002c22:	6cba      	ldr	r2, [r7, #72]	; 0x48
 8002c24:	62fa      	str	r2, [r7, #44]	; 0x2c
 8002c26:	62bb      	str	r3, [r7, #40]	; 0x28
   __ASM volatile ("strex %0, %2, %1" : "=&r" (result), "=Q" (*addr) : "r" (value) );
 8002c28:	6ab9      	ldr	r1, [r7, #40]	; 0x28
 8002c2a:	6afa      	ldr	r2, [r7, #44]	; 0x2c
 8002c2c:	e841 2300 	strex	r3, r2, [r1]
 8002c30:	627b      	str	r3, [r7, #36]	; 0x24
   return(result);
 8002c32:	6a7b      	ldr	r3, [r7, #36]	; 0x24
 8002c34:	2b00      	cmp	r3, #0
 8002c36:	d1e5      	bne.n	8002c04 <UART_EndRxTransfer+0x3c>

  /* In case of reception waiting for IDLE event, disable also the IDLE IE interrupt source */
  if (huart->ReceptionType == HAL_UART_RECEPTION_TOIDLE)
 8002c38:	687b      	ldr	r3, [r7, #4]
 8002c3a:	6b1b      	ldr	r3, [r3, #48]	; 0x30
 8002c3c:	2b01      	cmp	r3, #1
 8002c3e:	d119      	bne.n	8002c74 <UART_EndRxTransfer+0xac>
  {
    ATOMIC_CLEAR_BIT(huart->Instance->CR1, USART_CR1_IDLEIE);
 8002c40:	687b      	ldr	r3, [r7, #4]
 8002c42:	681b      	ldr	r3, [r3, #0]
 8002c44:	330c      	adds	r3, #12
 8002c46:	60fb      	str	r3, [r7, #12]
   __ASM volatile ("ldrex %0, %1" : "=r" (result) : "Q" (*addr) );
 8002c48:	68fb      	ldr	r3, [r7, #12]
 8002c4a:	e853 3f00 	ldrex	r3, [r3]
 8002c4e:	60bb      	str	r3, [r7, #8]
   return(result);
 8002c50:	68bb      	ldr	r3, [r7, #8]
 8002c52:	f023 0310 	bic.w	r3, r3, #16
 8002c56:	647b      	str	r3, [r7, #68]	; 0x44
 8002c58:	687b      	ldr	r3, [r7, #4]
 8002c5a:	681b      	ldr	r3, [r3, #0]
 8002c5c:	330c      	adds	r3, #12
 8002c5e:	6c7a      	ldr	r2, [r7, #68]	; 0x44
 8002c60:	61ba      	str	r2, [r7, #24]
 8002c62:	617b      	str	r3, [r7, #20]
   __ASM volatile ("strex %0, %2, %1" : "=&r" (result), "=Q" (*addr) : "r" (value) );
 8002c64:	6979      	ldr	r1, [r7, #20]
 8002c66:	69ba      	ldr	r2, [r7, #24]
 8002c68:	e841 2300 	strex	r3, r2, [r1]
 8002c6c:	613b      	str	r3, [r7, #16]
   return(result);
 8002c6e:	693b      	ldr	r3, [r7, #16]
 8002c70:	2b00      	cmp	r3, #0
 8002c72:	d1e5      	bne.n	8002c40 <UART_EndRxTransfer+0x78>
  }

  /* At end of Rx process, restore huart->RxState to Ready */
  huart->RxState = HAL_UART_STATE_READY;
 8002c74:	687b      	ldr	r3, [r7, #4]
 8002c76:	2220      	movs	r2, #32
 8002c78:	f883 203e 	strb.w	r2, [r3, #62]	; 0x3e
  huart->ReceptionType = HAL_UART_RECEPTION_STANDARD;
 8002c7c:	687b      	ldr	r3, [r7, #4]
 8002c7e:	2200      	movs	r2, #0
 8002c80:	631a      	str	r2, [r3, #48]	; 0x30
}
 8002c82:	bf00      	nop
 8002c84:	3754      	adds	r7, #84	; 0x54
 8002c86:	46bd      	mov	sp, r7
 8002c88:	f85d 7b04 	ldr.w	r7, [sp], #4
 8002c8c:	4770      	bx	lr

08002c8e <UART_DMAAbortOnError>:
  * @param  hdma  Pointer to a DMA_HandleTypeDef structure that contains
  *               the configuration information for the specified DMA module.
  * @retval None
  */
static void UART_DMAAbortOnError(DMA_HandleTypeDef *hdma)
{
 8002c8e:	b580      	push	{r7, lr}
 8002c90:	b084      	sub	sp, #16
 8002c92:	af00      	add	r7, sp, #0
 8002c94:	6078      	str	r0, [r7, #4]
  UART_HandleTypeDef *huart = (UART_HandleTypeDef *)((DMA_HandleTypeDef *)hdma)->Parent;
 8002c96:	687b      	ldr	r3, [r7, #4]
 8002c98:	6b9b      	ldr	r3, [r3, #56]	; 0x38
 8002c9a:	60fb      	str	r3, [r7, #12]
  huart->RxXferCount = 0x00U;
 8002c9c:	68fb      	ldr	r3, [r7, #12]
 8002c9e:	2200      	movs	r2, #0
 8002ca0:	85da      	strh	r2, [r3, #46]	; 0x2e
  huart->TxXferCount = 0x00U;
 8002ca2:	68fb      	ldr	r3, [r7, #12]
 8002ca4:	2200      	movs	r2, #0
 8002ca6:	84da      	strh	r2, [r3, #38]	; 0x26
#if (USE_HAL_UART_REGISTER_CALLBACKS == 1)
  /*Call registered error callback*/
  huart->ErrorCallback(huart);
#else
  /*Call legacy weak error callback*/
  HAL_UART_ErrorCallback(huart);
 8002ca8:	68f8      	ldr	r0, [r7, #12]
 8002caa:	f7ff fecb 	bl	8002a44 <HAL_UART_ErrorCallback>
#endif /* USE_HAL_UART_REGISTER_CALLBACKS */
}
 8002cae:	bf00      	nop
 8002cb0:	3710      	adds	r7, #16
 8002cb2:	46bd      	mov	sp, r7
 8002cb4:	bd80      	pop	{r7, pc}

08002cb6 <UART_Transmit_IT>:
  * @param  huart  Pointer to a UART_HandleTypeDef structure that contains
  *                the configuration information for the specified UART module.
  * @retval HAL status
  */
static HAL_StatusTypeDef UART_Transmit_IT(UART_HandleTypeDef *huart)
{
 8002cb6:	b480      	push	{r7}
 8002cb8:	b085      	sub	sp, #20
 8002cba:	af00      	add	r7, sp, #0
 8002cbc:	6078      	str	r0, [r7, #4]
  const uint16_t *tmp;

  /* Check that a Tx process is ongoing */
  if (huart->gState == HAL_UART_STATE_BUSY_TX)
 8002cbe:	687b      	ldr	r3, [r7, #4]
 8002cc0:	f893 303d 	ldrb.w	r3, [r3, #61]	; 0x3d
 8002cc4:	b2db      	uxtb	r3, r3
 8002cc6:	2b21      	cmp	r3, #33	; 0x21
 8002cc8:	d13e      	bne.n	8002d48 <UART_Transmit_IT+0x92>
  {
    if ((huart->Init.WordLength == UART_WORDLENGTH_9B) && (huart->Init.Parity == UART_PARITY_NONE))
 8002cca:	687b      	ldr	r3, [r7, #4]
 8002ccc:	689b      	ldr	r3, [r3, #8]
 8002cce:	f5b3 5f80 	cmp.w	r3, #4096	; 0x1000
 8002cd2:	d114      	bne.n	8002cfe <UART_Transmit_IT+0x48>
 8002cd4:	687b      	ldr	r3, [r7, #4]
 8002cd6:	691b      	ldr	r3, [r3, #16]
 8002cd8:	2b00      	cmp	r3, #0
 8002cda:	d110      	bne.n	8002cfe <UART_Transmit_IT+0x48>
    {
      tmp = (const uint16_t *) huart->pTxBuffPtr;
 8002cdc:	687b      	ldr	r3, [r7, #4]
 8002cde:	6a1b      	ldr	r3, [r3, #32]
 8002ce0:	60fb      	str	r3, [r7, #12]
      huart->Instance->DR = (uint16_t)(*tmp & (uint16_t)0x01FF);
 8002ce2:	68fb      	ldr	r3, [r7, #12]
 8002ce4:	881b      	ldrh	r3, [r3, #0]
 8002ce6:	461a      	mov	r2, r3
 8002ce8:	687b      	ldr	r3, [r7, #4]
 8002cea:	681b      	ldr	r3, [r3, #0]
 8002cec:	f3c2 0208 	ubfx	r2, r2, #0, #9
 8002cf0:	605a      	str	r2, [r3, #4]
      huart->pTxBuffPtr += 2U;
 8002cf2:	687b      	ldr	r3, [r7, #4]
 8002cf4:	6a1b      	ldr	r3, [r3, #32]
 8002cf6:	1c9a      	adds	r2, r3, #2
 8002cf8:	687b      	ldr	r3, [r7, #4]
 8002cfa:	621a      	str	r2, [r3, #32]
 8002cfc:	e008      	b.n	8002d10 <UART_Transmit_IT+0x5a>
    }
    else
    {
      huart->Instance->DR = (uint8_t)(*huart->pTxBuffPtr++ & (uint8_t)0x00FF);
 8002cfe:	687b      	ldr	r3, [r7, #4]
 8002d00:	6a1b      	ldr	r3, [r3, #32]
 8002d02:	1c59      	adds	r1, r3, #1
 8002d04:	687a      	ldr	r2, [r7, #4]
 8002d06:	6211      	str	r1, [r2, #32]
 8002d08:	781a      	ldrb	r2, [r3, #0]
 8002d0a:	687b      	ldr	r3, [r7, #4]
 8002d0c:	681b      	ldr	r3, [r3, #0]
 8002d0e:	605a      	str	r2, [r3, #4]
    }

    if (--huart->TxXferCount == 0U)
 8002d10:	687b      	ldr	r3, [r7, #4]
 8002d12:	8cdb      	ldrh	r3, [r3, #38]	; 0x26
 8002d14:	b29b      	uxth	r3, r3
 8002d16:	3b01      	subs	r3, #1
 8002d18:	b29b      	uxth	r3, r3
 8002d1a:	687a      	ldr	r2, [r7, #4]
 8002d1c:	4619      	mov	r1, r3
 8002d1e:	84d1      	strh	r1, [r2, #38]	; 0x26
 8002d20:	2b00      	cmp	r3, #0
 8002d22:	d10f      	bne.n	8002d44 <UART_Transmit_IT+0x8e>
    {
      /* Disable the UART Transmit Data Register Empty Interrupt */
      __HAL_UART_DISABLE_IT(huart, UART_IT_TXE);
 8002d24:	687b      	ldr	r3, [r7, #4]
 8002d26:	681b      	ldr	r3, [r3, #0]
 8002d28:	68da      	ldr	r2, [r3, #12]
 8002d2a:	687b      	ldr	r3, [r7, #4]
 8002d2c:	681b      	ldr	r3, [r3, #0]
 8002d2e:	f022 0280 	bic.w	r2, r2, #128	; 0x80
 8002d32:	60da      	str	r2, [r3, #12]

      /* Enable the UART Transmit Complete Interrupt */
      __HAL_UART_ENABLE_IT(huart, UART_IT_TC);
 8002d34:	687b      	ldr	r3, [r7, #4]
 8002d36:	681b      	ldr	r3, [r3, #0]
 8002d38:	68da      	ldr	r2, [r3, #12]
 8002d3a:	687b      	ldr	r3, [r7, #4]
 8002d3c:	681b      	ldr	r3, [r3, #0]
 8002d3e:	f042 0240 	orr.w	r2, r2, #64	; 0x40
 8002d42:	60da      	str	r2, [r3, #12]
    }
    return HAL_OK;
 8002d44:	2300      	movs	r3, #0
 8002d46:	e000      	b.n	8002d4a <UART_Transmit_IT+0x94>
  }
  else
  {
    return HAL_BUSY;
 8002d48:	2302      	movs	r3, #2
  }
}
 8002d4a:	4618      	mov	r0, r3
 8002d4c:	3714      	adds	r7, #20
 8002d4e:	46bd      	mov	sp, r7
 8002d50:	f85d 7b04 	ldr.w	r7, [sp], #4
 8002d54:	4770      	bx	lr

08002d56 <UART_EndTransmit_IT>:
  * @param  huart  Pointer to a UART_HandleTypeDef structure that contains
  *                the configuration information for the specified UART module.
  * @retval HAL status
  */
static HAL_StatusTypeDef UART_EndTransmit_IT(UART_HandleTypeDef *huart)
{
 8002d56:	b580      	push	{r7, lr}
 8002d58:	b082      	sub	sp, #8
 8002d5a:	af00      	add	r7, sp, #0
 8002d5c:	6078      	str	r0, [r7, #4]
  /* Disable the UART Transmit Complete Interrupt */
  __HAL_UART_DISABLE_IT(huart, UART_IT_TC);
 8002d5e:	687b      	ldr	r3, [r7, #4]
 8002d60:	681b      	ldr	r3, [r3, #0]
 8002d62:	68da      	ldr	r2, [r3, #12]
 8002d64:	687b      	ldr	r3, [r7, #4]
 8002d66:	681b      	ldr	r3, [r3, #0]
 8002d68:	f022 0240 	bic.w	r2, r2, #64	; 0x40
 8002d6c:	60da      	str	r2, [r3, #12]

  /* Tx process is ended, restore huart->gState to Ready */
  huart->gState = HAL_UART_STATE_READY;
 8002d6e:	687b      	ldr	r3, [r7, #4]
 8002d70:	2220      	movs	r2, #32
 8002d72:	f883 203d 	strb.w	r2, [r3, #61]	; 0x3d
#if (USE_HAL_UART_REGISTER_CALLBACKS == 1)
  /*Call registered Tx complete callback*/
  huart->TxCpltCallback(huart);
#else
  /*Call legacy weak Tx complete callback*/
  HAL_UART_TxCpltCallback(huart);
 8002d76:	6878      	ldr	r0, [r7, #4]
 8002d78:	f7ff fe5a 	bl	8002a30 <HAL_UART_TxCpltCallback>
#endif /* USE_HAL_UART_REGISTER_CALLBACKS */

  return HAL_OK;
 8002d7c:	2300      	movs	r3, #0
}
 8002d7e:	4618      	mov	r0, r3
 8002d80:	3708      	adds	r7, #8
 8002d82:	46bd      	mov	sp, r7
 8002d84:	bd80      	pop	{r7, pc}

08002d86 <UART_Receive_IT>:
  * @param  huart  Pointer to a UART_HandleTypeDef structure that contains
  *                the configuration information for the specified UART module.
  * @retval HAL status
  */
static HAL_StatusTypeDef UART_Receive_IT(UART_HandleTypeDef *huart)
{
 8002d86:	b580      	push	{r7, lr}
 8002d88:	b08c      	sub	sp, #48	; 0x30
 8002d8a:	af00      	add	r7, sp, #0
 8002d8c:	6078      	str	r0, [r7, #4]
  uint8_t  *pdata8bits;
  uint16_t *pdata16bits;

  /* Check that a Rx process is ongoing */
  if (huart->RxState == HAL_UART_STATE_BUSY_RX)
 8002d8e:	687b      	ldr	r3, [r7, #4]
 8002d90:	f893 303e 	ldrb.w	r3, [r3, #62]	; 0x3e
 8002d94:	b2db      	uxtb	r3, r3
 8002d96:	2b22      	cmp	r3, #34	; 0x22
 8002d98:	f040 80ab 	bne.w	8002ef2 <UART_Receive_IT+0x16c>
  {
    if ((huart->Init.WordLength == UART_WORDLENGTH_9B) && (huart->Init.Parity == UART_PARITY_NONE))
 8002d9c:	687b      	ldr	r3, [r7, #4]
 8002d9e:	689b      	ldr	r3, [r3, #8]
 8002da0:	f5b3 5f80 	cmp.w	r3, #4096	; 0x1000
 8002da4:	d117      	bne.n	8002dd6 <UART_Receive_IT+0x50>
 8002da6:	687b      	ldr	r3, [r7, #4]
 8002da8:	691b      	ldr	r3, [r3, #16]
 8002daa:	2b00      	cmp	r3, #0
 8002dac:	d113      	bne.n	8002dd6 <UART_Receive_IT+0x50>
    {
      pdata8bits  = NULL;
 8002dae:	2300      	movs	r3, #0
 8002db0:	62fb      	str	r3, [r7, #44]	; 0x2c
      pdata16bits = (uint16_t *) huart->pRxBuffPtr;
 8002db2:	687b      	ldr	r3, [r7, #4]
 8002db4:	6a9b      	ldr	r3, [r3, #40]	; 0x28
 8002db6:	62bb      	str	r3, [r7, #40]	; 0x28
      *pdata16bits = (uint16_t)(huart->Instance->DR & (uint16_t)0x01FF);
 8002db8:	687b      	ldr	r3, [r7, #4]
 8002dba:	681b      	ldr	r3, [r3, #0]
 8002dbc:	685b      	ldr	r3, [r3, #4]
 8002dbe:	b29b      	uxth	r3, r3
 8002dc0:	f3c3 0308 	ubfx	r3, r3, #0, #9
 8002dc4:	b29a      	uxth	r2, r3
 8002dc6:	6abb      	ldr	r3, [r7, #40]	; 0x28
 8002dc8:	801a      	strh	r2, [r3, #0]
      huart->pRxBuffPtr += 2U;
 8002dca:	687b      	ldr	r3, [r7, #4]
 8002dcc:	6a9b      	ldr	r3, [r3, #40]	; 0x28
 8002dce:	1c9a      	adds	r2, r3, #2
 8002dd0:	687b      	ldr	r3, [r7, #4]
 8002dd2:	629a      	str	r2, [r3, #40]	; 0x28
 8002dd4:	e026      	b.n	8002e24 <UART_Receive_IT+0x9e>
    }
    else
    {
      pdata8bits = (uint8_t *) huart->pRxBuffPtr;
 8002dd6:	687b      	ldr	r3, [r7, #4]
 8002dd8:	6a9b      	ldr	r3, [r3, #40]	; 0x28
 8002dda:	62fb      	str	r3, [r7, #44]	; 0x2c
      pdata16bits  = NULL;
 8002ddc:	2300      	movs	r3, #0
 8002dde:	62bb      	str	r3, [r7, #40]	; 0x28

      if ((huart->Init.WordLength == UART_WORDLENGTH_9B) || ((huart->Init.WordLength == UART_WORDLENGTH_8B) && (huart->Init.Parity == UART_PARITY_NONE)))
 8002de0:	687b      	ldr	r3, [r7, #4]
 8002de2:	689b      	ldr	r3, [r3, #8]
 8002de4:	f5b3 5f80 	cmp.w	r3, #4096	; 0x1000
 8002de8:	d007      	beq.n	8002dfa <UART_Receive_IT+0x74>
 8002dea:	687b      	ldr	r3, [r7, #4]
 8002dec:	689b      	ldr	r3, [r3, #8]
 8002dee:	2b00      	cmp	r3, #0
 8002df0:	d10a      	bne.n	8002e08 <UART_Receive_IT+0x82>
 8002df2:	687b      	ldr	r3, [r7, #4]
 8002df4:	691b      	ldr	r3, [r3, #16]
 8002df6:	2b00      	cmp	r3, #0
 8002df8:	d106      	bne.n	8002e08 <UART_Receive_IT+0x82>
      {
        *pdata8bits = (uint8_t)(huart->Instance->DR & (uint8_t)0x00FF);
 8002dfa:	687b      	ldr	r3, [r7, #4]
 8002dfc:	681b      	ldr	r3, [r3, #0]
 8002dfe:	685b      	ldr	r3, [r3, #4]
 8002e00:	b2da      	uxtb	r2, r3
 8002e02:	6afb      	ldr	r3, [r7, #44]	; 0x2c
 8002e04:	701a      	strb	r2, [r3, #0]
 8002e06:	e008      	b.n	8002e1a <UART_Receive_IT+0x94>
      }
      else
      {
        *pdata8bits = (uint8_t)(huart->Instance->DR & (uint8_t)0x007F);
 8002e08:	687b      	ldr	r3, [r7, #4]
 8002e0a:	681b      	ldr	r3, [r3, #0]
 8002e0c:	685b      	ldr	r3, [r3, #4]
 8002e0e:	b2db      	uxtb	r3, r3
 8002e10:	f003 037f 	and.w	r3, r3, #127	; 0x7f
 8002e14:	b2da      	uxtb	r2, r3
 8002e16:	6afb      	ldr	r3, [r7, #44]	; 0x2c
 8002e18:	701a      	strb	r2, [r3, #0]
      }
      huart->pRxBuffPtr += 1U;
 8002e1a:	687b      	ldr	r3, [r7, #4]
 8002e1c:	6a9b      	ldr	r3, [r3, #40]	; 0x28
 8002e1e:	1c5a      	adds	r2, r3, #1
 8002e20:	687b      	ldr	r3, [r7, #4]
 8002e22:	629a      	str	r2, [r3, #40]	; 0x28
    }

    if (--huart->RxXferCount == 0U)
 8002e24:	687b      	ldr	r3, [r7, #4]
 8002e26:	8ddb      	ldrh	r3, [r3, #46]	; 0x2e
 8002e28:	b29b      	uxth	r3, r3
 8002e2a:	3b01      	subs	r3, #1
 8002e2c:	b29b      	uxth	r3, r3
 8002e2e:	687a      	ldr	r2, [r7, #4]
 8002e30:	4619      	mov	r1, r3
 8002e32:	85d1      	strh	r1, [r2, #46]	; 0x2e
 8002e34:	2b00      	cmp	r3, #0
 8002e36:	d15a      	bne.n	8002eee <UART_Receive_IT+0x168>
    {
      /* Disable the UART Data Register not empty Interrupt */
      __HAL_UART_DISABLE_IT(huart, UART_IT_RXNE);
 8002e38:	687b      	ldr	r3, [r7, #4]
 8002e3a:	681b      	ldr	r3, [r3, #0]
 8002e3c:	68da      	ldr	r2, [r3, #12]
 8002e3e:	687b      	ldr	r3, [r7, #4]
 8002e40:	681b      	ldr	r3, [r3, #0]
 8002e42:	f022 0220 	bic.w	r2, r2, #32
 8002e46:	60da      	str	r2, [r3, #12]

      /* Disable the UART Parity Error Interrupt */
      __HAL_UART_DISABLE_IT(huart, UART_IT_PE);
 8002e48:	687b      	ldr	r3, [r7, #4]
 8002e4a:	681b      	ldr	r3, [r3, #0]
 8002e4c:	68da      	ldr	r2, [r3, #12]
 8002e4e:	687b      	ldr	r3, [r7, #4]
 8002e50:	681b      	ldr	r3, [r3, #0]
 8002e52:	f422 7280 	bic.w	r2, r2, #256	; 0x100
 8002e56:	60da      	str	r2, [r3, #12]

      /* Disable the UART Error Interrupt: (Frame error, noise error, overrun error) */
      __HAL_UART_DISABLE_IT(huart, UART_IT_ERR);
 8002e58:	687b      	ldr	r3, [r7, #4]
 8002e5a:	681b      	ldr	r3, [r3, #0]
 8002e5c:	695a      	ldr	r2, [r3, #20]
 8002e5e:	687b      	ldr	r3, [r7, #4]
 8002e60:	681b      	ldr	r3, [r3, #0]
 8002e62:	f022 0201 	bic.w	r2, r2, #1
 8002e66:	615a      	str	r2, [r3, #20]

      /* Rx process is completed, restore huart->RxState to Ready */
      huart->RxState = HAL_UART_STATE_READY;
 8002e68:	687b      	ldr	r3, [r7, #4]
 8002e6a:	2220      	movs	r2, #32
 8002e6c:	f883 203e 	strb.w	r2, [r3, #62]	; 0x3e

      /* Check current reception Mode :
         If Reception till IDLE event has been selected : */
      if (huart->ReceptionType == HAL_UART_RECEPTION_TOIDLE)
 8002e70:	687b      	ldr	r3, [r7, #4]
 8002e72:	6b1b      	ldr	r3, [r3, #48]	; 0x30
 8002e74:	2b01      	cmp	r3, #1
 8002e76:	d135      	bne.n	8002ee4 <UART_Receive_IT+0x15e>
      {
        /* Set reception type to Standard */
        huart->ReceptionType = HAL_UART_RECEPTION_STANDARD;
 8002e78:	687b      	ldr	r3, [r7, #4]
 8002e7a:	2200      	movs	r2, #0
 8002e7c:	631a      	str	r2, [r3, #48]	; 0x30

        /* Disable IDLE interrupt */
        ATOMIC_CLEAR_BIT(huart->Instance->CR1, USART_CR1_IDLEIE);
 8002e7e:	687b      	ldr	r3, [r7, #4]
 8002e80:	681b      	ldr	r3, [r3, #0]
 8002e82:	330c      	adds	r3, #12
 8002e84:	617b      	str	r3, [r7, #20]
   __ASM volatile ("ldrex %0, %1" : "=r" (result) : "Q" (*addr) );
 8002e86:	697b      	ldr	r3, [r7, #20]
 8002e88:	e853 3f00 	ldrex	r3, [r3]
 8002e8c:	613b      	str	r3, [r7, #16]
   return(result);
 8002e8e:	693b      	ldr	r3, [r7, #16]
 8002e90:	f023 0310 	bic.w	r3, r3, #16
 8002e94:	627b      	str	r3, [r7, #36]	; 0x24
 8002e96:	687b      	ldr	r3, [r7, #4]
 8002e98:	681b      	ldr	r3, [r3, #0]
 8002e9a:	330c      	adds	r3, #12
 8002e9c:	6a7a      	ldr	r2, [r7, #36]	; 0x24
 8002e9e:	623a      	str	r2, [r7, #32]
 8002ea0:	61fb      	str	r3, [r7, #28]
   __ASM volatile ("strex %0, %2, %1" : "=&r" (result), "=Q" (*addr) : "r" (value) );
 8002ea2:	69f9      	ldr	r1, [r7, #28]
 8002ea4:	6a3a      	ldr	r2, [r7, #32]
 8002ea6:	e841 2300 	strex	r3, r2, [r1]
 8002eaa:	61bb      	str	r3, [r7, #24]
   return(result);
 8002eac:	69bb      	ldr	r3, [r7, #24]
 8002eae:	2b00      	cmp	r3, #0
 8002eb0:	d1e5      	bne.n	8002e7e <UART_Receive_IT+0xf8>

        /* Check if IDLE flag is set */
        if (__HAL_UART_GET_FLAG(huart, UART_FLAG_IDLE))
 8002eb2:	687b      	ldr	r3, [r7, #4]
 8002eb4:	681b      	ldr	r3, [r3, #0]
 8002eb6:	681b      	ldr	r3, [r3, #0]
 8002eb8:	f003 0310 	and.w	r3, r3, #16
 8002ebc:	2b10      	cmp	r3, #16
 8002ebe:	d10a      	bne.n	8002ed6 <UART_Receive_IT+0x150>
        {
          /* Clear IDLE flag in ISR */
          __HAL_UART_CLEAR_IDLEFLAG(huart);
 8002ec0:	2300      	movs	r3, #0
 8002ec2:	60fb      	str	r3, [r7, #12]
 8002ec4:	687b      	ldr	r3, [r7, #4]
 8002ec6:	681b      	ldr	r3, [r3, #0]
 8002ec8:	681b      	ldr	r3, [r3, #0]
 8002eca:	60fb      	str	r3, [r7, #12]
 8002ecc:	687b      	ldr	r3, [r7, #4]
 8002ece:	681b      	ldr	r3, [r3, #0]
 8002ed0:	685b      	ldr	r3, [r3, #4]
 8002ed2:	60fb      	str	r3, [r7, #12]
 8002ed4:	68fb      	ldr	r3, [r7, #12]
#if (USE_HAL_UART_REGISTER_CALLBACKS == 1)
        /*Call registered Rx Event callback*/
        huart->RxEventCallback(huart, huart->RxXferSize);
#else
        /*Call legacy weak Rx Event callback*/
        HAL_UARTEx_RxEventCallback(huart, huart->RxXferSize);
 8002ed6:	687b      	ldr	r3, [r7, #4]
 8002ed8:	8d9b      	ldrh	r3, [r3, #44]	; 0x2c
 8002eda:	4619      	mov	r1, r3
 8002edc:	6878      	ldr	r0, [r7, #4]
 8002ede:	f7ff fdbb 	bl	8002a58 <HAL_UARTEx_RxEventCallback>
 8002ee2:	e002      	b.n	8002eea <UART_Receive_IT+0x164>
#if (USE_HAL_UART_REGISTER_CALLBACKS == 1)
        /*Call registered Rx complete callback*/
        huart->RxCpltCallback(huart);
#else
        /*Call legacy weak Rx complete callback*/
        HAL_UART_RxCpltCallback(huart);
 8002ee4:	6878      	ldr	r0, [r7, #4]
 8002ee6:	f7fd fecd 	bl	8000c84 <HAL_UART_RxCpltCallback>
#endif /* USE_HAL_UART_REGISTER_CALLBACKS */
      }

      return HAL_OK;
 8002eea:	2300      	movs	r3, #0
 8002eec:	e002      	b.n	8002ef4 <UART_Receive_IT+0x16e>
    }
    return HAL_OK;
 8002eee:	2300      	movs	r3, #0
 8002ef0:	e000      	b.n	8002ef4 <UART_Receive_IT+0x16e>
  }
  else
  {
    return HAL_BUSY;
 8002ef2:	2302      	movs	r3, #2
  }
}
 8002ef4:	4618      	mov	r0, r3
 8002ef6:	3730      	adds	r7, #48	; 0x30
 8002ef8:	46bd      	mov	sp, r7
 8002efa:	bd80      	pop	{r7, pc}

08002efc <UART_SetConfig>:
  * @param  huart  Pointer to a UART_HandleTypeDef structure that contains
  *                the configuration information for the specified UART module.
  * @retval None
  */
static void UART_SetConfig(UART_HandleTypeDef *huart)
{
 8002efc:	e92d 4fb0 	stmdb	sp!, {r4, r5, r7, r8, r9, sl, fp, lr}
 8002f00:	b0c0      	sub	sp, #256	; 0x100
 8002f02:	af00      	add	r7, sp, #0
 8002f04:	f8c7 00f4 	str.w	r0, [r7, #244]	; 0xf4
  assert_param(IS_UART_MODE(huart->Init.Mode));

  /*-------------------------- USART CR2 Configuration -----------------------*/
  /* Configure the UART Stop Bits: Set STOP[13:12] bits
     according to huart->Init.StopBits value */
  MODIFY_REG(huart->Instance->CR2, USART_CR2_STOP, huart->Init.StopBits);
 8002f08:	f8d7 30f4 	ldr.w	r3, [r7, #244]	; 0xf4
 8002f0c:	681b      	ldr	r3, [r3, #0]
 8002f0e:	691b      	ldr	r3, [r3, #16]
 8002f10:	f423 5040 	bic.w	r0, r3, #12288	; 0x3000
 8002f14:	f8d7 30f4 	ldr.w	r3, [r7, #244]	; 0xf4
 8002f18:	68d9      	ldr	r1, [r3, #12]
 8002f1a:	f8d7 30f4 	ldr.w	r3, [r7, #244]	; 0xf4
 8002f1e:	681a      	ldr	r2, [r3, #0]
 8002f20:	ea40 0301 	orr.w	r3, r0, r1
 8002f24:	6113      	str	r3, [r2, #16]
     Set the M bits according to huart->Init.WordLength value
     Set PCE and PS bits according to huart->Init.Parity value
     Set TE and RE bits according to huart->Init.Mode value
     Set OVER8 bit according to huart->Init.OverSampling value */

  tmpreg = (uint32_t)huart->Init.WordLength | huart->Init.Parity | huart->Init.Mode | huart->Init.OverSampling;
 8002f26:	f8d7 30f4 	ldr.w	r3, [r7, #244]	; 0xf4
 8002f2a:	689a      	ldr	r2, [r3, #8]
 8002f2c:	f8d7 30f4 	ldr.w	r3, [r7, #244]	; 0xf4
 8002f30:	691b      	ldr	r3, [r3, #16]
 8002f32:	431a      	orrs	r2, r3
 8002f34:	f8d7 30f4 	ldr.w	r3, [r7, #244]	; 0xf4
 8002f38:	695b      	ldr	r3, [r3, #20]
 8002f3a:	431a      	orrs	r2, r3
 8002f3c:	f8d7 30f4 	ldr.w	r3, [r7, #244]	; 0xf4
 8002f40:	69db      	ldr	r3, [r3, #28]
 8002f42:	4313      	orrs	r3, r2
 8002f44:	f8c7 30f8 	str.w	r3, [r7, #248]	; 0xf8
  MODIFY_REG(huart->Instance->CR1,
 8002f48:	f8d7 30f4 	ldr.w	r3, [r7, #244]	; 0xf4
 8002f4c:	681b      	ldr	r3, [r3, #0]
 8002f4e:	68db      	ldr	r3, [r3, #12]
 8002f50:	f423 4116 	bic.w	r1, r3, #38400	; 0x9600
 8002f54:	f021 010c 	bic.w	r1, r1, #12
 8002f58:	f8d7 30f4 	ldr.w	r3, [r7, #244]	; 0xf4
 8002f5c:	681a      	ldr	r2, [r3, #0]
 8002f5e:	f8d7 30f8 	ldr.w	r3, [r7, #248]	; 0xf8
 8002f62:	430b      	orrs	r3, r1
 8002f64:	60d3      	str	r3, [r2, #12]
             (uint32_t)(USART_CR1_M | USART_CR1_PCE | USART_CR1_PS | USART_CR1_TE | USART_CR1_RE | USART_CR1_OVER8),
             tmpreg);

  /*-------------------------- USART CR3 Configuration -----------------------*/
  /* Configure the UART HFC: Set CTSE and RTSE bits according to huart->Init.HwFlowCtl value */
  MODIFY_REG(huart->Instance->CR3, (USART_CR3_RTSE | USART_CR3_CTSE), huart->Init.HwFlowCtl);
 8002f66:	f8d7 30f4 	ldr.w	r3, [r7, #244]	; 0xf4
 8002f6a:	681b      	ldr	r3, [r3, #0]
 8002f6c:	695b      	ldr	r3, [r3, #20]
 8002f6e:	f423 7040 	bic.w	r0, r3, #768	; 0x300
 8002f72:	f8d7 30f4 	ldr.w	r3, [r7, #244]	; 0xf4
 8002f76:	6999      	ldr	r1, [r3, #24]
 8002f78:	f8d7 30f4 	ldr.w	r3, [r7, #244]	; 0xf4
 8002f7c:	681a      	ldr	r2, [r3, #0]
 8002f7e:	ea40 0301 	orr.w	r3, r0, r1
 8002f82:	6153      	str	r3, [r2, #20]
    if ((huart->Instance == USART1) || (huart->Instance == USART6) || (huart->Instance == UART9) || (huart->Instance == UART10))
    {
      pclk = HAL_RCC_GetPCLK2Freq();
    }
#elif defined(USART6)
    if ((huart->Instance == USART1) || (huart->Instance == USART6))
 8002f84:	f8d7 30f4 	ldr.w	r3, [r7, #244]	; 0xf4
 8002f88:	681a      	ldr	r2, [r3, #0]
 8002f8a:	4b8f      	ldr	r3, [pc, #572]	; (80031c8 <UART_SetConfig+0x2cc>)
 8002f8c:	429a      	cmp	r2, r3
 8002f8e:	d005      	beq.n	8002f9c <UART_SetConfig+0xa0>
 8002f90:	f8d7 30f4 	ldr.w	r3, [r7, #244]	; 0xf4
 8002f94:	681a      	ldr	r2, [r3, #0]
 8002f96:	4b8d      	ldr	r3, [pc, #564]	; (80031cc <UART_SetConfig+0x2d0>)
 8002f98:	429a      	cmp	r2, r3
 8002f9a:	d104      	bne.n	8002fa6 <UART_SetConfig+0xaa>
    {
      pclk = HAL_RCC_GetPCLK2Freq();
 8002f9c:	f7ff f996 	bl	80022cc <HAL_RCC_GetPCLK2Freq>
 8002fa0:	f8c7 00fc 	str.w	r0, [r7, #252]	; 0xfc
 8002fa4:	e003      	b.n	8002fae <UART_SetConfig+0xb2>
      pclk = HAL_RCC_GetPCLK2Freq();
    }
#endif /* USART6 */
    else
    {
      pclk = HAL_RCC_GetPCLK1Freq();
 8002fa6:	f7ff f97d 	bl	80022a4 <HAL_RCC_GetPCLK1Freq>
 8002faa:	f8c7 00fc 	str.w	r0, [r7, #252]	; 0xfc
    }
  /*-------------------------- USART BRR Configuration ---------------------*/
  if (huart->Init.OverSampling == UART_OVERSAMPLING_8)
 8002fae:	f8d7 30f4 	ldr.w	r3, [r7, #244]	; 0xf4
 8002fb2:	69db      	ldr	r3, [r3, #28]
 8002fb4:	f5b3 4f00 	cmp.w	r3, #32768	; 0x8000
 8002fb8:	f040 810c 	bne.w	80031d4 <UART_SetConfig+0x2d8>
  {
    huart->Instance->BRR = UART_BRR_SAMPLING8(pclk, huart->Init.BaudRate);
 8002fbc:	f8d7 30fc 	ldr.w	r3, [r7, #252]	; 0xfc
 8002fc0:	2200      	movs	r2, #0
 8002fc2:	f8c7 30e8 	str.w	r3, [r7, #232]	; 0xe8
 8002fc6:	f8c7 20ec 	str.w	r2, [r7, #236]	; 0xec
 8002fca:	e9d7 453a 	ldrd	r4, r5, [r7, #232]	; 0xe8
 8002fce:	4622      	mov	r2, r4
 8002fd0:	462b      	mov	r3, r5
 8002fd2:	1891      	adds	r1, r2, r2
 8002fd4:	65b9      	str	r1, [r7, #88]	; 0x58
 8002fd6:	415b      	adcs	r3, r3
 8002fd8:	65fb      	str	r3, [r7, #92]	; 0x5c
 8002fda:	e9d7 2316 	ldrd	r2, r3, [r7, #88]	; 0x58
 8002fde:	4621      	mov	r1, r4
 8002fe0:	eb12 0801 	adds.w	r8, r2, r1
 8002fe4:	4629      	mov	r1, r5
 8002fe6:	eb43 0901 	adc.w	r9, r3, r1
 8002fea:	f04f 0200 	mov.w	r2, #0
 8002fee:	f04f 0300 	mov.w	r3, #0
 8002ff2:	ea4f 03c9 	mov.w	r3, r9, lsl #3
 8002ff6:	ea43 7358 	orr.w	r3, r3, r8, lsr #29
 8002ffa:	ea4f 02c8 	mov.w	r2, r8, lsl #3
 8002ffe:	4690      	mov	r8, r2
 8003000:	4699      	mov	r9, r3
 8003002:	4623      	mov	r3, r4
 8003004:	eb18 0303 	adds.w	r3, r8, r3
 8003008:	f8c7 30e0 	str.w	r3, [r7, #224]	; 0xe0
 800300c:	462b      	mov	r3, r5
 800300e:	eb49 0303 	adc.w	r3, r9, r3
 8003012:	f8c7 30e4 	str.w	r3, [r7, #228]	; 0xe4
 8003016:	f8d7 30f4 	ldr.w	r3, [r7, #244]	; 0xf4
 800301a:	685b      	ldr	r3, [r3, #4]
 800301c:	2200      	movs	r2, #0
 800301e:	f8c7 30d8 	str.w	r3, [r7, #216]	; 0xd8
 8003022:	f8c7 20dc 	str.w	r2, [r7, #220]	; 0xdc
 8003026:	e9d7 1236 	ldrd	r1, r2, [r7, #216]	; 0xd8
 800302a:	460b      	mov	r3, r1
 800302c:	18db      	adds	r3, r3, r3
 800302e:	653b      	str	r3, [r7, #80]	; 0x50
 8003030:	4613      	mov	r3, r2
 8003032:	eb42 0303 	adc.w	r3, r2, r3
 8003036:	657b      	str	r3, [r7, #84]	; 0x54
 8003038:	e9d7 2314 	ldrd	r2, r3, [r7, #80]	; 0x50
 800303c:	e9d7 0138 	ldrd	r0, r1, [r7, #224]	; 0xe0
 8003040:	f7fd fa86 	bl	8000550 <__aeabi_uldivmod>
 8003044:	4602      	mov	r2, r0
 8003046:	460b      	mov	r3, r1
 8003048:	4b61      	ldr	r3, [pc, #388]	; (80031d0 <UART_SetConfig+0x2d4>)
 800304a:	fba3 2302 	umull	r2, r3, r3, r2
 800304e:	095b      	lsrs	r3, r3, #5
 8003050:	011c      	lsls	r4, r3, #4
 8003052:	f8d7 30fc 	ldr.w	r3, [r7, #252]	; 0xfc
 8003056:	2200      	movs	r2, #0
 8003058:	f8c7 30d0 	str.w	r3, [r7, #208]	; 0xd0
 800305c:	f8c7 20d4 	str.w	r2, [r7, #212]	; 0xd4
 8003060:	e9d7 8934 	ldrd	r8, r9, [r7, #208]	; 0xd0
 8003064:	4642      	mov	r2, r8
 8003066:	464b      	mov	r3, r9
 8003068:	1891      	adds	r1, r2, r2
 800306a:	64b9      	str	r1, [r7, #72]	; 0x48
 800306c:	415b      	adcs	r3, r3
 800306e:	64fb      	str	r3, [r7, #76]	; 0x4c
 8003070:	e9d7 2312 	ldrd	r2, r3, [r7, #72]	; 0x48
 8003074:	4641      	mov	r1, r8
 8003076:	eb12 0a01 	adds.w	sl, r2, r1
 800307a:	4649      	mov	r1, r9
 800307c:	eb43 0b01 	adc.w	fp, r3, r1
 8003080:	f04f 0200 	mov.w	r2, #0
 8003084:	f04f 0300 	mov.w	r3, #0
 8003088:	ea4f 03cb 	mov.w	r3, fp, lsl #3
 800308c:	ea43 735a 	orr.w	r3, r3, sl, lsr #29
 8003090:	ea4f 02ca 	mov.w	r2, sl, lsl #3
 8003094:	4692      	mov	sl, r2
 8003096:	469b      	mov	fp, r3
 8003098:	4643      	mov	r3, r8
 800309a:	eb1a 0303 	adds.w	r3, sl, r3
 800309e:	f8c7 30c8 	str.w	r3, [r7, #200]	; 0xc8
 80030a2:	464b      	mov	r3, r9
 80030a4:	eb4b 0303 	adc.w	r3, fp, r3
 80030a8:	f8c7 30cc 	str.w	r3, [r7, #204]	; 0xcc
 80030ac:	f8d7 30f4 	ldr.w	r3, [r7, #244]	; 0xf4
 80030b0:	685b      	ldr	r3, [r3, #4]
 80030b2:	2200      	movs	r2, #0
 80030b4:	f8c7 30c0 	str.w	r3, [r7, #192]	; 0xc0
 80030b8:	f8c7 20c4 	str.w	r2, [r7, #196]	; 0xc4
 80030bc:	e9d7 1230 	ldrd	r1, r2, [r7, #192]	; 0xc0
 80030c0:	460b      	mov	r3, r1
 80030c2:	18db      	adds	r3, r3, r3
 80030c4:	643b      	str	r3, [r7, #64]	; 0x40
 80030c6:	4613      	mov	r3, r2
 80030c8:	eb42 0303 	adc.w	r3, r2, r3
 80030cc:	647b      	str	r3, [r7, #68]	; 0x44
 80030ce:	e9d7 2310 	ldrd	r2, r3, [r7, #64]	; 0x40
 80030d2:	e9d7 0132 	ldrd	r0, r1, [r7, #200]	; 0xc8
 80030d6:	f7fd fa3b 	bl	8000550 <__aeabi_uldivmod>
 80030da:	4602      	mov	r2, r0
 80030dc:	460b      	mov	r3, r1
 80030de:	4611      	mov	r1, r2
 80030e0:	4b3b      	ldr	r3, [pc, #236]	; (80031d0 <UART_SetConfig+0x2d4>)
 80030e2:	fba3 2301 	umull	r2, r3, r3, r1
 80030e6:	095b      	lsrs	r3, r3, #5
 80030e8:	2264      	movs	r2, #100	; 0x64
 80030ea:	fb02 f303 	mul.w	r3, r2, r3
 80030ee:	1acb      	subs	r3, r1, r3
 80030f0:	00db      	lsls	r3, r3, #3
 80030f2:	f103 0232 	add.w	r2, r3, #50	; 0x32
 80030f6:	4b36      	ldr	r3, [pc, #216]	; (80031d0 <UART_SetConfig+0x2d4>)
 80030f8:	fba3 2302 	umull	r2, r3, r3, r2
 80030fc:	095b      	lsrs	r3, r3, #5
 80030fe:	005b      	lsls	r3, r3, #1
 8003100:	f403 73f8 	and.w	r3, r3, #496	; 0x1f0
 8003104:	441c      	add	r4, r3
 8003106:	f8d7 30fc 	ldr.w	r3, [r7, #252]	; 0xfc
 800310a:	2200      	movs	r2, #0
 800310c:	f8c7 30b8 	str.w	r3, [r7, #184]	; 0xb8
 8003110:	f8c7 20bc 	str.w	r2, [r7, #188]	; 0xbc
 8003114:	e9d7 892e 	ldrd	r8, r9, [r7, #184]	; 0xb8
 8003118:	4642      	mov	r2, r8
 800311a:	464b      	mov	r3, r9
 800311c:	1891      	adds	r1, r2, r2
 800311e:	63b9      	str	r1, [r7, #56]	; 0x38
 8003120:	415b      	adcs	r3, r3
 8003122:	63fb      	str	r3, [r7, #60]	; 0x3c
 8003124:	e9d7 230e 	ldrd	r2, r3, [r7, #56]	; 0x38
 8003128:	4641      	mov	r1, r8
 800312a:	1851      	adds	r1, r2, r1
 800312c:	6339      	str	r1, [r7, #48]	; 0x30
 800312e:	4649      	mov	r1, r9
 8003130:	414b      	adcs	r3, r1
 8003132:	637b      	str	r3, [r7, #52]	; 0x34
 8003134:	f04f 0200 	mov.w	r2, #0
 8003138:	f04f 0300 	mov.w	r3, #0
 800313c:	e9d7 ab0c 	ldrd	sl, fp, [r7, #48]	; 0x30
 8003140:	4659      	mov	r1, fp
 8003142:	00cb      	lsls	r3, r1, #3
 8003144:	4651      	mov	r1, sl
 8003146:	ea43 7351 	orr.w	r3, r3, r1, lsr #29
 800314a:	4651      	mov	r1, sl
 800314c:	00ca      	lsls	r2, r1, #3
 800314e:	4610      	mov	r0, r2
 8003150:	4619      	mov	r1, r3
 8003152:	4603      	mov	r3, r0
 8003154:	4642      	mov	r2, r8
 8003156:	189b      	adds	r3, r3, r2
 8003158:	f8c7 30b0 	str.w	r3, [r7, #176]	; 0xb0
 800315c:	464b      	mov	r3, r9
 800315e:	460a      	mov	r2, r1
 8003160:	eb42 0303 	adc.w	r3, r2, r3
 8003164:	f8c7 30b4 	str.w	r3, [r7, #180]	; 0xb4
 8003168:	f8d7 30f4 	ldr.w	r3, [r7, #244]	; 0xf4
 800316c:	685b      	ldr	r3, [r3, #4]
 800316e:	2200      	movs	r2, #0
 8003170:	f8c7 30a8 	str.w	r3, [r7, #168]	; 0xa8
 8003174:	f8c7 20ac 	str.w	r2, [r7, #172]	; 0xac
 8003178:	e9d7 122a 	ldrd	r1, r2, [r7, #168]	; 0xa8
 800317c:	460b      	mov	r3, r1
 800317e:	18db      	adds	r3, r3, r3
 8003180:	62bb      	str	r3, [r7, #40]	; 0x28
 8003182:	4613      	mov	r3, r2
 8003184:	eb42 0303 	adc.w	r3, r2, r3
 8003188:	62fb      	str	r3, [r7, #44]	; 0x2c
 800318a:	e9d7 230a 	ldrd	r2, r3, [r7, #40]	; 0x28
 800318e:	e9d7 012c 	ldrd	r0, r1, [r7, #176]	; 0xb0
 8003192:	f7fd f9dd 	bl	8000550 <__aeabi_uldivmod>
 8003196:	4602      	mov	r2, r0
 8003198:	460b      	mov	r3, r1
 800319a:	4b0d      	ldr	r3, [pc, #52]	; (80031d0 <UART_SetConfig+0x2d4>)
 800319c:	fba3 1302 	umull	r1, r3, r3, r2
 80031a0:	095b      	lsrs	r3, r3, #5
 80031a2:	2164      	movs	r1, #100	; 0x64
 80031a4:	fb01 f303 	mul.w	r3, r1, r3
 80031a8:	1ad3      	subs	r3, r2, r3
 80031aa:	00db      	lsls	r3, r3, #3
 80031ac:	3332      	adds	r3, #50	; 0x32
 80031ae:	4a08      	ldr	r2, [pc, #32]	; (80031d0 <UART_SetConfig+0x2d4>)
 80031b0:	fba2 2303 	umull	r2, r3, r2, r3
 80031b4:	095b      	lsrs	r3, r3, #5
 80031b6:	f003 0207 	and.w	r2, r3, #7
 80031ba:	f8d7 30f4 	ldr.w	r3, [r7, #244]	; 0xf4
 80031be:	681b      	ldr	r3, [r3, #0]
 80031c0:	4422      	add	r2, r4
 80031c2:	609a      	str	r2, [r3, #8]
  }
  else
  {
    huart->Instance->BRR = UART_BRR_SAMPLING16(pclk, huart->Init.BaudRate);
  }
}
 80031c4:	e106      	b.n	80033d4 <UART_SetConfig+0x4d8>
 80031c6:	bf00      	nop
 80031c8:	40011000 	.word	0x40011000
 80031cc:	40011400 	.word	0x40011400
 80031d0:	51eb851f 	.word	0x51eb851f
    huart->Instance->BRR = UART_BRR_SAMPLING16(pclk, huart->Init.BaudRate);
 80031d4:	f8d7 30fc 	ldr.w	r3, [r7, #252]	; 0xfc
 80031d8:	2200      	movs	r2, #0
 80031da:	f8c7 30a0 	str.w	r3, [r7, #160]	; 0xa0
 80031de:	f8c7 20a4 	str.w	r2, [r7, #164]	; 0xa4
 80031e2:	e9d7 8928 	ldrd	r8, r9, [r7, #160]	; 0xa0
 80031e6:	4642      	mov	r2, r8
 80031e8:	464b      	mov	r3, r9
 80031ea:	1891      	adds	r1, r2, r2
 80031ec:	6239      	str	r1, [r7, #32]
 80031ee:	415b      	adcs	r3, r3
 80031f0:	627b      	str	r3, [r7, #36]	; 0x24
 80031f2:	e9d7 2308 	ldrd	r2, r3, [r7, #32]
 80031f6:	4641      	mov	r1, r8
 80031f8:	1854      	adds	r4, r2, r1
 80031fa:	4649      	mov	r1, r9
 80031fc:	eb43 0501 	adc.w	r5, r3, r1
 8003200:	f04f 0200 	mov.w	r2, #0
 8003204:	f04f 0300 	mov.w	r3, #0
 8003208:	00eb      	lsls	r3, r5, #3
 800320a:	ea43 7354 	orr.w	r3, r3, r4, lsr #29
 800320e:	00e2      	lsls	r2, r4, #3
 8003210:	4614      	mov	r4, r2
 8003212:	461d      	mov	r5, r3
 8003214:	4643      	mov	r3, r8
 8003216:	18e3      	adds	r3, r4, r3
 8003218:	f8c7 3098 	str.w	r3, [r7, #152]	; 0x98
 800321c:	464b      	mov	r3, r9
 800321e:	eb45 0303 	adc.w	r3, r5, r3
 8003222:	f8c7 309c 	str.w	r3, [r7, #156]	; 0x9c
 8003226:	f8d7 30f4 	ldr.w	r3, [r7, #244]	; 0xf4
 800322a:	685b      	ldr	r3, [r3, #4]
 800322c:	2200      	movs	r2, #0
 800322e:	f8c7 3090 	str.w	r3, [r7, #144]	; 0x90
 8003232:	f8c7 2094 	str.w	r2, [r7, #148]	; 0x94
 8003236:	f04f 0200 	mov.w	r2, #0
 800323a:	f04f 0300 	mov.w	r3, #0
 800323e:	e9d7 4524 	ldrd	r4, r5, [r7, #144]	; 0x90
 8003242:	4629      	mov	r1, r5
 8003244:	008b      	lsls	r3, r1, #2
 8003246:	4621      	mov	r1, r4
 8003248:	ea43 7391 	orr.w	r3, r3, r1, lsr #30
 800324c:	4621      	mov	r1, r4
 800324e:	008a      	lsls	r2, r1, #2
 8003250:	e9d7 0126 	ldrd	r0, r1, [r7, #152]	; 0x98
 8003254:	f7fd f97c 	bl	8000550 <__aeabi_uldivmod>
 8003258:	4602      	mov	r2, r0
 800325a:	460b      	mov	r3, r1
 800325c:	4b60      	ldr	r3, [pc, #384]	; (80033e0 <UART_SetConfig+0x4e4>)
 800325e:	fba3 2302 	umull	r2, r3, r3, r2
 8003262:	095b      	lsrs	r3, r3, #5
 8003264:	011c      	lsls	r4, r3, #4
 8003266:	f8d7 30fc 	ldr.w	r3, [r7, #252]	; 0xfc
 800326a:	2200      	movs	r2, #0
 800326c:	f8c7 3088 	str.w	r3, [r7, #136]	; 0x88
 8003270:	f8c7 208c 	str.w	r2, [r7, #140]	; 0x8c
 8003274:	e9d7 8922 	ldrd	r8, r9, [r7, #136]	; 0x88
 8003278:	4642      	mov	r2, r8
 800327a:	464b      	mov	r3, r9
 800327c:	1891      	adds	r1, r2, r2
 800327e:	61b9      	str	r1, [r7, #24]
 8003280:	415b      	adcs	r3, r3
 8003282:	61fb      	str	r3, [r7, #28]
 8003284:	e9d7 2306 	ldrd	r2, r3, [r7, #24]
 8003288:	4641      	mov	r1, r8
 800328a:	1851      	adds	r1, r2, r1
 800328c:	6139      	str	r1, [r7, #16]
 800328e:	4649      	mov	r1, r9
 8003290:	414b      	adcs	r3, r1
 8003292:	617b      	str	r3, [r7, #20]
 8003294:	f04f 0200 	mov.w	r2, #0
 8003298:	f04f 0300 	mov.w	r3, #0
 800329c:	e9d7 ab04 	ldrd	sl, fp, [r7, #16]
 80032a0:	4659      	mov	r1, fp
 80032a2:	00cb      	lsls	r3, r1, #3
 80032a4:	4651      	mov	r1, sl
 80032a6:	ea43 7351 	orr.w	r3, r3, r1, lsr #29
 80032aa:	4651      	mov	r1, sl
 80032ac:	00ca      	lsls	r2, r1, #3
 80032ae:	4610      	mov	r0, r2
 80032b0:	4619      	mov	r1, r3
 80032b2:	4603      	mov	r3, r0
 80032b4:	4642      	mov	r2, r8
 80032b6:	189b      	adds	r3, r3, r2
 80032b8:	f8c7 3080 	str.w	r3, [r7, #128]	; 0x80
 80032bc:	464b      	mov	r3, r9
 80032be:	460a      	mov	r2, r1
 80032c0:	eb42 0303 	adc.w	r3, r2, r3
 80032c4:	f8c7 3084 	str.w	r3, [r7, #132]	; 0x84
 80032c8:	f8d7 30f4 	ldr.w	r3, [r7, #244]	; 0xf4
 80032cc:	685b      	ldr	r3, [r3, #4]
 80032ce:	2200      	movs	r2, #0
 80032d0:	67bb      	str	r3, [r7, #120]	; 0x78
 80032d2:	67fa      	str	r2, [r7, #124]	; 0x7c
 80032d4:	f04f 0200 	mov.w	r2, #0
 80032d8:	f04f 0300 	mov.w	r3, #0
 80032dc:	e9d7 891e 	ldrd	r8, r9, [r7, #120]	; 0x78
 80032e0:	4649      	mov	r1, r9
 80032e2:	008b      	lsls	r3, r1, #2
 80032e4:	4641      	mov	r1, r8
 80032e6:	ea43 7391 	orr.w	r3, r3, r1, lsr #30
 80032ea:	4641      	mov	r1, r8
 80032ec:	008a      	lsls	r2, r1, #2
 80032ee:	e9d7 0120 	ldrd	r0, r1, [r7, #128]	; 0x80
 80032f2:	f7fd f92d 	bl	8000550 <__aeabi_uldivmod>
 80032f6:	4602      	mov	r2, r0
 80032f8:	460b      	mov	r3, r1
 80032fa:	4611      	mov	r1, r2
 80032fc:	4b38      	ldr	r3, [pc, #224]	; (80033e0 <UART_SetConfig+0x4e4>)
 80032fe:	fba3 2301 	umull	r2, r3, r3, r1
 8003302:	095b      	lsrs	r3, r3, #5
 8003304:	2264      	movs	r2, #100	; 0x64
 8003306:	fb02 f303 	mul.w	r3, r2, r3
 800330a:	1acb      	subs	r3, r1, r3
 800330c:	011b      	lsls	r3, r3, #4
 800330e:	3332      	adds	r3, #50	; 0x32
 8003310:	4a33      	ldr	r2, [pc, #204]	; (80033e0 <UART_SetConfig+0x4e4>)
 8003312:	fba2 2303 	umull	r2, r3, r2, r3
 8003316:	095b      	lsrs	r3, r3, #5
 8003318:	f003 03f0 	and.w	r3, r3, #240	; 0xf0
 800331c:	441c      	add	r4, r3
 800331e:	f8d7 30fc 	ldr.w	r3, [r7, #252]	; 0xfc
 8003322:	2200      	movs	r2, #0
 8003324:	673b      	str	r3, [r7, #112]	; 0x70
 8003326:	677a      	str	r2, [r7, #116]	; 0x74
 8003328:	e9d7 891c 	ldrd	r8, r9, [r7, #112]	; 0x70
 800332c:	4642      	mov	r2, r8
 800332e:	464b      	mov	r3, r9
 8003330:	1891      	adds	r1, r2, r2
 8003332:	60b9      	str	r1, [r7, #8]
 8003334:	415b      	adcs	r3, r3
 8003336:	60fb      	str	r3, [r7, #12]
 8003338:	e9d7 2302 	ldrd	r2, r3, [r7, #8]
 800333c:	4641      	mov	r1, r8
 800333e:	1851      	adds	r1, r2, r1
 8003340:	6039      	str	r1, [r7, #0]
 8003342:	4649      	mov	r1, r9
 8003344:	414b      	adcs	r3, r1
 8003346:	607b      	str	r3, [r7, #4]
 8003348:	f04f 0200 	mov.w	r2, #0
 800334c:	f04f 0300 	mov.w	r3, #0
 8003350:	e9d7 ab00 	ldrd	sl, fp, [r7]
 8003354:	4659      	mov	r1, fp
 8003356:	00cb      	lsls	r3, r1, #3
 8003358:	4651      	mov	r1, sl
 800335a:	ea43 7351 	orr.w	r3, r3, r1, lsr #29
 800335e:	4651      	mov	r1, sl
 8003360:	00ca      	lsls	r2, r1, #3
 8003362:	4610      	mov	r0, r2
 8003364:	4619      	mov	r1, r3
 8003366:	4603      	mov	r3, r0
 8003368:	4642      	mov	r2, r8
 800336a:	189b      	adds	r3, r3, r2
 800336c:	66bb      	str	r3, [r7, #104]	; 0x68
 800336e:	464b      	mov	r3, r9
 8003370:	460a      	mov	r2, r1
 8003372:	eb42 0303 	adc.w	r3, r2, r3
 8003376:	66fb      	str	r3, [r7, #108]	; 0x6c
 8003378:	f8d7 30f4 	ldr.w	r3, [r7, #244]	; 0xf4
 800337c:	685b      	ldr	r3, [r3, #4]
 800337e:	2200      	movs	r2, #0
 8003380:	663b      	str	r3, [r7, #96]	; 0x60
 8003382:	667a      	str	r2, [r7, #100]	; 0x64
 8003384:	f04f 0200 	mov.w	r2, #0
 8003388:	f04f 0300 	mov.w	r3, #0
 800338c:	e9d7 8918 	ldrd	r8, r9, [r7, #96]	; 0x60
 8003390:	4649      	mov	r1, r9
 8003392:	008b      	lsls	r3, r1, #2
 8003394:	4641      	mov	r1, r8
 8003396:	ea43 7391 	orr.w	r3, r3, r1, lsr #30
 800339a:	4641      	mov	r1, r8
 800339c:	008a      	lsls	r2, r1, #2
 800339e:	e9d7 011a 	ldrd	r0, r1, [r7, #104]	; 0x68
 80033a2:	f7fd f8d5 	bl	8000550 <__aeabi_uldivmod>
 80033a6:	4602      	mov	r2, r0
 80033a8:	460b      	mov	r3, r1
 80033aa:	4b0d      	ldr	r3, [pc, #52]	; (80033e0 <UART_SetConfig+0x4e4>)
 80033ac:	fba3 1302 	umull	r1, r3, r3, r2
 80033b0:	095b      	lsrs	r3, r3, #5
 80033b2:	2164      	movs	r1, #100	; 0x64
 80033b4:	fb01 f303 	mul.w	r3, r1, r3
 80033b8:	1ad3      	subs	r3, r2, r3
 80033ba:	011b      	lsls	r3, r3, #4
 80033bc:	3332      	adds	r3, #50	; 0x32
 80033be:	4a08      	ldr	r2, [pc, #32]	; (80033e0 <UART_SetConfig+0x4e4>)
 80033c0:	fba2 2303 	umull	r2, r3, r2, r3
 80033c4:	095b      	lsrs	r3, r3, #5
 80033c6:	f003 020f 	and.w	r2, r3, #15
 80033ca:	f8d7 30f4 	ldr.w	r3, [r7, #244]	; 0xf4
 80033ce:	681b      	ldr	r3, [r3, #0]
 80033d0:	4422      	add	r2, r4
 80033d2:	609a      	str	r2, [r3, #8]
}
 80033d4:	bf00      	nop
 80033d6:	f507 7780 	add.w	r7, r7, #256	; 0x100
 80033da:	46bd      	mov	sp, r7
 80033dc:	e8bd 8fb0 	ldmia.w	sp!, {r4, r5, r7, r8, r9, sl, fp, pc}
 80033e0:	51eb851f 	.word	0x51eb851f

080033e4 <memset>:
 80033e4:	4402      	add	r2, r0
 80033e6:	4603      	mov	r3, r0
 80033e8:	4293      	cmp	r3, r2
 80033ea:	d100      	bne.n	80033ee <memset+0xa>
 80033ec:	4770      	bx	lr
 80033ee:	f803 1b01 	strb.w	r1, [r3], #1
 80033f2:	e7f9      	b.n	80033e8 <memset+0x4>

080033f4 <__libc_init_array>:
 80033f4:	b570      	push	{r4, r5, r6, lr}
 80033f6:	4d0d      	ldr	r5, [pc, #52]	; (800342c <__libc_init_array+0x38>)
 80033f8:	4c0d      	ldr	r4, [pc, #52]	; (8003430 <__libc_init_array+0x3c>)
 80033fa:	1b64      	subs	r4, r4, r5
 80033fc:	10a4      	asrs	r4, r4, #2
 80033fe:	2600      	movs	r6, #0
 8003400:	42a6      	cmp	r6, r4
 8003402:	d109      	bne.n	8003418 <__libc_init_array+0x24>
 8003404:	4d0b      	ldr	r5, [pc, #44]	; (8003434 <__libc_init_array+0x40>)
 8003406:	4c0c      	ldr	r4, [pc, #48]	; (8003438 <__libc_init_array+0x44>)
 8003408:	f000 f818 	bl	800343c <_init>
 800340c:	1b64      	subs	r4, r4, r5
 800340e:	10a4      	asrs	r4, r4, #2
 8003410:	2600      	movs	r6, #0
 8003412:	42a6      	cmp	r6, r4
 8003414:	d105      	bne.n	8003422 <__libc_init_array+0x2e>
 8003416:	bd70      	pop	{r4, r5, r6, pc}
 8003418:	f855 3b04 	ldr.w	r3, [r5], #4
 800341c:	4798      	blx	r3
 800341e:	3601      	adds	r6, #1
 8003420:	e7ee      	b.n	8003400 <__libc_init_array+0xc>
 8003422:	f855 3b04 	ldr.w	r3, [r5], #4
 8003426:	4798      	blx	r3
 8003428:	3601      	adds	r6, #1
 800342a:	e7f2      	b.n	8003412 <__libc_init_array+0x1e>
 800342c:	080034b0 	.word	0x080034b0
 8003430:	080034b0 	.word	0x080034b0
 8003434:	080034b0 	.word	0x080034b0
 8003438:	080034b4 	.word	0x080034b4

0800343c <_init>:
 800343c:	b5f8      	push	{r3, r4, r5, r6, r7, lr}
 800343e:	bf00      	nop
 8003440:	bcf8      	pop	{r3, r4, r5, r6, r7}
 8003442:	bc08      	pop	{r3}
 8003444:	469e      	mov	lr, r3
 8003446:	4770      	bx	lr

08003448 <_fini>:
 8003448:	b5f8      	push	{r3, r4, r5, r6, r7, lr}
 800344a:	bf00      	nop
 800344c:	bcf8      	pop	{r3, r4, r5, r6, r7}
 800344e:	bc08      	pop	{r3}
 8003450:	469e      	mov	lr, r3
 8003452:	4770      	bx	lr
