
APC1.elf:     file format elf32-littlearm

Sections:
Idx Name          Size      VMA       LMA       File off  Algn
  0 .isr_vector   00000198  08000000  08000000  00010000  2**0
                  CONTENTS, ALLOC, LOAD, READONLY, DATA
  1 .text         00003510  08000198  08000198  00010198  2**2
                  CONTENTS, ALLOC, LOAD, READONLY, CODE
  2 .rodata       00000110  080036a8  080036a8  000136a8  2**2
                  CONTENTS, ALLOC, LOAD, READONLY, DATA
  3 .ARM.extab    00000000  080037b8  080037b8  00020088  2**0
                  CONTENTS
  4 .ARM          00000008  080037b8  080037b8  000137b8  2**2
                  CONTENTS, ALLOC, LOAD, READONLY, DATA
  5 .preinit_array 00000000  080037c0  080037c0  00020088  2**0
                  CONTENTS, ALLOC, LOAD, DATA
  6 .init_array   00000004  080037c0  080037c0  000137c0  2**2
                  CONTENTS, ALLOC, LOAD, DATA
  7 .fini_array   00000004  080037c4  080037c4  000137c4  2**2
                  CONTENTS, ALLOC, LOAD, DATA
  8 .data         00000088  20000000  080037c8  00020000  2**2
                  CONTENTS, ALLOC, LOAD, DATA
  9 .bss          00000144  20000088  08003850  00020088  2**3
                  ALLOC
 10 ._user_heap_stack 00000604  200001cc  08003850  000201cc  2**0
                  ALLOC
 11 .ARM.attributes 00000030  00000000  00000000  00020088  2**0
                  CONTENTS, READONLY
 12 .comment      00000043  00000000  00000000  000200b8  2**0
                  CONTENTS, READONLY
 13 .debug_info   00008fd2  00000000  00000000  000200fb  2**0
                  CONTENTS, READONLY, DEBUGGING, OCTETS
 14 .debug_abbrev 0000196a  00000000  00000000  000290cd  2**0
                  CONTENTS, READONLY, DEBUGGING, OCTETS
 15 .debug_aranges 000007c0  00000000  00000000  0002aa38  2**3
                  CONTENTS, READONLY, DEBUGGING, OCTETS
 16 .debug_rnglists 000005e9  00000000  00000000  0002b1f8  2**0
                  CONTENTS, READONLY, DEBUGGING, OCTETS
 17 .debug_macro  000155aa  00000000  00000000  0002b7e1  2**0
                  CONTENTS, READONLY, DEBUGGING, OCTETS
 18 .debug_line   00009830  00000000  00000000  00040d8b  2**0
                  CONTENTS, READONLY, DEBUGGING, OCTETS
 19 .debug_str    00085406  00000000  00000000  0004a5bb  2**0
                  CONTENTS, READONLY, DEBUGGING, OCTETS
 20 .debug_frame  00001ef4  00000000  00000000  000cf9c4  2**2
                  CONTENTS, READONLY, DEBUGGING, OCTETS
 21 .debug_line_str 00000079  00000000  00000000  000d18b8  2**0
                  CONTENTS, READONLY, DEBUGGING, OCTETS

Disassembly of section .text:

08000198 <__do_global_dtors_aux>:
 8000198:	b510      	push	{r4, lr}
 800019a:	4c05      	ldr	r4, [pc, #20]	; (80001b0 <__do_global_dtors_aux+0x18>)
 800019c:	7823      	ldrb	r3, [r4, #0]
 800019e:	b933      	cbnz	r3, 80001ae <__do_global_dtors_aux+0x16>
 80001a0:	4b04      	ldr	r3, [pc, #16]	; (80001b4 <__do_global_dtors_aux+0x1c>)
 80001a2:	b113      	cbz	r3, 80001aa <__do_global_dtors_aux+0x12>
 80001a4:	4804      	ldr	r0, [pc, #16]	; (80001b8 <__do_global_dtors_aux+0x20>)
 80001a6:	f3af 8000 	nop.w
 80001aa:	2301      	movs	r3, #1
 80001ac:	7023      	strb	r3, [r4, #0]
 80001ae:	bd10      	pop	{r4, pc}
 80001b0:	20000088 	.word	0x20000088
 80001b4:	00000000 	.word	0x00000000
 80001b8:	08003690 	.word	0x08003690

080001bc <frame_dummy>:
 80001bc:	b508      	push	{r3, lr}
 80001be:	4b03      	ldr	r3, [pc, #12]	; (80001cc <frame_dummy+0x10>)
 80001c0:	b11b      	cbz	r3, 80001ca <frame_dummy+0xe>
 80001c2:	4903      	ldr	r1, [pc, #12]	; (80001d0 <frame_dummy+0x14>)
 80001c4:	4803      	ldr	r0, [pc, #12]	; (80001d4 <frame_dummy+0x18>)
 80001c6:	f3af 8000 	nop.w
 80001ca:	bd08      	pop	{r3, pc}
 80001cc:	00000000 	.word	0x00000000
 80001d0:	2000008c 	.word	0x2000008c
 80001d4:	08003690 	.word	0x08003690

080001d8 <__aeabi_drsub>:
 80001d8:	f081 4100 	eor.w	r1, r1, #2147483648	; 0x80000000
 80001dc:	e002      	b.n	80001e4 <__adddf3>
 80001de:	bf00      	nop

080001e0 <__aeabi_dsub>:
 80001e0:	f083 4300 	eor.w	r3, r3, #2147483648	; 0x80000000

080001e4 <__adddf3>:
 80001e4:	b530      	push	{r4, r5, lr}
 80001e6:	ea4f 0441 	mov.w	r4, r1, lsl #1
 80001ea:	ea4f 0543 	mov.w	r5, r3, lsl #1
 80001ee:	ea94 0f05 	teq	r4, r5
 80001f2:	bf08      	it	eq
 80001f4:	ea90 0f02 	teqeq	r0, r2
 80001f8:	bf1f      	itttt	ne
 80001fa:	ea54 0c00 	orrsne.w	ip, r4, r0
 80001fe:	ea55 0c02 	orrsne.w	ip, r5, r2
 8000202:	ea7f 5c64 	mvnsne.w	ip, r4, asr #21
 8000206:	ea7f 5c65 	mvnsne.w	ip, r5, asr #21
 800020a:	f000 80e2 	beq.w	80003d2 <__adddf3+0x1ee>
 800020e:	ea4f 5454 	mov.w	r4, r4, lsr #21
 8000212:	ebd4 5555 	rsbs	r5, r4, r5, lsr #21
 8000216:	bfb8      	it	lt
 8000218:	426d      	neglt	r5, r5
 800021a:	dd0c      	ble.n	8000236 <__adddf3+0x52>
 800021c:	442c      	add	r4, r5
 800021e:	ea80 0202 	eor.w	r2, r0, r2
 8000222:	ea81 0303 	eor.w	r3, r1, r3
 8000226:	ea82 0000 	eor.w	r0, r2, r0
 800022a:	ea83 0101 	eor.w	r1, r3, r1
 800022e:	ea80 0202 	eor.w	r2, r0, r2
 8000232:	ea81 0303 	eor.w	r3, r1, r3
 8000236:	2d36      	cmp	r5, #54	; 0x36
 8000238:	bf88      	it	hi
 800023a:	bd30      	pophi	{r4, r5, pc}
 800023c:	f011 4f00 	tst.w	r1, #2147483648	; 0x80000000
 8000240:	ea4f 3101 	mov.w	r1, r1, lsl #12
 8000244:	f44f 1c80 	mov.w	ip, #1048576	; 0x100000
 8000248:	ea4c 3111 	orr.w	r1, ip, r1, lsr #12
 800024c:	d002      	beq.n	8000254 <__adddf3+0x70>
 800024e:	4240      	negs	r0, r0
 8000250:	eb61 0141 	sbc.w	r1, r1, r1, lsl #1
 8000254:	f013 4f00 	tst.w	r3, #2147483648	; 0x80000000
 8000258:	ea4f 3303 	mov.w	r3, r3, lsl #12
 800025c:	ea4c 3313 	orr.w	r3, ip, r3, lsr #12
 8000260:	d002      	beq.n	8000268 <__adddf3+0x84>
 8000262:	4252      	negs	r2, r2
 8000264:	eb63 0343 	sbc.w	r3, r3, r3, lsl #1
 8000268:	ea94 0f05 	teq	r4, r5
 800026c:	f000 80a7 	beq.w	80003be <__adddf3+0x1da>
 8000270:	f1a4 0401 	sub.w	r4, r4, #1
 8000274:	f1d5 0e20 	rsbs	lr, r5, #32
 8000278:	db0d      	blt.n	8000296 <__adddf3+0xb2>
 800027a:	fa02 fc0e 	lsl.w	ip, r2, lr
 800027e:	fa22 f205 	lsr.w	r2, r2, r5
 8000282:	1880      	adds	r0, r0, r2
 8000284:	f141 0100 	adc.w	r1, r1, #0
 8000288:	fa03 f20e 	lsl.w	r2, r3, lr
 800028c:	1880      	adds	r0, r0, r2
 800028e:	fa43 f305 	asr.w	r3, r3, r5
 8000292:	4159      	adcs	r1, r3
 8000294:	e00e      	b.n	80002b4 <__adddf3+0xd0>
 8000296:	f1a5 0520 	sub.w	r5, r5, #32
 800029a:	f10e 0e20 	add.w	lr, lr, #32
 800029e:	2a01      	cmp	r2, #1
 80002a0:	fa03 fc0e 	lsl.w	ip, r3, lr
 80002a4:	bf28      	it	cs
 80002a6:	f04c 0c02 	orrcs.w	ip, ip, #2
 80002aa:	fa43 f305 	asr.w	r3, r3, r5
 80002ae:	18c0      	adds	r0, r0, r3
 80002b0:	eb51 71e3 	adcs.w	r1, r1, r3, asr #31
 80002b4:	f001 4500 	and.w	r5, r1, #2147483648	; 0x80000000
 80002b8:	d507      	bpl.n	80002ca <__adddf3+0xe6>
 80002ba:	f04f 0e00 	mov.w	lr, #0
 80002be:	f1dc 0c00 	rsbs	ip, ip, #0
 80002c2:	eb7e 0000 	sbcs.w	r0, lr, r0
 80002c6:	eb6e 0101 	sbc.w	r1, lr, r1
 80002ca:	f5b1 1f80 	cmp.w	r1, #1048576	; 0x100000
 80002ce:	d31b      	bcc.n	8000308 <__adddf3+0x124>
 80002d0:	f5b1 1f00 	cmp.w	r1, #2097152	; 0x200000
 80002d4:	d30c      	bcc.n	80002f0 <__adddf3+0x10c>
 80002d6:	0849      	lsrs	r1, r1, #1
 80002d8:	ea5f 0030 	movs.w	r0, r0, rrx
 80002dc:	ea4f 0c3c 	mov.w	ip, ip, rrx
 80002e0:	f104 0401 	add.w	r4, r4, #1
 80002e4:	ea4f 5244 	mov.w	r2, r4, lsl #21
 80002e8:	f512 0f80 	cmn.w	r2, #4194304	; 0x400000
 80002ec:	f080 809a 	bcs.w	8000424 <__adddf3+0x240>
 80002f0:	f1bc 4f00 	cmp.w	ip, #2147483648	; 0x80000000
 80002f4:	bf08      	it	eq
 80002f6:	ea5f 0c50 	movseq.w	ip, r0, lsr #1
 80002fa:	f150 0000 	adcs.w	r0, r0, #0
 80002fe:	eb41 5104 	adc.w	r1, r1, r4, lsl #20
 8000302:	ea41 0105 	orr.w	r1, r1, r5
 8000306:	bd30      	pop	{r4, r5, pc}
 8000308:	ea5f 0c4c 	movs.w	ip, ip, lsl #1
 800030c:	4140      	adcs	r0, r0
 800030e:	eb41 0101 	adc.w	r1, r1, r1
 8000312:	3c01      	subs	r4, #1
 8000314:	bf28      	it	cs
 8000316:	f5b1 1f80 	cmpcs.w	r1, #1048576	; 0x100000
 800031a:	d2e9      	bcs.n	80002f0 <__adddf3+0x10c>
 800031c:	f091 0f00 	teq	r1, #0
 8000320:	bf04      	itt	eq
 8000322:	4601      	moveq	r1, r0
 8000324:	2000      	moveq	r0, #0
 8000326:	fab1 f381 	clz	r3, r1
 800032a:	bf08      	it	eq
 800032c:	3320      	addeq	r3, #32
 800032e:	f1a3 030b 	sub.w	r3, r3, #11
 8000332:	f1b3 0220 	subs.w	r2, r3, #32
 8000336:	da0c      	bge.n	8000352 <__adddf3+0x16e>
 8000338:	320c      	adds	r2, #12
 800033a:	dd08      	ble.n	800034e <__adddf3+0x16a>
 800033c:	f102 0c14 	add.w	ip, r2, #20
 8000340:	f1c2 020c 	rsb	r2, r2, #12
 8000344:	fa01 f00c 	lsl.w	r0, r1, ip
 8000348:	fa21 f102 	lsr.w	r1, r1, r2
 800034c:	e00c      	b.n	8000368 <__adddf3+0x184>
 800034e:	f102 0214 	add.w	r2, r2, #20
 8000352:	bfd8      	it	le
 8000354:	f1c2 0c20 	rsble	ip, r2, #32
 8000358:	fa01 f102 	lsl.w	r1, r1, r2
 800035c:	fa20 fc0c 	lsr.w	ip, r0, ip
 8000360:	bfdc      	itt	le
 8000362:	ea41 010c 	orrle.w	r1, r1, ip
 8000366:	4090      	lslle	r0, r2
 8000368:	1ae4      	subs	r4, r4, r3
 800036a:	bfa2      	ittt	ge
 800036c:	eb01 5104 	addge.w	r1, r1, r4, lsl #20
 8000370:	4329      	orrge	r1, r5
 8000372:	bd30      	popge	{r4, r5, pc}
 8000374:	ea6f 0404 	mvn.w	r4, r4
 8000378:	3c1f      	subs	r4, #31
 800037a:	da1c      	bge.n	80003b6 <__adddf3+0x1d2>
 800037c:	340c      	adds	r4, #12
 800037e:	dc0e      	bgt.n	800039e <__adddf3+0x1ba>
 8000380:	f104 0414 	add.w	r4, r4, #20
 8000384:	f1c4 0220 	rsb	r2, r4, #32
 8000388:	fa20 f004 	lsr.w	r0, r0, r4
 800038c:	fa01 f302 	lsl.w	r3, r1, r2
 8000390:	ea40 0003 	orr.w	r0, r0, r3
 8000394:	fa21 f304 	lsr.w	r3, r1, r4
 8000398:	ea45 0103 	orr.w	r1, r5, r3
 800039c:	bd30      	pop	{r4, r5, pc}
 800039e:	f1c4 040c 	rsb	r4, r4, #12
 80003a2:	f1c4 0220 	rsb	r2, r4, #32
 80003a6:	fa20 f002 	lsr.w	r0, r0, r2
 80003aa:	fa01 f304 	lsl.w	r3, r1, r4
 80003ae:	ea40 0003 	orr.w	r0, r0, r3
 80003b2:	4629      	mov	r1, r5
 80003b4:	bd30      	pop	{r4, r5, pc}
 80003b6:	fa21 f004 	lsr.w	r0, r1, r4
 80003ba:	4629      	mov	r1, r5
 80003bc:	bd30      	pop	{r4, r5, pc}
 80003be:	f094 0f00 	teq	r4, #0
 80003c2:	f483 1380 	eor.w	r3, r3, #1048576	; 0x100000
 80003c6:	bf06      	itte	eq
 80003c8:	f481 1180 	eoreq.w	r1, r1, #1048576	; 0x100000
 80003cc:	3401      	addeq	r4, #1
 80003ce:	3d01      	subne	r5, #1
 80003d0:	e74e      	b.n	8000270 <__adddf3+0x8c>
 80003d2:	ea7f 5c64 	mvns.w	ip, r4, asr #21
 80003d6:	bf18      	it	ne
 80003d8:	ea7f 5c65 	mvnsne.w	ip, r5, asr #21
 80003dc:	d029      	beq.n	8000432 <__adddf3+0x24e>
 80003de:	ea94 0f05 	teq	r4, r5
 80003e2:	bf08      	it	eq
 80003e4:	ea90 0f02 	teqeq	r0, r2
 80003e8:	d005      	beq.n	80003f6 <__adddf3+0x212>
 80003ea:	ea54 0c00 	orrs.w	ip, r4, r0
 80003ee:	bf04      	itt	eq
 80003f0:	4619      	moveq	r1, r3
 80003f2:	4610      	moveq	r0, r2
 80003f4:	bd30      	pop	{r4, r5, pc}
 80003f6:	ea91 0f03 	teq	r1, r3
 80003fa:	bf1e      	ittt	ne
 80003fc:	2100      	movne	r1, #0
 80003fe:	2000      	movne	r0, #0
 8000400:	bd30      	popne	{r4, r5, pc}
 8000402:	ea5f 5c54 	movs.w	ip, r4, lsr #21
 8000406:	d105      	bne.n	8000414 <__adddf3+0x230>
 8000408:	0040      	lsls	r0, r0, #1
 800040a:	4149      	adcs	r1, r1
 800040c:	bf28      	it	cs
 800040e:	f041 4100 	orrcs.w	r1, r1, #2147483648	; 0x80000000
 8000412:	bd30      	pop	{r4, r5, pc}
 8000414:	f514 0480 	adds.w	r4, r4, #4194304	; 0x400000
 8000418:	bf3c      	itt	cc
 800041a:	f501 1180 	addcc.w	r1, r1, #1048576	; 0x100000
 800041e:	bd30      	popcc	{r4, r5, pc}
 8000420:	f001 4500 	and.w	r5, r1, #2147483648	; 0x80000000
 8000424:	f045 41fe 	orr.w	r1, r5, #2130706432	; 0x7f000000
 8000428:	f441 0170 	orr.w	r1, r1, #15728640	; 0xf00000
 800042c:	f04f 0000 	mov.w	r0, #0
 8000430:	bd30      	pop	{r4, r5, pc}
 8000432:	ea7f 5c64 	mvns.w	ip, r4, asr #21
 8000436:	bf1a      	itte	ne
 8000438:	4619      	movne	r1, r3
 800043a:	4610      	movne	r0, r2
 800043c:	ea7f 5c65 	mvnseq.w	ip, r5, asr #21
 8000440:	bf1c      	itt	ne
 8000442:	460b      	movne	r3, r1
 8000444:	4602      	movne	r2, r0
 8000446:	ea50 3401 	orrs.w	r4, r0, r1, lsl #12
 800044a:	bf06      	itte	eq
 800044c:	ea52 3503 	orrseq.w	r5, r2, r3, lsl #12
 8000450:	ea91 0f03 	teqeq	r1, r3
 8000454:	f441 2100 	orrne.w	r1, r1, #524288	; 0x80000
 8000458:	bd30      	pop	{r4, r5, pc}
 800045a:	bf00      	nop

0800045c <__aeabi_ui2d>:
 800045c:	f090 0f00 	teq	r0, #0
 8000460:	bf04      	itt	eq
 8000462:	2100      	moveq	r1, #0
 8000464:	4770      	bxeq	lr
 8000466:	b530      	push	{r4, r5, lr}
 8000468:	f44f 6480 	mov.w	r4, #1024	; 0x400
 800046c:	f104 0432 	add.w	r4, r4, #50	; 0x32
 8000470:	f04f 0500 	mov.w	r5, #0
 8000474:	f04f 0100 	mov.w	r1, #0
 8000478:	e750      	b.n	800031c <__adddf3+0x138>
 800047a:	bf00      	nop

0800047c <__aeabi_i2d>:
 800047c:	f090 0f00 	teq	r0, #0
 8000480:	bf04      	itt	eq
 8000482:	2100      	moveq	r1, #0
 8000484:	4770      	bxeq	lr
 8000486:	b530      	push	{r4, r5, lr}
 8000488:	f44f 6480 	mov.w	r4, #1024	; 0x400
 800048c:	f104 0432 	add.w	r4, r4, #50	; 0x32
 8000490:	f010 4500 	ands.w	r5, r0, #2147483648	; 0x80000000
 8000494:	bf48      	it	mi
 8000496:	4240      	negmi	r0, r0
 8000498:	f04f 0100 	mov.w	r1, #0
 800049c:	e73e      	b.n	800031c <__adddf3+0x138>
 800049e:	bf00      	nop

080004a0 <__aeabi_f2d>:
 80004a0:	0042      	lsls	r2, r0, #1
 80004a2:	ea4f 01e2 	mov.w	r1, r2, asr #3
 80004a6:	ea4f 0131 	mov.w	r1, r1, rrx
 80004aa:	ea4f 7002 	mov.w	r0, r2, lsl #28
 80004ae:	bf1f      	itttt	ne
 80004b0:	f012 437f 	andsne.w	r3, r2, #4278190080	; 0xff000000
 80004b4:	f093 4f7f 	teqne	r3, #4278190080	; 0xff000000
 80004b8:	f081 5160 	eorne.w	r1, r1, #939524096	; 0x38000000
 80004bc:	4770      	bxne	lr
 80004be:	f032 427f 	bics.w	r2, r2, #4278190080	; 0xff000000
 80004c2:	bf08      	it	eq
 80004c4:	4770      	bxeq	lr
 80004c6:	f093 4f7f 	teq	r3, #4278190080	; 0xff000000
 80004ca:	bf04      	itt	eq
 80004cc:	f441 2100 	orreq.w	r1, r1, #524288	; 0x80000
 80004d0:	4770      	bxeq	lr
 80004d2:	b530      	push	{r4, r5, lr}
 80004d4:	f44f 7460 	mov.w	r4, #896	; 0x380
 80004d8:	f001 4500 	and.w	r5, r1, #2147483648	; 0x80000000
 80004dc:	f021 4100 	bic.w	r1, r1, #2147483648	; 0x80000000
 80004e0:	e71c      	b.n	800031c <__adddf3+0x138>
 80004e2:	bf00      	nop

080004e4 <__aeabi_ul2d>:
 80004e4:	ea50 0201 	orrs.w	r2, r0, r1
 80004e8:	bf08      	it	eq
 80004ea:	4770      	bxeq	lr
 80004ec:	b530      	push	{r4, r5, lr}
 80004ee:	f04f 0500 	mov.w	r5, #0
 80004f2:	e00a      	b.n	800050a <__aeabi_l2d+0x16>

080004f4 <__aeabi_l2d>:
 80004f4:	ea50 0201 	orrs.w	r2, r0, r1
 80004f8:	bf08      	it	eq
 80004fa:	4770      	bxeq	lr
 80004fc:	b530      	push	{r4, r5, lr}
 80004fe:	f011 4500 	ands.w	r5, r1, #2147483648	; 0x80000000
 8000502:	d502      	bpl.n	800050a <__aeabi_l2d+0x16>
 8000504:	4240      	negs	r0, r0
 8000506:	eb61 0141 	sbc.w	r1, r1, r1, lsl #1
 800050a:	f44f 6480 	mov.w	r4, #1024	; 0x400
 800050e:	f104 0432 	add.w	r4, r4, #50	; 0x32
 8000512:	ea5f 5c91 	movs.w	ip, r1, lsr #22
 8000516:	f43f aed8 	beq.w	80002ca <__adddf3+0xe6>
 800051a:	f04f 0203 	mov.w	r2, #3
 800051e:	ea5f 0cdc 	movs.w	ip, ip, lsr #3
 8000522:	bf18      	it	ne
 8000524:	3203      	addne	r2, #3
 8000526:	ea5f 0cdc 	movs.w	ip, ip, lsr #3
 800052a:	bf18      	it	ne
 800052c:	3203      	addne	r2, #3
 800052e:	eb02 02dc 	add.w	r2, r2, ip, lsr #3
 8000532:	f1c2 0320 	rsb	r3, r2, #32
 8000536:	fa00 fc03 	lsl.w	ip, r0, r3
 800053a:	fa20 f002 	lsr.w	r0, r0, r2
 800053e:	fa01 fe03 	lsl.w	lr, r1, r3
 8000542:	ea40 000e 	orr.w	r0, r0, lr
 8000546:	fa21 f102 	lsr.w	r1, r1, r2
 800054a:	4414      	add	r4, r2
 800054c:	e6bd      	b.n	80002ca <__adddf3+0xe6>
 800054e:	bf00      	nop

08000550 <__aeabi_uldivmod>:
 8000550:	b953      	cbnz	r3, 8000568 <__aeabi_uldivmod+0x18>
 8000552:	b94a      	cbnz	r2, 8000568 <__aeabi_uldivmod+0x18>
 8000554:	2900      	cmp	r1, #0
 8000556:	bf08      	it	eq
 8000558:	2800      	cmpeq	r0, #0
 800055a:	bf1c      	itt	ne
 800055c:	f04f 31ff 	movne.w	r1, #4294967295
 8000560:	f04f 30ff 	movne.w	r0, #4294967295
 8000564:	f000 b970 	b.w	8000848 <__aeabi_idiv0>
 8000568:	f1ad 0c08 	sub.w	ip, sp, #8
 800056c:	e96d ce04 	strd	ip, lr, [sp, #-16]!
 8000570:	f000 f806 	bl	8000580 <__udivmoddi4>
 8000574:	f8dd e004 	ldr.w	lr, [sp, #4]
 8000578:	e9dd 2302 	ldrd	r2, r3, [sp, #8]
 800057c:	b004      	add	sp, #16
 800057e:	4770      	bx	lr

08000580 <__udivmoddi4>:
 8000580:	e92d 47f0 	stmdb	sp!, {r4, r5, r6, r7, r8, r9, sl, lr}
 8000584:	9e08      	ldr	r6, [sp, #32]
 8000586:	460d      	mov	r5, r1
 8000588:	4604      	mov	r4, r0
 800058a:	460f      	mov	r7, r1
 800058c:	2b00      	cmp	r3, #0
 800058e:	d14a      	bne.n	8000626 <__udivmoddi4+0xa6>
 8000590:	428a      	cmp	r2, r1
 8000592:	4694      	mov	ip, r2
 8000594:	d965      	bls.n	8000662 <__udivmoddi4+0xe2>
 8000596:	fab2 f382 	clz	r3, r2
 800059a:	b143      	cbz	r3, 80005ae <__udivmoddi4+0x2e>
 800059c:	fa02 fc03 	lsl.w	ip, r2, r3
 80005a0:	f1c3 0220 	rsb	r2, r3, #32
 80005a4:	409f      	lsls	r7, r3
 80005a6:	fa20 f202 	lsr.w	r2, r0, r2
 80005aa:	4317      	orrs	r7, r2
 80005ac:	409c      	lsls	r4, r3
 80005ae:	ea4f 4e1c 	mov.w	lr, ip, lsr #16
 80005b2:	fa1f f58c 	uxth.w	r5, ip
 80005b6:	fbb7 f1fe 	udiv	r1, r7, lr
 80005ba:	0c22      	lsrs	r2, r4, #16
 80005bc:	fb0e 7711 	mls	r7, lr, r1, r7
 80005c0:	ea42 4207 	orr.w	r2, r2, r7, lsl #16
 80005c4:	fb01 f005 	mul.w	r0, r1, r5
 80005c8:	4290      	cmp	r0, r2
 80005ca:	d90a      	bls.n	80005e2 <__udivmoddi4+0x62>
 80005cc:	eb1c 0202 	adds.w	r2, ip, r2
 80005d0:	f101 37ff 	add.w	r7, r1, #4294967295
 80005d4:	f080 811c 	bcs.w	8000810 <__udivmoddi4+0x290>
 80005d8:	4290      	cmp	r0, r2
 80005da:	f240 8119 	bls.w	8000810 <__udivmoddi4+0x290>
 80005de:	3902      	subs	r1, #2
 80005e0:	4462      	add	r2, ip
 80005e2:	1a12      	subs	r2, r2, r0
 80005e4:	b2a4      	uxth	r4, r4
 80005e6:	fbb2 f0fe 	udiv	r0, r2, lr
 80005ea:	fb0e 2210 	mls	r2, lr, r0, r2
 80005ee:	ea44 4402 	orr.w	r4, r4, r2, lsl #16
 80005f2:	fb00 f505 	mul.w	r5, r0, r5
 80005f6:	42a5      	cmp	r5, r4
 80005f8:	d90a      	bls.n	8000610 <__udivmoddi4+0x90>
 80005fa:	eb1c 0404 	adds.w	r4, ip, r4
 80005fe:	f100 32ff 	add.w	r2, r0, #4294967295
 8000602:	f080 8107 	bcs.w	8000814 <__udivmoddi4+0x294>
 8000606:	42a5      	cmp	r5, r4
 8000608:	f240 8104 	bls.w	8000814 <__udivmoddi4+0x294>
 800060c:	4464      	add	r4, ip
 800060e:	3802      	subs	r0, #2
 8000610:	ea40 4001 	orr.w	r0, r0, r1, lsl #16
 8000614:	1b64      	subs	r4, r4, r5
 8000616:	2100      	movs	r1, #0
 8000618:	b11e      	cbz	r6, 8000622 <__udivmoddi4+0xa2>
 800061a:	40dc      	lsrs	r4, r3
 800061c:	2300      	movs	r3, #0
 800061e:	e9c6 4300 	strd	r4, r3, [r6]
 8000622:	e8bd 87f0 	ldmia.w	sp!, {r4, r5, r6, r7, r8, r9, sl, pc}
 8000626:	428b      	cmp	r3, r1
 8000628:	d908      	bls.n	800063c <__udivmoddi4+0xbc>
 800062a:	2e00      	cmp	r6, #0
 800062c:	f000 80ed 	beq.w	800080a <__udivmoddi4+0x28a>
 8000630:	2100      	movs	r1, #0
 8000632:	e9c6 0500 	strd	r0, r5, [r6]
 8000636:	4608      	mov	r0, r1
 8000638:	e8bd 87f0 	ldmia.w	sp!, {r4, r5, r6, r7, r8, r9, sl, pc}
 800063c:	fab3 f183 	clz	r1, r3
 8000640:	2900      	cmp	r1, #0
 8000642:	d149      	bne.n	80006d8 <__udivmoddi4+0x158>
 8000644:	42ab      	cmp	r3, r5
 8000646:	d302      	bcc.n	800064e <__udivmoddi4+0xce>
 8000648:	4282      	cmp	r2, r0
 800064a:	f200 80f8 	bhi.w	800083e <__udivmoddi4+0x2be>
 800064e:	1a84      	subs	r4, r0, r2
 8000650:	eb65 0203 	sbc.w	r2, r5, r3
 8000654:	2001      	movs	r0, #1
 8000656:	4617      	mov	r7, r2
 8000658:	2e00      	cmp	r6, #0
 800065a:	d0e2      	beq.n	8000622 <__udivmoddi4+0xa2>
 800065c:	e9c6 4700 	strd	r4, r7, [r6]
 8000660:	e7df      	b.n	8000622 <__udivmoddi4+0xa2>
 8000662:	b902      	cbnz	r2, 8000666 <__udivmoddi4+0xe6>
 8000664:	deff      	udf	#255	; 0xff
 8000666:	fab2 f382 	clz	r3, r2
 800066a:	2b00      	cmp	r3, #0
 800066c:	f040 8090 	bne.w	8000790 <__udivmoddi4+0x210>
 8000670:	1a8a      	subs	r2, r1, r2
 8000672:	ea4f 471c 	mov.w	r7, ip, lsr #16
 8000676:	fa1f fe8c 	uxth.w	lr, ip
 800067a:	2101      	movs	r1, #1
 800067c:	fbb2 f5f7 	udiv	r5, r2, r7
 8000680:	fb07 2015 	mls	r0, r7, r5, r2
 8000684:	0c22      	lsrs	r2, r4, #16
 8000686:	ea42 4200 	orr.w	r2, r2, r0, lsl #16
 800068a:	fb0e f005 	mul.w	r0, lr, r5
 800068e:	4290      	cmp	r0, r2
 8000690:	d908      	bls.n	80006a4 <__udivmoddi4+0x124>
 8000692:	eb1c 0202 	adds.w	r2, ip, r2
 8000696:	f105 38ff 	add.w	r8, r5, #4294967295
 800069a:	d202      	bcs.n	80006a2 <__udivmoddi4+0x122>
 800069c:	4290      	cmp	r0, r2
 800069e:	f200 80cb 	bhi.w	8000838 <__udivmoddi4+0x2b8>
 80006a2:	4645      	mov	r5, r8
 80006a4:	1a12      	subs	r2, r2, r0
 80006a6:	b2a4      	uxth	r4, r4
 80006a8:	fbb2 f0f7 	udiv	r0, r2, r7
 80006ac:	fb07 2210 	mls	r2, r7, r0, r2
 80006b0:	ea44 4402 	orr.w	r4, r4, r2, lsl #16
 80006b4:	fb0e fe00 	mul.w	lr, lr, r0
 80006b8:	45a6      	cmp	lr, r4
 80006ba:	d908      	bls.n	80006ce <__udivmoddi4+0x14e>
 80006bc:	eb1c 0404 	adds.w	r4, ip, r4
 80006c0:	f100 32ff 	add.w	r2, r0, #4294967295
 80006c4:	d202      	bcs.n	80006cc <__udivmoddi4+0x14c>
 80006c6:	45a6      	cmp	lr, r4
 80006c8:	f200 80bb 	bhi.w	8000842 <__udivmoddi4+0x2c2>
 80006cc:	4610      	mov	r0, r2
 80006ce:	eba4 040e 	sub.w	r4, r4, lr
 80006d2:	ea40 4005 	orr.w	r0, r0, r5, lsl #16
 80006d6:	e79f      	b.n	8000618 <__udivmoddi4+0x98>
 80006d8:	f1c1 0720 	rsb	r7, r1, #32
 80006dc:	408b      	lsls	r3, r1
 80006de:	fa22 fc07 	lsr.w	ip, r2, r7
 80006e2:	ea4c 0c03 	orr.w	ip, ip, r3
 80006e6:	fa05 f401 	lsl.w	r4, r5, r1
 80006ea:	fa20 f307 	lsr.w	r3, r0, r7
 80006ee:	40fd      	lsrs	r5, r7
 80006f0:	ea4f 491c 	mov.w	r9, ip, lsr #16
 80006f4:	4323      	orrs	r3, r4
 80006f6:	fbb5 f8f9 	udiv	r8, r5, r9
 80006fa:	fa1f fe8c 	uxth.w	lr, ip
 80006fe:	fb09 5518 	mls	r5, r9, r8, r5
 8000702:	0c1c      	lsrs	r4, r3, #16
 8000704:	ea44 4405 	orr.w	r4, r4, r5, lsl #16
 8000708:	fb08 f50e 	mul.w	r5, r8, lr
 800070c:	42a5      	cmp	r5, r4
 800070e:	fa02 f201 	lsl.w	r2, r2, r1
 8000712:	fa00 f001 	lsl.w	r0, r0, r1
 8000716:	d90b      	bls.n	8000730 <__udivmoddi4+0x1b0>
 8000718:	eb1c 0404 	adds.w	r4, ip, r4
 800071c:	f108 3aff 	add.w	sl, r8, #4294967295
 8000720:	f080 8088 	bcs.w	8000834 <__udivmoddi4+0x2b4>
 8000724:	42a5      	cmp	r5, r4
 8000726:	f240 8085 	bls.w	8000834 <__udivmoddi4+0x2b4>
 800072a:	f1a8 0802 	sub.w	r8, r8, #2
 800072e:	4464      	add	r4, ip
 8000730:	1b64      	subs	r4, r4, r5
 8000732:	b29d      	uxth	r5, r3
 8000734:	fbb4 f3f9 	udiv	r3, r4, r9
 8000738:	fb09 4413 	mls	r4, r9, r3, r4
 800073c:	ea45 4404 	orr.w	r4, r5, r4, lsl #16
 8000740:	fb03 fe0e 	mul.w	lr, r3, lr
 8000744:	45a6      	cmp	lr, r4
 8000746:	d908      	bls.n	800075a <__udivmoddi4+0x1da>
 8000748:	eb1c 0404 	adds.w	r4, ip, r4
 800074c:	f103 35ff 	add.w	r5, r3, #4294967295
 8000750:	d26c      	bcs.n	800082c <__udivmoddi4+0x2ac>
 8000752:	45a6      	cmp	lr, r4
 8000754:	d96a      	bls.n	800082c <__udivmoddi4+0x2ac>
 8000756:	3b02      	subs	r3, #2
 8000758:	4464      	add	r4, ip
 800075a:	ea43 4308 	orr.w	r3, r3, r8, lsl #16
 800075e:	fba3 9502 	umull	r9, r5, r3, r2
 8000762:	eba4 040e 	sub.w	r4, r4, lr
 8000766:	42ac      	cmp	r4, r5
 8000768:	46c8      	mov	r8, r9
 800076a:	46ae      	mov	lr, r5
 800076c:	d356      	bcc.n	800081c <__udivmoddi4+0x29c>
 800076e:	d053      	beq.n	8000818 <__udivmoddi4+0x298>
 8000770:	b156      	cbz	r6, 8000788 <__udivmoddi4+0x208>
 8000772:	ebb0 0208 	subs.w	r2, r0, r8
 8000776:	eb64 040e 	sbc.w	r4, r4, lr
 800077a:	fa04 f707 	lsl.w	r7, r4, r7
 800077e:	40ca      	lsrs	r2, r1
 8000780:	40cc      	lsrs	r4, r1
 8000782:	4317      	orrs	r7, r2
 8000784:	e9c6 7400 	strd	r7, r4, [r6]
 8000788:	4618      	mov	r0, r3
 800078a:	2100      	movs	r1, #0
 800078c:	e8bd 87f0 	ldmia.w	sp!, {r4, r5, r6, r7, r8, r9, sl, pc}
 8000790:	f1c3 0120 	rsb	r1, r3, #32
 8000794:	fa02 fc03 	lsl.w	ip, r2, r3
 8000798:	fa20 f201 	lsr.w	r2, r0, r1
 800079c:	fa25 f101 	lsr.w	r1, r5, r1
 80007a0:	409d      	lsls	r5, r3
 80007a2:	432a      	orrs	r2, r5
 80007a4:	ea4f 471c 	mov.w	r7, ip, lsr #16
 80007a8:	fa1f fe8c 	uxth.w	lr, ip
 80007ac:	fbb1 f0f7 	udiv	r0, r1, r7
 80007b0:	fb07 1510 	mls	r5, r7, r0, r1
 80007b4:	0c11      	lsrs	r1, r2, #16
 80007b6:	ea41 4105 	orr.w	r1, r1, r5, lsl #16
 80007ba:	fb00 f50e 	mul.w	r5, r0, lr
 80007be:	428d      	cmp	r5, r1
 80007c0:	fa04 f403 	lsl.w	r4, r4, r3
 80007c4:	d908      	bls.n	80007d8 <__udivmoddi4+0x258>
 80007c6:	eb1c 0101 	adds.w	r1, ip, r1
 80007ca:	f100 38ff 	add.w	r8, r0, #4294967295
 80007ce:	d22f      	bcs.n	8000830 <__udivmoddi4+0x2b0>
 80007d0:	428d      	cmp	r5, r1
 80007d2:	d92d      	bls.n	8000830 <__udivmoddi4+0x2b0>
 80007d4:	3802      	subs	r0, #2
 80007d6:	4461      	add	r1, ip
 80007d8:	1b49      	subs	r1, r1, r5
 80007da:	b292      	uxth	r2, r2
 80007dc:	fbb1 f5f7 	udiv	r5, r1, r7
 80007e0:	fb07 1115 	mls	r1, r7, r5, r1
 80007e4:	ea42 4201 	orr.w	r2, r2, r1, lsl #16
 80007e8:	fb05 f10e 	mul.w	r1, r5, lr
 80007ec:	4291      	cmp	r1, r2
 80007ee:	d908      	bls.n	8000802 <__udivmoddi4+0x282>
 80007f0:	eb1c 0202 	adds.w	r2, ip, r2
 80007f4:	f105 38ff 	add.w	r8, r5, #4294967295
 80007f8:	d216      	bcs.n	8000828 <__udivmoddi4+0x2a8>
 80007fa:	4291      	cmp	r1, r2
 80007fc:	d914      	bls.n	8000828 <__udivmoddi4+0x2a8>
 80007fe:	3d02      	subs	r5, #2
 8000800:	4462      	add	r2, ip
 8000802:	1a52      	subs	r2, r2, r1
 8000804:	ea45 4100 	orr.w	r1, r5, r0, lsl #16
 8000808:	e738      	b.n	800067c <__udivmoddi4+0xfc>
 800080a:	4631      	mov	r1, r6
 800080c:	4630      	mov	r0, r6
 800080e:	e708      	b.n	8000622 <__udivmoddi4+0xa2>
 8000810:	4639      	mov	r1, r7
 8000812:	e6e6      	b.n	80005e2 <__udivmoddi4+0x62>
 8000814:	4610      	mov	r0, r2
 8000816:	e6fb      	b.n	8000610 <__udivmoddi4+0x90>
 8000818:	4548      	cmp	r0, r9
 800081a:	d2a9      	bcs.n	8000770 <__udivmoddi4+0x1f0>
 800081c:	ebb9 0802 	subs.w	r8, r9, r2
 8000820:	eb65 0e0c 	sbc.w	lr, r5, ip
 8000824:	3b01      	subs	r3, #1
 8000826:	e7a3      	b.n	8000770 <__udivmoddi4+0x1f0>
 8000828:	4645      	mov	r5, r8
 800082a:	e7ea      	b.n	8000802 <__udivmoddi4+0x282>
 800082c:	462b      	mov	r3, r5
 800082e:	e794      	b.n	800075a <__udivmoddi4+0x1da>
 8000830:	4640      	mov	r0, r8
 8000832:	e7d1      	b.n	80007d8 <__udivmoddi4+0x258>
 8000834:	46d0      	mov	r8, sl
 8000836:	e77b      	b.n	8000730 <__udivmoddi4+0x1b0>
 8000838:	3d02      	subs	r5, #2
 800083a:	4462      	add	r2, ip
 800083c:	e732      	b.n	80006a4 <__udivmoddi4+0x124>
 800083e:	4608      	mov	r0, r1
 8000840:	e70a      	b.n	8000658 <__udivmoddi4+0xd8>
 8000842:	4464      	add	r4, ip
 8000844:	3802      	subs	r0, #2
 8000846:	e742      	b.n	80006ce <__udivmoddi4+0x14e>

08000848 <__aeabi_idiv0>:
 8000848:	4770      	bx	lr
 800084a:	bf00      	nop

0800084c <APC1_Send_Command>:
		"APC1_ERROR_VOC",
		"APC1_ERROR_RHT",
		"APC1_ERROR_CRC"
};

HAL_StatusTypeDef APC1_Send_Command(UART_HandleTypeDef *huart, uint8_t *command) {
 800084c:	b580      	push	{r7, lr}
 800084e:	b082      	sub	sp, #8
 8000850:	af00      	add	r7, sp, #0
 8000852:	6078      	str	r0, [r7, #4]
 8000854:	6039      	str	r1, [r7, #0]

	return HAL_UART_Transmit(huart, command, COMMAND_LENGHT, 2000);
 8000856:	f44f 63fa 	mov.w	r3, #2000	; 0x7d0
 800085a:	2207      	movs	r2, #7
 800085c:	6839      	ldr	r1, [r7, #0]
 800085e:	6878      	ldr	r0, [r7, #4]
 8000860:	f001 febf 	bl	80025e2 <HAL_UART_Transmit>
 8000864:	4603      	mov	r3, r0

}
 8000866:	4618      	mov	r0, r3
 8000868:	3708      	adds	r7, #8
 800086a:	46bd      	mov	sp, r7
 800086c:	bd80      	pop	{r7, pc}

0800086e <APC1_Receive_Response>:

HAL_StatusTypeDef APC1_Receive_Response(UART_HandleTypeDef *huart, uint8_t *buffer, uint16_t size) {
 800086e:	b580      	push	{r7, lr}
 8000870:	b084      	sub	sp, #16
 8000872:	af00      	add	r7, sp, #0
 8000874:	60f8      	str	r0, [r7, #12]
 8000876:	60b9      	str	r1, [r7, #8]
 8000878:	4613      	mov	r3, r2
 800087a:	80fb      	strh	r3, [r7, #6]

	memset(buffer, 0, BUFFER_SIZE);
 800087c:	2264      	movs	r2, #100	; 0x64
 800087e:	2100      	movs	r1, #0
 8000880:	68b8      	ldr	r0, [r7, #8]
 8000882:	f002 fed9 	bl	8003638 <memset>
	return HAL_UART_Receive_IT(huart, buffer, size);
 8000886:	88fb      	ldrh	r3, [r7, #6]
 8000888:	461a      	mov	r2, r3
 800088a:	68b9      	ldr	r1, [r7, #8]
 800088c:	68f8      	ldr	r0, [r7, #12]
 800088e:	f001 ff3a 	bl	8002706 <HAL_UART_Receive_IT>
 8000892:	4603      	mov	r3, r0

}
 8000894:	4618      	mov	r0, r3
 8000896:	3710      	adds	r7, #16
 8000898:	46bd      	mov	sp, r7
 800089a:	bd80      	pop	{r7, pc}

0800089c <APC1_Read_Mea_Data>:

	return APC1_OK;

}

enum APC1_Status APC1_Read_Mea_Data(void) {
 800089c:	b580      	push	{r7, lr}
 800089e:	b084      	sub	sp, #16
 80008a0:	af00      	add	r7, sp, #0

	enum APC1_Status errorStat;

	if (APC1_Receive_Response(&huart1, buffer, command[APC1_CMD_READ_MEA_DATA].response_size) != HAL_OK) {
 80008a2:	4b34      	ldr	r3, [pc, #208]	; (8000974 <APC1_Read_Mea_Data+0xd8>)
 80008a4:	7d5b      	ldrb	r3, [r3, #21]
 80008a6:	b29b      	uxth	r3, r3
 80008a8:	461a      	mov	r2, r3
 80008aa:	4933      	ldr	r1, [pc, #204]	; (8000978 <APC1_Read_Mea_Data+0xdc>)
 80008ac:	4833      	ldr	r0, [pc, #204]	; (800097c <APC1_Read_Mea_Data+0xe0>)
 80008ae:	f7ff ffde 	bl	800086e <APC1_Receive_Response>
 80008b2:	4603      	mov	r3, r0
 80008b4:	2b00      	cmp	r3, #0
 80008b6:	d001      	beq.n	80008bc <APC1_Read_Mea_Data+0x20>
		Error_Handler();
 80008b8:	f000 fce2 	bl	8001280 <Error_Handler>
	}

	if (APC1_Send_Command(&huart1, command[APC1_CMD_READ_MEA_DATA].cmd) != HAL_OK) {
 80008bc:	4930      	ldr	r1, [pc, #192]	; (8000980 <APC1_Read_Mea_Data+0xe4>)
 80008be:	482f      	ldr	r0, [pc, #188]	; (800097c <APC1_Read_Mea_Data+0xe0>)
 80008c0:	f7ff ffc4 	bl	800084c <APC1_Send_Command>
 80008c4:	4603      	mov	r3, r0
 80008c6:	2b00      	cmp	r3, #0
 80008c8:	d001      	beq.n	80008ce <APC1_Read_Mea_Data+0x32>
		Error_Handler();
 80008ca:	f000 fcd9 	bl	8001280 <Error_Handler>
	}

	while (received_response == 0);
 80008ce:	bf00      	nop
 80008d0:	4b2c      	ldr	r3, [pc, #176]	; (8000984 <APC1_Read_Mea_Data+0xe8>)
 80008d2:	681b      	ldr	r3, [r3, #0]
 80008d4:	2b00      	cmp	r3, #0
 80008d6:	d0fb      	beq.n	80008d0 <APC1_Read_Mea_Data+0x34>
	received_response = 0;
 80008d8:	4b2a      	ldr	r3, [pc, #168]	; (8000984 <APC1_Read_Mea_Data+0xe8>)
 80008da:	2200      	movs	r2, #0
 80008dc:	601a      	str	r2, [r3, #0]

	if ((errorStat = APC1_Check_Checksum(SUM_OF_VALUES_MEA, CHECKSUM_LOW_OUTPUT_REGISTER, CHECKSUM_HIGH_OUTPUT_REGISTER)) != APC1_OK) {
 80008de:	223f      	movs	r2, #63	; 0x3f
 80008e0:	213e      	movs	r1, #62	; 0x3e
 80008e2:	203e      	movs	r0, #62	; 0x3e
 80008e4:	f000 f854 	bl	8000990 <APC1_Check_Checksum>
 80008e8:	4603      	mov	r3, r0
 80008ea:	72fb      	strb	r3, [r7, #11]
 80008ec:	7afb      	ldrb	r3, [r7, #11]
 80008ee:	2b00      	cmp	r3, #0
 80008f0:	d004      	beq.n	80008fc <APC1_Read_Mea_Data+0x60>
		err = 8;
 80008f2:	4b25      	ldr	r3, [pc, #148]	; (8000988 <APC1_Read_Mea_Data+0xec>)
 80008f4:	2208      	movs	r2, #8
 80008f6:	601a      	str	r2, [r3, #0]
		return errorStat;
 80008f8:	7afb      	ldrb	r3, [r7, #11]
 80008fa:	e036      	b.n	800096a <APC1_Read_Mea_Data+0xce>
	}

	if ((errorStat = APC1_Check_For_Error()) != APC1_OK) {
 80008fc:	f000 f87a 	bl	80009f4 <APC1_Check_For_Error>
 8000900:	4603      	mov	r3, r0
 8000902:	72fb      	strb	r3, [r7, #11]
 8000904:	7afb      	ldrb	r3, [r7, #11]
 8000906:	2b00      	cmp	r3, #0
 8000908:	d001      	beq.n	800090e <APC1_Read_Mea_Data+0x72>
		return errorStat;
 800090a:	7afb      	ldrb	r3, [r7, #11]
 800090c:	e02d      	b.n	800096a <APC1_Read_Mea_Data+0xce>
	}

	uint16_t index = 4, i = 0;
 800090e:	2304      	movs	r3, #4
 8000910:	81fb      	strh	r3, [r7, #14]
 8000912:	2300      	movs	r3, #0
 8000914:	81bb      	strh	r3, [r7, #12]
	uint16_t *struct_member = &processed_data.pm1_0;
 8000916:	4b1d      	ldr	r3, [pc, #116]	; (800098c <APC1_Read_Mea_Data+0xf0>)
 8000918:	607b      	str	r3, [r7, #4]
	while (index < RS0_OUTPUT_REGISTER) {
 800091a:	e01c      	b.n	8000956 <APC1_Read_Mea_Data+0xba>
		if (index == RESERVED_OUTPUT_REGISTER) { // skip reserved two bytes in output data at address 0x20
 800091c:	89fb      	ldrh	r3, [r7, #14]
 800091e:	2b20      	cmp	r3, #32
 8000920:	d102      	bne.n	8000928 <APC1_Read_Mea_Data+0x8c>
			index += 2;
 8000922:	89fb      	ldrh	r3, [r7, #14]
 8000924:	3302      	adds	r3, #2
 8000926:	81fb      	strh	r3, [r7, #14]
		}
		struct_member[i++] = APC1_Convert(buffer[index], buffer[index + 1]);
 8000928:	89fb      	ldrh	r3, [r7, #14]
 800092a:	4a13      	ldr	r2, [pc, #76]	; (8000978 <APC1_Read_Mea_Data+0xdc>)
 800092c:	5cd3      	ldrb	r3, [r2, r3]
 800092e:	021b      	lsls	r3, r3, #8
 8000930:	b21a      	sxth	r2, r3
 8000932:	89fb      	ldrh	r3, [r7, #14]
 8000934:	3301      	adds	r3, #1
 8000936:	4910      	ldr	r1, [pc, #64]	; (8000978 <APC1_Read_Mea_Data+0xdc>)
 8000938:	5ccb      	ldrb	r3, [r1, r3]
 800093a:	b21b      	sxth	r3, r3
 800093c:	4313      	orrs	r3, r2
 800093e:	b219      	sxth	r1, r3
 8000940:	89bb      	ldrh	r3, [r7, #12]
 8000942:	1c5a      	adds	r2, r3, #1
 8000944:	81ba      	strh	r2, [r7, #12]
 8000946:	005b      	lsls	r3, r3, #1
 8000948:	687a      	ldr	r2, [r7, #4]
 800094a:	4413      	add	r3, r2
 800094c:	b28a      	uxth	r2, r1
 800094e:	801a      	strh	r2, [r3, #0]
		index += 2;
 8000950:	89fb      	ldrh	r3, [r7, #14]
 8000952:	3302      	adds	r3, #2
 8000954:	81fb      	strh	r3, [r7, #14]
	while (index < RS0_OUTPUT_REGISTER) {
 8000956:	89fb      	ldrh	r3, [r7, #14]
 8000958:	2b29      	cmp	r3, #41	; 0x29
 800095a:	d9df      	bls.n	800091c <APC1_Read_Mea_Data+0x80>
	}
	processed_data.aqi = buffer[AQI_OUTPUT_REGISTER];
 800095c:	4b06      	ldr	r3, [pc, #24]	; (8000978 <APC1_Read_Mea_Data+0xdc>)
 800095e:	f893 203a 	ldrb.w	r2, [r3, #58]	; 0x3a
 8000962:	4b0a      	ldr	r3, [pc, #40]	; (800098c <APC1_Read_Mea_Data+0xf0>)
 8000964:	f883 2024 	strb.w	r2, [r3, #36]	; 0x24

	return APC1_OK;
 8000968:	2300      	movs	r3, #0

}
 800096a:	4618      	mov	r0, r3
 800096c:	3710      	adds	r7, #16
 800096e:	46bd      	mov	sp, r7
 8000970:	bd80      	pop	{r7, pc}
 8000972:	bf00      	nop
 8000974:	20000000 	.word	0x20000000
 8000978:	200000a4 	.word	0x200000a4
 800097c:	20000184 	.word	0x20000184
 8000980:	2000000b 	.word	0x2000000b
 8000984:	20000108 	.word	0x20000108
 8000988:	2000010c 	.word	0x2000010c
 800098c:	20000110 	.word	0x20000110

08000990 <APC1_Check_Checksum>:

enum APC1_Status APC1_Check_Checksum(int limit, int low, int high) {
 8000990:	b480      	push	{r7}
 8000992:	b087      	sub	sp, #28
 8000994:	af00      	add	r7, sp, #0
 8000996:	60f8      	str	r0, [r7, #12]
 8000998:	60b9      	str	r1, [r7, #8]
 800099a:	607a      	str	r2, [r7, #4]

	int sum = 0;
 800099c:	2300      	movs	r3, #0
 800099e:	617b      	str	r3, [r7, #20]
	for (int i = 0; i<limit; i++) {
 80009a0:	2300      	movs	r3, #0
 80009a2:	613b      	str	r3, [r7, #16]
 80009a4:	e00a      	b.n	80009bc <APC1_Check_Checksum+0x2c>
		sum += buffer[i];
 80009a6:	4a12      	ldr	r2, [pc, #72]	; (80009f0 <APC1_Check_Checksum+0x60>)
 80009a8:	693b      	ldr	r3, [r7, #16]
 80009aa:	4413      	add	r3, r2
 80009ac:	781b      	ldrb	r3, [r3, #0]
 80009ae:	461a      	mov	r2, r3
 80009b0:	697b      	ldr	r3, [r7, #20]
 80009b2:	4413      	add	r3, r2
 80009b4:	617b      	str	r3, [r7, #20]
	for (int i = 0; i<limit; i++) {
 80009b6:	693b      	ldr	r3, [r7, #16]
 80009b8:	3301      	adds	r3, #1
 80009ba:	613b      	str	r3, [r7, #16]
 80009bc:	693a      	ldr	r2, [r7, #16]
 80009be:	68fb      	ldr	r3, [r7, #12]
 80009c0:	429a      	cmp	r2, r3
 80009c2:	dbf0      	blt.n	80009a6 <APC1_Check_Checksum+0x16>
	}

	return (APC1_Convert(buffer[low], buffer[high])) == sum ? APC1_OK : APC1_ERROR_CRC;
 80009c4:	4a0a      	ldr	r2, [pc, #40]	; (80009f0 <APC1_Check_Checksum+0x60>)
 80009c6:	68bb      	ldr	r3, [r7, #8]
 80009c8:	4413      	add	r3, r2
 80009ca:	781b      	ldrb	r3, [r3, #0]
 80009cc:	021b      	lsls	r3, r3, #8
 80009ce:	4908      	ldr	r1, [pc, #32]	; (80009f0 <APC1_Check_Checksum+0x60>)
 80009d0:	687a      	ldr	r2, [r7, #4]
 80009d2:	440a      	add	r2, r1
 80009d4:	7812      	ldrb	r2, [r2, #0]
 80009d6:	4313      	orrs	r3, r2
 80009d8:	697a      	ldr	r2, [r7, #20]
 80009da:	429a      	cmp	r2, r3
 80009dc:	d101      	bne.n	80009e2 <APC1_Check_Checksum+0x52>
 80009de:	2300      	movs	r3, #0
 80009e0:	e000      	b.n	80009e4 <APC1_Check_Checksum+0x54>
 80009e2:	2380      	movs	r3, #128	; 0x80

}
 80009e4:	4618      	mov	r0, r3
 80009e6:	371c      	adds	r7, #28
 80009e8:	46bd      	mov	sp, r7
 80009ea:	f85d 7b04 	ldr.w	r7, [sp], #4
 80009ee:	4770      	bx	lr
 80009f0:	200000a4 	.word	0x200000a4

080009f4 <APC1_Check_For_Error>:

enum APC1_Status APC1_Check_For_Error(void) {
 80009f4:	b480      	push	{r7}
 80009f6:	af00      	add	r7, sp, #0

	// TODO: needs fix for multiple errors
	switch (buffer[ERROR_OUTPUT_REGISTER]) {
 80009f8:	4b3e      	ldr	r3, [pc, #248]	; (8000af4 <APC1_Check_For_Error+0x100>)
 80009fa:	f893 303d 	ldrb.w	r3, [r3, #61]	; 0x3d
 80009fe:	2b20      	cmp	r3, #32
 8000a00:	dc48      	bgt.n	8000a94 <APC1_Check_For_Error+0xa0>
 8000a02:	2b00      	cmp	r3, #0
 8000a04:	dd6c      	ble.n	8000ae0 <APC1_Check_For_Error+0xec>
 8000a06:	3b01      	subs	r3, #1
 8000a08:	2b1f      	cmp	r3, #31
 8000a0a:	d869      	bhi.n	8000ae0 <APC1_Check_For_Error+0xec>
 8000a0c:	a201      	add	r2, pc, #4	; (adr r2, 8000a14 <APC1_Check_For_Error+0x20>)
 8000a0e:	f852 f023 	ldr.w	pc, [r2, r3, lsl #2]
 8000a12:	bf00      	nop
 8000a14:	08000a9b 	.word	0x08000a9b
 8000a18:	08000aa5 	.word	0x08000aa5
 8000a1c:	08000ae1 	.word	0x08000ae1
 8000a20:	08000aaf 	.word	0x08000aaf
 8000a24:	08000ae1 	.word	0x08000ae1
 8000a28:	08000ae1 	.word	0x08000ae1
 8000a2c:	08000ae1 	.word	0x08000ae1
 8000a30:	08000ab9 	.word	0x08000ab9
 8000a34:	08000ae1 	.word	0x08000ae1
 8000a38:	08000ae1 	.word	0x08000ae1
 8000a3c:	08000ae1 	.word	0x08000ae1
 8000a40:	08000ae1 	.word	0x08000ae1
 8000a44:	08000ae1 	.word	0x08000ae1
 8000a48:	08000ae1 	.word	0x08000ae1
 8000a4c:	08000ae1 	.word	0x08000ae1
 8000a50:	08000ac3 	.word	0x08000ac3
 8000a54:	08000ae1 	.word	0x08000ae1
 8000a58:	08000ae1 	.word	0x08000ae1
 8000a5c:	08000ae1 	.word	0x08000ae1
 8000a60:	08000ae1 	.word	0x08000ae1
 8000a64:	08000ae1 	.word	0x08000ae1
 8000a68:	08000ae1 	.word	0x08000ae1
 8000a6c:	08000ae1 	.word	0x08000ae1
 8000a70:	08000ae1 	.word	0x08000ae1
 8000a74:	08000ae1 	.word	0x08000ae1
 8000a78:	08000ae1 	.word	0x08000ae1
 8000a7c:	08000ae1 	.word	0x08000ae1
 8000a80:	08000ae1 	.word	0x08000ae1
 8000a84:	08000ae1 	.word	0x08000ae1
 8000a88:	08000ae1 	.word	0x08000ae1
 8000a8c:	08000ae1 	.word	0x08000ae1
 8000a90:	08000acd 	.word	0x08000acd
 8000a94:	2b40      	cmp	r3, #64	; 0x40
 8000a96:	d01e      	beq.n	8000ad6 <APC1_Check_For_Error+0xe2>
 8000a98:	e022      	b.n	8000ae0 <APC1_Check_For_Error+0xec>
		case APC1_ERROR_TOO_MANY_FAN_RESTARTS:
			err = 1;
 8000a9a:	4b17      	ldr	r3, [pc, #92]	; (8000af8 <APC1_Check_For_Error+0x104>)
 8000a9c:	2201      	movs	r2, #1
 8000a9e:	601a      	str	r2, [r3, #0]
			return APC1_ERROR_TOO_MANY_FAN_RESTARTS;
 8000aa0:	2301      	movs	r3, #1
 8000aa2:	e021      	b.n	8000ae8 <APC1_Check_For_Error+0xf4>
			break;
		case APC1_ERROR_FAN_SPEED_LOW:
			err = 2;
 8000aa4:	4b14      	ldr	r3, [pc, #80]	; (8000af8 <APC1_Check_For_Error+0x104>)
 8000aa6:	2202      	movs	r2, #2
 8000aa8:	601a      	str	r2, [r3, #0]
			return APC1_ERROR_FAN_SPEED_LOW;
 8000aaa:	2302      	movs	r3, #2
 8000aac:	e01c      	b.n	8000ae8 <APC1_Check_For_Error+0xf4>
			break;
		case APC1_ERROR_PHOTODIODE:
			err = 3;
 8000aae:	4b12      	ldr	r3, [pc, #72]	; (8000af8 <APC1_Check_For_Error+0x104>)
 8000ab0:	2203      	movs	r2, #3
 8000ab2:	601a      	str	r2, [r3, #0]
			return APC1_ERROR_PHOTODIODE;
 8000ab4:	2304      	movs	r3, #4
 8000ab6:	e017      	b.n	8000ae8 <APC1_Check_For_Error+0xf4>
			break;
		case APC1_ERROR_FAN_STOPPED:
			err = 4;
 8000ab8:	4b0f      	ldr	r3, [pc, #60]	; (8000af8 <APC1_Check_For_Error+0x104>)
 8000aba:	2204      	movs	r2, #4
 8000abc:	601a      	str	r2, [r3, #0]
			return APC1_ERROR_FAN_STOPPED;
 8000abe:	2308      	movs	r3, #8
 8000ac0:	e012      	b.n	8000ae8 <APC1_Check_For_Error+0xf4>
			break;
		case APC1_ERROR_LASER:
			err = 5;
 8000ac2:	4b0d      	ldr	r3, [pc, #52]	; (8000af8 <APC1_Check_For_Error+0x104>)
 8000ac4:	2205      	movs	r2, #5
 8000ac6:	601a      	str	r2, [r3, #0]
			return APC1_ERROR_LASER;
 8000ac8:	2310      	movs	r3, #16
 8000aca:	e00d      	b.n	8000ae8 <APC1_Check_For_Error+0xf4>
			break;
		case APC1_ERROR_VOC:
			err = 6;
 8000acc:	4b0a      	ldr	r3, [pc, #40]	; (8000af8 <APC1_Check_For_Error+0x104>)
 8000ace:	2206      	movs	r2, #6
 8000ad0:	601a      	str	r2, [r3, #0]
			return APC1_ERROR_VOC;
 8000ad2:	2320      	movs	r3, #32
 8000ad4:	e008      	b.n	8000ae8 <APC1_Check_For_Error+0xf4>
			break;
		case APC1_ERROR_RHT:
			err = 7;
 8000ad6:	4b08      	ldr	r3, [pc, #32]	; (8000af8 <APC1_Check_For_Error+0x104>)
 8000ad8:	2207      	movs	r2, #7
 8000ada:	601a      	str	r2, [r3, #0]
			return APC1_ERROR_RHT;
 8000adc:	2340      	movs	r3, #64	; 0x40
 8000ade:	e003      	b.n	8000ae8 <APC1_Check_For_Error+0xf4>
			break;
		default:
			err = 0;
 8000ae0:	4b05      	ldr	r3, [pc, #20]	; (8000af8 <APC1_Check_For_Error+0x104>)
 8000ae2:	2200      	movs	r2, #0
 8000ae4:	601a      	str	r2, [r3, #0]
			return APC1_OK;
 8000ae6:	2300      	movs	r3, #0
			break;
	}

}
 8000ae8:	4618      	mov	r0, r3
 8000aea:	46bd      	mov	sp, r7
 8000aec:	f85d 7b04 	ldr.w	r7, [sp], #4
 8000af0:	4770      	bx	lr
 8000af2:	bf00      	nop
 8000af4:	200000a4 	.word	0x200000a4
 8000af8:	2000010c 	.word	0x2000010c

08000afc <APC1_Set_Idle_Mode>:

enum APC1_Status APC1_Set_Idle_Mode(void) {
 8000afc:	b580      	push	{r7, lr}
 8000afe:	af00      	add	r7, sp, #0

	if (APC1_Receive_Response(&huart1, buffer, command[APC1_CMD_SET_IDLE_MODE].response_size) != HAL_OK) {
 8000b00:	4b13      	ldr	r3, [pc, #76]	; (8000b50 <APC1_Set_Idle_Mode+0x54>)
 8000b02:	f893 3036 	ldrb.w	r3, [r3, #54]	; 0x36
 8000b06:	b29b      	uxth	r3, r3
 8000b08:	461a      	mov	r2, r3
 8000b0a:	4912      	ldr	r1, [pc, #72]	; (8000b54 <APC1_Set_Idle_Mode+0x58>)
 8000b0c:	4812      	ldr	r0, [pc, #72]	; (8000b58 <APC1_Set_Idle_Mode+0x5c>)
 8000b0e:	f7ff feae 	bl	800086e <APC1_Receive_Response>
 8000b12:	4603      	mov	r3, r0
 8000b14:	2b00      	cmp	r3, #0
 8000b16:	d001      	beq.n	8000b1c <APC1_Set_Idle_Mode+0x20>
		Error_Handler();
 8000b18:	f000 fbb2 	bl	8001280 <Error_Handler>
	}

	if (APC1_Send_Command(&huart1, command[APC1_CMD_SET_IDLE_MODE].cmd) != HAL_OK) {
 8000b1c:	490f      	ldr	r1, [pc, #60]	; (8000b5c <APC1_Set_Idle_Mode+0x60>)
 8000b1e:	480e      	ldr	r0, [pc, #56]	; (8000b58 <APC1_Set_Idle_Mode+0x5c>)
 8000b20:	f7ff fe94 	bl	800084c <APC1_Send_Command>
 8000b24:	4603      	mov	r3, r0
 8000b26:	2b00      	cmp	r3, #0
 8000b28:	d001      	beq.n	8000b2e <APC1_Set_Idle_Mode+0x32>
		Error_Handler();
 8000b2a:	f000 fba9 	bl	8001280 <Error_Handler>
	}

	while (received_response == 0);
 8000b2e:	bf00      	nop
 8000b30:	4b0b      	ldr	r3, [pc, #44]	; (8000b60 <APC1_Set_Idle_Mode+0x64>)
 8000b32:	681b      	ldr	r3, [r3, #0]
 8000b34:	2b00      	cmp	r3, #0
 8000b36:	d0fb      	beq.n	8000b30 <APC1_Set_Idle_Mode+0x34>
	received_response = 0;
 8000b38:	4b09      	ldr	r3, [pc, #36]	; (8000b60 <APC1_Set_Idle_Mode+0x64>)
 8000b3a:	2200      	movs	r2, #0
 8000b3c:	601a      	str	r2, [r3, #0]

	return APC1_Check_Command_Answer(command[APC1_CMD_SET_IDLE_MODE]);
 8000b3e:	4b04      	ldr	r3, [pc, #16]	; (8000b50 <APC1_Set_Idle_Mode+0x54>)
 8000b40:	332c      	adds	r3, #44	; 0x2c
 8000b42:	e893 0007 	ldmia.w	r3, {r0, r1, r2}
 8000b46:	f000 f81f 	bl	8000b88 <APC1_Check_Command_Answer>
 8000b4a:	4603      	mov	r3, r0

}
 8000b4c:	4618      	mov	r0, r3
 8000b4e:	bd80      	pop	{r7, pc}
 8000b50:	20000000 	.word	0x20000000
 8000b54:	200000a4 	.word	0x200000a4
 8000b58:	20000184 	.word	0x20000184
 8000b5c:	2000002c 	.word	0x2000002c
 8000b60:	20000108 	.word	0x20000108

08000b64 <APC1_Set_Mea_Mode>:

	;

}

enum APC1_Status APC1_Set_Mea_Mode(void) {
 8000b64:	b580      	push	{r7, lr}
 8000b66:	af00      	add	r7, sp, #0

	//if (APC1_Receive_Response(&huart1, buffer, command[APC1_CMD_SET_MEA_MODE].response_size) != HAL_OK) {
	//	Error_Handler();
	//}

	if (APC1_Send_Command(&huart1, command[APC1_CMD_SET_MEA_MODE].cmd) != HAL_OK) {
 8000b68:	4905      	ldr	r1, [pc, #20]	; (8000b80 <APC1_Set_Mea_Mode+0x1c>)
 8000b6a:	4806      	ldr	r0, [pc, #24]	; (8000b84 <APC1_Set_Mea_Mode+0x20>)
 8000b6c:	f7ff fe6e 	bl	800084c <APC1_Send_Command>
 8000b70:	4603      	mov	r3, r0
 8000b72:	2b00      	cmp	r3, #0
 8000b74:	d001      	beq.n	8000b7a <APC1_Set_Mea_Mode+0x16>
		Error_Handler();
 8000b76:	f000 fb83 	bl	8001280 <Error_Handler>

	// TODO: no response here?
	// while (received_response == 0);
	// received_response = 0;

	return APC1_OK;
 8000b7a:	2300      	movs	r3, #0

}
 8000b7c:	4618      	mov	r0, r3
 8000b7e:	bd80      	pop	{r7, pc}
 8000b80:	20000037 	.word	0x20000037
 8000b84:	20000184 	.word	0x20000184

08000b88 <APC1_Check_Command_Answer>:

	return APC1_Check_Command_Answer(command[APC1_CMD_SET_PASSIVE_COMM]);

}

enum APC1_Status APC1_Check_Command_Answer(struct APC1_Command_Settings setting) {
 8000b88:	b580      	push	{r7, lr}
 8000b8a:	b084      	sub	sp, #16
 8000b8c:	af00      	add	r7, sp, #0
 8000b8e:	1d3b      	adds	r3, r7, #4
 8000b90:	e883 0007 	stmia.w	r3, {r0, r1, r2}

	if (setting.da_frame_lenght_l != buffer[ANSWER_FRAME_LENGTH_L] ||
 8000b94:	7afa      	ldrb	r2, [r7, #11]
 8000b96:	4b0d      	ldr	r3, [pc, #52]	; (8000bcc <APC1_Check_Command_Answer+0x44>)
 8000b98:	78db      	ldrb	r3, [r3, #3]
 8000b9a:	429a      	cmp	r2, r3
 8000b9c:	d109      	bne.n	8000bb2 <APC1_Check_Command_Answer+0x2a>
		setting.da_cmd_or_data != buffer[ANSWER_CMD] ||
 8000b9e:	7b3a      	ldrb	r2, [r7, #12]
 8000ba0:	4b0a      	ldr	r3, [pc, #40]	; (8000bcc <APC1_Check_Command_Answer+0x44>)
 8000ba2:	791b      	ldrb	r3, [r3, #4]
	if (setting.da_frame_lenght_l != buffer[ANSWER_FRAME_LENGTH_L] ||
 8000ba4:	429a      	cmp	r2, r3
 8000ba6:	d104      	bne.n	8000bb2 <APC1_Check_Command_Answer+0x2a>
		setting.da_modeL_or_data != buffer[ANSWER_DATA]) {
 8000ba8:	7b7a      	ldrb	r2, [r7, #13]
 8000baa:	4b08      	ldr	r3, [pc, #32]	; (8000bcc <APC1_Check_Command_Answer+0x44>)
 8000bac:	795b      	ldrb	r3, [r3, #5]
		setting.da_cmd_or_data != buffer[ANSWER_CMD] ||
 8000bae:	429a      	cmp	r2, r3
 8000bb0:	d001      	beq.n	8000bb6 <APC1_Check_Command_Answer+0x2e>
		return APC1_ERROR_CMD;
 8000bb2:	2381      	movs	r3, #129	; 0x81
 8000bb4:	e005      	b.n	8000bc2 <APC1_Check_Command_Answer+0x3a>
	}

	return APC1_Check_Checksum(SUM_OF_VALUES_CMD, CHECKSUM_LOW_CMD_ANSWER, CHECKSUM_HIGH_CMD_ANSWER);
 8000bb6:	2207      	movs	r2, #7
 8000bb8:	2106      	movs	r1, #6
 8000bba:	2006      	movs	r0, #6
 8000bbc:	f7ff fee8 	bl	8000990 <APC1_Check_Checksum>
 8000bc0:	4603      	mov	r3, r0

}
 8000bc2:	4618      	mov	r0, r3
 8000bc4:	3710      	adds	r7, #16
 8000bc6:	46bd      	mov	sp, r7
 8000bc8:	bd80      	pop	{r7, pc}
 8000bca:	bf00      	nop
 8000bcc:	200000a4 	.word	0x200000a4

08000bd0 <APC1_Get_PM1_0>:

uint16_t APC1_Get_PM1_0(void) {
 8000bd0:	b480      	push	{r7}
 8000bd2:	af00      	add	r7, sp, #0

	return processed_data.pm1_0;
 8000bd4:	4b03      	ldr	r3, [pc, #12]	; (8000be4 <APC1_Get_PM1_0+0x14>)
 8000bd6:	881b      	ldrh	r3, [r3, #0]

}
 8000bd8:	4618      	mov	r0, r3
 8000bda:	46bd      	mov	sp, r7
 8000bdc:	f85d 7b04 	ldr.w	r7, [sp], #4
 8000be0:	4770      	bx	lr
 8000be2:	bf00      	nop
 8000be4:	20000110 	.word	0x20000110

08000be8 <APC1_Get_PM2_5>:

uint16_t APC1_Get_PM2_5(void) {
 8000be8:	b480      	push	{r7}
 8000bea:	af00      	add	r7, sp, #0

	return processed_data.pm2_5;
 8000bec:	4b03      	ldr	r3, [pc, #12]	; (8000bfc <APC1_Get_PM2_5+0x14>)
 8000bee:	885b      	ldrh	r3, [r3, #2]

}
 8000bf0:	4618      	mov	r0, r3
 8000bf2:	46bd      	mov	sp, r7
 8000bf4:	f85d 7b04 	ldr.w	r7, [sp], #4
 8000bf8:	4770      	bx	lr
 8000bfa:	bf00      	nop
 8000bfc:	20000110 	.word	0x20000110

08000c00 <APC1_Get_PM10>:

uint16_t APC1_Get_PM10(void) {
 8000c00:	b480      	push	{r7}
 8000c02:	af00      	add	r7, sp, #0

	return processed_data.pm10;
 8000c04:	4b03      	ldr	r3, [pc, #12]	; (8000c14 <APC1_Get_PM10+0x14>)
 8000c06:	889b      	ldrh	r3, [r3, #4]

}
 8000c08:	4618      	mov	r0, r3
 8000c0a:	46bd      	mov	sp, r7
 8000c0c:	f85d 7b04 	ldr.w	r7, [sp], #4
 8000c10:	4770      	bx	lr
 8000c12:	bf00      	nop
 8000c14:	20000110 	.word	0x20000110

08000c18 <APC1_Get_PM1_0_air>:

uint16_t APC1_Get_PM1_0_air(void) {
 8000c18:	b480      	push	{r7}
 8000c1a:	af00      	add	r7, sp, #0

	return processed_data.pm1_0_air;
 8000c1c:	4b03      	ldr	r3, [pc, #12]	; (8000c2c <APC1_Get_PM1_0_air+0x14>)
 8000c1e:	88db      	ldrh	r3, [r3, #6]

}
 8000c20:	4618      	mov	r0, r3
 8000c22:	46bd      	mov	sp, r7
 8000c24:	f85d 7b04 	ldr.w	r7, [sp], #4
 8000c28:	4770      	bx	lr
 8000c2a:	bf00      	nop
 8000c2c:	20000110 	.word	0x20000110

08000c30 <APC1_Get_PM2_5_air>:

uint16_t APC1_Get_PM2_5_air(void) {
 8000c30:	b480      	push	{r7}
 8000c32:	af00      	add	r7, sp, #0

	return processed_data.pm2_5_air;
 8000c34:	4b03      	ldr	r3, [pc, #12]	; (8000c44 <APC1_Get_PM2_5_air+0x14>)
 8000c36:	891b      	ldrh	r3, [r3, #8]

}
 8000c38:	4618      	mov	r0, r3
 8000c3a:	46bd      	mov	sp, r7
 8000c3c:	f85d 7b04 	ldr.w	r7, [sp], #4
 8000c40:	4770      	bx	lr
 8000c42:	bf00      	nop
 8000c44:	20000110 	.word	0x20000110

08000c48 <APC1_Get_PM10_air>:

uint16_t APC1_Get_PM10_air(void) {
 8000c48:	b480      	push	{r7}
 8000c4a:	af00      	add	r7, sp, #0

	return processed_data.pm10_air;
 8000c4c:	4b03      	ldr	r3, [pc, #12]	; (8000c5c <APC1_Get_PM10_air+0x14>)
 8000c4e:	895b      	ldrh	r3, [r3, #10]

}
 8000c50:	4618      	mov	r0, r3
 8000c52:	46bd      	mov	sp, r7
 8000c54:	f85d 7b04 	ldr.w	r7, [sp], #4
 8000c58:	4770      	bx	lr
 8000c5a:	bf00      	nop
 8000c5c:	20000110 	.word	0x20000110

08000c60 <APC1_Get_Particles_GT_0_3>:

uint16_t APC1_Get_Particles_GT_0_3(void) {
 8000c60:	b480      	push	{r7}
 8000c62:	af00      	add	r7, sp, #0

	return processed_data.particles_0_3;
 8000c64:	4b03      	ldr	r3, [pc, #12]	; (8000c74 <APC1_Get_Particles_GT_0_3+0x14>)
 8000c66:	899b      	ldrh	r3, [r3, #12]

}
 8000c68:	4618      	mov	r0, r3
 8000c6a:	46bd      	mov	sp, r7
 8000c6c:	f85d 7b04 	ldr.w	r7, [sp], #4
 8000c70:	4770      	bx	lr
 8000c72:	bf00      	nop
 8000c74:	20000110 	.word	0x20000110

08000c78 <APC1_Get_Particles_GT_0_5>:

uint16_t APC1_Get_Particles_GT_0_5(void) {
 8000c78:	b480      	push	{r7}
 8000c7a:	af00      	add	r7, sp, #0

	return processed_data.particles_0_5 - processed_data.particles_0_3;
 8000c7c:	4b05      	ldr	r3, [pc, #20]	; (8000c94 <APC1_Get_Particles_GT_0_5+0x1c>)
 8000c7e:	89da      	ldrh	r2, [r3, #14]
 8000c80:	4b04      	ldr	r3, [pc, #16]	; (8000c94 <APC1_Get_Particles_GT_0_5+0x1c>)
 8000c82:	899b      	ldrh	r3, [r3, #12]
 8000c84:	1ad3      	subs	r3, r2, r3
 8000c86:	b29b      	uxth	r3, r3

}
 8000c88:	4618      	mov	r0, r3
 8000c8a:	46bd      	mov	sp, r7
 8000c8c:	f85d 7b04 	ldr.w	r7, [sp], #4
 8000c90:	4770      	bx	lr
 8000c92:	bf00      	nop
 8000c94:	20000110 	.word	0x20000110

08000c98 <APC1_Get_Particles_GT_1_0>:

uint16_t APC1_Get_Particles_GT_1_0(void) {
 8000c98:	b480      	push	{r7}
 8000c9a:	af00      	add	r7, sp, #0

	return processed_data.particles_1_0 - processed_data.particles_0_3;
 8000c9c:	4b05      	ldr	r3, [pc, #20]	; (8000cb4 <APC1_Get_Particles_GT_1_0+0x1c>)
 8000c9e:	8a1a      	ldrh	r2, [r3, #16]
 8000ca0:	4b04      	ldr	r3, [pc, #16]	; (8000cb4 <APC1_Get_Particles_GT_1_0+0x1c>)
 8000ca2:	899b      	ldrh	r3, [r3, #12]
 8000ca4:	1ad3      	subs	r3, r2, r3
 8000ca6:	b29b      	uxth	r3, r3

}
 8000ca8:	4618      	mov	r0, r3
 8000caa:	46bd      	mov	sp, r7
 8000cac:	f85d 7b04 	ldr.w	r7, [sp], #4
 8000cb0:	4770      	bx	lr
 8000cb2:	bf00      	nop
 8000cb4:	20000110 	.word	0x20000110

08000cb8 <APC1_Get_Particles_GT_2_5>:

uint16_t APC1_Get_Particles_GT_2_5(void) {
 8000cb8:	b480      	push	{r7}
 8000cba:	af00      	add	r7, sp, #0

	return processed_data.particles_2_5 - processed_data.particles_0_3;
 8000cbc:	4b05      	ldr	r3, [pc, #20]	; (8000cd4 <APC1_Get_Particles_GT_2_5+0x1c>)
 8000cbe:	8a5a      	ldrh	r2, [r3, #18]
 8000cc0:	4b04      	ldr	r3, [pc, #16]	; (8000cd4 <APC1_Get_Particles_GT_2_5+0x1c>)
 8000cc2:	899b      	ldrh	r3, [r3, #12]
 8000cc4:	1ad3      	subs	r3, r2, r3
 8000cc6:	b29b      	uxth	r3, r3

}
 8000cc8:	4618      	mov	r0, r3
 8000cca:	46bd      	mov	sp, r7
 8000ccc:	f85d 7b04 	ldr.w	r7, [sp], #4
 8000cd0:	4770      	bx	lr
 8000cd2:	bf00      	nop
 8000cd4:	20000110 	.word	0x20000110

08000cd8 <APC1_Get_Particles_GT_5_0>:

uint16_t APC1_Get_Particles_GT_5_0(void) {
 8000cd8:	b480      	push	{r7}
 8000cda:	af00      	add	r7, sp, #0

	return processed_data.particles_5_0 - processed_data.particles_0_3;
 8000cdc:	4b05      	ldr	r3, [pc, #20]	; (8000cf4 <APC1_Get_Particles_GT_5_0+0x1c>)
 8000cde:	8a9a      	ldrh	r2, [r3, #20]
 8000ce0:	4b04      	ldr	r3, [pc, #16]	; (8000cf4 <APC1_Get_Particles_GT_5_0+0x1c>)
 8000ce2:	899b      	ldrh	r3, [r3, #12]
 8000ce4:	1ad3      	subs	r3, r2, r3
 8000ce6:	b29b      	uxth	r3, r3

}
 8000ce8:	4618      	mov	r0, r3
 8000cea:	46bd      	mov	sp, r7
 8000cec:	f85d 7b04 	ldr.w	r7, [sp], #4
 8000cf0:	4770      	bx	lr
 8000cf2:	bf00      	nop
 8000cf4:	20000110 	.word	0x20000110

08000cf8 <APC1_Get_Particles_GT_10>:

uint16_t APC1_Get_Particles_GT_10(void) {
 8000cf8:	b480      	push	{r7}
 8000cfa:	af00      	add	r7, sp, #0

	return processed_data.particles_10 - processed_data.particles_0_3;
 8000cfc:	4b05      	ldr	r3, [pc, #20]	; (8000d14 <APC1_Get_Particles_GT_10+0x1c>)
 8000cfe:	8ada      	ldrh	r2, [r3, #22]
 8000d00:	4b04      	ldr	r3, [pc, #16]	; (8000d14 <APC1_Get_Particles_GT_10+0x1c>)
 8000d02:	899b      	ldrh	r3, [r3, #12]
 8000d04:	1ad3      	subs	r3, r2, r3
 8000d06:	b29b      	uxth	r3, r3

}
 8000d08:	4618      	mov	r0, r3
 8000d0a:	46bd      	mov	sp, r7
 8000d0c:	f85d 7b04 	ldr.w	r7, [sp], #4
 8000d10:	4770      	bx	lr
 8000d12:	bf00      	nop
 8000d14:	20000110 	.word	0x20000110

08000d18 <APC1_Get_TVOC>:

uint16_t APC1_Get_TVOC(void) {
 8000d18:	b480      	push	{r7}
 8000d1a:	af00      	add	r7, sp, #0

	return processed_data.TVOC;
 8000d1c:	4b03      	ldr	r3, [pc, #12]	; (8000d2c <APC1_Get_TVOC+0x14>)
 8000d1e:	8b1b      	ldrh	r3, [r3, #24]

}
 8000d20:	4618      	mov	r0, r3
 8000d22:	46bd      	mov	sp, r7
 8000d24:	f85d 7b04 	ldr.w	r7, [sp], #4
 8000d28:	4770      	bx	lr
 8000d2a:	bf00      	nop
 8000d2c:	20000110 	.word	0x20000110

08000d30 <APC1_Get_eCO2>:

uint16_t APC1_Get_eCO2(void) {
 8000d30:	b480      	push	{r7}
 8000d32:	af00      	add	r7, sp, #0

	return processed_data.eCO2;
 8000d34:	4b03      	ldr	r3, [pc, #12]	; (8000d44 <APC1_Get_eCO2+0x14>)
 8000d36:	8b5b      	ldrh	r3, [r3, #26]

}
 8000d38:	4618      	mov	r0, r3
 8000d3a:	46bd      	mov	sp, r7
 8000d3c:	f85d 7b04 	ldr.w	r7, [sp], #4
 8000d40:	4770      	bx	lr
 8000d42:	bf00      	nop
 8000d44:	20000110 	.word	0x20000110

08000d48 <APC1_Get_T_Comp>:

double APC1_Get_T_Comp(void) {
 8000d48:	b580      	push	{r7, lr}
 8000d4a:	af00      	add	r7, sp, #0

	return processed_data.t_comp * 0.1f;
 8000d4c:	4b0b      	ldr	r3, [pc, #44]	; (8000d7c <APC1_Get_T_Comp+0x34>)
 8000d4e:	8b9b      	ldrh	r3, [r3, #28]
 8000d50:	ee07 3a90 	vmov	s15, r3
 8000d54:	eef8 7ae7 	vcvt.f32.s32	s15, s15
 8000d58:	ed9f 7a09 	vldr	s14, [pc, #36]	; 8000d80 <APC1_Get_T_Comp+0x38>
 8000d5c:	ee67 7a87 	vmul.f32	s15, s15, s14
 8000d60:	ee17 0a90 	vmov	r0, s15
 8000d64:	f7ff fb9c 	bl	80004a0 <__aeabi_f2d>
 8000d68:	4602      	mov	r2, r0
 8000d6a:	460b      	mov	r3, r1
 8000d6c:	ec43 2b17 	vmov	d7, r2, r3

}
 8000d70:	eeb0 0a47 	vmov.f32	s0, s14
 8000d74:	eef0 0a67 	vmov.f32	s1, s15
 8000d78:	bd80      	pop	{r7, pc}
 8000d7a:	bf00      	nop
 8000d7c:	20000110 	.word	0x20000110
 8000d80:	3dcccccd 	.word	0x3dcccccd

08000d84 <APC1_Get_RH_Comp>:

double APC1_Get_RH_Comp(void) {
 8000d84:	b580      	push	{r7, lr}
 8000d86:	af00      	add	r7, sp, #0

	return processed_data.rh_comp * 0.1f;
 8000d88:	4b0b      	ldr	r3, [pc, #44]	; (8000db8 <APC1_Get_RH_Comp+0x34>)
 8000d8a:	8bdb      	ldrh	r3, [r3, #30]
 8000d8c:	ee07 3a90 	vmov	s15, r3
 8000d90:	eef8 7ae7 	vcvt.f32.s32	s15, s15
 8000d94:	ed9f 7a09 	vldr	s14, [pc, #36]	; 8000dbc <APC1_Get_RH_Comp+0x38>
 8000d98:	ee67 7a87 	vmul.f32	s15, s15, s14
 8000d9c:	ee17 0a90 	vmov	r0, s15
 8000da0:	f7ff fb7e 	bl	80004a0 <__aeabi_f2d>
 8000da4:	4602      	mov	r2, r0
 8000da6:	460b      	mov	r3, r1
 8000da8:	ec43 2b17 	vmov	d7, r2, r3

}
 8000dac:	eeb0 0a47 	vmov.f32	s0, s14
 8000db0:	eef0 0a67 	vmov.f32	s1, s15
 8000db4:	bd80      	pop	{r7, pc}
 8000db6:	bf00      	nop
 8000db8:	20000110 	.word	0x20000110
 8000dbc:	3dcccccd 	.word	0x3dcccccd

08000dc0 <APC1_Get_T_Raw>:

double APC1_Get_T_Raw(void) {
 8000dc0:	b580      	push	{r7, lr}
 8000dc2:	af00      	add	r7, sp, #0

	return processed_data.t_raw * 0.1f;
 8000dc4:	4b0b      	ldr	r3, [pc, #44]	; (8000df4 <APC1_Get_T_Raw+0x34>)
 8000dc6:	8c1b      	ldrh	r3, [r3, #32]
 8000dc8:	ee07 3a90 	vmov	s15, r3
 8000dcc:	eef8 7ae7 	vcvt.f32.s32	s15, s15
 8000dd0:	ed9f 7a09 	vldr	s14, [pc, #36]	; 8000df8 <APC1_Get_T_Raw+0x38>
 8000dd4:	ee67 7a87 	vmul.f32	s15, s15, s14
 8000dd8:	ee17 0a90 	vmov	r0, s15
 8000ddc:	f7ff fb60 	bl	80004a0 <__aeabi_f2d>
 8000de0:	4602      	mov	r2, r0
 8000de2:	460b      	mov	r3, r1
 8000de4:	ec43 2b17 	vmov	d7, r2, r3

}
 8000de8:	eeb0 0a47 	vmov.f32	s0, s14
 8000dec:	eef0 0a67 	vmov.f32	s1, s15
 8000df0:	bd80      	pop	{r7, pc}
 8000df2:	bf00      	nop
 8000df4:	20000110 	.word	0x20000110
 8000df8:	3dcccccd 	.word	0x3dcccccd

08000dfc <APC1_Get_RH_Raw>:

double APC1_Get_RH_Raw(void) {
 8000dfc:	b580      	push	{r7, lr}
 8000dfe:	af00      	add	r7, sp, #0

	return processed_data.rh_raw * 0.1f;
 8000e00:	4b0b      	ldr	r3, [pc, #44]	; (8000e30 <APC1_Get_RH_Raw+0x34>)
 8000e02:	8c5b      	ldrh	r3, [r3, #34]	; 0x22
 8000e04:	ee07 3a90 	vmov	s15, r3
 8000e08:	eef8 7ae7 	vcvt.f32.s32	s15, s15
 8000e0c:	ed9f 7a09 	vldr	s14, [pc, #36]	; 8000e34 <APC1_Get_RH_Raw+0x38>
 8000e10:	ee67 7a87 	vmul.f32	s15, s15, s14
 8000e14:	ee17 0a90 	vmov	r0, s15
 8000e18:	f7ff fb42 	bl	80004a0 <__aeabi_f2d>
 8000e1c:	4602      	mov	r2, r0
 8000e1e:	460b      	mov	r3, r1
 8000e20:	ec43 2b17 	vmov	d7, r2, r3

}
 8000e24:	eeb0 0a47 	vmov.f32	s0, s14
 8000e28:	eef0 0a67 	vmov.f32	s1, s15
 8000e2c:	bd80      	pop	{r7, pc}
 8000e2e:	bf00      	nop
 8000e30:	20000110 	.word	0x20000110
 8000e34:	3dcccccd 	.word	0x3dcccccd

08000e38 <APC1_Get_AQI>:

uint8_t	APC1_Get_AQI(void) {
 8000e38:	b480      	push	{r7}
 8000e3a:	af00      	add	r7, sp, #0

	return processed_data.aqi;
 8000e3c:	4b03      	ldr	r3, [pc, #12]	; (8000e4c <APC1_Get_AQI+0x14>)
 8000e3e:	f893 3024 	ldrb.w	r3, [r3, #36]	; 0x24

}
 8000e42:	4618      	mov	r0, r3
 8000e44:	46bd      	mov	sp, r7
 8000e46:	f85d 7b04 	ldr.w	r7, [sp], #4
 8000e4a:	4770      	bx	lr
 8000e4c:	20000110 	.word	0x20000110

08000e50 <APC1_Get_AQI_String>:

const char *APC1_Get_AQI_String(void) {
 8000e50:	b580      	push	{r7, lr}
 8000e52:	b082      	sub	sp, #8
 8000e54:	af00      	add	r7, sp, #0

	// if somehow we get a wrong index
	uint8_t index = APC1_Get_AQI();
 8000e56:	f7ff ffef 	bl	8000e38 <APC1_Get_AQI>
 8000e5a:	4603      	mov	r3, r0
 8000e5c:	71fb      	strb	r3, [r7, #7]
	return (index <= 5 && index >= 1) ? APC1_AQI_Strings[index - 1] : "Error";
 8000e5e:	79fb      	ldrb	r3, [r7, #7]
 8000e60:	2b05      	cmp	r3, #5
 8000e62:	d808      	bhi.n	8000e76 <APC1_Get_AQI_String+0x26>
 8000e64:	79fb      	ldrb	r3, [r7, #7]
 8000e66:	2b00      	cmp	r3, #0
 8000e68:	d005      	beq.n	8000e76 <APC1_Get_AQI_String+0x26>
 8000e6a:	79fb      	ldrb	r3, [r7, #7]
 8000e6c:	3b01      	subs	r3, #1
 8000e6e:	4a04      	ldr	r2, [pc, #16]	; (8000e80 <APC1_Get_AQI_String+0x30>)
 8000e70:	f852 3023 	ldr.w	r3, [r2, r3, lsl #2]
 8000e74:	e000      	b.n	8000e78 <APC1_Get_AQI_String+0x28>
 8000e76:	4b03      	ldr	r3, [pc, #12]	; (8000e84 <APC1_Get_AQI_String+0x34>)

}
 8000e78:	4618      	mov	r0, r3
 8000e7a:	3708      	adds	r7, #8
 8000e7c:	46bd      	mov	sp, r7
 8000e7e:	bd80      	pop	{r7, pc}
 8000e80:	20000044 	.word	0x20000044
 8000e84:	08003798 	.word	0x08003798

08000e88 <APC1_Get_Error_String>:

const char *APC1_Get_Error_String(void) {
 8000e88:	b480      	push	{r7}
 8000e8a:	af00      	add	r7, sp, #0

	return APC1_Status_Strings[err];
 8000e8c:	4b04      	ldr	r3, [pc, #16]	; (8000ea0 <APC1_Get_Error_String+0x18>)
 8000e8e:	681b      	ldr	r3, [r3, #0]
 8000e90:	4a04      	ldr	r2, [pc, #16]	; (8000ea4 <APC1_Get_Error_String+0x1c>)
 8000e92:	f852 3023 	ldr.w	r3, [r2, r3, lsl #2]

}
 8000e96:	4618      	mov	r0, r3
 8000e98:	46bd      	mov	sp, r7
 8000e9a:	f85d 7b04 	ldr.w	r7, [sp], #4
 8000e9e:	4770      	bx	lr
 8000ea0:	2000010c 	.word	0x2000010c
 8000ea4:	20000058 	.word	0x20000058

08000ea8 <HAL_UART_RxCpltCallback>:

void HAL_UART_RxCpltCallback(UART_HandleTypeDef *huart) {
 8000ea8:	b480      	push	{r7}
 8000eaa:	b083      	sub	sp, #12
 8000eac:	af00      	add	r7, sp, #0
 8000eae:	6078      	str	r0, [r7, #4]

	if (huart->Instance == USART1) {
 8000eb0:	687b      	ldr	r3, [r7, #4]
 8000eb2:	681b      	ldr	r3, [r3, #0]
 8000eb4:	4a05      	ldr	r2, [pc, #20]	; (8000ecc <HAL_UART_RxCpltCallback+0x24>)
 8000eb6:	4293      	cmp	r3, r2
 8000eb8:	d102      	bne.n	8000ec0 <HAL_UART_RxCpltCallback+0x18>
		received_response = 1;
 8000eba:	4b05      	ldr	r3, [pc, #20]	; (8000ed0 <HAL_UART_RxCpltCallback+0x28>)
 8000ebc:	2201      	movs	r2, #1
 8000ebe:	601a      	str	r2, [r3, #0]
	}

}
 8000ec0:	bf00      	nop
 8000ec2:	370c      	adds	r7, #12
 8000ec4:	46bd      	mov	sp, r7
 8000ec6:	f85d 7b04 	ldr.w	r7, [sp], #4
 8000eca:	4770      	bx	lr
 8000ecc:	40011000 	.word	0x40011000
 8000ed0:	20000108 	.word	0x20000108

08000ed4 <main>:
/**
  * @brief  The application entry point.
  * @retval int
  */
int main(void)
{
 8000ed4:	b580      	push	{r7, lr}
 8000ed6:	af00      	add	r7, sp, #0
  /* USER CODE END 1 */

  /* MCU Configuration--------------------------------------------------------*/

  /* Reset of all peripherals, Initializes the Flash interface and the Systick. */
  HAL_Init();
 8000ed8:	f000 fac6 	bl	8001468 <HAL_Init>
  /* USER CODE BEGIN Init */

  /* USER CODE END Init */

  /* Configure the system clock */
  SystemClock_Config();
 8000edc:	f000 f8ce 	bl	800107c <SystemClock_Config>
  /* USER CODE BEGIN SysInit */

  /* USER CODE END SysInit */

  /* Initialize all configured peripherals */
  MX_GPIO_Init();
 8000ee0:	f000 f960 	bl	80011a4 <MX_GPIO_Init>
  MX_USART1_UART_Init();
 8000ee4:	f000 f934 	bl	8001150 <MX_USART1_UART_Init>
  /* USER CODE BEGIN 2 */

  // HAL_Delay(10000);
  APC1_Set_Idle_Mode();
 8000ee8:	f7ff fe08 	bl	8000afc <APC1_Set_Idle_Mode>
  HAL_Delay(10000);
 8000eec:	f242 7010 	movw	r0, #10000	; 0x2710
 8000ef0:	f000 fb2c 	bl	800154c <HAL_Delay>
  APC1_Set_Mea_Mode();
 8000ef4:	f7ff fe36 	bl	8000b64 <APC1_Set_Mea_Mode>
  HAL_Delay(2000);
 8000ef8:	f44f 60fa 	mov.w	r0, #2000	; 0x7d0
 8000efc:	f000 fb26 	bl	800154c <HAL_Delay>

  /* Infinite loop */
  /* USER CODE BEGIN WHILE */
  while (1)
  {
	  if (APC1_Read_Mea_Data() != APC1_OK) {
 8000f00:	f7ff fccc 	bl	800089c <APC1_Read_Mea_Data>
 8000f04:	4603      	mov	r3, r0
 8000f06:	2b00      	cmp	r3, #0
 8000f08:	d001      	beq.n	8000f0e <main+0x3a>
		  Error_Handler();
 8000f0a:	f000 f9b9 	bl	8001280 <Error_Handler>
	  }
	  T_pm1_0 = APC1_Get_PM1_0();
 8000f0e:	f7ff fe5f 	bl	8000bd0 <APC1_Get_PM1_0>
 8000f12:	4603      	mov	r3, r0
 8000f14:	461a      	mov	r2, r3
 8000f16:	4b44      	ldr	r3, [pc, #272]	; (8001028 <main+0x154>)
 8000f18:	801a      	strh	r2, [r3, #0]
	  T_pm2_5 = APC1_Get_PM2_5();
 8000f1a:	f7ff fe65 	bl	8000be8 <APC1_Get_PM2_5>
 8000f1e:	4603      	mov	r3, r0
 8000f20:	461a      	mov	r2, r3
 8000f22:	4b42      	ldr	r3, [pc, #264]	; (800102c <main+0x158>)
 8000f24:	801a      	strh	r2, [r3, #0]
	  T_pm10 = APC1_Get_PM10();
 8000f26:	f7ff fe6b 	bl	8000c00 <APC1_Get_PM10>
 8000f2a:	4603      	mov	r3, r0
 8000f2c:	461a      	mov	r2, r3
 8000f2e:	4b40      	ldr	r3, [pc, #256]	; (8001030 <main+0x15c>)
 8000f30:	801a      	strh	r2, [r3, #0]
	  T_pm1_0_air = APC1_Get_PM1_0_air();
 8000f32:	f7ff fe71 	bl	8000c18 <APC1_Get_PM1_0_air>
 8000f36:	4603      	mov	r3, r0
 8000f38:	461a      	mov	r2, r3
 8000f3a:	4b3e      	ldr	r3, [pc, #248]	; (8001034 <main+0x160>)
 8000f3c:	801a      	strh	r2, [r3, #0]
	  T_pm2_5_air = APC1_Get_PM2_5_air();
 8000f3e:	f7ff fe77 	bl	8000c30 <APC1_Get_PM2_5_air>
 8000f42:	4603      	mov	r3, r0
 8000f44:	461a      	mov	r2, r3
 8000f46:	4b3c      	ldr	r3, [pc, #240]	; (8001038 <main+0x164>)
 8000f48:	801a      	strh	r2, [r3, #0]
	  T_pm10_air = APC1_Get_PM10_air();
 8000f4a:	f7ff fe7d 	bl	8000c48 <APC1_Get_PM10_air>
 8000f4e:	4603      	mov	r3, r0
 8000f50:	461a      	mov	r2, r3
 8000f52:	4b3a      	ldr	r3, [pc, #232]	; (800103c <main+0x168>)
 8000f54:	801a      	strh	r2, [r3, #0]
	  T_particles_0_3 = APC1_Get_Particles_GT_0_3();
 8000f56:	f7ff fe83 	bl	8000c60 <APC1_Get_Particles_GT_0_3>
 8000f5a:	4603      	mov	r3, r0
 8000f5c:	461a      	mov	r2, r3
 8000f5e:	4b38      	ldr	r3, [pc, #224]	; (8001040 <main+0x16c>)
 8000f60:	801a      	strh	r2, [r3, #0]
	  T_particles_0_5 = APC1_Get_Particles_GT_0_5();
 8000f62:	f7ff fe89 	bl	8000c78 <APC1_Get_Particles_GT_0_5>
 8000f66:	4603      	mov	r3, r0
 8000f68:	461a      	mov	r2, r3
 8000f6a:	4b36      	ldr	r3, [pc, #216]	; (8001044 <main+0x170>)
 8000f6c:	801a      	strh	r2, [r3, #0]
	  T_particles_1_0 = APC1_Get_Particles_GT_1_0();
 8000f6e:	f7ff fe93 	bl	8000c98 <APC1_Get_Particles_GT_1_0>
 8000f72:	4603      	mov	r3, r0
 8000f74:	461a      	mov	r2, r3
 8000f76:	4b34      	ldr	r3, [pc, #208]	; (8001048 <main+0x174>)
 8000f78:	801a      	strh	r2, [r3, #0]
	  T_particles_2_5 = APC1_Get_Particles_GT_2_5();
 8000f7a:	f7ff fe9d 	bl	8000cb8 <APC1_Get_Particles_GT_2_5>
 8000f7e:	4603      	mov	r3, r0
 8000f80:	461a      	mov	r2, r3
 8000f82:	4b32      	ldr	r3, [pc, #200]	; (800104c <main+0x178>)
 8000f84:	801a      	strh	r2, [r3, #0]
	  T_particles_5_0 = APC1_Get_Particles_GT_5_0();
 8000f86:	f7ff fea7 	bl	8000cd8 <APC1_Get_Particles_GT_5_0>
 8000f8a:	4603      	mov	r3, r0
 8000f8c:	461a      	mov	r2, r3
 8000f8e:	4b30      	ldr	r3, [pc, #192]	; (8001050 <main+0x17c>)
 8000f90:	801a      	strh	r2, [r3, #0]
	  T_particles_10 = APC1_Get_Particles_GT_10();
 8000f92:	f7ff feb1 	bl	8000cf8 <APC1_Get_Particles_GT_10>
 8000f96:	4603      	mov	r3, r0
 8000f98:	461a      	mov	r2, r3
 8000f9a:	4b2e      	ldr	r3, [pc, #184]	; (8001054 <main+0x180>)
 8000f9c:	801a      	strh	r2, [r3, #0]
	  T_TVOC = APC1_Get_TVOC();
 8000f9e:	f7ff febb 	bl	8000d18 <APC1_Get_TVOC>
 8000fa2:	4603      	mov	r3, r0
 8000fa4:	461a      	mov	r2, r3
 8000fa6:	4b2c      	ldr	r3, [pc, #176]	; (8001058 <main+0x184>)
 8000fa8:	801a      	strh	r2, [r3, #0]
	  T_eCO2 = APC1_Get_eCO2();
 8000faa:	f7ff fec1 	bl	8000d30 <APC1_Get_eCO2>
 8000fae:	4603      	mov	r3, r0
 8000fb0:	461a      	mov	r2, r3
 8000fb2:	4b2a      	ldr	r3, [pc, #168]	; (800105c <main+0x188>)
 8000fb4:	801a      	strh	r2, [r3, #0]
	  T_t_comp = APC1_Get_T_Comp();
 8000fb6:	f7ff fec7 	bl	8000d48 <APC1_Get_T_Comp>
 8000fba:	eeb0 7a40 	vmov.f32	s14, s0
 8000fbe:	eef0 7a60 	vmov.f32	s15, s1
 8000fc2:	4b27      	ldr	r3, [pc, #156]	; (8001060 <main+0x18c>)
 8000fc4:	ed83 7b00 	vstr	d7, [r3]
	  T_rh_comp = APC1_Get_RH_Comp();
 8000fc8:	f7ff fedc 	bl	8000d84 <APC1_Get_RH_Comp>
 8000fcc:	eeb0 7a40 	vmov.f32	s14, s0
 8000fd0:	eef0 7a60 	vmov.f32	s15, s1
 8000fd4:	4b23      	ldr	r3, [pc, #140]	; (8001064 <main+0x190>)
 8000fd6:	ed83 7b00 	vstr	d7, [r3]
	  T_t_raw = APC1_Get_T_Raw();
 8000fda:	f7ff fef1 	bl	8000dc0 <APC1_Get_T_Raw>
 8000fde:	eeb0 7a40 	vmov.f32	s14, s0
 8000fe2:	eef0 7a60 	vmov.f32	s15, s1
 8000fe6:	4b20      	ldr	r3, [pc, #128]	; (8001068 <main+0x194>)
 8000fe8:	ed83 7b00 	vstr	d7, [r3]
	  T_rh_raw = APC1_Get_RH_Raw();
 8000fec:	f7ff ff06 	bl	8000dfc <APC1_Get_RH_Raw>
 8000ff0:	eeb0 7a40 	vmov.f32	s14, s0
 8000ff4:	eef0 7a60 	vmov.f32	s15, s1
 8000ff8:	4b1c      	ldr	r3, [pc, #112]	; (800106c <main+0x198>)
 8000ffa:	ed83 7b00 	vstr	d7, [r3]
	  T_aqi = APC1_Get_AQI();
 8000ffe:	f7ff ff1b 	bl	8000e38 <APC1_Get_AQI>
 8001002:	4603      	mov	r3, r0
 8001004:	461a      	mov	r2, r3
 8001006:	4b1a      	ldr	r3, [pc, #104]	; (8001070 <main+0x19c>)
 8001008:	701a      	strb	r2, [r3, #0]
	  aqi_string = APC1_Get_AQI_String();
 800100a:	f7ff ff21 	bl	8000e50 <APC1_Get_AQI_String>
 800100e:	4603      	mov	r3, r0
 8001010:	4a18      	ldr	r2, [pc, #96]	; (8001074 <main+0x1a0>)
 8001012:	6013      	str	r3, [r2, #0]
	  error_string = APC1_Get_Error_String();
 8001014:	f7ff ff38 	bl	8000e88 <APC1_Get_Error_String>
 8001018:	4603      	mov	r3, r0
 800101a:	4a17      	ldr	r2, [pc, #92]	; (8001078 <main+0x1a4>)
 800101c:	6013      	str	r3, [r2, #0]
	  HAL_Delay(2000);
 800101e:	f44f 60fa 	mov.w	r0, #2000	; 0x7d0
 8001022:	f000 fa93 	bl	800154c <HAL_Delay>
	  if (APC1_Read_Mea_Data() != APC1_OK) {
 8001026:	e76b      	b.n	8000f00 <main+0x2c>
 8001028:	20000136 	.word	0x20000136
 800102c:	20000138 	.word	0x20000138
 8001030:	2000013a 	.word	0x2000013a
 8001034:	2000013c 	.word	0x2000013c
 8001038:	2000013e 	.word	0x2000013e
 800103c:	20000140 	.word	0x20000140
 8001040:	20000142 	.word	0x20000142
 8001044:	20000144 	.word	0x20000144
 8001048:	20000146 	.word	0x20000146
 800104c:	20000148 	.word	0x20000148
 8001050:	2000014a 	.word	0x2000014a
 8001054:	2000014c 	.word	0x2000014c
 8001058:	2000014e 	.word	0x2000014e
 800105c:	20000150 	.word	0x20000150
 8001060:	20000158 	.word	0x20000158
 8001064:	20000160 	.word	0x20000160
 8001068:	20000168 	.word	0x20000168
 800106c:	20000170 	.word	0x20000170
 8001070:	20000180 	.word	0x20000180
 8001074:	20000178 	.word	0x20000178
 8001078:	2000017c 	.word	0x2000017c

0800107c <SystemClock_Config>:
/**
  * @brief System Clock Configuration
  * @retval None
  */
void SystemClock_Config(void)
{
 800107c:	b580      	push	{r7, lr}
 800107e:	b094      	sub	sp, #80	; 0x50
 8001080:	af00      	add	r7, sp, #0
  RCC_OscInitTypeDef RCC_OscInitStruct = {0};
 8001082:	f107 0320 	add.w	r3, r7, #32
 8001086:	2230      	movs	r2, #48	; 0x30
 8001088:	2100      	movs	r1, #0
 800108a:	4618      	mov	r0, r3
 800108c:	f002 fad4 	bl	8003638 <memset>
  RCC_ClkInitTypeDef RCC_ClkInitStruct = {0};
 8001090:	f107 030c 	add.w	r3, r7, #12
 8001094:	2200      	movs	r2, #0
 8001096:	601a      	str	r2, [r3, #0]
 8001098:	605a      	str	r2, [r3, #4]
 800109a:	609a      	str	r2, [r3, #8]
 800109c:	60da      	str	r2, [r3, #12]
 800109e:	611a      	str	r2, [r3, #16]

  /** Configure the main internal regulator output voltage
  */
  __HAL_RCC_PWR_CLK_ENABLE();
 80010a0:	2300      	movs	r3, #0
 80010a2:	60bb      	str	r3, [r7, #8]
 80010a4:	4b28      	ldr	r3, [pc, #160]	; (8001148 <SystemClock_Config+0xcc>)
 80010a6:	6c1b      	ldr	r3, [r3, #64]	; 0x40
 80010a8:	4a27      	ldr	r2, [pc, #156]	; (8001148 <SystemClock_Config+0xcc>)
 80010aa:	f043 5380 	orr.w	r3, r3, #268435456	; 0x10000000
 80010ae:	6413      	str	r3, [r2, #64]	; 0x40
 80010b0:	4b25      	ldr	r3, [pc, #148]	; (8001148 <SystemClock_Config+0xcc>)
 80010b2:	6c1b      	ldr	r3, [r3, #64]	; 0x40
 80010b4:	f003 5380 	and.w	r3, r3, #268435456	; 0x10000000
 80010b8:	60bb      	str	r3, [r7, #8]
 80010ba:	68bb      	ldr	r3, [r7, #8]
  __HAL_PWR_VOLTAGESCALING_CONFIG(PWR_REGULATOR_VOLTAGE_SCALE1);
 80010bc:	2300      	movs	r3, #0
 80010be:	607b      	str	r3, [r7, #4]
 80010c0:	4b22      	ldr	r3, [pc, #136]	; (800114c <SystemClock_Config+0xd0>)
 80010c2:	681b      	ldr	r3, [r3, #0]
 80010c4:	4a21      	ldr	r2, [pc, #132]	; (800114c <SystemClock_Config+0xd0>)
 80010c6:	f443 4340 	orr.w	r3, r3, #49152	; 0xc000
 80010ca:	6013      	str	r3, [r2, #0]
 80010cc:	4b1f      	ldr	r3, [pc, #124]	; (800114c <SystemClock_Config+0xd0>)
 80010ce:	681b      	ldr	r3, [r3, #0]
 80010d0:	f403 4340 	and.w	r3, r3, #49152	; 0xc000
 80010d4:	607b      	str	r3, [r7, #4]
 80010d6:	687b      	ldr	r3, [r7, #4]

  /** Initializes the RCC Oscillators according to the specified parameters
  * in the RCC_OscInitTypeDef structure.
  */
  RCC_OscInitStruct.OscillatorType = RCC_OSCILLATORTYPE_HSI;
 80010d8:	2302      	movs	r3, #2
 80010da:	623b      	str	r3, [r7, #32]
  RCC_OscInitStruct.HSIState = RCC_HSI_ON;
 80010dc:	2301      	movs	r3, #1
 80010de:	62fb      	str	r3, [r7, #44]	; 0x2c
  RCC_OscInitStruct.HSICalibrationValue = RCC_HSICALIBRATION_DEFAULT;
 80010e0:	2310      	movs	r3, #16
 80010e2:	633b      	str	r3, [r7, #48]	; 0x30
  RCC_OscInitStruct.PLL.PLLState = RCC_PLL_ON;
 80010e4:	2302      	movs	r3, #2
 80010e6:	63bb      	str	r3, [r7, #56]	; 0x38
  RCC_OscInitStruct.PLL.PLLSource = RCC_PLLSOURCE_HSI;
 80010e8:	2300      	movs	r3, #0
 80010ea:	63fb      	str	r3, [r7, #60]	; 0x3c
  RCC_OscInitStruct.PLL.PLLM = 16;
 80010ec:	2310      	movs	r3, #16
 80010ee:	643b      	str	r3, [r7, #64]	; 0x40
  RCC_OscInitStruct.PLL.PLLN = 336;
 80010f0:	f44f 73a8 	mov.w	r3, #336	; 0x150
 80010f4:	647b      	str	r3, [r7, #68]	; 0x44
  RCC_OscInitStruct.PLL.PLLP = RCC_PLLP_DIV4;
 80010f6:	2304      	movs	r3, #4
 80010f8:	64bb      	str	r3, [r7, #72]	; 0x48
  RCC_OscInitStruct.PLL.PLLQ = 4;
 80010fa:	2304      	movs	r3, #4
 80010fc:	64fb      	str	r3, [r7, #76]	; 0x4c
  if (HAL_RCC_OscConfig(&RCC_OscInitStruct) != HAL_OK)
 80010fe:	f107 0320 	add.w	r3, r7, #32
 8001102:	4618      	mov	r0, r3
 8001104:	f000 fd88 	bl	8001c18 <HAL_RCC_OscConfig>
 8001108:	4603      	mov	r3, r0
 800110a:	2b00      	cmp	r3, #0
 800110c:	d001      	beq.n	8001112 <SystemClock_Config+0x96>
  {
    Error_Handler();
 800110e:	f000 f8b7 	bl	8001280 <Error_Handler>
  }

  /** Initializes the CPU, AHB and APB buses clocks
  */
  RCC_ClkInitStruct.ClockType = RCC_CLOCKTYPE_HCLK|RCC_CLOCKTYPE_SYSCLK
 8001112:	230f      	movs	r3, #15
 8001114:	60fb      	str	r3, [r7, #12]
                              |RCC_CLOCKTYPE_PCLK1|RCC_CLOCKTYPE_PCLK2;
  RCC_ClkInitStruct.SYSCLKSource = RCC_SYSCLKSOURCE_PLLCLK;
 8001116:	2302      	movs	r3, #2
 8001118:	613b      	str	r3, [r7, #16]
  RCC_ClkInitStruct.AHBCLKDivider = RCC_SYSCLK_DIV1;
 800111a:	2300      	movs	r3, #0
 800111c:	617b      	str	r3, [r7, #20]
  RCC_ClkInitStruct.APB1CLKDivider = RCC_HCLK_DIV2;
 800111e:	f44f 5380 	mov.w	r3, #4096	; 0x1000
 8001122:	61bb      	str	r3, [r7, #24]
  RCC_ClkInitStruct.APB2CLKDivider = RCC_HCLK_DIV1;
 8001124:	2300      	movs	r3, #0
 8001126:	61fb      	str	r3, [r7, #28]

  if (HAL_RCC_ClockConfig(&RCC_ClkInitStruct, FLASH_LATENCY_2) != HAL_OK)
 8001128:	f107 030c 	add.w	r3, r7, #12
 800112c:	2102      	movs	r1, #2
 800112e:	4618      	mov	r0, r3
 8001130:	f000 ffea 	bl	8002108 <HAL_RCC_ClockConfig>
 8001134:	4603      	mov	r3, r0
 8001136:	2b00      	cmp	r3, #0
 8001138:	d001      	beq.n	800113e <SystemClock_Config+0xc2>
  {
    Error_Handler();
 800113a:	f000 f8a1 	bl	8001280 <Error_Handler>
  }
}
 800113e:	bf00      	nop
 8001140:	3750      	adds	r7, #80	; 0x50
 8001142:	46bd      	mov	sp, r7
 8001144:	bd80      	pop	{r7, pc}
 8001146:	bf00      	nop
 8001148:	40023800 	.word	0x40023800
 800114c:	40007000 	.word	0x40007000

08001150 <MX_USART1_UART_Init>:
  * @brief USART1 Initialization Function
  * @param None
  * @retval None
  */
static void MX_USART1_UART_Init(void)
{
 8001150:	b580      	push	{r7, lr}
 8001152:	af00      	add	r7, sp, #0
  /* USER CODE END USART1_Init 0 */

  /* USER CODE BEGIN USART1_Init 1 */

  /* USER CODE END USART1_Init 1 */
  huart1.Instance = USART1;
 8001154:	4b11      	ldr	r3, [pc, #68]	; (800119c <MX_USART1_UART_Init+0x4c>)
 8001156:	4a12      	ldr	r2, [pc, #72]	; (80011a0 <MX_USART1_UART_Init+0x50>)
 8001158:	601a      	str	r2, [r3, #0]
  huart1.Init.BaudRate = 9600;
 800115a:	4b10      	ldr	r3, [pc, #64]	; (800119c <MX_USART1_UART_Init+0x4c>)
 800115c:	f44f 5216 	mov.w	r2, #9600	; 0x2580
 8001160:	605a      	str	r2, [r3, #4]
  huart1.Init.WordLength = UART_WORDLENGTH_8B;
 8001162:	4b0e      	ldr	r3, [pc, #56]	; (800119c <MX_USART1_UART_Init+0x4c>)
 8001164:	2200      	movs	r2, #0
 8001166:	609a      	str	r2, [r3, #8]
  huart1.Init.StopBits = UART_STOPBITS_1;
 8001168:	4b0c      	ldr	r3, [pc, #48]	; (800119c <MX_USART1_UART_Init+0x4c>)
 800116a:	2200      	movs	r2, #0
 800116c:	60da      	str	r2, [r3, #12]
  huart1.Init.Parity = UART_PARITY_NONE;
 800116e:	4b0b      	ldr	r3, [pc, #44]	; (800119c <MX_USART1_UART_Init+0x4c>)
 8001170:	2200      	movs	r2, #0
 8001172:	611a      	str	r2, [r3, #16]
  huart1.Init.Mode = UART_MODE_TX_RX;
 8001174:	4b09      	ldr	r3, [pc, #36]	; (800119c <MX_USART1_UART_Init+0x4c>)
 8001176:	220c      	movs	r2, #12
 8001178:	615a      	str	r2, [r3, #20]
  huart1.Init.HwFlowCtl = UART_HWCONTROL_NONE;
 800117a:	4b08      	ldr	r3, [pc, #32]	; (800119c <MX_USART1_UART_Init+0x4c>)
 800117c:	2200      	movs	r2, #0
 800117e:	619a      	str	r2, [r3, #24]
  huart1.Init.OverSampling = UART_OVERSAMPLING_16;
 8001180:	4b06      	ldr	r3, [pc, #24]	; (800119c <MX_USART1_UART_Init+0x4c>)
 8001182:	2200      	movs	r2, #0
 8001184:	61da      	str	r2, [r3, #28]
  if (HAL_UART_Init(&huart1) != HAL_OK)
 8001186:	4805      	ldr	r0, [pc, #20]	; (800119c <MX_USART1_UART_Init+0x4c>)
 8001188:	f001 f9de 	bl	8002548 <HAL_UART_Init>
 800118c:	4603      	mov	r3, r0
 800118e:	2b00      	cmp	r3, #0
 8001190:	d001      	beq.n	8001196 <MX_USART1_UART_Init+0x46>
  {
    Error_Handler();
 8001192:	f000 f875 	bl	8001280 <Error_Handler>
  }
  /* USER CODE BEGIN USART1_Init 2 */

  /* USER CODE END USART1_Init 2 */

}
 8001196:	bf00      	nop
 8001198:	bd80      	pop	{r7, pc}
 800119a:	bf00      	nop
 800119c:	20000184 	.word	0x20000184
 80011a0:	40011000 	.word	0x40011000

080011a4 <MX_GPIO_Init>:
  * @brief GPIO Initialization Function
  * @param None
  * @retval None
  */
static void MX_GPIO_Init(void)
{
 80011a4:	b580      	push	{r7, lr}
 80011a6:	b08a      	sub	sp, #40	; 0x28
 80011a8:	af00      	add	r7, sp, #0
  GPIO_InitTypeDef GPIO_InitStruct = {0};
 80011aa:	f107 0314 	add.w	r3, r7, #20
 80011ae:	2200      	movs	r2, #0
 80011b0:	601a      	str	r2, [r3, #0]
 80011b2:	605a      	str	r2, [r3, #4]
 80011b4:	609a      	str	r2, [r3, #8]
 80011b6:	60da      	str	r2, [r3, #12]
 80011b8:	611a      	str	r2, [r3, #16]
/* USER CODE BEGIN MX_GPIO_Init_1 */
/* USER CODE END MX_GPIO_Init_1 */

  /* GPIO Ports Clock Enable */
  __HAL_RCC_GPIOC_CLK_ENABLE();
 80011ba:	2300      	movs	r3, #0
 80011bc:	613b      	str	r3, [r7, #16]
 80011be:	4b2d      	ldr	r3, [pc, #180]	; (8001274 <MX_GPIO_Init+0xd0>)
 80011c0:	6b1b      	ldr	r3, [r3, #48]	; 0x30
 80011c2:	4a2c      	ldr	r2, [pc, #176]	; (8001274 <MX_GPIO_Init+0xd0>)
 80011c4:	f043 0304 	orr.w	r3, r3, #4
 80011c8:	6313      	str	r3, [r2, #48]	; 0x30
 80011ca:	4b2a      	ldr	r3, [pc, #168]	; (8001274 <MX_GPIO_Init+0xd0>)
 80011cc:	6b1b      	ldr	r3, [r3, #48]	; 0x30
 80011ce:	f003 0304 	and.w	r3, r3, #4
 80011d2:	613b      	str	r3, [r7, #16]
 80011d4:	693b      	ldr	r3, [r7, #16]
  __HAL_RCC_GPIOH_CLK_ENABLE();
 80011d6:	2300      	movs	r3, #0
 80011d8:	60fb      	str	r3, [r7, #12]
 80011da:	4b26      	ldr	r3, [pc, #152]	; (8001274 <MX_GPIO_Init+0xd0>)
 80011dc:	6b1b      	ldr	r3, [r3, #48]	; 0x30
 80011de:	4a25      	ldr	r2, [pc, #148]	; (8001274 <MX_GPIO_Init+0xd0>)
 80011e0:	f043 0380 	orr.w	r3, r3, #128	; 0x80
 80011e4:	6313      	str	r3, [r2, #48]	; 0x30
 80011e6:	4b23      	ldr	r3, [pc, #140]	; (8001274 <MX_GPIO_Init+0xd0>)
 80011e8:	6b1b      	ldr	r3, [r3, #48]	; 0x30
 80011ea:	f003 0380 	and.w	r3, r3, #128	; 0x80
 80011ee:	60fb      	str	r3, [r7, #12]
 80011f0:	68fb      	ldr	r3, [r7, #12]
  __HAL_RCC_GPIOA_CLK_ENABLE();
 80011f2:	2300      	movs	r3, #0
 80011f4:	60bb      	str	r3, [r7, #8]
 80011f6:	4b1f      	ldr	r3, [pc, #124]	; (8001274 <MX_GPIO_Init+0xd0>)
 80011f8:	6b1b      	ldr	r3, [r3, #48]	; 0x30
 80011fa:	4a1e      	ldr	r2, [pc, #120]	; (8001274 <MX_GPIO_Init+0xd0>)
 80011fc:	f043 0301 	orr.w	r3, r3, #1
 8001200:	6313      	str	r3, [r2, #48]	; 0x30
 8001202:	4b1c      	ldr	r3, [pc, #112]	; (8001274 <MX_GPIO_Init+0xd0>)
 8001204:	6b1b      	ldr	r3, [r3, #48]	; 0x30
 8001206:	f003 0301 	and.w	r3, r3, #1
 800120a:	60bb      	str	r3, [r7, #8]
 800120c:	68bb      	ldr	r3, [r7, #8]
  __HAL_RCC_GPIOB_CLK_ENABLE();
 800120e:	2300      	movs	r3, #0
 8001210:	607b      	str	r3, [r7, #4]
 8001212:	4b18      	ldr	r3, [pc, #96]	; (8001274 <MX_GPIO_Init+0xd0>)
 8001214:	6b1b      	ldr	r3, [r3, #48]	; 0x30
 8001216:	4a17      	ldr	r2, [pc, #92]	; (8001274 <MX_GPIO_Init+0xd0>)
 8001218:	f043 0302 	orr.w	r3, r3, #2
 800121c:	6313      	str	r3, [r2, #48]	; 0x30
 800121e:	4b15      	ldr	r3, [pc, #84]	; (8001274 <MX_GPIO_Init+0xd0>)
 8001220:	6b1b      	ldr	r3, [r3, #48]	; 0x30
 8001222:	f003 0302 	and.w	r3, r3, #2
 8001226:	607b      	str	r3, [r7, #4]
 8001228:	687b      	ldr	r3, [r7, #4]

  /*Configure GPIO pin Output Level */
  HAL_GPIO_WritePin(LD2_GPIO_Port, LD2_Pin, GPIO_PIN_RESET);
 800122a:	2200      	movs	r2, #0
 800122c:	2120      	movs	r1, #32
 800122e:	4812      	ldr	r0, [pc, #72]	; (8001278 <MX_GPIO_Init+0xd4>)
 8001230:	f000 fcd8 	bl	8001be4 <HAL_GPIO_WritePin>

  /*Configure GPIO pin : B1_Pin */
  GPIO_InitStruct.Pin = B1_Pin;
 8001234:	f44f 5300 	mov.w	r3, #8192	; 0x2000
 8001238:	617b      	str	r3, [r7, #20]
  GPIO_InitStruct.Mode = GPIO_MODE_IT_FALLING;
 800123a:	f44f 1304 	mov.w	r3, #2162688	; 0x210000
 800123e:	61bb      	str	r3, [r7, #24]
  GPIO_InitStruct.Pull = GPIO_NOPULL;
 8001240:	2300      	movs	r3, #0
 8001242:	61fb      	str	r3, [r7, #28]
  HAL_GPIO_Init(B1_GPIO_Port, &GPIO_InitStruct);
 8001244:	f107 0314 	add.w	r3, r7, #20
 8001248:	4619      	mov	r1, r3
 800124a:	480c      	ldr	r0, [pc, #48]	; (800127c <MX_GPIO_Init+0xd8>)
 800124c:	f000 fb46 	bl	80018dc <HAL_GPIO_Init>

  /*Configure GPIO pin : LD2_Pin */
  GPIO_InitStruct.Pin = LD2_Pin;
 8001250:	2320      	movs	r3, #32
 8001252:	617b      	str	r3, [r7, #20]
  GPIO_InitStruct.Mode = GPIO_MODE_OUTPUT_PP;
 8001254:	2301      	movs	r3, #1
 8001256:	61bb      	str	r3, [r7, #24]
  GPIO_InitStruct.Pull = GPIO_NOPULL;
 8001258:	2300      	movs	r3, #0
 800125a:	61fb      	str	r3, [r7, #28]
  GPIO_InitStruct.Speed = GPIO_SPEED_FREQ_LOW;
 800125c:	2300      	movs	r3, #0
 800125e:	623b      	str	r3, [r7, #32]
  HAL_GPIO_Init(LD2_GPIO_Port, &GPIO_InitStruct);
 8001260:	f107 0314 	add.w	r3, r7, #20
 8001264:	4619      	mov	r1, r3
 8001266:	4804      	ldr	r0, [pc, #16]	; (8001278 <MX_GPIO_Init+0xd4>)
 8001268:	f000 fb38 	bl	80018dc <HAL_GPIO_Init>

/* USER CODE BEGIN MX_GPIO_Init_2 */
/* USER CODE END MX_GPIO_Init_2 */
}
 800126c:	bf00      	nop
 800126e:	3728      	adds	r7, #40	; 0x28
 8001270:	46bd      	mov	sp, r7
 8001272:	bd80      	pop	{r7, pc}
 8001274:	40023800 	.word	0x40023800
 8001278:	40020000 	.word	0x40020000
 800127c:	40020800 	.word	0x40020800

08001280 <Error_Handler>:
/**
  * @brief  This function is executed in case of error occurrence.
  * @retval None
  */
void Error_Handler(void)
{
 8001280:	b580      	push	{r7, lr}
 8001282:	af00      	add	r7, sp, #0
  \details Disables IRQ interrupts by setting the I-bit in the CPSR.
           Can only be executed in Privileged modes.
 */
__STATIC_FORCEINLINE void __disable_irq(void)
{
  __ASM volatile ("cpsid i" : : : "memory");
 8001284:	b672      	cpsid	i
}
 8001286:	bf00      	nop
  /* USER CODE BEGIN Error_Handler_Debug */
  /* User can add his own implementation to report the HAL error return state */
  __disable_irq();
  while (1)
  {
	  error_string = APC1_Get_Error_String();
 8001288:	f7ff fdfe 	bl	8000e88 <APC1_Get_Error_String>
 800128c:	4603      	mov	r3, r0
 800128e:	4a01      	ldr	r2, [pc, #4]	; (8001294 <Error_Handler+0x14>)
 8001290:	6013      	str	r3, [r2, #0]
 8001292:	e7f9      	b.n	8001288 <Error_Handler+0x8>
 8001294:	2000017c 	.word	0x2000017c

08001298 <HAL_MspInit>:
/* USER CODE END 0 */
/**
  * Initializes the Global MSP.
  */
void HAL_MspInit(void)
{
 8001298:	b580      	push	{r7, lr}
 800129a:	b082      	sub	sp, #8
 800129c:	af00      	add	r7, sp, #0
  /* USER CODE BEGIN MspInit 0 */

  /* USER CODE END MspInit 0 */

  __HAL_RCC_SYSCFG_CLK_ENABLE();
 800129e:	2300      	movs	r3, #0
 80012a0:	607b      	str	r3, [r7, #4]
 80012a2:	4b10      	ldr	r3, [pc, #64]	; (80012e4 <HAL_MspInit+0x4c>)
 80012a4:	6c5b      	ldr	r3, [r3, #68]	; 0x44
 80012a6:	4a0f      	ldr	r2, [pc, #60]	; (80012e4 <HAL_MspInit+0x4c>)
 80012a8:	f443 4380 	orr.w	r3, r3, #16384	; 0x4000
 80012ac:	6453      	str	r3, [r2, #68]	; 0x44
 80012ae:	4b0d      	ldr	r3, [pc, #52]	; (80012e4 <HAL_MspInit+0x4c>)
 80012b0:	6c5b      	ldr	r3, [r3, #68]	; 0x44
 80012b2:	f403 4380 	and.w	r3, r3, #16384	; 0x4000
 80012b6:	607b      	str	r3, [r7, #4]
 80012b8:	687b      	ldr	r3, [r7, #4]
  __HAL_RCC_PWR_CLK_ENABLE();
 80012ba:	2300      	movs	r3, #0
 80012bc:	603b      	str	r3, [r7, #0]
 80012be:	4b09      	ldr	r3, [pc, #36]	; (80012e4 <HAL_MspInit+0x4c>)
 80012c0:	6c1b      	ldr	r3, [r3, #64]	; 0x40
 80012c2:	4a08      	ldr	r2, [pc, #32]	; (80012e4 <HAL_MspInit+0x4c>)
 80012c4:	f043 5380 	orr.w	r3, r3, #268435456	; 0x10000000
 80012c8:	6413      	str	r3, [r2, #64]	; 0x40
 80012ca:	4b06      	ldr	r3, [pc, #24]	; (80012e4 <HAL_MspInit+0x4c>)
 80012cc:	6c1b      	ldr	r3, [r3, #64]	; 0x40
 80012ce:	f003 5380 	and.w	r3, r3, #268435456	; 0x10000000
 80012d2:	603b      	str	r3, [r7, #0]
 80012d4:	683b      	ldr	r3, [r7, #0]

  HAL_NVIC_SetPriorityGrouping(NVIC_PRIORITYGROUP_0);
 80012d6:	2007      	movs	r0, #7
 80012d8:	f000 fa2c 	bl	8001734 <HAL_NVIC_SetPriorityGrouping>
  /* System interrupt init*/

  /* USER CODE BEGIN MspInit 1 */

  /* USER CODE END MspInit 1 */
}
 80012dc:	bf00      	nop
 80012de:	3708      	adds	r7, #8
 80012e0:	46bd      	mov	sp, r7
 80012e2:	bd80      	pop	{r7, pc}
 80012e4:	40023800 	.word	0x40023800

080012e8 <HAL_UART_MspInit>:
* This function configures the hardware resources used in this example
* @param huart: UART handle pointer
* @retval None
*/
void HAL_UART_MspInit(UART_HandleTypeDef* huart)
{
 80012e8:	b580      	push	{r7, lr}
 80012ea:	b08a      	sub	sp, #40	; 0x28
 80012ec:	af00      	add	r7, sp, #0
 80012ee:	6078      	str	r0, [r7, #4]
  GPIO_InitTypeDef GPIO_InitStruct = {0};
 80012f0:	f107 0314 	add.w	r3, r7, #20
 80012f4:	2200      	movs	r2, #0
 80012f6:	601a      	str	r2, [r3, #0]
 80012f8:	605a      	str	r2, [r3, #4]
 80012fa:	609a      	str	r2, [r3, #8]
 80012fc:	60da      	str	r2, [r3, #12]
 80012fe:	611a      	str	r2, [r3, #16]
  if(huart->Instance==USART1)
 8001300:	687b      	ldr	r3, [r7, #4]
 8001302:	681b      	ldr	r3, [r3, #0]
 8001304:	4a1d      	ldr	r2, [pc, #116]	; (800137c <HAL_UART_MspInit+0x94>)
 8001306:	4293      	cmp	r3, r2
 8001308:	d134      	bne.n	8001374 <HAL_UART_MspInit+0x8c>
  {
  /* USER CODE BEGIN USART1_MspInit 0 */

  /* USER CODE END USART1_MspInit 0 */
    /* Peripheral clock enable */
    __HAL_RCC_USART1_CLK_ENABLE();
 800130a:	2300      	movs	r3, #0
 800130c:	613b      	str	r3, [r7, #16]
 800130e:	4b1c      	ldr	r3, [pc, #112]	; (8001380 <HAL_UART_MspInit+0x98>)
 8001310:	6c5b      	ldr	r3, [r3, #68]	; 0x44
 8001312:	4a1b      	ldr	r2, [pc, #108]	; (8001380 <HAL_UART_MspInit+0x98>)
 8001314:	f043 0310 	orr.w	r3, r3, #16
 8001318:	6453      	str	r3, [r2, #68]	; 0x44
 800131a:	4b19      	ldr	r3, [pc, #100]	; (8001380 <HAL_UART_MspInit+0x98>)
 800131c:	6c5b      	ldr	r3, [r3, #68]	; 0x44
 800131e:	f003 0310 	and.w	r3, r3, #16
 8001322:	613b      	str	r3, [r7, #16]
 8001324:	693b      	ldr	r3, [r7, #16]

    __HAL_RCC_GPIOA_CLK_ENABLE();
 8001326:	2300      	movs	r3, #0
 8001328:	60fb      	str	r3, [r7, #12]
 800132a:	4b15      	ldr	r3, [pc, #84]	; (8001380 <HAL_UART_MspInit+0x98>)
 800132c:	6b1b      	ldr	r3, [r3, #48]	; 0x30
 800132e:	4a14      	ldr	r2, [pc, #80]	; (8001380 <HAL_UART_MspInit+0x98>)
 8001330:	f043 0301 	orr.w	r3, r3, #1
 8001334:	6313      	str	r3, [r2, #48]	; 0x30
 8001336:	4b12      	ldr	r3, [pc, #72]	; (8001380 <HAL_UART_MspInit+0x98>)
 8001338:	6b1b      	ldr	r3, [r3, #48]	; 0x30
 800133a:	f003 0301 	and.w	r3, r3, #1
 800133e:	60fb      	str	r3, [r7, #12]
 8001340:	68fb      	ldr	r3, [r7, #12]
    /**USART1 GPIO Configuration
    PA9     ------> USART1_TX
    PA10     ------> USART1_RX
    */
    GPIO_InitStruct.Pin = GPIO_PIN_9|GPIO_PIN_10;
 8001342:	f44f 63c0 	mov.w	r3, #1536	; 0x600
 8001346:	617b      	str	r3, [r7, #20]
    GPIO_InitStruct.Mode = GPIO_MODE_AF_PP;
 8001348:	2302      	movs	r3, #2
 800134a:	61bb      	str	r3, [r7, #24]
    GPIO_InitStruct.Pull = GPIO_NOPULL;
 800134c:	2300      	movs	r3, #0
 800134e:	61fb      	str	r3, [r7, #28]
    GPIO_InitStruct.Speed = GPIO_SPEED_FREQ_VERY_HIGH;
 8001350:	2303      	movs	r3, #3
 8001352:	623b      	str	r3, [r7, #32]
    GPIO_InitStruct.Alternate = GPIO_AF7_USART1;
 8001354:	2307      	movs	r3, #7
 8001356:	627b      	str	r3, [r7, #36]	; 0x24
    HAL_GPIO_Init(GPIOA, &GPIO_InitStruct);
 8001358:	f107 0314 	add.w	r3, r7, #20
 800135c:	4619      	mov	r1, r3
 800135e:	4809      	ldr	r0, [pc, #36]	; (8001384 <HAL_UART_MspInit+0x9c>)
 8001360:	f000 fabc 	bl	80018dc <HAL_GPIO_Init>

    /* USART1 interrupt Init */
    HAL_NVIC_SetPriority(USART1_IRQn, 0, 0);
 8001364:	2200      	movs	r2, #0
 8001366:	2100      	movs	r1, #0
 8001368:	2025      	movs	r0, #37	; 0x25
 800136a:	f000 f9ee 	bl	800174a <HAL_NVIC_SetPriority>
    HAL_NVIC_EnableIRQ(USART1_IRQn);
 800136e:	2025      	movs	r0, #37	; 0x25
 8001370:	f000 fa07 	bl	8001782 <HAL_NVIC_EnableIRQ>
  /* USER CODE BEGIN USART1_MspInit 1 */

  /* USER CODE END USART1_MspInit 1 */
  }

}
 8001374:	bf00      	nop
 8001376:	3728      	adds	r7, #40	; 0x28
 8001378:	46bd      	mov	sp, r7
 800137a:	bd80      	pop	{r7, pc}
 800137c:	40011000 	.word	0x40011000
 8001380:	40023800 	.word	0x40023800
 8001384:	40020000 	.word	0x40020000

08001388 <NMI_Handler>:
/******************************************************************************/
/**
  * @brief This function handles Non maskable interrupt.
  */
void NMI_Handler(void)
{
 8001388:	b480      	push	{r7}
 800138a:	af00      	add	r7, sp, #0
  /* USER CODE BEGIN NonMaskableInt_IRQn 0 */

  /* USER CODE END NonMaskableInt_IRQn 0 */
  /* USER CODE BEGIN NonMaskableInt_IRQn 1 */
  while (1)
 800138c:	e7fe      	b.n	800138c <NMI_Handler+0x4>

0800138e <HardFault_Handler>:

/**
  * @brief This function handles Hard fault interrupt.
  */
void HardFault_Handler(void)
{
 800138e:	b480      	push	{r7}
 8001390:	af00      	add	r7, sp, #0
  /* USER CODE BEGIN HardFault_IRQn 0 */

  /* USER CODE END HardFault_IRQn 0 */
  while (1)
 8001392:	e7fe      	b.n	8001392 <HardFault_Handler+0x4>

08001394 <MemManage_Handler>:

/**
  * @brief This function handles Memory management fault.
  */
void MemManage_Handler(void)
{
 8001394:	b480      	push	{r7}
 8001396:	af00      	add	r7, sp, #0
  /* USER CODE BEGIN MemoryManagement_IRQn 0 */

  /* USER CODE END MemoryManagement_IRQn 0 */
  while (1)
 8001398:	e7fe      	b.n	8001398 <MemManage_Handler+0x4>

0800139a <BusFault_Handler>:

/**
  * @brief This function handles Pre-fetch fault, memory access fault.
  */
void BusFault_Handler(void)
{
 800139a:	b480      	push	{r7}
 800139c:	af00      	add	r7, sp, #0
  /* USER CODE BEGIN BusFault_IRQn 0 */

  /* USER CODE END BusFault_IRQn 0 */
  while (1)
 800139e:	e7fe      	b.n	800139e <BusFault_Handler+0x4>

080013a0 <UsageFault_Handler>:

/**
  * @brief This function handles Undefined instruction or illegal state.
  */
void UsageFault_Handler(void)
{
 80013a0:	b480      	push	{r7}
 80013a2:	af00      	add	r7, sp, #0
  /* USER CODE BEGIN UsageFault_IRQn 0 */

  /* USER CODE END UsageFault_IRQn 0 */
  while (1)
 80013a4:	e7fe      	b.n	80013a4 <UsageFault_Handler+0x4>

080013a6 <SVC_Handler>:

/**
  * @brief This function handles System service call via SWI instruction.
  */
void SVC_Handler(void)
{
 80013a6:	b480      	push	{r7}
 80013a8:	af00      	add	r7, sp, #0

  /* USER CODE END SVCall_IRQn 0 */
  /* USER CODE BEGIN SVCall_IRQn 1 */

  /* USER CODE END SVCall_IRQn 1 */
}
 80013aa:	bf00      	nop
 80013ac:	46bd      	mov	sp, r7
 80013ae:	f85d 7b04 	ldr.w	r7, [sp], #4
 80013b2:	4770      	bx	lr

080013b4 <DebugMon_Handler>:

/**
  * @brief This function handles Debug monitor.
  */
void DebugMon_Handler(void)
{
 80013b4:	b480      	push	{r7}
 80013b6:	af00      	add	r7, sp, #0

  /* USER CODE END DebugMonitor_IRQn 0 */
  /* USER CODE BEGIN DebugMonitor_IRQn 1 */

  /* USER CODE END DebugMonitor_IRQn 1 */
}
 80013b8:	bf00      	nop
 80013ba:	46bd      	mov	sp, r7
 80013bc:	f85d 7b04 	ldr.w	r7, [sp], #4
 80013c0:	4770      	bx	lr

080013c2 <PendSV_Handler>:

/**
  * @brief This function handles Pendable request for system service.
  */
void PendSV_Handler(void)
{
 80013c2:	b480      	push	{r7}
 80013c4:	af00      	add	r7, sp, #0

  /* USER CODE END PendSV_IRQn 0 */
  /* USER CODE BEGIN PendSV_IRQn 1 */

  /* USER CODE END PendSV_IRQn 1 */
}
 80013c6:	bf00      	nop
 80013c8:	46bd      	mov	sp, r7
 80013ca:	f85d 7b04 	ldr.w	r7, [sp], #4
 80013ce:	4770      	bx	lr

080013d0 <SysTick_Handler>:

/**
  * @brief This function handles System tick timer.
  */
void SysTick_Handler(void)
{
 80013d0:	b580      	push	{r7, lr}
 80013d2:	af00      	add	r7, sp, #0
  /* USER CODE BEGIN SysTick_IRQn 0 */

  /* USER CODE END SysTick_IRQn 0 */
  HAL_IncTick();
 80013d4:	f000 f89a 	bl	800150c <HAL_IncTick>
  /* USER CODE BEGIN SysTick_IRQn 1 */

  /* USER CODE END SysTick_IRQn 1 */
}
 80013d8:	bf00      	nop
 80013da:	bd80      	pop	{r7, pc}

080013dc <USART1_IRQHandler>:

/**
  * @brief This function handles USART1 global interrupt.
  */
void USART1_IRQHandler(void)
{
 80013dc:	b580      	push	{r7, lr}
 80013de:	af00      	add	r7, sp, #0
	//	// uint8_t new_c = USART1->DR;
	//	rx[my_index++] = USART1->DR;
	//}

  /* USER CODE END USART1_IRQn 0 */
  HAL_UART_IRQHandler(&huart1);
 80013e0:	4802      	ldr	r0, [pc, #8]	; (80013ec <USART1_IRQHandler+0x10>)
 80013e2:	f001 f9c1 	bl	8002768 <HAL_UART_IRQHandler>
  /* USER CODE BEGIN USART1_IRQn 1 */

  /* USER CODE END USART1_IRQn 1 */
}
 80013e6:	bf00      	nop
 80013e8:	bd80      	pop	{r7, pc}
 80013ea:	bf00      	nop
 80013ec:	20000184 	.word	0x20000184

080013f0 <SystemInit>:
  *         configuration.
  * @param  None
  * @retval None
  */
void SystemInit(void)
{
 80013f0:	b480      	push	{r7}
 80013f2:	af00      	add	r7, sp, #0
  /* FPU settings ------------------------------------------------------------*/
  #if (__FPU_PRESENT == 1) && (__FPU_USED == 1)
    SCB->CPACR |= ((3UL << 10*2)|(3UL << 11*2));  /* set CP10 and CP11 Full Access */
 80013f4:	4b06      	ldr	r3, [pc, #24]	; (8001410 <SystemInit+0x20>)
 80013f6:	f8d3 3088 	ldr.w	r3, [r3, #136]	; 0x88
 80013fa:	4a05      	ldr	r2, [pc, #20]	; (8001410 <SystemInit+0x20>)
 80013fc:	f443 0370 	orr.w	r3, r3, #15728640	; 0xf00000
 8001400:	f8c2 3088 	str.w	r3, [r2, #136]	; 0x88

  /* Configure the Vector Table location -------------------------------------*/
#if defined(USER_VECT_TAB_ADDRESS)
  SCB->VTOR = VECT_TAB_BASE_ADDRESS | VECT_TAB_OFFSET; /* Vector Table Relocation in Internal SRAM */
#endif /* USER_VECT_TAB_ADDRESS */
}
 8001404:	bf00      	nop
 8001406:	46bd      	mov	sp, r7
 8001408:	f85d 7b04 	ldr.w	r7, [sp], #4
 800140c:	4770      	bx	lr
 800140e:	bf00      	nop
 8001410:	e000ed00 	.word	0xe000ed00

08001414 <Reset_Handler>:

    .section  .text.Reset_Handler
  .weak  Reset_Handler
  .type  Reset_Handler, %function
Reset_Handler:  
  ldr   sp, =_estack    		 /* set stack pointer */
 8001414:	f8df d034 	ldr.w	sp, [pc, #52]	; 800144c <LoopFillZerobss+0x12>

/* Copy the data segment initializers from flash to SRAM */  
  ldr r0, =_sdata
 8001418:	480d      	ldr	r0, [pc, #52]	; (8001450 <LoopFillZerobss+0x16>)
  ldr r1, =_edata
 800141a:	490e      	ldr	r1, [pc, #56]	; (8001454 <LoopFillZerobss+0x1a>)
  ldr r2, =_sidata
 800141c:	4a0e      	ldr	r2, [pc, #56]	; (8001458 <LoopFillZerobss+0x1e>)
  movs r3, #0
 800141e:	2300      	movs	r3, #0
  b LoopCopyDataInit
 8001420:	e002      	b.n	8001428 <LoopCopyDataInit>

08001422 <CopyDataInit>:

CopyDataInit:
  ldr r4, [r2, r3]
 8001422:	58d4      	ldr	r4, [r2, r3]
  str r4, [r0, r3]
 8001424:	50c4      	str	r4, [r0, r3]
  adds r3, r3, #4
 8001426:	3304      	adds	r3, #4

08001428 <LoopCopyDataInit>:

LoopCopyDataInit:
  adds r4, r0, r3
 8001428:	18c4      	adds	r4, r0, r3
  cmp r4, r1
 800142a:	428c      	cmp	r4, r1
  bcc CopyDataInit
 800142c:	d3f9      	bcc.n	8001422 <CopyDataInit>
  
/* Zero fill the bss segment. */
  ldr r2, =_sbss
 800142e:	4a0b      	ldr	r2, [pc, #44]	; (800145c <LoopFillZerobss+0x22>)
  ldr r4, =_ebss
 8001430:	4c0b      	ldr	r4, [pc, #44]	; (8001460 <LoopFillZerobss+0x26>)
  movs r3, #0
 8001432:	2300      	movs	r3, #0
  b LoopFillZerobss
 8001434:	e001      	b.n	800143a <LoopFillZerobss>

08001436 <FillZerobss>:

FillZerobss:
  str  r3, [r2]
 8001436:	6013      	str	r3, [r2, #0]
  adds r2, r2, #4
 8001438:	3204      	adds	r2, #4

0800143a <LoopFillZerobss>:

LoopFillZerobss:
  cmp r2, r4
 800143a:	42a2      	cmp	r2, r4
  bcc FillZerobss
 800143c:	d3fb      	bcc.n	8001436 <FillZerobss>

/* Call the clock system initialization function.*/
  bl  SystemInit   
 800143e:	f7ff ffd7 	bl	80013f0 <SystemInit>
/* Call static constructors */
    bl __libc_init_array
 8001442:	f002 f901 	bl	8003648 <__libc_init_array>
/* Call the application's entry point.*/
  bl  main
 8001446:	f7ff fd45 	bl	8000ed4 <main>
  bx  lr    
 800144a:	4770      	bx	lr
  ldr   sp, =_estack    		 /* set stack pointer */
 800144c:	20020000 	.word	0x20020000
  ldr r0, =_sdata
 8001450:	20000000 	.word	0x20000000
  ldr r1, =_edata
 8001454:	20000088 	.word	0x20000088
  ldr r2, =_sidata
 8001458:	080037c8 	.word	0x080037c8
  ldr r2, =_sbss
 800145c:	20000088 	.word	0x20000088
  ldr r4, =_ebss
 8001460:	200001cc 	.word	0x200001cc

08001464 <ADC_IRQHandler>:
 * @retval None       
*/
    .section  .text.Default_Handler,"ax",%progbits
Default_Handler:
Infinite_Loop:
  b  Infinite_Loop
 8001464:	e7fe      	b.n	8001464 <ADC_IRQHandler>
	...

08001468 <HAL_Init>:
  *         need to ensure that the SysTick time base is always set to 1 millisecond
  *         to have correct HAL operation.
  * @retval HAL status
  */
HAL_StatusTypeDef HAL_Init(void)
{
 8001468:	b580      	push	{r7, lr}
 800146a:	af00      	add	r7, sp, #0
  /* Configure Flash prefetch, Instruction cache, Data cache */ 
#if (INSTRUCTION_CACHE_ENABLE != 0U)
  __HAL_FLASH_INSTRUCTION_CACHE_ENABLE();
 800146c:	4b0e      	ldr	r3, [pc, #56]	; (80014a8 <HAL_Init+0x40>)
 800146e:	681b      	ldr	r3, [r3, #0]
 8001470:	4a0d      	ldr	r2, [pc, #52]	; (80014a8 <HAL_Init+0x40>)
 8001472:	f443 7300 	orr.w	r3, r3, #512	; 0x200
 8001476:	6013      	str	r3, [r2, #0]
#endif /* INSTRUCTION_CACHE_ENABLE */

#if (DATA_CACHE_ENABLE != 0U)
  __HAL_FLASH_DATA_CACHE_ENABLE();
 8001478:	4b0b      	ldr	r3, [pc, #44]	; (80014a8 <HAL_Init+0x40>)
 800147a:	681b      	ldr	r3, [r3, #0]
 800147c:	4a0a      	ldr	r2, [pc, #40]	; (80014a8 <HAL_Init+0x40>)
 800147e:	f443 6380 	orr.w	r3, r3, #1024	; 0x400
 8001482:	6013      	str	r3, [r2, #0]
#endif /* DATA_CACHE_ENABLE */

#if (PREFETCH_ENABLE != 0U)
  __HAL_FLASH_PREFETCH_BUFFER_ENABLE();
 8001484:	4b08      	ldr	r3, [pc, #32]	; (80014a8 <HAL_Init+0x40>)
 8001486:	681b      	ldr	r3, [r3, #0]
 8001488:	4a07      	ldr	r2, [pc, #28]	; (80014a8 <HAL_Init+0x40>)
 800148a:	f443 7380 	orr.w	r3, r3, #256	; 0x100
 800148e:	6013      	str	r3, [r2, #0]
#endif /* PREFETCH_ENABLE */

  /* Set Interrupt Group Priority */
  HAL_NVIC_SetPriorityGrouping(NVIC_PRIORITYGROUP_4);
 8001490:	2003      	movs	r0, #3
 8001492:	f000 f94f 	bl	8001734 <HAL_NVIC_SetPriorityGrouping>

  /* Use systick as time base source and configure 1ms tick (default clock after Reset is HSI) */
  HAL_InitTick(TICK_INT_PRIORITY);
 8001496:	2000      	movs	r0, #0
 8001498:	f000 f808 	bl	80014ac <HAL_InitTick>

  /* Init the low level hardware */
  HAL_MspInit();
 800149c:	f7ff fefc 	bl	8001298 <HAL_MspInit>

  /* Return function status */
  return HAL_OK;
 80014a0:	2300      	movs	r3, #0
}
 80014a2:	4618      	mov	r0, r3
 80014a4:	bd80      	pop	{r7, pc}
 80014a6:	bf00      	nop
 80014a8:	40023c00 	.word	0x40023c00

080014ac <HAL_InitTick>:
  *       implementation  in user file.
  * @param TickPriority Tick interrupt priority.
  * @retval HAL status
  */
__weak HAL_StatusTypeDef HAL_InitTick(uint32_t TickPriority)
{
 80014ac:	b580      	push	{r7, lr}
 80014ae:	b082      	sub	sp, #8
 80014b0:	af00      	add	r7, sp, #0
 80014b2:	6078      	str	r0, [r7, #4]
  /* Configure the SysTick to have interrupt in 1ms time basis*/
  if (HAL_SYSTICK_Config(SystemCoreClock / (1000U / uwTickFreq)) > 0U)
 80014b4:	4b12      	ldr	r3, [pc, #72]	; (8001500 <HAL_InitTick+0x54>)
 80014b6:	681a      	ldr	r2, [r3, #0]
 80014b8:	4b12      	ldr	r3, [pc, #72]	; (8001504 <HAL_InitTick+0x58>)
 80014ba:	781b      	ldrb	r3, [r3, #0]
 80014bc:	4619      	mov	r1, r3
 80014be:	f44f 737a 	mov.w	r3, #1000	; 0x3e8
 80014c2:	fbb3 f3f1 	udiv	r3, r3, r1
 80014c6:	fbb2 f3f3 	udiv	r3, r2, r3
 80014ca:	4618      	mov	r0, r3
 80014cc:	f000 f967 	bl	800179e <HAL_SYSTICK_Config>
 80014d0:	4603      	mov	r3, r0
 80014d2:	2b00      	cmp	r3, #0
 80014d4:	d001      	beq.n	80014da <HAL_InitTick+0x2e>
  {
    return HAL_ERROR;
 80014d6:	2301      	movs	r3, #1
 80014d8:	e00e      	b.n	80014f8 <HAL_InitTick+0x4c>
  }

  /* Configure the SysTick IRQ priority */
  if (TickPriority < (1UL << __NVIC_PRIO_BITS))
 80014da:	687b      	ldr	r3, [r7, #4]
 80014dc:	2b0f      	cmp	r3, #15
 80014de:	d80a      	bhi.n	80014f6 <HAL_InitTick+0x4a>
  {
    HAL_NVIC_SetPriority(SysTick_IRQn, TickPriority, 0U);
 80014e0:	2200      	movs	r2, #0
 80014e2:	6879      	ldr	r1, [r7, #4]
 80014e4:	f04f 30ff 	mov.w	r0, #4294967295
 80014e8:	f000 f92f 	bl	800174a <HAL_NVIC_SetPriority>
    uwTickPrio = TickPriority;
 80014ec:	4a06      	ldr	r2, [pc, #24]	; (8001508 <HAL_InitTick+0x5c>)
 80014ee:	687b      	ldr	r3, [r7, #4]
 80014f0:	6013      	str	r3, [r2, #0]
  {
    return HAL_ERROR;
  }

  /* Return function status */
  return HAL_OK;
 80014f2:	2300      	movs	r3, #0
 80014f4:	e000      	b.n	80014f8 <HAL_InitTick+0x4c>
    return HAL_ERROR;
 80014f6:	2301      	movs	r3, #1
}
 80014f8:	4618      	mov	r0, r3
 80014fa:	3708      	adds	r7, #8
 80014fc:	46bd      	mov	sp, r7
 80014fe:	bd80      	pop	{r7, pc}
 8001500:	2000007c 	.word	0x2000007c
 8001504:	20000084 	.word	0x20000084
 8001508:	20000080 	.word	0x20000080

0800150c <HAL_IncTick>:
 * @note This function is declared as __weak to be overwritten in case of other 
  *      implementations in user file.
  * @retval None
  */
__weak void HAL_IncTick(void)
{
 800150c:	b480      	push	{r7}
 800150e:	af00      	add	r7, sp, #0
  uwTick += uwTickFreq;
 8001510:	4b06      	ldr	r3, [pc, #24]	; (800152c <HAL_IncTick+0x20>)
 8001512:	781b      	ldrb	r3, [r3, #0]
 8001514:	461a      	mov	r2, r3
 8001516:	4b06      	ldr	r3, [pc, #24]	; (8001530 <HAL_IncTick+0x24>)
 8001518:	681b      	ldr	r3, [r3, #0]
 800151a:	4413      	add	r3, r2
 800151c:	4a04      	ldr	r2, [pc, #16]	; (8001530 <HAL_IncTick+0x24>)
 800151e:	6013      	str	r3, [r2, #0]
}
 8001520:	bf00      	nop
 8001522:	46bd      	mov	sp, r7
 8001524:	f85d 7b04 	ldr.w	r7, [sp], #4
 8001528:	4770      	bx	lr
 800152a:	bf00      	nop
 800152c:	20000084 	.word	0x20000084
 8001530:	200001c8 	.word	0x200001c8

08001534 <HAL_GetTick>:
  * @note This function is declared as __weak to be overwritten in case of other 
  *       implementations in user file.
  * @retval tick value
  */
__weak uint32_t HAL_GetTick(void)
{
 8001534:	b480      	push	{r7}
 8001536:	af00      	add	r7, sp, #0
  return uwTick;
 8001538:	4b03      	ldr	r3, [pc, #12]	; (8001548 <HAL_GetTick+0x14>)
 800153a:	681b      	ldr	r3, [r3, #0]
}
 800153c:	4618      	mov	r0, r3
 800153e:	46bd      	mov	sp, r7
 8001540:	f85d 7b04 	ldr.w	r7, [sp], #4
 8001544:	4770      	bx	lr
 8001546:	bf00      	nop
 8001548:	200001c8 	.word	0x200001c8

0800154c <HAL_Delay>:
  *       implementations in user file.
  * @param Delay specifies the delay time length, in milliseconds.
  * @retval None
  */
__weak void HAL_Delay(uint32_t Delay)
{
 800154c:	b580      	push	{r7, lr}
 800154e:	b084      	sub	sp, #16
 8001550:	af00      	add	r7, sp, #0
 8001552:	6078      	str	r0, [r7, #4]
  uint32_t tickstart = HAL_GetTick();
 8001554:	f7ff ffee 	bl	8001534 <HAL_GetTick>
 8001558:	60b8      	str	r0, [r7, #8]
  uint32_t wait = Delay;
 800155a:	687b      	ldr	r3, [r7, #4]
 800155c:	60fb      	str	r3, [r7, #12]

  /* Add a freq to guarantee minimum wait */
  if (wait < HAL_MAX_DELAY)
 800155e:	68fb      	ldr	r3, [r7, #12]
 8001560:	f1b3 3fff 	cmp.w	r3, #4294967295
 8001564:	d005      	beq.n	8001572 <HAL_Delay+0x26>
  {
    wait += (uint32_t)(uwTickFreq);
 8001566:	4b0a      	ldr	r3, [pc, #40]	; (8001590 <HAL_Delay+0x44>)
 8001568:	781b      	ldrb	r3, [r3, #0]
 800156a:	461a      	mov	r2, r3
 800156c:	68fb      	ldr	r3, [r7, #12]
 800156e:	4413      	add	r3, r2
 8001570:	60fb      	str	r3, [r7, #12]
  }

  while((HAL_GetTick() - tickstart) < wait)
 8001572:	bf00      	nop
 8001574:	f7ff ffde 	bl	8001534 <HAL_GetTick>
 8001578:	4602      	mov	r2, r0
 800157a:	68bb      	ldr	r3, [r7, #8]
 800157c:	1ad3      	subs	r3, r2, r3
 800157e:	68fa      	ldr	r2, [r7, #12]
 8001580:	429a      	cmp	r2, r3
 8001582:	d8f7      	bhi.n	8001574 <HAL_Delay+0x28>
  {
  }
}
 8001584:	bf00      	nop
 8001586:	bf00      	nop
 8001588:	3710      	adds	r7, #16
 800158a:	46bd      	mov	sp, r7
 800158c:	bd80      	pop	{r7, pc}
 800158e:	bf00      	nop
 8001590:	20000084 	.word	0x20000084

08001594 <__NVIC_SetPriorityGrouping>:
           In case of a conflict between priority grouping and available
           priority bits (__NVIC_PRIO_BITS), the smallest possible priority group is set.
  \param [in]      PriorityGroup  Priority grouping field.
 */
__STATIC_INLINE void __NVIC_SetPriorityGrouping(uint32_t PriorityGroup)
{
 8001594:	b480      	push	{r7}
 8001596:	b085      	sub	sp, #20
 8001598:	af00      	add	r7, sp, #0
 800159a:	6078      	str	r0, [r7, #4]
  uint32_t reg_value;
  uint32_t PriorityGroupTmp = (PriorityGroup & (uint32_t)0x07UL);             /* only values 0..7 are used          */
 800159c:	687b      	ldr	r3, [r7, #4]
 800159e:	f003 0307 	and.w	r3, r3, #7
 80015a2:	60fb      	str	r3, [r7, #12]

  reg_value  =  SCB->AIRCR;                                                   /* read old register configuration    */
 80015a4:	4b0c      	ldr	r3, [pc, #48]	; (80015d8 <__NVIC_SetPriorityGrouping+0x44>)
 80015a6:	68db      	ldr	r3, [r3, #12]
 80015a8:	60bb      	str	r3, [r7, #8]
  reg_value &= ~((uint32_t)(SCB_AIRCR_VECTKEY_Msk | SCB_AIRCR_PRIGROUP_Msk)); /* clear bits to change               */
 80015aa:	68ba      	ldr	r2, [r7, #8]
 80015ac:	f64f 03ff 	movw	r3, #63743	; 0xf8ff
 80015b0:	4013      	ands	r3, r2
 80015b2:	60bb      	str	r3, [r7, #8]
  reg_value  =  (reg_value                                   |
                ((uint32_t)0x5FAUL << SCB_AIRCR_VECTKEY_Pos) |
                (PriorityGroupTmp << SCB_AIRCR_PRIGROUP_Pos)  );              /* Insert write key and priority group */
 80015b4:	68fb      	ldr	r3, [r7, #12]
 80015b6:	021a      	lsls	r2, r3, #8
                ((uint32_t)0x5FAUL << SCB_AIRCR_VECTKEY_Pos) |
 80015b8:	68bb      	ldr	r3, [r7, #8]
 80015ba:	4313      	orrs	r3, r2
  reg_value  =  (reg_value                                   |
 80015bc:	f043 63bf 	orr.w	r3, r3, #100139008	; 0x5f80000
 80015c0:	f443 3300 	orr.w	r3, r3, #131072	; 0x20000
 80015c4:	60bb      	str	r3, [r7, #8]
  SCB->AIRCR =  reg_value;
 80015c6:	4a04      	ldr	r2, [pc, #16]	; (80015d8 <__NVIC_SetPriorityGrouping+0x44>)
 80015c8:	68bb      	ldr	r3, [r7, #8]
 80015ca:	60d3      	str	r3, [r2, #12]
}
 80015cc:	bf00      	nop
 80015ce:	3714      	adds	r7, #20
 80015d0:	46bd      	mov	sp, r7
 80015d2:	f85d 7b04 	ldr.w	r7, [sp], #4
 80015d6:	4770      	bx	lr
 80015d8:	e000ed00 	.word	0xe000ed00

080015dc <__NVIC_GetPriorityGrouping>:
  \brief   Get Priority Grouping
  \details Reads the priority grouping field from the NVIC Interrupt Controller.
  \return                Priority grouping field (SCB->AIRCR [10:8] PRIGROUP field).
 */
__STATIC_INLINE uint32_t __NVIC_GetPriorityGrouping(void)
{
 80015dc:	b480      	push	{r7}
 80015de:	af00      	add	r7, sp, #0
  return ((uint32_t)((SCB->AIRCR & SCB_AIRCR_PRIGROUP_Msk) >> SCB_AIRCR_PRIGROUP_Pos));
 80015e0:	4b04      	ldr	r3, [pc, #16]	; (80015f4 <__NVIC_GetPriorityGrouping+0x18>)
 80015e2:	68db      	ldr	r3, [r3, #12]
 80015e4:	0a1b      	lsrs	r3, r3, #8
 80015e6:	f003 0307 	and.w	r3, r3, #7
}
 80015ea:	4618      	mov	r0, r3
 80015ec:	46bd      	mov	sp, r7
 80015ee:	f85d 7b04 	ldr.w	r7, [sp], #4
 80015f2:	4770      	bx	lr
 80015f4:	e000ed00 	.word	0xe000ed00

080015f8 <__NVIC_EnableIRQ>:
  \details Enables a device specific interrupt in the NVIC interrupt controller.
  \param [in]      IRQn  Device specific interrupt number.
  \note    IRQn must not be negative.
 */
__STATIC_INLINE void __NVIC_EnableIRQ(IRQn_Type IRQn)
{
 80015f8:	b480      	push	{r7}
 80015fa:	b083      	sub	sp, #12
 80015fc:	af00      	add	r7, sp, #0
 80015fe:	4603      	mov	r3, r0
 8001600:	71fb      	strb	r3, [r7, #7]
  if ((int32_t)(IRQn) >= 0)
 8001602:	f997 3007 	ldrsb.w	r3, [r7, #7]
 8001606:	2b00      	cmp	r3, #0
 8001608:	db0b      	blt.n	8001622 <__NVIC_EnableIRQ+0x2a>
  {
    NVIC->ISER[(((uint32_t)IRQn) >> 5UL)] = (uint32_t)(1UL << (((uint32_t)IRQn) & 0x1FUL));
 800160a:	79fb      	ldrb	r3, [r7, #7]
 800160c:	f003 021f 	and.w	r2, r3, #31
 8001610:	4907      	ldr	r1, [pc, #28]	; (8001630 <__NVIC_EnableIRQ+0x38>)
 8001612:	f997 3007 	ldrsb.w	r3, [r7, #7]
 8001616:	095b      	lsrs	r3, r3, #5
 8001618:	2001      	movs	r0, #1
 800161a:	fa00 f202 	lsl.w	r2, r0, r2
 800161e:	f841 2023 	str.w	r2, [r1, r3, lsl #2]
  }
}
 8001622:	bf00      	nop
 8001624:	370c      	adds	r7, #12
 8001626:	46bd      	mov	sp, r7
 8001628:	f85d 7b04 	ldr.w	r7, [sp], #4
 800162c:	4770      	bx	lr
 800162e:	bf00      	nop
 8001630:	e000e100 	.word	0xe000e100

08001634 <__NVIC_SetPriority>:
  \param [in]      IRQn  Interrupt number.
  \param [in]  priority  Priority to set.
  \note    The priority cannot be set for every processor exception.
 */
__STATIC_INLINE void __NVIC_SetPriority(IRQn_Type IRQn, uint32_t priority)
{
 8001634:	b480      	push	{r7}
 8001636:	b083      	sub	sp, #12
 8001638:	af00      	add	r7, sp, #0
 800163a:	4603      	mov	r3, r0
 800163c:	6039      	str	r1, [r7, #0]
 800163e:	71fb      	strb	r3, [r7, #7]
  if ((int32_t)(IRQn) >= 0)
 8001640:	f997 3007 	ldrsb.w	r3, [r7, #7]
 8001644:	2b00      	cmp	r3, #0
 8001646:	db0a      	blt.n	800165e <__NVIC_SetPriority+0x2a>
  {
    NVIC->IP[((uint32_t)IRQn)]               = (uint8_t)((priority << (8U - __NVIC_PRIO_BITS)) & (uint32_t)0xFFUL);
 8001648:	683b      	ldr	r3, [r7, #0]
 800164a:	b2da      	uxtb	r2, r3
 800164c:	490c      	ldr	r1, [pc, #48]	; (8001680 <__NVIC_SetPriority+0x4c>)
 800164e:	f997 3007 	ldrsb.w	r3, [r7, #7]
 8001652:	0112      	lsls	r2, r2, #4
 8001654:	b2d2      	uxtb	r2, r2
 8001656:	440b      	add	r3, r1
 8001658:	f883 2300 	strb.w	r2, [r3, #768]	; 0x300
  }
  else
  {
    SCB->SHP[(((uint32_t)IRQn) & 0xFUL)-4UL] = (uint8_t)((priority << (8U - __NVIC_PRIO_BITS)) & (uint32_t)0xFFUL);
  }
}
 800165c:	e00a      	b.n	8001674 <__NVIC_SetPriority+0x40>
    SCB->SHP[(((uint32_t)IRQn) & 0xFUL)-4UL] = (uint8_t)((priority << (8U - __NVIC_PRIO_BITS)) & (uint32_t)0xFFUL);
 800165e:	683b      	ldr	r3, [r7, #0]
 8001660:	b2da      	uxtb	r2, r3
 8001662:	4908      	ldr	r1, [pc, #32]	; (8001684 <__NVIC_SetPriority+0x50>)
 8001664:	79fb      	ldrb	r3, [r7, #7]
 8001666:	f003 030f 	and.w	r3, r3, #15
 800166a:	3b04      	subs	r3, #4
 800166c:	0112      	lsls	r2, r2, #4
 800166e:	b2d2      	uxtb	r2, r2
 8001670:	440b      	add	r3, r1
 8001672:	761a      	strb	r2, [r3, #24]
}
 8001674:	bf00      	nop
 8001676:	370c      	adds	r7, #12
 8001678:	46bd      	mov	sp, r7
 800167a:	f85d 7b04 	ldr.w	r7, [sp], #4
 800167e:	4770      	bx	lr
 8001680:	e000e100 	.word	0xe000e100
 8001684:	e000ed00 	.word	0xe000ed00

08001688 <NVIC_EncodePriority>:
  \param [in]   PreemptPriority  Preemptive priority value (starting from 0).
  \param [in]       SubPriority  Subpriority value (starting from 0).
  \return                        Encoded priority. Value can be used in the function \ref NVIC_SetPriority().
 */
__STATIC_INLINE uint32_t NVIC_EncodePriority (uint32_t PriorityGroup, uint32_t PreemptPriority, uint32_t SubPriority)
{
 8001688:	b480      	push	{r7}
 800168a:	b089      	sub	sp, #36	; 0x24
 800168c:	af00      	add	r7, sp, #0
 800168e:	60f8      	str	r0, [r7, #12]
 8001690:	60b9      	str	r1, [r7, #8]
 8001692:	607a      	str	r2, [r7, #4]
  uint32_t PriorityGroupTmp = (PriorityGroup & (uint32_t)0x07UL);   /* only values 0..7 are used          */
 8001694:	68fb      	ldr	r3, [r7, #12]
 8001696:	f003 0307 	and.w	r3, r3, #7
 800169a:	61fb      	str	r3, [r7, #28]
  uint32_t PreemptPriorityBits;
  uint32_t SubPriorityBits;

  PreemptPriorityBits = ((7UL - PriorityGroupTmp) > (uint32_t)(__NVIC_PRIO_BITS)) ? (uint32_t)(__NVIC_PRIO_BITS) : (uint32_t)(7UL - PriorityGroupTmp);
 800169c:	69fb      	ldr	r3, [r7, #28]
 800169e:	f1c3 0307 	rsb	r3, r3, #7
 80016a2:	2b04      	cmp	r3, #4
 80016a4:	bf28      	it	cs
 80016a6:	2304      	movcs	r3, #4
 80016a8:	61bb      	str	r3, [r7, #24]
  SubPriorityBits     = ((PriorityGroupTmp + (uint32_t)(__NVIC_PRIO_BITS)) < (uint32_t)7UL) ? (uint32_t)0UL : (uint32_t)((PriorityGroupTmp - 7UL) + (uint32_t)(__NVIC_PRIO_BITS));
 80016aa:	69fb      	ldr	r3, [r7, #28]
 80016ac:	3304      	adds	r3, #4
 80016ae:	2b06      	cmp	r3, #6
 80016b0:	d902      	bls.n	80016b8 <NVIC_EncodePriority+0x30>
 80016b2:	69fb      	ldr	r3, [r7, #28]
 80016b4:	3b03      	subs	r3, #3
 80016b6:	e000      	b.n	80016ba <NVIC_EncodePriority+0x32>
 80016b8:	2300      	movs	r3, #0
 80016ba:	617b      	str	r3, [r7, #20]

  return (
           ((PreemptPriority & (uint32_t)((1UL << (PreemptPriorityBits)) - 1UL)) << SubPriorityBits) |
 80016bc:	f04f 32ff 	mov.w	r2, #4294967295
 80016c0:	69bb      	ldr	r3, [r7, #24]
 80016c2:	fa02 f303 	lsl.w	r3, r2, r3
 80016c6:	43da      	mvns	r2, r3
 80016c8:	68bb      	ldr	r3, [r7, #8]
 80016ca:	401a      	ands	r2, r3
 80016cc:	697b      	ldr	r3, [r7, #20]
 80016ce:	409a      	lsls	r2, r3
           ((SubPriority     & (uint32_t)((1UL << (SubPriorityBits    )) - 1UL)))
 80016d0:	f04f 31ff 	mov.w	r1, #4294967295
 80016d4:	697b      	ldr	r3, [r7, #20]
 80016d6:	fa01 f303 	lsl.w	r3, r1, r3
 80016da:	43d9      	mvns	r1, r3
 80016dc:	687b      	ldr	r3, [r7, #4]
 80016de:	400b      	ands	r3, r1
           ((PreemptPriority & (uint32_t)((1UL << (PreemptPriorityBits)) - 1UL)) << SubPriorityBits) |
 80016e0:	4313      	orrs	r3, r2
         );
}
 80016e2:	4618      	mov	r0, r3
 80016e4:	3724      	adds	r7, #36	; 0x24
 80016e6:	46bd      	mov	sp, r7
 80016e8:	f85d 7b04 	ldr.w	r7, [sp], #4
 80016ec:	4770      	bx	lr
	...

080016f0 <SysTick_Config>:
  \note    When the variable <b>__Vendor_SysTickConfig</b> is set to 1, then the
           function <b>SysTick_Config</b> is not included. In this case, the file <b><i>device</i>.h</b>
           must contain a vendor-specific implementation of this function.
 */
__STATIC_INLINE uint32_t SysTick_Config(uint32_t ticks)
{
 80016f0:	b580      	push	{r7, lr}
 80016f2:	b082      	sub	sp, #8
 80016f4:	af00      	add	r7, sp, #0
 80016f6:	6078      	str	r0, [r7, #4]
  if ((ticks - 1UL) > SysTick_LOAD_RELOAD_Msk)
 80016f8:	687b      	ldr	r3, [r7, #4]
 80016fa:	3b01      	subs	r3, #1
 80016fc:	f1b3 7f80 	cmp.w	r3, #16777216	; 0x1000000
 8001700:	d301      	bcc.n	8001706 <SysTick_Config+0x16>
  {
    return (1UL);                                                   /* Reload value impossible */
 8001702:	2301      	movs	r3, #1
 8001704:	e00f      	b.n	8001726 <SysTick_Config+0x36>
  }

  SysTick->LOAD  = (uint32_t)(ticks - 1UL);                         /* set reload register */
 8001706:	4a0a      	ldr	r2, [pc, #40]	; (8001730 <SysTick_Config+0x40>)
 8001708:	687b      	ldr	r3, [r7, #4]
 800170a:	3b01      	subs	r3, #1
 800170c:	6053      	str	r3, [r2, #4]
  NVIC_SetPriority (SysTick_IRQn, (1UL << __NVIC_PRIO_BITS) - 1UL); /* set Priority for Systick Interrupt */
 800170e:	210f      	movs	r1, #15
 8001710:	f04f 30ff 	mov.w	r0, #4294967295
 8001714:	f7ff ff8e 	bl	8001634 <__NVIC_SetPriority>
  SysTick->VAL   = 0UL;                                             /* Load the SysTick Counter Value */
 8001718:	4b05      	ldr	r3, [pc, #20]	; (8001730 <SysTick_Config+0x40>)
 800171a:	2200      	movs	r2, #0
 800171c:	609a      	str	r2, [r3, #8]
  SysTick->CTRL  = SysTick_CTRL_CLKSOURCE_Msk |
 800171e:	4b04      	ldr	r3, [pc, #16]	; (8001730 <SysTick_Config+0x40>)
 8001720:	2207      	movs	r2, #7
 8001722:	601a      	str	r2, [r3, #0]
                   SysTick_CTRL_TICKINT_Msk   |
                   SysTick_CTRL_ENABLE_Msk;                         /* Enable SysTick IRQ and SysTick Timer */
  return (0UL);                                                     /* Function successful */
 8001724:	2300      	movs	r3, #0
}
 8001726:	4618      	mov	r0, r3
 8001728:	3708      	adds	r7, #8
 800172a:	46bd      	mov	sp, r7
 800172c:	bd80      	pop	{r7, pc}
 800172e:	bf00      	nop
 8001730:	e000e010 	.word	0xe000e010

08001734 <HAL_NVIC_SetPriorityGrouping>:
  * @note   When the NVIC_PriorityGroup_0 is selected, IRQ preemption is no more possible. 
  *         The pending IRQ priority will be managed only by the subpriority. 
  * @retval None
  */
void HAL_NVIC_SetPriorityGrouping(uint32_t PriorityGroup)
{
 8001734:	b580      	push	{r7, lr}
 8001736:	b082      	sub	sp, #8
 8001738:	af00      	add	r7, sp, #0
 800173a:	6078      	str	r0, [r7, #4]
  /* Check the parameters */
  assert_param(IS_NVIC_PRIORITY_GROUP(PriorityGroup));
  
  /* Set the PRIGROUP[10:8] bits according to the PriorityGroup parameter value */
  NVIC_SetPriorityGrouping(PriorityGroup);
 800173c:	6878      	ldr	r0, [r7, #4]
 800173e:	f7ff ff29 	bl	8001594 <__NVIC_SetPriorityGrouping>
}
 8001742:	bf00      	nop
 8001744:	3708      	adds	r7, #8
 8001746:	46bd      	mov	sp, r7
 8001748:	bd80      	pop	{r7, pc}

0800174a <HAL_NVIC_SetPriority>:
  *         This parameter can be a value between 0 and 15
  *         A lower priority value indicates a higher priority.          
  * @retval None
  */
void HAL_NVIC_SetPriority(IRQn_Type IRQn, uint32_t PreemptPriority, uint32_t SubPriority)
{ 
 800174a:	b580      	push	{r7, lr}
 800174c:	b086      	sub	sp, #24
 800174e:	af00      	add	r7, sp, #0
 8001750:	4603      	mov	r3, r0
 8001752:	60b9      	str	r1, [r7, #8]
 8001754:	607a      	str	r2, [r7, #4]
 8001756:	73fb      	strb	r3, [r7, #15]
  uint32_t prioritygroup = 0x00U;
 8001758:	2300      	movs	r3, #0
 800175a:	617b      	str	r3, [r7, #20]
  
  /* Check the parameters */
  assert_param(IS_NVIC_SUB_PRIORITY(SubPriority));
  assert_param(IS_NVIC_PREEMPTION_PRIORITY(PreemptPriority));
  
  prioritygroup = NVIC_GetPriorityGrouping();
 800175c:	f7ff ff3e 	bl	80015dc <__NVIC_GetPriorityGrouping>
 8001760:	6178      	str	r0, [r7, #20]
  
  NVIC_SetPriority(IRQn, NVIC_EncodePriority(prioritygroup, PreemptPriority, SubPriority));
 8001762:	687a      	ldr	r2, [r7, #4]
 8001764:	68b9      	ldr	r1, [r7, #8]
 8001766:	6978      	ldr	r0, [r7, #20]
 8001768:	f7ff ff8e 	bl	8001688 <NVIC_EncodePriority>
 800176c:	4602      	mov	r2, r0
 800176e:	f997 300f 	ldrsb.w	r3, [r7, #15]
 8001772:	4611      	mov	r1, r2
 8001774:	4618      	mov	r0, r3
 8001776:	f7ff ff5d 	bl	8001634 <__NVIC_SetPriority>
}
 800177a:	bf00      	nop
 800177c:	3718      	adds	r7, #24
 800177e:	46bd      	mov	sp, r7
 8001780:	bd80      	pop	{r7, pc}

08001782 <HAL_NVIC_EnableIRQ>:
  *         This parameter can be an enumerator of IRQn_Type enumeration
  *         (For the complete STM32 Devices IRQ Channels list, please refer to the appropriate CMSIS device file (stm32f4xxxx.h))
  * @retval None
  */
void HAL_NVIC_EnableIRQ(IRQn_Type IRQn)
{
 8001782:	b580      	push	{r7, lr}
 8001784:	b082      	sub	sp, #8
 8001786:	af00      	add	r7, sp, #0
 8001788:	4603      	mov	r3, r0
 800178a:	71fb      	strb	r3, [r7, #7]
  /* Check the parameters */
  assert_param(IS_NVIC_DEVICE_IRQ(IRQn));
  
  /* Enable interrupt */
  NVIC_EnableIRQ(IRQn);
 800178c:	f997 3007 	ldrsb.w	r3, [r7, #7]
 8001790:	4618      	mov	r0, r3
 8001792:	f7ff ff31 	bl	80015f8 <__NVIC_EnableIRQ>
}
 8001796:	bf00      	nop
 8001798:	3708      	adds	r7, #8
 800179a:	46bd      	mov	sp, r7
 800179c:	bd80      	pop	{r7, pc}

0800179e <HAL_SYSTICK_Config>:
  * @param  TicksNumb Specifies the ticks Number of ticks between two interrupts.
  * @retval status:  - 0  Function succeeded.
  *                  - 1  Function failed.
  */
uint32_t HAL_SYSTICK_Config(uint32_t TicksNumb)
{
 800179e:	b580      	push	{r7, lr}
 80017a0:	b082      	sub	sp, #8
 80017a2:	af00      	add	r7, sp, #0
 80017a4:	6078      	str	r0, [r7, #4]
   return SysTick_Config(TicksNumb);
 80017a6:	6878      	ldr	r0, [r7, #4]
 80017a8:	f7ff ffa2 	bl	80016f0 <SysTick_Config>
 80017ac:	4603      	mov	r3, r0
}
 80017ae:	4618      	mov	r0, r3
 80017b0:	3708      	adds	r7, #8
 80017b2:	46bd      	mov	sp, r7
 80017b4:	bd80      	pop	{r7, pc}

080017b6 <HAL_DMA_Abort>:
  *        and the Stream will be effectively disabled only after the transfer of
  *        this single data is finished.  
  * @retval HAL status
  */
HAL_StatusTypeDef HAL_DMA_Abort(DMA_HandleTypeDef *hdma)
{
 80017b6:	b580      	push	{r7, lr}
 80017b8:	b084      	sub	sp, #16
 80017ba:	af00      	add	r7, sp, #0
 80017bc:	6078      	str	r0, [r7, #4]
  /* calculate DMA base and stream number */
  DMA_Base_Registers *regs = (DMA_Base_Registers *)hdma->StreamBaseAddress;
 80017be:	687b      	ldr	r3, [r7, #4]
 80017c0:	6d9b      	ldr	r3, [r3, #88]	; 0x58
 80017c2:	60fb      	str	r3, [r7, #12]
  
  uint32_t tickstart = HAL_GetTick();
 80017c4:	f7ff feb6 	bl	8001534 <HAL_GetTick>
 80017c8:	60b8      	str	r0, [r7, #8]
  
  if(hdma->State != HAL_DMA_STATE_BUSY)
 80017ca:	687b      	ldr	r3, [r7, #4]
 80017cc:	f893 3035 	ldrb.w	r3, [r3, #53]	; 0x35
 80017d0:	b2db      	uxtb	r3, r3
 80017d2:	2b02      	cmp	r3, #2
 80017d4:	d008      	beq.n	80017e8 <HAL_DMA_Abort+0x32>
  {
    hdma->ErrorCode = HAL_DMA_ERROR_NO_XFER;
 80017d6:	687b      	ldr	r3, [r7, #4]
 80017d8:	2280      	movs	r2, #128	; 0x80
 80017da:	655a      	str	r2, [r3, #84]	; 0x54
    
    /* Process Unlocked */
    __HAL_UNLOCK(hdma);
 80017dc:	687b      	ldr	r3, [r7, #4]
 80017de:	2200      	movs	r2, #0
 80017e0:	f883 2034 	strb.w	r2, [r3, #52]	; 0x34
    
    return HAL_ERROR;
 80017e4:	2301      	movs	r3, #1
 80017e6:	e052      	b.n	800188e <HAL_DMA_Abort+0xd8>
  }
  else
  {
    /* Disable all the transfer interrupts */
    hdma->Instance->CR  &= ~(DMA_IT_TC | DMA_IT_TE | DMA_IT_DME);
 80017e8:	687b      	ldr	r3, [r7, #4]
 80017ea:	681b      	ldr	r3, [r3, #0]
 80017ec:	681a      	ldr	r2, [r3, #0]
 80017ee:	687b      	ldr	r3, [r7, #4]
 80017f0:	681b      	ldr	r3, [r3, #0]
 80017f2:	f022 0216 	bic.w	r2, r2, #22
 80017f6:	601a      	str	r2, [r3, #0]
    hdma->Instance->FCR &= ~(DMA_IT_FE);
 80017f8:	687b      	ldr	r3, [r7, #4]
 80017fa:	681b      	ldr	r3, [r3, #0]
 80017fc:	695a      	ldr	r2, [r3, #20]
 80017fe:	687b      	ldr	r3, [r7, #4]
 8001800:	681b      	ldr	r3, [r3, #0]
 8001802:	f022 0280 	bic.w	r2, r2, #128	; 0x80
 8001806:	615a      	str	r2, [r3, #20]
    
    if((hdma->XferHalfCpltCallback != NULL) || (hdma->XferM1HalfCpltCallback != NULL))
 8001808:	687b      	ldr	r3, [r7, #4]
 800180a:	6c1b      	ldr	r3, [r3, #64]	; 0x40
 800180c:	2b00      	cmp	r3, #0
 800180e:	d103      	bne.n	8001818 <HAL_DMA_Abort+0x62>
 8001810:	687b      	ldr	r3, [r7, #4]
 8001812:	6c9b      	ldr	r3, [r3, #72]	; 0x48
 8001814:	2b00      	cmp	r3, #0
 8001816:	d007      	beq.n	8001828 <HAL_DMA_Abort+0x72>
    {
      hdma->Instance->CR  &= ~(DMA_IT_HT);
 8001818:	687b      	ldr	r3, [r7, #4]
 800181a:	681b      	ldr	r3, [r3, #0]
 800181c:	681a      	ldr	r2, [r3, #0]
 800181e:	687b      	ldr	r3, [r7, #4]
 8001820:	681b      	ldr	r3, [r3, #0]
 8001822:	f022 0208 	bic.w	r2, r2, #8
 8001826:	601a      	str	r2, [r3, #0]
    }
    
    /* Disable the stream */
    __HAL_DMA_DISABLE(hdma);
 8001828:	687b      	ldr	r3, [r7, #4]
 800182a:	681b      	ldr	r3, [r3, #0]
 800182c:	681a      	ldr	r2, [r3, #0]
 800182e:	687b      	ldr	r3, [r7, #4]
 8001830:	681b      	ldr	r3, [r3, #0]
 8001832:	f022 0201 	bic.w	r2, r2, #1
 8001836:	601a      	str	r2, [r3, #0]
    
    /* Check if the DMA Stream is effectively disabled */
    while((hdma->Instance->CR & DMA_SxCR_EN) != RESET)
 8001838:	e013      	b.n	8001862 <HAL_DMA_Abort+0xac>
    {
      /* Check for the Timeout */
      if((HAL_GetTick() - tickstart ) > HAL_TIMEOUT_DMA_ABORT)
 800183a:	f7ff fe7b 	bl	8001534 <HAL_GetTick>
 800183e:	4602      	mov	r2, r0
 8001840:	68bb      	ldr	r3, [r7, #8]
 8001842:	1ad3      	subs	r3, r2, r3
 8001844:	2b05      	cmp	r3, #5
 8001846:	d90c      	bls.n	8001862 <HAL_DMA_Abort+0xac>
      {
        /* Update error code */
        hdma->ErrorCode = HAL_DMA_ERROR_TIMEOUT;
 8001848:	687b      	ldr	r3, [r7, #4]
 800184a:	2220      	movs	r2, #32
 800184c:	655a      	str	r2, [r3, #84]	; 0x54
        
        /* Change the DMA state */
        hdma->State = HAL_DMA_STATE_TIMEOUT;
 800184e:	687b      	ldr	r3, [r7, #4]
 8001850:	2203      	movs	r2, #3
 8001852:	f883 2035 	strb.w	r2, [r3, #53]	; 0x35
        
        /* Process Unlocked */
        __HAL_UNLOCK(hdma);
 8001856:	687b      	ldr	r3, [r7, #4]
 8001858:	2200      	movs	r2, #0
 800185a:	f883 2034 	strb.w	r2, [r3, #52]	; 0x34
        
        return HAL_TIMEOUT;
 800185e:	2303      	movs	r3, #3
 8001860:	e015      	b.n	800188e <HAL_DMA_Abort+0xd8>
    while((hdma->Instance->CR & DMA_SxCR_EN) != RESET)
 8001862:	687b      	ldr	r3, [r7, #4]
 8001864:	681b      	ldr	r3, [r3, #0]
 8001866:	681b      	ldr	r3, [r3, #0]
 8001868:	f003 0301 	and.w	r3, r3, #1
 800186c:	2b00      	cmp	r3, #0
 800186e:	d1e4      	bne.n	800183a <HAL_DMA_Abort+0x84>
      }
    }
    
    /* Clear all interrupt flags at correct offset within the register */
    regs->IFCR = 0x3FU << hdma->StreamIndex;
 8001870:	687b      	ldr	r3, [r7, #4]
 8001872:	6ddb      	ldr	r3, [r3, #92]	; 0x5c
 8001874:	223f      	movs	r2, #63	; 0x3f
 8001876:	409a      	lsls	r2, r3
 8001878:	68fb      	ldr	r3, [r7, #12]
 800187a:	609a      	str	r2, [r3, #8]
    
    /* Change the DMA state*/
    hdma->State = HAL_DMA_STATE_READY;
 800187c:	687b      	ldr	r3, [r7, #4]
 800187e:	2201      	movs	r2, #1
 8001880:	f883 2035 	strb.w	r2, [r3, #53]	; 0x35
    
    /* Process Unlocked */
    __HAL_UNLOCK(hdma);
 8001884:	687b      	ldr	r3, [r7, #4]
 8001886:	2200      	movs	r2, #0
 8001888:	f883 2034 	strb.w	r2, [r3, #52]	; 0x34
  }
  return HAL_OK;
 800188c:	2300      	movs	r3, #0
}
 800188e:	4618      	mov	r0, r3
 8001890:	3710      	adds	r7, #16
 8001892:	46bd      	mov	sp, r7
 8001894:	bd80      	pop	{r7, pc}

08001896 <HAL_DMA_Abort_IT>:
  * @param  hdma   pointer to a DMA_HandleTypeDef structure that contains
  *                 the configuration information for the specified DMA Stream.
  * @retval HAL status
  */
HAL_StatusTypeDef HAL_DMA_Abort_IT(DMA_HandleTypeDef *hdma)
{
 8001896:	b480      	push	{r7}
 8001898:	b083      	sub	sp, #12
 800189a:	af00      	add	r7, sp, #0
 800189c:	6078      	str	r0, [r7, #4]
  if(hdma->State != HAL_DMA_STATE_BUSY)
 800189e:	687b      	ldr	r3, [r7, #4]
 80018a0:	f893 3035 	ldrb.w	r3, [r3, #53]	; 0x35
 80018a4:	b2db      	uxtb	r3, r3
 80018a6:	2b02      	cmp	r3, #2
 80018a8:	d004      	beq.n	80018b4 <HAL_DMA_Abort_IT+0x1e>
  {
    hdma->ErrorCode = HAL_DMA_ERROR_NO_XFER;
 80018aa:	687b      	ldr	r3, [r7, #4]
 80018ac:	2280      	movs	r2, #128	; 0x80
 80018ae:	655a      	str	r2, [r3, #84]	; 0x54
    return HAL_ERROR;
 80018b0:	2301      	movs	r3, #1
 80018b2:	e00c      	b.n	80018ce <HAL_DMA_Abort_IT+0x38>
  }
  else
  {
    /* Set Abort State  */
    hdma->State = HAL_DMA_STATE_ABORT;
 80018b4:	687b      	ldr	r3, [r7, #4]
 80018b6:	2205      	movs	r2, #5
 80018b8:	f883 2035 	strb.w	r2, [r3, #53]	; 0x35
    
    /* Disable the stream */
    __HAL_DMA_DISABLE(hdma);
 80018bc:	687b      	ldr	r3, [r7, #4]
 80018be:	681b      	ldr	r3, [r3, #0]
 80018c0:	681a      	ldr	r2, [r3, #0]
 80018c2:	687b      	ldr	r3, [r7, #4]
 80018c4:	681b      	ldr	r3, [r3, #0]
 80018c6:	f022 0201 	bic.w	r2, r2, #1
 80018ca:	601a      	str	r2, [r3, #0]
  }

  return HAL_OK;
 80018cc:	2300      	movs	r3, #0
}
 80018ce:	4618      	mov	r0, r3
 80018d0:	370c      	adds	r7, #12
 80018d2:	46bd      	mov	sp, r7
 80018d4:	f85d 7b04 	ldr.w	r7, [sp], #4
 80018d8:	4770      	bx	lr
	...

080018dc <HAL_GPIO_Init>:
  * @param  GPIO_Init pointer to a GPIO_InitTypeDef structure that contains
  *         the configuration information for the specified GPIO peripheral.
  * @retval None
  */
void HAL_GPIO_Init(GPIO_TypeDef  *GPIOx, GPIO_InitTypeDef *GPIO_Init)
{
 80018dc:	b480      	push	{r7}
 80018de:	b089      	sub	sp, #36	; 0x24
 80018e0:	af00      	add	r7, sp, #0
 80018e2:	6078      	str	r0, [r7, #4]
 80018e4:	6039      	str	r1, [r7, #0]
  uint32_t position;
  uint32_t ioposition = 0x00U;
 80018e6:	2300      	movs	r3, #0
 80018e8:	617b      	str	r3, [r7, #20]
  uint32_t iocurrent = 0x00U;
 80018ea:	2300      	movs	r3, #0
 80018ec:	613b      	str	r3, [r7, #16]
  uint32_t temp = 0x00U;
 80018ee:	2300      	movs	r3, #0
 80018f0:	61bb      	str	r3, [r7, #24]
  assert_param(IS_GPIO_ALL_INSTANCE(GPIOx));
  assert_param(IS_GPIO_PIN(GPIO_Init->Pin));
  assert_param(IS_GPIO_MODE(GPIO_Init->Mode));

  /* Configure the port pins */
  for(position = 0U; position < GPIO_NUMBER; position++)
 80018f2:	2300      	movs	r3, #0
 80018f4:	61fb      	str	r3, [r7, #28]
 80018f6:	e159      	b.n	8001bac <HAL_GPIO_Init+0x2d0>
  {
    /* Get the IO position */
    ioposition = 0x01U << position;
 80018f8:	2201      	movs	r2, #1
 80018fa:	69fb      	ldr	r3, [r7, #28]
 80018fc:	fa02 f303 	lsl.w	r3, r2, r3
 8001900:	617b      	str	r3, [r7, #20]
    /* Get the current IO position */
    iocurrent = (uint32_t)(GPIO_Init->Pin) & ioposition;
 8001902:	683b      	ldr	r3, [r7, #0]
 8001904:	681b      	ldr	r3, [r3, #0]
 8001906:	697a      	ldr	r2, [r7, #20]
 8001908:	4013      	ands	r3, r2
 800190a:	613b      	str	r3, [r7, #16]

    if(iocurrent == ioposition)
 800190c:	693a      	ldr	r2, [r7, #16]
 800190e:	697b      	ldr	r3, [r7, #20]
 8001910:	429a      	cmp	r2, r3
 8001912:	f040 8148 	bne.w	8001ba6 <HAL_GPIO_Init+0x2ca>
    {
      /*--------------------- GPIO Mode Configuration ------------------------*/
      /* In case of Output or Alternate function mode selection */
      if(((GPIO_Init->Mode & GPIO_MODE) == MODE_OUTPUT) || \
 8001916:	683b      	ldr	r3, [r7, #0]
 8001918:	685b      	ldr	r3, [r3, #4]
 800191a:	f003 0303 	and.w	r3, r3, #3
 800191e:	2b01      	cmp	r3, #1
 8001920:	d005      	beq.n	800192e <HAL_GPIO_Init+0x52>
          (GPIO_Init->Mode & GPIO_MODE) == MODE_AF)
 8001922:	683b      	ldr	r3, [r7, #0]
 8001924:	685b      	ldr	r3, [r3, #4]
 8001926:	f003 0303 	and.w	r3, r3, #3
      if(((GPIO_Init->Mode & GPIO_MODE) == MODE_OUTPUT) || \
 800192a:	2b02      	cmp	r3, #2
 800192c:	d130      	bne.n	8001990 <HAL_GPIO_Init+0xb4>
      {
        /* Check the Speed parameter */
        assert_param(IS_GPIO_SPEED(GPIO_Init->Speed));
        /* Configure the IO Speed */
        temp = GPIOx->OSPEEDR; 
 800192e:	687b      	ldr	r3, [r7, #4]
 8001930:	689b      	ldr	r3, [r3, #8]
 8001932:	61bb      	str	r3, [r7, #24]
        temp &= ~(GPIO_OSPEEDER_OSPEEDR0 << (position * 2U));
 8001934:	69fb      	ldr	r3, [r7, #28]
 8001936:	005b      	lsls	r3, r3, #1
 8001938:	2203      	movs	r2, #3
 800193a:	fa02 f303 	lsl.w	r3, r2, r3
 800193e:	43db      	mvns	r3, r3
 8001940:	69ba      	ldr	r2, [r7, #24]
 8001942:	4013      	ands	r3, r2
 8001944:	61bb      	str	r3, [r7, #24]
        temp |= (GPIO_Init->Speed << (position * 2U));
 8001946:	683b      	ldr	r3, [r7, #0]
 8001948:	68da      	ldr	r2, [r3, #12]
 800194a:	69fb      	ldr	r3, [r7, #28]
 800194c:	005b      	lsls	r3, r3, #1
 800194e:	fa02 f303 	lsl.w	r3, r2, r3
 8001952:	69ba      	ldr	r2, [r7, #24]
 8001954:	4313      	orrs	r3, r2
 8001956:	61bb      	str	r3, [r7, #24]
        GPIOx->OSPEEDR = temp;
 8001958:	687b      	ldr	r3, [r7, #4]
 800195a:	69ba      	ldr	r2, [r7, #24]
 800195c:	609a      	str	r2, [r3, #8]

        /* Configure the IO Output Type */
        temp = GPIOx->OTYPER;
 800195e:	687b      	ldr	r3, [r7, #4]
 8001960:	685b      	ldr	r3, [r3, #4]
 8001962:	61bb      	str	r3, [r7, #24]
        temp &= ~(GPIO_OTYPER_OT_0 << position) ;
 8001964:	2201      	movs	r2, #1
 8001966:	69fb      	ldr	r3, [r7, #28]
 8001968:	fa02 f303 	lsl.w	r3, r2, r3
 800196c:	43db      	mvns	r3, r3
 800196e:	69ba      	ldr	r2, [r7, #24]
 8001970:	4013      	ands	r3, r2
 8001972:	61bb      	str	r3, [r7, #24]
        temp |= (((GPIO_Init->Mode & OUTPUT_TYPE) >> OUTPUT_TYPE_Pos) << position);
 8001974:	683b      	ldr	r3, [r7, #0]
 8001976:	685b      	ldr	r3, [r3, #4]
 8001978:	091b      	lsrs	r3, r3, #4
 800197a:	f003 0201 	and.w	r2, r3, #1
 800197e:	69fb      	ldr	r3, [r7, #28]
 8001980:	fa02 f303 	lsl.w	r3, r2, r3
 8001984:	69ba      	ldr	r2, [r7, #24]
 8001986:	4313      	orrs	r3, r2
 8001988:	61bb      	str	r3, [r7, #24]
        GPIOx->OTYPER = temp;
 800198a:	687b      	ldr	r3, [r7, #4]
 800198c:	69ba      	ldr	r2, [r7, #24]
 800198e:	605a      	str	r2, [r3, #4]
       }

      if((GPIO_Init->Mode & GPIO_MODE) != MODE_ANALOG)
 8001990:	683b      	ldr	r3, [r7, #0]
 8001992:	685b      	ldr	r3, [r3, #4]
 8001994:	f003 0303 	and.w	r3, r3, #3
 8001998:	2b03      	cmp	r3, #3
 800199a:	d017      	beq.n	80019cc <HAL_GPIO_Init+0xf0>
      {
        /* Check the parameters */
        assert_param(IS_GPIO_PULL(GPIO_Init->Pull));
        
        /* Activate the Pull-up or Pull down resistor for the current IO */
        temp = GPIOx->PUPDR;
 800199c:	687b      	ldr	r3, [r7, #4]
 800199e:	68db      	ldr	r3, [r3, #12]
 80019a0:	61bb      	str	r3, [r7, #24]
        temp &= ~(GPIO_PUPDR_PUPDR0 << (position * 2U));
 80019a2:	69fb      	ldr	r3, [r7, #28]
 80019a4:	005b      	lsls	r3, r3, #1
 80019a6:	2203      	movs	r2, #3
 80019a8:	fa02 f303 	lsl.w	r3, r2, r3
 80019ac:	43db      	mvns	r3, r3
 80019ae:	69ba      	ldr	r2, [r7, #24]
 80019b0:	4013      	ands	r3, r2
 80019b2:	61bb      	str	r3, [r7, #24]
        temp |= ((GPIO_Init->Pull) << (position * 2U));
 80019b4:	683b      	ldr	r3, [r7, #0]
 80019b6:	689a      	ldr	r2, [r3, #8]
 80019b8:	69fb      	ldr	r3, [r7, #28]
 80019ba:	005b      	lsls	r3, r3, #1
 80019bc:	fa02 f303 	lsl.w	r3, r2, r3
 80019c0:	69ba      	ldr	r2, [r7, #24]
 80019c2:	4313      	orrs	r3, r2
 80019c4:	61bb      	str	r3, [r7, #24]
        GPIOx->PUPDR = temp;
 80019c6:	687b      	ldr	r3, [r7, #4]
 80019c8:	69ba      	ldr	r2, [r7, #24]
 80019ca:	60da      	str	r2, [r3, #12]
      }

      /* In case of Alternate function mode selection */
      if((GPIO_Init->Mode & GPIO_MODE) == MODE_AF)
 80019cc:	683b      	ldr	r3, [r7, #0]
 80019ce:	685b      	ldr	r3, [r3, #4]
 80019d0:	f003 0303 	and.w	r3, r3, #3
 80019d4:	2b02      	cmp	r3, #2
 80019d6:	d123      	bne.n	8001a20 <HAL_GPIO_Init+0x144>
      {
        /* Check the Alternate function parameter */
        assert_param(IS_GPIO_AF(GPIO_Init->Alternate));
        /* Configure Alternate function mapped with the current IO */
        temp = GPIOx->AFR[position >> 3U];
 80019d8:	69fb      	ldr	r3, [r7, #28]
 80019da:	08da      	lsrs	r2, r3, #3
 80019dc:	687b      	ldr	r3, [r7, #4]
 80019de:	3208      	adds	r2, #8
 80019e0:	f853 3022 	ldr.w	r3, [r3, r2, lsl #2]
 80019e4:	61bb      	str	r3, [r7, #24]
        temp &= ~(0xFU << ((uint32_t)(position & 0x07U) * 4U)) ;
 80019e6:	69fb      	ldr	r3, [r7, #28]
 80019e8:	f003 0307 	and.w	r3, r3, #7
 80019ec:	009b      	lsls	r3, r3, #2
 80019ee:	220f      	movs	r2, #15
 80019f0:	fa02 f303 	lsl.w	r3, r2, r3
 80019f4:	43db      	mvns	r3, r3
 80019f6:	69ba      	ldr	r2, [r7, #24]
 80019f8:	4013      	ands	r3, r2
 80019fa:	61bb      	str	r3, [r7, #24]
        temp |= ((uint32_t)(GPIO_Init->Alternate) << (((uint32_t)position & 0x07U) * 4U));
 80019fc:	683b      	ldr	r3, [r7, #0]
 80019fe:	691a      	ldr	r2, [r3, #16]
 8001a00:	69fb      	ldr	r3, [r7, #28]
 8001a02:	f003 0307 	and.w	r3, r3, #7
 8001a06:	009b      	lsls	r3, r3, #2
 8001a08:	fa02 f303 	lsl.w	r3, r2, r3
 8001a0c:	69ba      	ldr	r2, [r7, #24]
 8001a0e:	4313      	orrs	r3, r2
 8001a10:	61bb      	str	r3, [r7, #24]
        GPIOx->AFR[position >> 3U] = temp;
 8001a12:	69fb      	ldr	r3, [r7, #28]
 8001a14:	08da      	lsrs	r2, r3, #3
 8001a16:	687b      	ldr	r3, [r7, #4]
 8001a18:	3208      	adds	r2, #8
 8001a1a:	69b9      	ldr	r1, [r7, #24]
 8001a1c:	f843 1022 	str.w	r1, [r3, r2, lsl #2]
      }

      /* Configure IO Direction mode (Input, Output, Alternate or Analog) */
      temp = GPIOx->MODER;
 8001a20:	687b      	ldr	r3, [r7, #4]
 8001a22:	681b      	ldr	r3, [r3, #0]
 8001a24:	61bb      	str	r3, [r7, #24]
      temp &= ~(GPIO_MODER_MODER0 << (position * 2U));
 8001a26:	69fb      	ldr	r3, [r7, #28]
 8001a28:	005b      	lsls	r3, r3, #1
 8001a2a:	2203      	movs	r2, #3
 8001a2c:	fa02 f303 	lsl.w	r3, r2, r3
 8001a30:	43db      	mvns	r3, r3
 8001a32:	69ba      	ldr	r2, [r7, #24]
 8001a34:	4013      	ands	r3, r2
 8001a36:	61bb      	str	r3, [r7, #24]
      temp |= ((GPIO_Init->Mode & GPIO_MODE) << (position * 2U));
 8001a38:	683b      	ldr	r3, [r7, #0]
 8001a3a:	685b      	ldr	r3, [r3, #4]
 8001a3c:	f003 0203 	and.w	r2, r3, #3
 8001a40:	69fb      	ldr	r3, [r7, #28]
 8001a42:	005b      	lsls	r3, r3, #1
 8001a44:	fa02 f303 	lsl.w	r3, r2, r3
 8001a48:	69ba      	ldr	r2, [r7, #24]
 8001a4a:	4313      	orrs	r3, r2
 8001a4c:	61bb      	str	r3, [r7, #24]
      GPIOx->MODER = temp;
 8001a4e:	687b      	ldr	r3, [r7, #4]
 8001a50:	69ba      	ldr	r2, [r7, #24]
 8001a52:	601a      	str	r2, [r3, #0]

      /*--------------------- EXTI Mode Configuration ------------------------*/
      /* Configure the External Interrupt or event for the current IO */
      if((GPIO_Init->Mode & EXTI_MODE) != 0x00U)
 8001a54:	683b      	ldr	r3, [r7, #0]
 8001a56:	685b      	ldr	r3, [r3, #4]
 8001a58:	f403 3340 	and.w	r3, r3, #196608	; 0x30000
 8001a5c:	2b00      	cmp	r3, #0
 8001a5e:	f000 80a2 	beq.w	8001ba6 <HAL_GPIO_Init+0x2ca>
      {
        /* Enable SYSCFG Clock */
        __HAL_RCC_SYSCFG_CLK_ENABLE();
 8001a62:	2300      	movs	r3, #0
 8001a64:	60fb      	str	r3, [r7, #12]
 8001a66:	4b57      	ldr	r3, [pc, #348]	; (8001bc4 <HAL_GPIO_Init+0x2e8>)
 8001a68:	6c5b      	ldr	r3, [r3, #68]	; 0x44
 8001a6a:	4a56      	ldr	r2, [pc, #344]	; (8001bc4 <HAL_GPIO_Init+0x2e8>)
 8001a6c:	f443 4380 	orr.w	r3, r3, #16384	; 0x4000
 8001a70:	6453      	str	r3, [r2, #68]	; 0x44
 8001a72:	4b54      	ldr	r3, [pc, #336]	; (8001bc4 <HAL_GPIO_Init+0x2e8>)
 8001a74:	6c5b      	ldr	r3, [r3, #68]	; 0x44
 8001a76:	f403 4380 	and.w	r3, r3, #16384	; 0x4000
 8001a7a:	60fb      	str	r3, [r7, #12]
 8001a7c:	68fb      	ldr	r3, [r7, #12]

        temp = SYSCFG->EXTICR[position >> 2U];
 8001a7e:	4a52      	ldr	r2, [pc, #328]	; (8001bc8 <HAL_GPIO_Init+0x2ec>)
 8001a80:	69fb      	ldr	r3, [r7, #28]
 8001a82:	089b      	lsrs	r3, r3, #2
 8001a84:	3302      	adds	r3, #2
 8001a86:	f852 3023 	ldr.w	r3, [r2, r3, lsl #2]
 8001a8a:	61bb      	str	r3, [r7, #24]
        temp &= ~(0x0FU << (4U * (position & 0x03U)));
 8001a8c:	69fb      	ldr	r3, [r7, #28]
 8001a8e:	f003 0303 	and.w	r3, r3, #3
 8001a92:	009b      	lsls	r3, r3, #2
 8001a94:	220f      	movs	r2, #15
 8001a96:	fa02 f303 	lsl.w	r3, r2, r3
 8001a9a:	43db      	mvns	r3, r3
 8001a9c:	69ba      	ldr	r2, [r7, #24]
 8001a9e:	4013      	ands	r3, r2
 8001aa0:	61bb      	str	r3, [r7, #24]
        temp |= ((uint32_t)(GPIO_GET_INDEX(GPIOx)) << (4U * (position & 0x03U)));
 8001aa2:	687b      	ldr	r3, [r7, #4]
 8001aa4:	4a49      	ldr	r2, [pc, #292]	; (8001bcc <HAL_GPIO_Init+0x2f0>)
 8001aa6:	4293      	cmp	r3, r2
 8001aa8:	d019      	beq.n	8001ade <HAL_GPIO_Init+0x202>
 8001aaa:	687b      	ldr	r3, [r7, #4]
 8001aac:	4a48      	ldr	r2, [pc, #288]	; (8001bd0 <HAL_GPIO_Init+0x2f4>)
 8001aae:	4293      	cmp	r3, r2
 8001ab0:	d013      	beq.n	8001ada <HAL_GPIO_Init+0x1fe>
 8001ab2:	687b      	ldr	r3, [r7, #4]
 8001ab4:	4a47      	ldr	r2, [pc, #284]	; (8001bd4 <HAL_GPIO_Init+0x2f8>)
 8001ab6:	4293      	cmp	r3, r2
 8001ab8:	d00d      	beq.n	8001ad6 <HAL_GPIO_Init+0x1fa>
 8001aba:	687b      	ldr	r3, [r7, #4]
 8001abc:	4a46      	ldr	r2, [pc, #280]	; (8001bd8 <HAL_GPIO_Init+0x2fc>)
 8001abe:	4293      	cmp	r3, r2
 8001ac0:	d007      	beq.n	8001ad2 <HAL_GPIO_Init+0x1f6>
 8001ac2:	687b      	ldr	r3, [r7, #4]
 8001ac4:	4a45      	ldr	r2, [pc, #276]	; (8001bdc <HAL_GPIO_Init+0x300>)
 8001ac6:	4293      	cmp	r3, r2
 8001ac8:	d101      	bne.n	8001ace <HAL_GPIO_Init+0x1f2>
 8001aca:	2304      	movs	r3, #4
 8001acc:	e008      	b.n	8001ae0 <HAL_GPIO_Init+0x204>
 8001ace:	2307      	movs	r3, #7
 8001ad0:	e006      	b.n	8001ae0 <HAL_GPIO_Init+0x204>
 8001ad2:	2303      	movs	r3, #3
 8001ad4:	e004      	b.n	8001ae0 <HAL_GPIO_Init+0x204>
 8001ad6:	2302      	movs	r3, #2
 8001ad8:	e002      	b.n	8001ae0 <HAL_GPIO_Init+0x204>
 8001ada:	2301      	movs	r3, #1
 8001adc:	e000      	b.n	8001ae0 <HAL_GPIO_Init+0x204>
 8001ade:	2300      	movs	r3, #0
 8001ae0:	69fa      	ldr	r2, [r7, #28]
 8001ae2:	f002 0203 	and.w	r2, r2, #3
 8001ae6:	0092      	lsls	r2, r2, #2
 8001ae8:	4093      	lsls	r3, r2
 8001aea:	69ba      	ldr	r2, [r7, #24]
 8001aec:	4313      	orrs	r3, r2
 8001aee:	61bb      	str	r3, [r7, #24]
        SYSCFG->EXTICR[position >> 2U] = temp;
 8001af0:	4935      	ldr	r1, [pc, #212]	; (8001bc8 <HAL_GPIO_Init+0x2ec>)
 8001af2:	69fb      	ldr	r3, [r7, #28]
 8001af4:	089b      	lsrs	r3, r3, #2
 8001af6:	3302      	adds	r3, #2
 8001af8:	69ba      	ldr	r2, [r7, #24]
 8001afa:	f841 2023 	str.w	r2, [r1, r3, lsl #2]

        /* Clear Rising Falling edge configuration */
        temp = EXTI->RTSR;
 8001afe:	4b38      	ldr	r3, [pc, #224]	; (8001be0 <HAL_GPIO_Init+0x304>)
 8001b00:	689b      	ldr	r3, [r3, #8]
 8001b02:	61bb      	str	r3, [r7, #24]
        temp &= ~((uint32_t)iocurrent);
 8001b04:	693b      	ldr	r3, [r7, #16]
 8001b06:	43db      	mvns	r3, r3
 8001b08:	69ba      	ldr	r2, [r7, #24]
 8001b0a:	4013      	ands	r3, r2
 8001b0c:	61bb      	str	r3, [r7, #24]
        if((GPIO_Init->Mode & TRIGGER_RISING) != 0x00U)
 8001b0e:	683b      	ldr	r3, [r7, #0]
 8001b10:	685b      	ldr	r3, [r3, #4]
 8001b12:	f403 1380 	and.w	r3, r3, #1048576	; 0x100000
 8001b16:	2b00      	cmp	r3, #0
 8001b18:	d003      	beq.n	8001b22 <HAL_GPIO_Init+0x246>
        {
          temp |= iocurrent;
 8001b1a:	69ba      	ldr	r2, [r7, #24]
 8001b1c:	693b      	ldr	r3, [r7, #16]
 8001b1e:	4313      	orrs	r3, r2
 8001b20:	61bb      	str	r3, [r7, #24]
        }
        EXTI->RTSR = temp;
 8001b22:	4a2f      	ldr	r2, [pc, #188]	; (8001be0 <HAL_GPIO_Init+0x304>)
 8001b24:	69bb      	ldr	r3, [r7, #24]
 8001b26:	6093      	str	r3, [r2, #8]

        temp = EXTI->FTSR;
 8001b28:	4b2d      	ldr	r3, [pc, #180]	; (8001be0 <HAL_GPIO_Init+0x304>)
 8001b2a:	68db      	ldr	r3, [r3, #12]
 8001b2c:	61bb      	str	r3, [r7, #24]
        temp &= ~((uint32_t)iocurrent);
 8001b2e:	693b      	ldr	r3, [r7, #16]
 8001b30:	43db      	mvns	r3, r3
 8001b32:	69ba      	ldr	r2, [r7, #24]
 8001b34:	4013      	ands	r3, r2
 8001b36:	61bb      	str	r3, [r7, #24]
        if((GPIO_Init->Mode & TRIGGER_FALLING) != 0x00U)
 8001b38:	683b      	ldr	r3, [r7, #0]
 8001b3a:	685b      	ldr	r3, [r3, #4]
 8001b3c:	f403 1300 	and.w	r3, r3, #2097152	; 0x200000
 8001b40:	2b00      	cmp	r3, #0
 8001b42:	d003      	beq.n	8001b4c <HAL_GPIO_Init+0x270>
        {
          temp |= iocurrent;
 8001b44:	69ba      	ldr	r2, [r7, #24]
 8001b46:	693b      	ldr	r3, [r7, #16]
 8001b48:	4313      	orrs	r3, r2
 8001b4a:	61bb      	str	r3, [r7, #24]
        }
        EXTI->FTSR = temp;
 8001b4c:	4a24      	ldr	r2, [pc, #144]	; (8001be0 <HAL_GPIO_Init+0x304>)
 8001b4e:	69bb      	ldr	r3, [r7, #24]
 8001b50:	60d3      	str	r3, [r2, #12]

        temp = EXTI->EMR;
 8001b52:	4b23      	ldr	r3, [pc, #140]	; (8001be0 <HAL_GPIO_Init+0x304>)
 8001b54:	685b      	ldr	r3, [r3, #4]
 8001b56:	61bb      	str	r3, [r7, #24]
        temp &= ~((uint32_t)iocurrent);
 8001b58:	693b      	ldr	r3, [r7, #16]
 8001b5a:	43db      	mvns	r3, r3
 8001b5c:	69ba      	ldr	r2, [r7, #24]
 8001b5e:	4013      	ands	r3, r2
 8001b60:	61bb      	str	r3, [r7, #24]
        if((GPIO_Init->Mode & EXTI_EVT) != 0x00U)
 8001b62:	683b      	ldr	r3, [r7, #0]
 8001b64:	685b      	ldr	r3, [r3, #4]
 8001b66:	f403 3300 	and.w	r3, r3, #131072	; 0x20000
 8001b6a:	2b00      	cmp	r3, #0
 8001b6c:	d003      	beq.n	8001b76 <HAL_GPIO_Init+0x29a>
        {
          temp |= iocurrent;
 8001b6e:	69ba      	ldr	r2, [r7, #24]
 8001b70:	693b      	ldr	r3, [r7, #16]
 8001b72:	4313      	orrs	r3, r2
 8001b74:	61bb      	str	r3, [r7, #24]
        }
        EXTI->EMR = temp;
 8001b76:	4a1a      	ldr	r2, [pc, #104]	; (8001be0 <HAL_GPIO_Init+0x304>)
 8001b78:	69bb      	ldr	r3, [r7, #24]
 8001b7a:	6053      	str	r3, [r2, #4]

        /* Clear EXTI line configuration */
        temp = EXTI->IMR;
 8001b7c:	4b18      	ldr	r3, [pc, #96]	; (8001be0 <HAL_GPIO_Init+0x304>)
 8001b7e:	681b      	ldr	r3, [r3, #0]
 8001b80:	61bb      	str	r3, [r7, #24]
        temp &= ~((uint32_t)iocurrent);
 8001b82:	693b      	ldr	r3, [r7, #16]
 8001b84:	43db      	mvns	r3, r3
 8001b86:	69ba      	ldr	r2, [r7, #24]
 8001b88:	4013      	ands	r3, r2
 8001b8a:	61bb      	str	r3, [r7, #24]
        if((GPIO_Init->Mode & EXTI_IT) != 0x00U)
 8001b8c:	683b      	ldr	r3, [r7, #0]
 8001b8e:	685b      	ldr	r3, [r3, #4]
 8001b90:	f403 3380 	and.w	r3, r3, #65536	; 0x10000
 8001b94:	2b00      	cmp	r3, #0
 8001b96:	d003      	beq.n	8001ba0 <HAL_GPIO_Init+0x2c4>
        {
          temp |= iocurrent;
 8001b98:	69ba      	ldr	r2, [r7, #24]
 8001b9a:	693b      	ldr	r3, [r7, #16]
 8001b9c:	4313      	orrs	r3, r2
 8001b9e:	61bb      	str	r3, [r7, #24]
        }
        EXTI->IMR = temp;
 8001ba0:	4a0f      	ldr	r2, [pc, #60]	; (8001be0 <HAL_GPIO_Init+0x304>)
 8001ba2:	69bb      	ldr	r3, [r7, #24]
 8001ba4:	6013      	str	r3, [r2, #0]
  for(position = 0U; position < GPIO_NUMBER; position++)
 8001ba6:	69fb      	ldr	r3, [r7, #28]
 8001ba8:	3301      	adds	r3, #1
 8001baa:	61fb      	str	r3, [r7, #28]
 8001bac:	69fb      	ldr	r3, [r7, #28]
 8001bae:	2b0f      	cmp	r3, #15
 8001bb0:	f67f aea2 	bls.w	80018f8 <HAL_GPIO_Init+0x1c>
      }
    }
  }
}
 8001bb4:	bf00      	nop
 8001bb6:	bf00      	nop
 8001bb8:	3724      	adds	r7, #36	; 0x24
 8001bba:	46bd      	mov	sp, r7
 8001bbc:	f85d 7b04 	ldr.w	r7, [sp], #4
 8001bc0:	4770      	bx	lr
 8001bc2:	bf00      	nop
 8001bc4:	40023800 	.word	0x40023800
 8001bc8:	40013800 	.word	0x40013800
 8001bcc:	40020000 	.word	0x40020000
 8001bd0:	40020400 	.word	0x40020400
 8001bd4:	40020800 	.word	0x40020800
 8001bd8:	40020c00 	.word	0x40020c00
 8001bdc:	40021000 	.word	0x40021000
 8001be0:	40013c00 	.word	0x40013c00

08001be4 <HAL_GPIO_WritePin>:
  *            @arg GPIO_PIN_RESET: to clear the port pin
  *            @arg GPIO_PIN_SET: to set the port pin
  * @retval None
  */
void HAL_GPIO_WritePin(GPIO_TypeDef* GPIOx, uint16_t GPIO_Pin, GPIO_PinState PinState)
{
 8001be4:	b480      	push	{r7}
 8001be6:	b083      	sub	sp, #12
 8001be8:	af00      	add	r7, sp, #0
 8001bea:	6078      	str	r0, [r7, #4]
 8001bec:	460b      	mov	r3, r1
 8001bee:	807b      	strh	r3, [r7, #2]
 8001bf0:	4613      	mov	r3, r2
 8001bf2:	707b      	strb	r3, [r7, #1]
  /* Check the parameters */
  assert_param(IS_GPIO_PIN(GPIO_Pin));
  assert_param(IS_GPIO_PIN_ACTION(PinState));

  if(PinState != GPIO_PIN_RESET)
 8001bf4:	787b      	ldrb	r3, [r7, #1]
 8001bf6:	2b00      	cmp	r3, #0
 8001bf8:	d003      	beq.n	8001c02 <HAL_GPIO_WritePin+0x1e>
  {
    GPIOx->BSRR = GPIO_Pin;
 8001bfa:	887a      	ldrh	r2, [r7, #2]
 8001bfc:	687b      	ldr	r3, [r7, #4]
 8001bfe:	619a      	str	r2, [r3, #24]
  }
  else
  {
    GPIOx->BSRR = (uint32_t)GPIO_Pin << 16U;
  }
}
 8001c00:	e003      	b.n	8001c0a <HAL_GPIO_WritePin+0x26>
    GPIOx->BSRR = (uint32_t)GPIO_Pin << 16U;
 8001c02:	887b      	ldrh	r3, [r7, #2]
 8001c04:	041a      	lsls	r2, r3, #16
 8001c06:	687b      	ldr	r3, [r7, #4]
 8001c08:	619a      	str	r2, [r3, #24]
}
 8001c0a:	bf00      	nop
 8001c0c:	370c      	adds	r7, #12
 8001c0e:	46bd      	mov	sp, r7
 8001c10:	f85d 7b04 	ldr.w	r7, [sp], #4
 8001c14:	4770      	bx	lr
	...

08001c18 <HAL_RCC_OscConfig>:
  *         supported by this API. User should request a transition to HSE Off
  *         first and then HSE On or HSE Bypass.
  * @retval HAL status
  */
__weak HAL_StatusTypeDef HAL_RCC_OscConfig(RCC_OscInitTypeDef  *RCC_OscInitStruct)
{
 8001c18:	b580      	push	{r7, lr}
 8001c1a:	b086      	sub	sp, #24
 8001c1c:	af00      	add	r7, sp, #0
 8001c1e:	6078      	str	r0, [r7, #4]
  uint32_t tickstart, pll_config;

  /* Check Null pointer */
  if(RCC_OscInitStruct == NULL)
 8001c20:	687b      	ldr	r3, [r7, #4]
 8001c22:	2b00      	cmp	r3, #0
 8001c24:	d101      	bne.n	8001c2a <HAL_RCC_OscConfig+0x12>
  {
    return HAL_ERROR;
 8001c26:	2301      	movs	r3, #1
 8001c28:	e267      	b.n	80020fa <HAL_RCC_OscConfig+0x4e2>
  }

  /* Check the parameters */
  assert_param(IS_RCC_OSCILLATORTYPE(RCC_OscInitStruct->OscillatorType));
  /*------------------------------- HSE Configuration ------------------------*/
  if(((RCC_OscInitStruct->OscillatorType) & RCC_OSCILLATORTYPE_HSE) == RCC_OSCILLATORTYPE_HSE)
 8001c2a:	687b      	ldr	r3, [r7, #4]
 8001c2c:	681b      	ldr	r3, [r3, #0]
 8001c2e:	f003 0301 	and.w	r3, r3, #1
 8001c32:	2b00      	cmp	r3, #0
 8001c34:	d075      	beq.n	8001d22 <HAL_RCC_OscConfig+0x10a>
  {
    /* Check the parameters */
    assert_param(IS_RCC_HSE(RCC_OscInitStruct->HSEState));
    /* When the HSE is used as system clock or clock source for PLL in these cases HSE will not disabled */
    if((__HAL_RCC_GET_SYSCLK_SOURCE() == RCC_CFGR_SWS_HSE) ||\
 8001c36:	4b88      	ldr	r3, [pc, #544]	; (8001e58 <HAL_RCC_OscConfig+0x240>)
 8001c38:	689b      	ldr	r3, [r3, #8]
 8001c3a:	f003 030c 	and.w	r3, r3, #12
 8001c3e:	2b04      	cmp	r3, #4
 8001c40:	d00c      	beq.n	8001c5c <HAL_RCC_OscConfig+0x44>
      ((__HAL_RCC_GET_SYSCLK_SOURCE() == RCC_CFGR_SWS_PLL) && ((RCC->PLLCFGR & RCC_PLLCFGR_PLLSRC) == RCC_PLLCFGR_PLLSRC_HSE)))
 8001c42:	4b85      	ldr	r3, [pc, #532]	; (8001e58 <HAL_RCC_OscConfig+0x240>)
 8001c44:	689b      	ldr	r3, [r3, #8]
 8001c46:	f003 030c 	and.w	r3, r3, #12
    if((__HAL_RCC_GET_SYSCLK_SOURCE() == RCC_CFGR_SWS_HSE) ||\
 8001c4a:	2b08      	cmp	r3, #8
 8001c4c:	d112      	bne.n	8001c74 <HAL_RCC_OscConfig+0x5c>
      ((__HAL_RCC_GET_SYSCLK_SOURCE() == RCC_CFGR_SWS_PLL) && ((RCC->PLLCFGR & RCC_PLLCFGR_PLLSRC) == RCC_PLLCFGR_PLLSRC_HSE)))
 8001c4e:	4b82      	ldr	r3, [pc, #520]	; (8001e58 <HAL_RCC_OscConfig+0x240>)
 8001c50:	685b      	ldr	r3, [r3, #4]
 8001c52:	f403 0380 	and.w	r3, r3, #4194304	; 0x400000
 8001c56:	f5b3 0f80 	cmp.w	r3, #4194304	; 0x400000
 8001c5a:	d10b      	bne.n	8001c74 <HAL_RCC_OscConfig+0x5c>
    {
      if((__HAL_RCC_GET_FLAG(RCC_FLAG_HSERDY) != RESET) && (RCC_OscInitStruct->HSEState == RCC_HSE_OFF))
 8001c5c:	4b7e      	ldr	r3, [pc, #504]	; (8001e58 <HAL_RCC_OscConfig+0x240>)
 8001c5e:	681b      	ldr	r3, [r3, #0]
 8001c60:	f403 3300 	and.w	r3, r3, #131072	; 0x20000
 8001c64:	2b00      	cmp	r3, #0
 8001c66:	d05b      	beq.n	8001d20 <HAL_RCC_OscConfig+0x108>
 8001c68:	687b      	ldr	r3, [r7, #4]
 8001c6a:	685b      	ldr	r3, [r3, #4]
 8001c6c:	2b00      	cmp	r3, #0
 8001c6e:	d157      	bne.n	8001d20 <HAL_RCC_OscConfig+0x108>
      {
        return HAL_ERROR;
 8001c70:	2301      	movs	r3, #1
 8001c72:	e242      	b.n	80020fa <HAL_RCC_OscConfig+0x4e2>
      }
    }
    else
    {
      /* Set the new HSE configuration ---------------------------------------*/
      __HAL_RCC_HSE_CONFIG(RCC_OscInitStruct->HSEState);
 8001c74:	687b      	ldr	r3, [r7, #4]
 8001c76:	685b      	ldr	r3, [r3, #4]
 8001c78:	f5b3 3f80 	cmp.w	r3, #65536	; 0x10000
 8001c7c:	d106      	bne.n	8001c8c <HAL_RCC_OscConfig+0x74>
 8001c7e:	4b76      	ldr	r3, [pc, #472]	; (8001e58 <HAL_RCC_OscConfig+0x240>)
 8001c80:	681b      	ldr	r3, [r3, #0]
 8001c82:	4a75      	ldr	r2, [pc, #468]	; (8001e58 <HAL_RCC_OscConfig+0x240>)
 8001c84:	f443 3380 	orr.w	r3, r3, #65536	; 0x10000
 8001c88:	6013      	str	r3, [r2, #0]
 8001c8a:	e01d      	b.n	8001cc8 <HAL_RCC_OscConfig+0xb0>
 8001c8c:	687b      	ldr	r3, [r7, #4]
 8001c8e:	685b      	ldr	r3, [r3, #4]
 8001c90:	f5b3 2fa0 	cmp.w	r3, #327680	; 0x50000
 8001c94:	d10c      	bne.n	8001cb0 <HAL_RCC_OscConfig+0x98>
 8001c96:	4b70      	ldr	r3, [pc, #448]	; (8001e58 <HAL_RCC_OscConfig+0x240>)
 8001c98:	681b      	ldr	r3, [r3, #0]
 8001c9a:	4a6f      	ldr	r2, [pc, #444]	; (8001e58 <HAL_RCC_OscConfig+0x240>)
 8001c9c:	f443 2380 	orr.w	r3, r3, #262144	; 0x40000
 8001ca0:	6013      	str	r3, [r2, #0]
 8001ca2:	4b6d      	ldr	r3, [pc, #436]	; (8001e58 <HAL_RCC_OscConfig+0x240>)
 8001ca4:	681b      	ldr	r3, [r3, #0]
 8001ca6:	4a6c      	ldr	r2, [pc, #432]	; (8001e58 <HAL_RCC_OscConfig+0x240>)
 8001ca8:	f443 3380 	orr.w	r3, r3, #65536	; 0x10000
 8001cac:	6013      	str	r3, [r2, #0]
 8001cae:	e00b      	b.n	8001cc8 <HAL_RCC_OscConfig+0xb0>
 8001cb0:	4b69      	ldr	r3, [pc, #420]	; (8001e58 <HAL_RCC_OscConfig+0x240>)
 8001cb2:	681b      	ldr	r3, [r3, #0]
 8001cb4:	4a68      	ldr	r2, [pc, #416]	; (8001e58 <HAL_RCC_OscConfig+0x240>)
 8001cb6:	f423 3380 	bic.w	r3, r3, #65536	; 0x10000
 8001cba:	6013      	str	r3, [r2, #0]
 8001cbc:	4b66      	ldr	r3, [pc, #408]	; (8001e58 <HAL_RCC_OscConfig+0x240>)
 8001cbe:	681b      	ldr	r3, [r3, #0]
 8001cc0:	4a65      	ldr	r2, [pc, #404]	; (8001e58 <HAL_RCC_OscConfig+0x240>)
 8001cc2:	f423 2380 	bic.w	r3, r3, #262144	; 0x40000
 8001cc6:	6013      	str	r3, [r2, #0]

      /* Check the HSE State */
      if((RCC_OscInitStruct->HSEState) != RCC_HSE_OFF)
 8001cc8:	687b      	ldr	r3, [r7, #4]
 8001cca:	685b      	ldr	r3, [r3, #4]
 8001ccc:	2b00      	cmp	r3, #0
 8001cce:	d013      	beq.n	8001cf8 <HAL_RCC_OscConfig+0xe0>
      {
        /* Get Start Tick */
        tickstart = HAL_GetTick();
 8001cd0:	f7ff fc30 	bl	8001534 <HAL_GetTick>
 8001cd4:	6138      	str	r0, [r7, #16]

        /* Wait till HSE is ready */
        while(__HAL_RCC_GET_FLAG(RCC_FLAG_HSERDY) == RESET)
 8001cd6:	e008      	b.n	8001cea <HAL_RCC_OscConfig+0xd2>
        {
          if((HAL_GetTick() - tickstart ) > HSE_TIMEOUT_VALUE)
 8001cd8:	f7ff fc2c 	bl	8001534 <HAL_GetTick>
 8001cdc:	4602      	mov	r2, r0
 8001cde:	693b      	ldr	r3, [r7, #16]
 8001ce0:	1ad3      	subs	r3, r2, r3
 8001ce2:	2b64      	cmp	r3, #100	; 0x64
 8001ce4:	d901      	bls.n	8001cea <HAL_RCC_OscConfig+0xd2>
          {
            return HAL_TIMEOUT;
 8001ce6:	2303      	movs	r3, #3
 8001ce8:	e207      	b.n	80020fa <HAL_RCC_OscConfig+0x4e2>
        while(__HAL_RCC_GET_FLAG(RCC_FLAG_HSERDY) == RESET)
 8001cea:	4b5b      	ldr	r3, [pc, #364]	; (8001e58 <HAL_RCC_OscConfig+0x240>)
 8001cec:	681b      	ldr	r3, [r3, #0]
 8001cee:	f403 3300 	and.w	r3, r3, #131072	; 0x20000
 8001cf2:	2b00      	cmp	r3, #0
 8001cf4:	d0f0      	beq.n	8001cd8 <HAL_RCC_OscConfig+0xc0>
 8001cf6:	e014      	b.n	8001d22 <HAL_RCC_OscConfig+0x10a>
        }
      }
      else
      {
        /* Get Start Tick */
        tickstart = HAL_GetTick();
 8001cf8:	f7ff fc1c 	bl	8001534 <HAL_GetTick>
 8001cfc:	6138      	str	r0, [r7, #16]

        /* Wait till HSE is bypassed or disabled */
        while(__HAL_RCC_GET_FLAG(RCC_FLAG_HSERDY) != RESET)
 8001cfe:	e008      	b.n	8001d12 <HAL_RCC_OscConfig+0xfa>
        {
          if((HAL_GetTick() - tickstart ) > HSE_TIMEOUT_VALUE)
 8001d00:	f7ff fc18 	bl	8001534 <HAL_GetTick>
 8001d04:	4602      	mov	r2, r0
 8001d06:	693b      	ldr	r3, [r7, #16]
 8001d08:	1ad3      	subs	r3, r2, r3
 8001d0a:	2b64      	cmp	r3, #100	; 0x64
 8001d0c:	d901      	bls.n	8001d12 <HAL_RCC_OscConfig+0xfa>
          {
            return HAL_TIMEOUT;
 8001d0e:	2303      	movs	r3, #3
 8001d10:	e1f3      	b.n	80020fa <HAL_RCC_OscConfig+0x4e2>
        while(__HAL_RCC_GET_FLAG(RCC_FLAG_HSERDY) != RESET)
 8001d12:	4b51      	ldr	r3, [pc, #324]	; (8001e58 <HAL_RCC_OscConfig+0x240>)
 8001d14:	681b      	ldr	r3, [r3, #0]
 8001d16:	f403 3300 	and.w	r3, r3, #131072	; 0x20000
 8001d1a:	2b00      	cmp	r3, #0
 8001d1c:	d1f0      	bne.n	8001d00 <HAL_RCC_OscConfig+0xe8>
 8001d1e:	e000      	b.n	8001d22 <HAL_RCC_OscConfig+0x10a>
      if((__HAL_RCC_GET_FLAG(RCC_FLAG_HSERDY) != RESET) && (RCC_OscInitStruct->HSEState == RCC_HSE_OFF))
 8001d20:	bf00      	nop
        }
      }
    }
  }
  /*----------------------------- HSI Configuration --------------------------*/
  if(((RCC_OscInitStruct->OscillatorType) & RCC_OSCILLATORTYPE_HSI) == RCC_OSCILLATORTYPE_HSI)
 8001d22:	687b      	ldr	r3, [r7, #4]
 8001d24:	681b      	ldr	r3, [r3, #0]
 8001d26:	f003 0302 	and.w	r3, r3, #2
 8001d2a:	2b00      	cmp	r3, #0
 8001d2c:	d063      	beq.n	8001df6 <HAL_RCC_OscConfig+0x1de>
    /* Check the parameters */
    assert_param(IS_RCC_HSI(RCC_OscInitStruct->HSIState));
    assert_param(IS_RCC_CALIBRATION_VALUE(RCC_OscInitStruct->HSICalibrationValue));

    /* Check if HSI is used as system clock or as PLL source when PLL is selected as system clock */
    if((__HAL_RCC_GET_SYSCLK_SOURCE() == RCC_CFGR_SWS_HSI) ||\
 8001d2e:	4b4a      	ldr	r3, [pc, #296]	; (8001e58 <HAL_RCC_OscConfig+0x240>)
 8001d30:	689b      	ldr	r3, [r3, #8]
 8001d32:	f003 030c 	and.w	r3, r3, #12
 8001d36:	2b00      	cmp	r3, #0
 8001d38:	d00b      	beq.n	8001d52 <HAL_RCC_OscConfig+0x13a>
      ((__HAL_RCC_GET_SYSCLK_SOURCE() == RCC_CFGR_SWS_PLL) && ((RCC->PLLCFGR & RCC_PLLCFGR_PLLSRC) == RCC_PLLCFGR_PLLSRC_HSI)))
 8001d3a:	4b47      	ldr	r3, [pc, #284]	; (8001e58 <HAL_RCC_OscConfig+0x240>)
 8001d3c:	689b      	ldr	r3, [r3, #8]
 8001d3e:	f003 030c 	and.w	r3, r3, #12
    if((__HAL_RCC_GET_SYSCLK_SOURCE() == RCC_CFGR_SWS_HSI) ||\
 8001d42:	2b08      	cmp	r3, #8
 8001d44:	d11c      	bne.n	8001d80 <HAL_RCC_OscConfig+0x168>
      ((__HAL_RCC_GET_SYSCLK_SOURCE() == RCC_CFGR_SWS_PLL) && ((RCC->PLLCFGR & RCC_PLLCFGR_PLLSRC) == RCC_PLLCFGR_PLLSRC_HSI)))
 8001d46:	4b44      	ldr	r3, [pc, #272]	; (8001e58 <HAL_RCC_OscConfig+0x240>)
 8001d48:	685b      	ldr	r3, [r3, #4]
 8001d4a:	f403 0380 	and.w	r3, r3, #4194304	; 0x400000
 8001d4e:	2b00      	cmp	r3, #0
 8001d50:	d116      	bne.n	8001d80 <HAL_RCC_OscConfig+0x168>
    {
      /* When HSI is used as system clock it will not disabled */
      if((__HAL_RCC_GET_FLAG(RCC_FLAG_HSIRDY) != RESET) && (RCC_OscInitStruct->HSIState != RCC_HSI_ON))
 8001d52:	4b41      	ldr	r3, [pc, #260]	; (8001e58 <HAL_RCC_OscConfig+0x240>)
 8001d54:	681b      	ldr	r3, [r3, #0]
 8001d56:	f003 0302 	and.w	r3, r3, #2
 8001d5a:	2b00      	cmp	r3, #0
 8001d5c:	d005      	beq.n	8001d6a <HAL_RCC_OscConfig+0x152>
 8001d5e:	687b      	ldr	r3, [r7, #4]
 8001d60:	68db      	ldr	r3, [r3, #12]
 8001d62:	2b01      	cmp	r3, #1
 8001d64:	d001      	beq.n	8001d6a <HAL_RCC_OscConfig+0x152>
      {
        return HAL_ERROR;
 8001d66:	2301      	movs	r3, #1
 8001d68:	e1c7      	b.n	80020fa <HAL_RCC_OscConfig+0x4e2>
      }
      /* Otherwise, just the calibration is allowed */
      else
      {
        /* Adjusts the Internal High Speed oscillator (HSI) calibration value.*/
        __HAL_RCC_HSI_CALIBRATIONVALUE_ADJUST(RCC_OscInitStruct->HSICalibrationValue);
 8001d6a:	4b3b      	ldr	r3, [pc, #236]	; (8001e58 <HAL_RCC_OscConfig+0x240>)
 8001d6c:	681b      	ldr	r3, [r3, #0]
 8001d6e:	f023 02f8 	bic.w	r2, r3, #248	; 0xf8
 8001d72:	687b      	ldr	r3, [r7, #4]
 8001d74:	691b      	ldr	r3, [r3, #16]
 8001d76:	00db      	lsls	r3, r3, #3
 8001d78:	4937      	ldr	r1, [pc, #220]	; (8001e58 <HAL_RCC_OscConfig+0x240>)
 8001d7a:	4313      	orrs	r3, r2
 8001d7c:	600b      	str	r3, [r1, #0]
      if((__HAL_RCC_GET_FLAG(RCC_FLAG_HSIRDY) != RESET) && (RCC_OscInitStruct->HSIState != RCC_HSI_ON))
 8001d7e:	e03a      	b.n	8001df6 <HAL_RCC_OscConfig+0x1de>
      }
    }
    else
    {
      /* Check the HSI State */
      if((RCC_OscInitStruct->HSIState)!= RCC_HSI_OFF)
 8001d80:	687b      	ldr	r3, [r7, #4]
 8001d82:	68db      	ldr	r3, [r3, #12]
 8001d84:	2b00      	cmp	r3, #0
 8001d86:	d020      	beq.n	8001dca <HAL_RCC_OscConfig+0x1b2>
      {
        /* Enable the Internal High Speed oscillator (HSI). */
        __HAL_RCC_HSI_ENABLE();
 8001d88:	4b34      	ldr	r3, [pc, #208]	; (8001e5c <HAL_RCC_OscConfig+0x244>)
 8001d8a:	2201      	movs	r2, #1
 8001d8c:	601a      	str	r2, [r3, #0]

        /* Get Start Tick*/
        tickstart = HAL_GetTick();
 8001d8e:	f7ff fbd1 	bl	8001534 <HAL_GetTick>
 8001d92:	6138      	str	r0, [r7, #16]

        /* Wait till HSI is ready */
        while(__HAL_RCC_GET_FLAG(RCC_FLAG_HSIRDY) == RESET)
 8001d94:	e008      	b.n	8001da8 <HAL_RCC_OscConfig+0x190>
        {
          if((HAL_GetTick() - tickstart ) > HSI_TIMEOUT_VALUE)
 8001d96:	f7ff fbcd 	bl	8001534 <HAL_GetTick>
 8001d9a:	4602      	mov	r2, r0
 8001d9c:	693b      	ldr	r3, [r7, #16]
 8001d9e:	1ad3      	subs	r3, r2, r3
 8001da0:	2b02      	cmp	r3, #2
 8001da2:	d901      	bls.n	8001da8 <HAL_RCC_OscConfig+0x190>
          {
            return HAL_TIMEOUT;
 8001da4:	2303      	movs	r3, #3
 8001da6:	e1a8      	b.n	80020fa <HAL_RCC_OscConfig+0x4e2>
        while(__HAL_RCC_GET_FLAG(RCC_FLAG_HSIRDY) == RESET)
 8001da8:	4b2b      	ldr	r3, [pc, #172]	; (8001e58 <HAL_RCC_OscConfig+0x240>)
 8001daa:	681b      	ldr	r3, [r3, #0]
 8001dac:	f003 0302 	and.w	r3, r3, #2
 8001db0:	2b00      	cmp	r3, #0
 8001db2:	d0f0      	beq.n	8001d96 <HAL_RCC_OscConfig+0x17e>
          }
        }

        /* Adjusts the Internal High Speed oscillator (HSI) calibration value. */
        __HAL_RCC_HSI_CALIBRATIONVALUE_ADJUST(RCC_OscInitStruct->HSICalibrationValue);
 8001db4:	4b28      	ldr	r3, [pc, #160]	; (8001e58 <HAL_RCC_OscConfig+0x240>)
 8001db6:	681b      	ldr	r3, [r3, #0]
 8001db8:	f023 02f8 	bic.w	r2, r3, #248	; 0xf8
 8001dbc:	687b      	ldr	r3, [r7, #4]
 8001dbe:	691b      	ldr	r3, [r3, #16]
 8001dc0:	00db      	lsls	r3, r3, #3
 8001dc2:	4925      	ldr	r1, [pc, #148]	; (8001e58 <HAL_RCC_OscConfig+0x240>)
 8001dc4:	4313      	orrs	r3, r2
 8001dc6:	600b      	str	r3, [r1, #0]
 8001dc8:	e015      	b.n	8001df6 <HAL_RCC_OscConfig+0x1de>
      }
      else
      {
        /* Disable the Internal High Speed oscillator (HSI). */
        __HAL_RCC_HSI_DISABLE();
 8001dca:	4b24      	ldr	r3, [pc, #144]	; (8001e5c <HAL_RCC_OscConfig+0x244>)
 8001dcc:	2200      	movs	r2, #0
 8001dce:	601a      	str	r2, [r3, #0]

        /* Get Start Tick*/
        tickstart = HAL_GetTick();
 8001dd0:	f7ff fbb0 	bl	8001534 <HAL_GetTick>
 8001dd4:	6138      	str	r0, [r7, #16]

        /* Wait till HSI is ready */
        while(__HAL_RCC_GET_FLAG(RCC_FLAG_HSIRDY) != RESET)
 8001dd6:	e008      	b.n	8001dea <HAL_RCC_OscConfig+0x1d2>
        {
          if((HAL_GetTick() - tickstart ) > HSI_TIMEOUT_VALUE)
 8001dd8:	f7ff fbac 	bl	8001534 <HAL_GetTick>
 8001ddc:	4602      	mov	r2, r0
 8001dde:	693b      	ldr	r3, [r7, #16]
 8001de0:	1ad3      	subs	r3, r2, r3
 8001de2:	2b02      	cmp	r3, #2
 8001de4:	d901      	bls.n	8001dea <HAL_RCC_OscConfig+0x1d2>
          {
            return HAL_TIMEOUT;
 8001de6:	2303      	movs	r3, #3
 8001de8:	e187      	b.n	80020fa <HAL_RCC_OscConfig+0x4e2>
        while(__HAL_RCC_GET_FLAG(RCC_FLAG_HSIRDY) != RESET)
 8001dea:	4b1b      	ldr	r3, [pc, #108]	; (8001e58 <HAL_RCC_OscConfig+0x240>)
 8001dec:	681b      	ldr	r3, [r3, #0]
 8001dee:	f003 0302 	and.w	r3, r3, #2
 8001df2:	2b00      	cmp	r3, #0
 8001df4:	d1f0      	bne.n	8001dd8 <HAL_RCC_OscConfig+0x1c0>
        }
      }
    }
  }
  /*------------------------------ LSI Configuration -------------------------*/
  if(((RCC_OscInitStruct->OscillatorType) & RCC_OSCILLATORTYPE_LSI) == RCC_OSCILLATORTYPE_LSI)
 8001df6:	687b      	ldr	r3, [r7, #4]
 8001df8:	681b      	ldr	r3, [r3, #0]
 8001dfa:	f003 0308 	and.w	r3, r3, #8
 8001dfe:	2b00      	cmp	r3, #0
 8001e00:	d036      	beq.n	8001e70 <HAL_RCC_OscConfig+0x258>
  {
    /* Check the parameters */
    assert_param(IS_RCC_LSI(RCC_OscInitStruct->LSIState));

    /* Check the LSI State */
    if((RCC_OscInitStruct->LSIState)!= RCC_LSI_OFF)
 8001e02:	687b      	ldr	r3, [r7, #4]
 8001e04:	695b      	ldr	r3, [r3, #20]
 8001e06:	2b00      	cmp	r3, #0
 8001e08:	d016      	beq.n	8001e38 <HAL_RCC_OscConfig+0x220>
    {
      /* Enable the Internal Low Speed oscillator (LSI). */
      __HAL_RCC_LSI_ENABLE();
 8001e0a:	4b15      	ldr	r3, [pc, #84]	; (8001e60 <HAL_RCC_OscConfig+0x248>)
 8001e0c:	2201      	movs	r2, #1
 8001e0e:	601a      	str	r2, [r3, #0]

      /* Get Start Tick*/
      tickstart = HAL_GetTick();
 8001e10:	f7ff fb90 	bl	8001534 <HAL_GetTick>
 8001e14:	6138      	str	r0, [r7, #16]

      /* Wait till LSI is ready */
      while(__HAL_RCC_GET_FLAG(RCC_FLAG_LSIRDY) == RESET)
 8001e16:	e008      	b.n	8001e2a <HAL_RCC_OscConfig+0x212>
      {
        if((HAL_GetTick() - tickstart ) > LSI_TIMEOUT_VALUE)
 8001e18:	f7ff fb8c 	bl	8001534 <HAL_GetTick>
 8001e1c:	4602      	mov	r2, r0
 8001e1e:	693b      	ldr	r3, [r7, #16]
 8001e20:	1ad3      	subs	r3, r2, r3
 8001e22:	2b02      	cmp	r3, #2
 8001e24:	d901      	bls.n	8001e2a <HAL_RCC_OscConfig+0x212>
        {
          return HAL_TIMEOUT;
 8001e26:	2303      	movs	r3, #3
 8001e28:	e167      	b.n	80020fa <HAL_RCC_OscConfig+0x4e2>
      while(__HAL_RCC_GET_FLAG(RCC_FLAG_LSIRDY) == RESET)
 8001e2a:	4b0b      	ldr	r3, [pc, #44]	; (8001e58 <HAL_RCC_OscConfig+0x240>)
 8001e2c:	6f5b      	ldr	r3, [r3, #116]	; 0x74
 8001e2e:	f003 0302 	and.w	r3, r3, #2
 8001e32:	2b00      	cmp	r3, #0
 8001e34:	d0f0      	beq.n	8001e18 <HAL_RCC_OscConfig+0x200>
 8001e36:	e01b      	b.n	8001e70 <HAL_RCC_OscConfig+0x258>
      }
    }
    else
    {
      /* Disable the Internal Low Speed oscillator (LSI). */
      __HAL_RCC_LSI_DISABLE();
 8001e38:	4b09      	ldr	r3, [pc, #36]	; (8001e60 <HAL_RCC_OscConfig+0x248>)
 8001e3a:	2200      	movs	r2, #0
 8001e3c:	601a      	str	r2, [r3, #0]

      /* Get Start Tick */
      tickstart = HAL_GetTick();
 8001e3e:	f7ff fb79 	bl	8001534 <HAL_GetTick>
 8001e42:	6138      	str	r0, [r7, #16]

      /* Wait till LSI is ready */
      while(__HAL_RCC_GET_FLAG(RCC_FLAG_LSIRDY) != RESET)
 8001e44:	e00e      	b.n	8001e64 <HAL_RCC_OscConfig+0x24c>
      {
        if((HAL_GetTick() - tickstart ) > LSI_TIMEOUT_VALUE)
 8001e46:	f7ff fb75 	bl	8001534 <HAL_GetTick>
 8001e4a:	4602      	mov	r2, r0
 8001e4c:	693b      	ldr	r3, [r7, #16]
 8001e4e:	1ad3      	subs	r3, r2, r3
 8001e50:	2b02      	cmp	r3, #2
 8001e52:	d907      	bls.n	8001e64 <HAL_RCC_OscConfig+0x24c>
        {
          return HAL_TIMEOUT;
 8001e54:	2303      	movs	r3, #3
 8001e56:	e150      	b.n	80020fa <HAL_RCC_OscConfig+0x4e2>
 8001e58:	40023800 	.word	0x40023800
 8001e5c:	42470000 	.word	0x42470000
 8001e60:	42470e80 	.word	0x42470e80
      while(__HAL_RCC_GET_FLAG(RCC_FLAG_LSIRDY) != RESET)
 8001e64:	4b88      	ldr	r3, [pc, #544]	; (8002088 <HAL_RCC_OscConfig+0x470>)
 8001e66:	6f5b      	ldr	r3, [r3, #116]	; 0x74
 8001e68:	f003 0302 	and.w	r3, r3, #2
 8001e6c:	2b00      	cmp	r3, #0
 8001e6e:	d1ea      	bne.n	8001e46 <HAL_RCC_OscConfig+0x22e>
        }
      }
    }
  }
  /*------------------------------ LSE Configuration -------------------------*/
  if(((RCC_OscInitStruct->OscillatorType) & RCC_OSCILLATORTYPE_LSE) == RCC_OSCILLATORTYPE_LSE)
 8001e70:	687b      	ldr	r3, [r7, #4]
 8001e72:	681b      	ldr	r3, [r3, #0]
 8001e74:	f003 0304 	and.w	r3, r3, #4
 8001e78:	2b00      	cmp	r3, #0
 8001e7a:	f000 8097 	beq.w	8001fac <HAL_RCC_OscConfig+0x394>
  {
    FlagStatus       pwrclkchanged = RESET;
 8001e7e:	2300      	movs	r3, #0
 8001e80:	75fb      	strb	r3, [r7, #23]
    /* Check the parameters */
    assert_param(IS_RCC_LSE(RCC_OscInitStruct->LSEState));

    /* Update LSE configuration in Backup Domain control register    */
    /* Requires to enable write access to Backup Domain of necessary */
    if(__HAL_RCC_PWR_IS_CLK_DISABLED())
 8001e82:	4b81      	ldr	r3, [pc, #516]	; (8002088 <HAL_RCC_OscConfig+0x470>)
 8001e84:	6c1b      	ldr	r3, [r3, #64]	; 0x40
 8001e86:	f003 5380 	and.w	r3, r3, #268435456	; 0x10000000
 8001e8a:	2b00      	cmp	r3, #0
 8001e8c:	d10f      	bne.n	8001eae <HAL_RCC_OscConfig+0x296>
    {
      __HAL_RCC_PWR_CLK_ENABLE();
 8001e8e:	2300      	movs	r3, #0
 8001e90:	60bb      	str	r3, [r7, #8]
 8001e92:	4b7d      	ldr	r3, [pc, #500]	; (8002088 <HAL_RCC_OscConfig+0x470>)
 8001e94:	6c1b      	ldr	r3, [r3, #64]	; 0x40
 8001e96:	4a7c      	ldr	r2, [pc, #496]	; (8002088 <HAL_RCC_OscConfig+0x470>)
 8001e98:	f043 5380 	orr.w	r3, r3, #268435456	; 0x10000000
 8001e9c:	6413      	str	r3, [r2, #64]	; 0x40
 8001e9e:	4b7a      	ldr	r3, [pc, #488]	; (8002088 <HAL_RCC_OscConfig+0x470>)
 8001ea0:	6c1b      	ldr	r3, [r3, #64]	; 0x40
 8001ea2:	f003 5380 	and.w	r3, r3, #268435456	; 0x10000000
 8001ea6:	60bb      	str	r3, [r7, #8]
 8001ea8:	68bb      	ldr	r3, [r7, #8]
      pwrclkchanged = SET;
 8001eaa:	2301      	movs	r3, #1
 8001eac:	75fb      	strb	r3, [r7, #23]
    }

    if(HAL_IS_BIT_CLR(PWR->CR, PWR_CR_DBP))
 8001eae:	4b77      	ldr	r3, [pc, #476]	; (800208c <HAL_RCC_OscConfig+0x474>)
 8001eb0:	681b      	ldr	r3, [r3, #0]
 8001eb2:	f403 7380 	and.w	r3, r3, #256	; 0x100
 8001eb6:	2b00      	cmp	r3, #0
 8001eb8:	d118      	bne.n	8001eec <HAL_RCC_OscConfig+0x2d4>
    {
      /* Enable write access to Backup domain */
      SET_BIT(PWR->CR, PWR_CR_DBP);
 8001eba:	4b74      	ldr	r3, [pc, #464]	; (800208c <HAL_RCC_OscConfig+0x474>)
 8001ebc:	681b      	ldr	r3, [r3, #0]
 8001ebe:	4a73      	ldr	r2, [pc, #460]	; (800208c <HAL_RCC_OscConfig+0x474>)
 8001ec0:	f443 7380 	orr.w	r3, r3, #256	; 0x100
 8001ec4:	6013      	str	r3, [r2, #0]

      /* Wait for Backup domain Write protection disable */
      tickstart = HAL_GetTick();
 8001ec6:	f7ff fb35 	bl	8001534 <HAL_GetTick>
 8001eca:	6138      	str	r0, [r7, #16]

      while(HAL_IS_BIT_CLR(PWR->CR, PWR_CR_DBP))
 8001ecc:	e008      	b.n	8001ee0 <HAL_RCC_OscConfig+0x2c8>
      {
        if((HAL_GetTick() - tickstart) > RCC_DBP_TIMEOUT_VALUE)
 8001ece:	f7ff fb31 	bl	8001534 <HAL_GetTick>
 8001ed2:	4602      	mov	r2, r0
 8001ed4:	693b      	ldr	r3, [r7, #16]
 8001ed6:	1ad3      	subs	r3, r2, r3
 8001ed8:	2b02      	cmp	r3, #2
 8001eda:	d901      	bls.n	8001ee0 <HAL_RCC_OscConfig+0x2c8>
        {
          return HAL_TIMEOUT;
 8001edc:	2303      	movs	r3, #3
 8001ede:	e10c      	b.n	80020fa <HAL_RCC_OscConfig+0x4e2>
      while(HAL_IS_BIT_CLR(PWR->CR, PWR_CR_DBP))
 8001ee0:	4b6a      	ldr	r3, [pc, #424]	; (800208c <HAL_RCC_OscConfig+0x474>)
 8001ee2:	681b      	ldr	r3, [r3, #0]
 8001ee4:	f403 7380 	and.w	r3, r3, #256	; 0x100
 8001ee8:	2b00      	cmp	r3, #0
 8001eea:	d0f0      	beq.n	8001ece <HAL_RCC_OscConfig+0x2b6>
        }
      }
    }

    /* Set the new LSE configuration -----------------------------------------*/
    __HAL_RCC_LSE_CONFIG(RCC_OscInitStruct->LSEState);
 8001eec:	687b      	ldr	r3, [r7, #4]
 8001eee:	689b      	ldr	r3, [r3, #8]
 8001ef0:	2b01      	cmp	r3, #1
 8001ef2:	d106      	bne.n	8001f02 <HAL_RCC_OscConfig+0x2ea>
 8001ef4:	4b64      	ldr	r3, [pc, #400]	; (8002088 <HAL_RCC_OscConfig+0x470>)
 8001ef6:	6f1b      	ldr	r3, [r3, #112]	; 0x70
 8001ef8:	4a63      	ldr	r2, [pc, #396]	; (8002088 <HAL_RCC_OscConfig+0x470>)
 8001efa:	f043 0301 	orr.w	r3, r3, #1
 8001efe:	6713      	str	r3, [r2, #112]	; 0x70
 8001f00:	e01c      	b.n	8001f3c <HAL_RCC_OscConfig+0x324>
 8001f02:	687b      	ldr	r3, [r7, #4]
 8001f04:	689b      	ldr	r3, [r3, #8]
 8001f06:	2b05      	cmp	r3, #5
 8001f08:	d10c      	bne.n	8001f24 <HAL_RCC_OscConfig+0x30c>
 8001f0a:	4b5f      	ldr	r3, [pc, #380]	; (8002088 <HAL_RCC_OscConfig+0x470>)
 8001f0c:	6f1b      	ldr	r3, [r3, #112]	; 0x70
 8001f0e:	4a5e      	ldr	r2, [pc, #376]	; (8002088 <HAL_RCC_OscConfig+0x470>)
 8001f10:	f043 0304 	orr.w	r3, r3, #4
 8001f14:	6713      	str	r3, [r2, #112]	; 0x70
 8001f16:	4b5c      	ldr	r3, [pc, #368]	; (8002088 <HAL_RCC_OscConfig+0x470>)
 8001f18:	6f1b      	ldr	r3, [r3, #112]	; 0x70
 8001f1a:	4a5b      	ldr	r2, [pc, #364]	; (8002088 <HAL_RCC_OscConfig+0x470>)
 8001f1c:	f043 0301 	orr.w	r3, r3, #1
 8001f20:	6713      	str	r3, [r2, #112]	; 0x70
 8001f22:	e00b      	b.n	8001f3c <HAL_RCC_OscConfig+0x324>
 8001f24:	4b58      	ldr	r3, [pc, #352]	; (8002088 <HAL_RCC_OscConfig+0x470>)
 8001f26:	6f1b      	ldr	r3, [r3, #112]	; 0x70
 8001f28:	4a57      	ldr	r2, [pc, #348]	; (8002088 <HAL_RCC_OscConfig+0x470>)
 8001f2a:	f023 0301 	bic.w	r3, r3, #1
 8001f2e:	6713      	str	r3, [r2, #112]	; 0x70
 8001f30:	4b55      	ldr	r3, [pc, #340]	; (8002088 <HAL_RCC_OscConfig+0x470>)
 8001f32:	6f1b      	ldr	r3, [r3, #112]	; 0x70
 8001f34:	4a54      	ldr	r2, [pc, #336]	; (8002088 <HAL_RCC_OscConfig+0x470>)
 8001f36:	f023 0304 	bic.w	r3, r3, #4
 8001f3a:	6713      	str	r3, [r2, #112]	; 0x70
    /* Check the LSE State */
    if((RCC_OscInitStruct->LSEState) != RCC_LSE_OFF)
 8001f3c:	687b      	ldr	r3, [r7, #4]
 8001f3e:	689b      	ldr	r3, [r3, #8]
 8001f40:	2b00      	cmp	r3, #0
 8001f42:	d015      	beq.n	8001f70 <HAL_RCC_OscConfig+0x358>
    {
      /* Get Start Tick*/
      tickstart = HAL_GetTick();
 8001f44:	f7ff faf6 	bl	8001534 <HAL_GetTick>
 8001f48:	6138      	str	r0, [r7, #16]

      /* Wait till LSE is ready */
      while(__HAL_RCC_GET_FLAG(RCC_FLAG_LSERDY) == RESET)
 8001f4a:	e00a      	b.n	8001f62 <HAL_RCC_OscConfig+0x34a>
      {
        if((HAL_GetTick() - tickstart ) > RCC_LSE_TIMEOUT_VALUE)
 8001f4c:	f7ff faf2 	bl	8001534 <HAL_GetTick>
 8001f50:	4602      	mov	r2, r0
 8001f52:	693b      	ldr	r3, [r7, #16]
 8001f54:	1ad3      	subs	r3, r2, r3
 8001f56:	f241 3288 	movw	r2, #5000	; 0x1388
 8001f5a:	4293      	cmp	r3, r2
 8001f5c:	d901      	bls.n	8001f62 <HAL_RCC_OscConfig+0x34a>
        {
          return HAL_TIMEOUT;
 8001f5e:	2303      	movs	r3, #3
 8001f60:	e0cb      	b.n	80020fa <HAL_RCC_OscConfig+0x4e2>
      while(__HAL_RCC_GET_FLAG(RCC_FLAG_LSERDY) == RESET)
 8001f62:	4b49      	ldr	r3, [pc, #292]	; (8002088 <HAL_RCC_OscConfig+0x470>)
 8001f64:	6f1b      	ldr	r3, [r3, #112]	; 0x70
 8001f66:	f003 0302 	and.w	r3, r3, #2
 8001f6a:	2b00      	cmp	r3, #0
 8001f6c:	d0ee      	beq.n	8001f4c <HAL_RCC_OscConfig+0x334>
 8001f6e:	e014      	b.n	8001f9a <HAL_RCC_OscConfig+0x382>
      }
    }
    else
    {
      /* Get Start Tick */
      tickstart = HAL_GetTick();
 8001f70:	f7ff fae0 	bl	8001534 <HAL_GetTick>
 8001f74:	6138      	str	r0, [r7, #16]

      /* Wait till LSE is ready */
      while(__HAL_RCC_GET_FLAG(RCC_FLAG_LSERDY) != RESET)
 8001f76:	e00a      	b.n	8001f8e <HAL_RCC_OscConfig+0x376>
      {
        if((HAL_GetTick() - tickstart ) > RCC_LSE_TIMEOUT_VALUE)
 8001f78:	f7ff fadc 	bl	8001534 <HAL_GetTick>
 8001f7c:	4602      	mov	r2, r0
 8001f7e:	693b      	ldr	r3, [r7, #16]
 8001f80:	1ad3      	subs	r3, r2, r3
 8001f82:	f241 3288 	movw	r2, #5000	; 0x1388
 8001f86:	4293      	cmp	r3, r2
 8001f88:	d901      	bls.n	8001f8e <HAL_RCC_OscConfig+0x376>
        {
          return HAL_TIMEOUT;
 8001f8a:	2303      	movs	r3, #3
 8001f8c:	e0b5      	b.n	80020fa <HAL_RCC_OscConfig+0x4e2>
      while(__HAL_RCC_GET_FLAG(RCC_FLAG_LSERDY) != RESET)
 8001f8e:	4b3e      	ldr	r3, [pc, #248]	; (8002088 <HAL_RCC_OscConfig+0x470>)
 8001f90:	6f1b      	ldr	r3, [r3, #112]	; 0x70
 8001f92:	f003 0302 	and.w	r3, r3, #2
 8001f96:	2b00      	cmp	r3, #0
 8001f98:	d1ee      	bne.n	8001f78 <HAL_RCC_OscConfig+0x360>
        }
      }
    }

    /* Restore clock configuration if changed */
    if(pwrclkchanged == SET)
 8001f9a:	7dfb      	ldrb	r3, [r7, #23]
 8001f9c:	2b01      	cmp	r3, #1
 8001f9e:	d105      	bne.n	8001fac <HAL_RCC_OscConfig+0x394>
    {
      __HAL_RCC_PWR_CLK_DISABLE();
 8001fa0:	4b39      	ldr	r3, [pc, #228]	; (8002088 <HAL_RCC_OscConfig+0x470>)
 8001fa2:	6c1b      	ldr	r3, [r3, #64]	; 0x40
 8001fa4:	4a38      	ldr	r2, [pc, #224]	; (8002088 <HAL_RCC_OscConfig+0x470>)
 8001fa6:	f023 5380 	bic.w	r3, r3, #268435456	; 0x10000000
 8001faa:	6413      	str	r3, [r2, #64]	; 0x40
    }
  }
  /*-------------------------------- PLL Configuration -----------------------*/
  /* Check the parameters */
  assert_param(IS_RCC_PLL(RCC_OscInitStruct->PLL.PLLState));
  if ((RCC_OscInitStruct->PLL.PLLState) != RCC_PLL_NONE)
 8001fac:	687b      	ldr	r3, [r7, #4]
 8001fae:	699b      	ldr	r3, [r3, #24]
 8001fb0:	2b00      	cmp	r3, #0
 8001fb2:	f000 80a1 	beq.w	80020f8 <HAL_RCC_OscConfig+0x4e0>
  {
    /* Check if the PLL is used as system clock or not */
    if(__HAL_RCC_GET_SYSCLK_SOURCE() != RCC_CFGR_SWS_PLL)
 8001fb6:	4b34      	ldr	r3, [pc, #208]	; (8002088 <HAL_RCC_OscConfig+0x470>)
 8001fb8:	689b      	ldr	r3, [r3, #8]
 8001fba:	f003 030c 	and.w	r3, r3, #12
 8001fbe:	2b08      	cmp	r3, #8
 8001fc0:	d05c      	beq.n	800207c <HAL_RCC_OscConfig+0x464>
    {
      if((RCC_OscInitStruct->PLL.PLLState) == RCC_PLL_ON)
 8001fc2:	687b      	ldr	r3, [r7, #4]
 8001fc4:	699b      	ldr	r3, [r3, #24]
 8001fc6:	2b02      	cmp	r3, #2
 8001fc8:	d141      	bne.n	800204e <HAL_RCC_OscConfig+0x436>
        assert_param(IS_RCC_PLLN_VALUE(RCC_OscInitStruct->PLL.PLLN));
        assert_param(IS_RCC_PLLP_VALUE(RCC_OscInitStruct->PLL.PLLP));
        assert_param(IS_RCC_PLLQ_VALUE(RCC_OscInitStruct->PLL.PLLQ));

        /* Disable the main PLL. */
        __HAL_RCC_PLL_DISABLE();
 8001fca:	4b31      	ldr	r3, [pc, #196]	; (8002090 <HAL_RCC_OscConfig+0x478>)
 8001fcc:	2200      	movs	r2, #0
 8001fce:	601a      	str	r2, [r3, #0]

        /* Get Start Tick */
        tickstart = HAL_GetTick();
 8001fd0:	f7ff fab0 	bl	8001534 <HAL_GetTick>
 8001fd4:	6138      	str	r0, [r7, #16]

        /* Wait till PLL is ready */
        while(__HAL_RCC_GET_FLAG(RCC_FLAG_PLLRDY) != RESET)
 8001fd6:	e008      	b.n	8001fea <HAL_RCC_OscConfig+0x3d2>
        {
          if((HAL_GetTick() - tickstart ) > PLL_TIMEOUT_VALUE)
 8001fd8:	f7ff faac 	bl	8001534 <HAL_GetTick>
 8001fdc:	4602      	mov	r2, r0
 8001fde:	693b      	ldr	r3, [r7, #16]
 8001fe0:	1ad3      	subs	r3, r2, r3
 8001fe2:	2b02      	cmp	r3, #2
 8001fe4:	d901      	bls.n	8001fea <HAL_RCC_OscConfig+0x3d2>
          {
            return HAL_TIMEOUT;
 8001fe6:	2303      	movs	r3, #3
 8001fe8:	e087      	b.n	80020fa <HAL_RCC_OscConfig+0x4e2>
        while(__HAL_RCC_GET_FLAG(RCC_FLAG_PLLRDY) != RESET)
 8001fea:	4b27      	ldr	r3, [pc, #156]	; (8002088 <HAL_RCC_OscConfig+0x470>)
 8001fec:	681b      	ldr	r3, [r3, #0]
 8001fee:	f003 7300 	and.w	r3, r3, #33554432	; 0x2000000
 8001ff2:	2b00      	cmp	r3, #0
 8001ff4:	d1f0      	bne.n	8001fd8 <HAL_RCC_OscConfig+0x3c0>
          }
        }

        /* Configure the main PLL clock source, multiplication and division factors. */
        WRITE_REG(RCC->PLLCFGR, (RCC_OscInitStruct->PLL.PLLSource                                            | \
 8001ff6:	687b      	ldr	r3, [r7, #4]
 8001ff8:	69da      	ldr	r2, [r3, #28]
 8001ffa:	687b      	ldr	r3, [r7, #4]
 8001ffc:	6a1b      	ldr	r3, [r3, #32]
 8001ffe:	431a      	orrs	r2, r3
 8002000:	687b      	ldr	r3, [r7, #4]
 8002002:	6a5b      	ldr	r3, [r3, #36]	; 0x24
 8002004:	019b      	lsls	r3, r3, #6
 8002006:	431a      	orrs	r2, r3
 8002008:	687b      	ldr	r3, [r7, #4]
 800200a:	6a9b      	ldr	r3, [r3, #40]	; 0x28
 800200c:	085b      	lsrs	r3, r3, #1
 800200e:	3b01      	subs	r3, #1
 8002010:	041b      	lsls	r3, r3, #16
 8002012:	431a      	orrs	r2, r3
 8002014:	687b      	ldr	r3, [r7, #4]
 8002016:	6adb      	ldr	r3, [r3, #44]	; 0x2c
 8002018:	061b      	lsls	r3, r3, #24
 800201a:	491b      	ldr	r1, [pc, #108]	; (8002088 <HAL_RCC_OscConfig+0x470>)
 800201c:	4313      	orrs	r3, r2
 800201e:	604b      	str	r3, [r1, #4]
                                 RCC_OscInitStruct->PLL.PLLM                                                 | \
                                 (RCC_OscInitStruct->PLL.PLLN << RCC_PLLCFGR_PLLN_Pos)             | \
                                 (((RCC_OscInitStruct->PLL.PLLP >> 1U) - 1U) << RCC_PLLCFGR_PLLP_Pos) | \
                                 (RCC_OscInitStruct->PLL.PLLQ << RCC_PLLCFGR_PLLQ_Pos)));
        /* Enable the main PLL. */
        __HAL_RCC_PLL_ENABLE();
 8002020:	4b1b      	ldr	r3, [pc, #108]	; (8002090 <HAL_RCC_OscConfig+0x478>)
 8002022:	2201      	movs	r2, #1
 8002024:	601a      	str	r2, [r3, #0]

        /* Get Start Tick */
        tickstart = HAL_GetTick();
 8002026:	f7ff fa85 	bl	8001534 <HAL_GetTick>
 800202a:	6138      	str	r0, [r7, #16]

        /* Wait till PLL is ready */
        while(__HAL_RCC_GET_FLAG(RCC_FLAG_PLLRDY) == RESET)
 800202c:	e008      	b.n	8002040 <HAL_RCC_OscConfig+0x428>
        {
          if((HAL_GetTick() - tickstart ) > PLL_TIMEOUT_VALUE)
 800202e:	f7ff fa81 	bl	8001534 <HAL_GetTick>
 8002032:	4602      	mov	r2, r0
 8002034:	693b      	ldr	r3, [r7, #16]
 8002036:	1ad3      	subs	r3, r2, r3
 8002038:	2b02      	cmp	r3, #2
 800203a:	d901      	bls.n	8002040 <HAL_RCC_OscConfig+0x428>
          {
            return HAL_TIMEOUT;
 800203c:	2303      	movs	r3, #3
 800203e:	e05c      	b.n	80020fa <HAL_RCC_OscConfig+0x4e2>
        while(__HAL_RCC_GET_FLAG(RCC_FLAG_PLLRDY) == RESET)
 8002040:	4b11      	ldr	r3, [pc, #68]	; (8002088 <HAL_RCC_OscConfig+0x470>)
 8002042:	681b      	ldr	r3, [r3, #0]
 8002044:	f003 7300 	and.w	r3, r3, #33554432	; 0x2000000
 8002048:	2b00      	cmp	r3, #0
 800204a:	d0f0      	beq.n	800202e <HAL_RCC_OscConfig+0x416>
 800204c:	e054      	b.n	80020f8 <HAL_RCC_OscConfig+0x4e0>
        }
      }
      else
      {
        /* Disable the main PLL. */
        __HAL_RCC_PLL_DISABLE();
 800204e:	4b10      	ldr	r3, [pc, #64]	; (8002090 <HAL_RCC_OscConfig+0x478>)
 8002050:	2200      	movs	r2, #0
 8002052:	601a      	str	r2, [r3, #0]

        /* Get Start Tick */
        tickstart = HAL_GetTick();
 8002054:	f7ff fa6e 	bl	8001534 <HAL_GetTick>
 8002058:	6138      	str	r0, [r7, #16]

        /* Wait till PLL is ready */
        while(__HAL_RCC_GET_FLAG(RCC_FLAG_PLLRDY) != RESET)
 800205a:	e008      	b.n	800206e <HAL_RCC_OscConfig+0x456>
        {
          if((HAL_GetTick() - tickstart ) > PLL_TIMEOUT_VALUE)
 800205c:	f7ff fa6a 	bl	8001534 <HAL_GetTick>
 8002060:	4602      	mov	r2, r0
 8002062:	693b      	ldr	r3, [r7, #16]
 8002064:	1ad3      	subs	r3, r2, r3
 8002066:	2b02      	cmp	r3, #2
 8002068:	d901      	bls.n	800206e <HAL_RCC_OscConfig+0x456>
          {
            return HAL_TIMEOUT;
 800206a:	2303      	movs	r3, #3
 800206c:	e045      	b.n	80020fa <HAL_RCC_OscConfig+0x4e2>
        while(__HAL_RCC_GET_FLAG(RCC_FLAG_PLLRDY) != RESET)
 800206e:	4b06      	ldr	r3, [pc, #24]	; (8002088 <HAL_RCC_OscConfig+0x470>)
 8002070:	681b      	ldr	r3, [r3, #0]
 8002072:	f003 7300 	and.w	r3, r3, #33554432	; 0x2000000
 8002076:	2b00      	cmp	r3, #0
 8002078:	d1f0      	bne.n	800205c <HAL_RCC_OscConfig+0x444>
 800207a:	e03d      	b.n	80020f8 <HAL_RCC_OscConfig+0x4e0>
      }
    }
    else
    {
      /* Check if there is a request to disable the PLL used as System clock source */
      if((RCC_OscInitStruct->PLL.PLLState) == RCC_PLL_OFF)
 800207c:	687b      	ldr	r3, [r7, #4]
 800207e:	699b      	ldr	r3, [r3, #24]
 8002080:	2b01      	cmp	r3, #1
 8002082:	d107      	bne.n	8002094 <HAL_RCC_OscConfig+0x47c>
      {
        return HAL_ERROR;
 8002084:	2301      	movs	r3, #1
 8002086:	e038      	b.n	80020fa <HAL_RCC_OscConfig+0x4e2>
 8002088:	40023800 	.word	0x40023800
 800208c:	40007000 	.word	0x40007000
 8002090:	42470060 	.word	0x42470060
      }
      else
      {
        /* Do not return HAL_ERROR if request repeats the current configuration */
        pll_config = RCC->PLLCFGR;
 8002094:	4b1b      	ldr	r3, [pc, #108]	; (8002104 <HAL_RCC_OscConfig+0x4ec>)
 8002096:	685b      	ldr	r3, [r3, #4]
 8002098:	60fb      	str	r3, [r7, #12]
            (READ_BIT(pll_config, RCC_PLLCFGR_PLLN) != (RCC_OscInitStruct->PLL.PLLN) << RCC_PLLCFGR_PLLN_Pos) ||
            (READ_BIT(pll_config, RCC_PLLCFGR_PLLP) != (((RCC_OscInitStruct->PLL.PLLP >> 1U) - 1U)) << RCC_PLLCFGR_PLLP_Pos) ||
            (READ_BIT(pll_config, RCC_PLLCFGR_PLLQ) != (RCC_OscInitStruct->PLL.PLLQ << RCC_PLLCFGR_PLLQ_Pos)) ||
            (READ_BIT(pll_config, RCC_PLLCFGR_PLLR) != (RCC_OscInitStruct->PLL.PLLR << RCC_PLLCFGR_PLLR_Pos)))
#else
        if (((RCC_OscInitStruct->PLL.PLLState) == RCC_PLL_OFF) ||
 800209a:	687b      	ldr	r3, [r7, #4]
 800209c:	699b      	ldr	r3, [r3, #24]
 800209e:	2b01      	cmp	r3, #1
 80020a0:	d028      	beq.n	80020f4 <HAL_RCC_OscConfig+0x4dc>
            (READ_BIT(pll_config, RCC_PLLCFGR_PLLSRC) != RCC_OscInitStruct->PLL.PLLSource) ||
 80020a2:	68fb      	ldr	r3, [r7, #12]
 80020a4:	f403 0280 	and.w	r2, r3, #4194304	; 0x400000
 80020a8:	687b      	ldr	r3, [r7, #4]
 80020aa:	69db      	ldr	r3, [r3, #28]
        if (((RCC_OscInitStruct->PLL.PLLState) == RCC_PLL_OFF) ||
 80020ac:	429a      	cmp	r2, r3
 80020ae:	d121      	bne.n	80020f4 <HAL_RCC_OscConfig+0x4dc>
            (READ_BIT(pll_config, RCC_PLLCFGR_PLLM) != (RCC_OscInitStruct->PLL.PLLM) << RCC_PLLCFGR_PLLM_Pos) ||
 80020b0:	68fb      	ldr	r3, [r7, #12]
 80020b2:	f003 023f 	and.w	r2, r3, #63	; 0x3f
 80020b6:	687b      	ldr	r3, [r7, #4]
 80020b8:	6a1b      	ldr	r3, [r3, #32]
            (READ_BIT(pll_config, RCC_PLLCFGR_PLLSRC) != RCC_OscInitStruct->PLL.PLLSource) ||
 80020ba:	429a      	cmp	r2, r3
 80020bc:	d11a      	bne.n	80020f4 <HAL_RCC_OscConfig+0x4dc>
            (READ_BIT(pll_config, RCC_PLLCFGR_PLLN) != (RCC_OscInitStruct->PLL.PLLN) << RCC_PLLCFGR_PLLN_Pos) ||
 80020be:	68fa      	ldr	r2, [r7, #12]
 80020c0:	f647 73c0 	movw	r3, #32704	; 0x7fc0
 80020c4:	4013      	ands	r3, r2
 80020c6:	687a      	ldr	r2, [r7, #4]
 80020c8:	6a52      	ldr	r2, [r2, #36]	; 0x24
 80020ca:	0192      	lsls	r2, r2, #6
            (READ_BIT(pll_config, RCC_PLLCFGR_PLLM) != (RCC_OscInitStruct->PLL.PLLM) << RCC_PLLCFGR_PLLM_Pos) ||
 80020cc:	4293      	cmp	r3, r2
 80020ce:	d111      	bne.n	80020f4 <HAL_RCC_OscConfig+0x4dc>
            (READ_BIT(pll_config, RCC_PLLCFGR_PLLP) != (((RCC_OscInitStruct->PLL.PLLP >> 1U) - 1U)) << RCC_PLLCFGR_PLLP_Pos) ||
 80020d0:	68fb      	ldr	r3, [r7, #12]
 80020d2:	f403 3240 	and.w	r2, r3, #196608	; 0x30000
 80020d6:	687b      	ldr	r3, [r7, #4]
 80020d8:	6a9b      	ldr	r3, [r3, #40]	; 0x28
 80020da:	085b      	lsrs	r3, r3, #1
 80020dc:	3b01      	subs	r3, #1
 80020de:	041b      	lsls	r3, r3, #16
            (READ_BIT(pll_config, RCC_PLLCFGR_PLLN) != (RCC_OscInitStruct->PLL.PLLN) << RCC_PLLCFGR_PLLN_Pos) ||
 80020e0:	429a      	cmp	r2, r3
 80020e2:	d107      	bne.n	80020f4 <HAL_RCC_OscConfig+0x4dc>
            (READ_BIT(pll_config, RCC_PLLCFGR_PLLQ) != (RCC_OscInitStruct->PLL.PLLQ << RCC_PLLCFGR_PLLQ_Pos)))
 80020e4:	68fb      	ldr	r3, [r7, #12]
 80020e6:	f003 6270 	and.w	r2, r3, #251658240	; 0xf000000
 80020ea:	687b      	ldr	r3, [r7, #4]
 80020ec:	6adb      	ldr	r3, [r3, #44]	; 0x2c
 80020ee:	061b      	lsls	r3, r3, #24
            (READ_BIT(pll_config, RCC_PLLCFGR_PLLP) != (((RCC_OscInitStruct->PLL.PLLP >> 1U) - 1U)) << RCC_PLLCFGR_PLLP_Pos) ||
 80020f0:	429a      	cmp	r2, r3
 80020f2:	d001      	beq.n	80020f8 <HAL_RCC_OscConfig+0x4e0>
#endif
        {
          return HAL_ERROR;
 80020f4:	2301      	movs	r3, #1
 80020f6:	e000      	b.n	80020fa <HAL_RCC_OscConfig+0x4e2>
        }
      }
    }
  }
  return HAL_OK;
 80020f8:	2300      	movs	r3, #0
}
 80020fa:	4618      	mov	r0, r3
 80020fc:	3718      	adds	r7, #24
 80020fe:	46bd      	mov	sp, r7
 8002100:	bd80      	pop	{r7, pc}
 8002102:	bf00      	nop
 8002104:	40023800 	.word	0x40023800

08002108 <HAL_RCC_ClockConfig>:
  *         HPRE[3:0] bits to ensure that HCLK not exceed the maximum allowed frequency
  *         (for more details refer to section above "Initialization/de-initialization functions")
  * @retval None
  */
HAL_StatusTypeDef HAL_RCC_ClockConfig(RCC_ClkInitTypeDef  *RCC_ClkInitStruct, uint32_t FLatency)
{
 8002108:	b580      	push	{r7, lr}
 800210a:	b084      	sub	sp, #16
 800210c:	af00      	add	r7, sp, #0
 800210e:	6078      	str	r0, [r7, #4]
 8002110:	6039      	str	r1, [r7, #0]
  uint32_t tickstart;

  /* Check Null pointer */
  if(RCC_ClkInitStruct == NULL)
 8002112:	687b      	ldr	r3, [r7, #4]
 8002114:	2b00      	cmp	r3, #0
 8002116:	d101      	bne.n	800211c <HAL_RCC_ClockConfig+0x14>
  {
    return HAL_ERROR;
 8002118:	2301      	movs	r3, #1
 800211a:	e0cc      	b.n	80022b6 <HAL_RCC_ClockConfig+0x1ae>
  /* To correctly read data from FLASH memory, the number of wait states (LATENCY)
    must be correctly programmed according to the frequency of the CPU clock
    (HCLK) and the supply voltage of the device. */

  /* Increasing the number of wait states because of higher CPU frequency */
  if(FLatency > __HAL_FLASH_GET_LATENCY())
 800211c:	4b68      	ldr	r3, [pc, #416]	; (80022c0 <HAL_RCC_ClockConfig+0x1b8>)
 800211e:	681b      	ldr	r3, [r3, #0]
 8002120:	f003 0307 	and.w	r3, r3, #7
 8002124:	683a      	ldr	r2, [r7, #0]
 8002126:	429a      	cmp	r2, r3
 8002128:	d90c      	bls.n	8002144 <HAL_RCC_ClockConfig+0x3c>
  {
    /* Program the new number of wait states to the LATENCY bits in the FLASH_ACR register */
    __HAL_FLASH_SET_LATENCY(FLatency);
 800212a:	4b65      	ldr	r3, [pc, #404]	; (80022c0 <HAL_RCC_ClockConfig+0x1b8>)
 800212c:	683a      	ldr	r2, [r7, #0]
 800212e:	b2d2      	uxtb	r2, r2
 8002130:	701a      	strb	r2, [r3, #0]

    /* Check that the new number of wait states is taken into account to access the Flash
    memory by reading the FLASH_ACR register */
    if(__HAL_FLASH_GET_LATENCY() != FLatency)
 8002132:	4b63      	ldr	r3, [pc, #396]	; (80022c0 <HAL_RCC_ClockConfig+0x1b8>)
 8002134:	681b      	ldr	r3, [r3, #0]
 8002136:	f003 0307 	and.w	r3, r3, #7
 800213a:	683a      	ldr	r2, [r7, #0]
 800213c:	429a      	cmp	r2, r3
 800213e:	d001      	beq.n	8002144 <HAL_RCC_ClockConfig+0x3c>
    {
      return HAL_ERROR;
 8002140:	2301      	movs	r3, #1
 8002142:	e0b8      	b.n	80022b6 <HAL_RCC_ClockConfig+0x1ae>
    }
  }

  /*-------------------------- HCLK Configuration --------------------------*/
  if(((RCC_ClkInitStruct->ClockType) & RCC_CLOCKTYPE_HCLK) == RCC_CLOCKTYPE_HCLK)
 8002144:	687b      	ldr	r3, [r7, #4]
 8002146:	681b      	ldr	r3, [r3, #0]
 8002148:	f003 0302 	and.w	r3, r3, #2
 800214c:	2b00      	cmp	r3, #0
 800214e:	d020      	beq.n	8002192 <HAL_RCC_ClockConfig+0x8a>
  {
    /* Set the highest APBx dividers in order to ensure that we do not go through
       a non-spec phase whatever we decrease or increase HCLK. */
    if(((RCC_ClkInitStruct->ClockType) & RCC_CLOCKTYPE_PCLK1) == RCC_CLOCKTYPE_PCLK1)
 8002150:	687b      	ldr	r3, [r7, #4]
 8002152:	681b      	ldr	r3, [r3, #0]
 8002154:	f003 0304 	and.w	r3, r3, #4
 8002158:	2b00      	cmp	r3, #0
 800215a:	d005      	beq.n	8002168 <HAL_RCC_ClockConfig+0x60>
    {
      MODIFY_REG(RCC->CFGR, RCC_CFGR_PPRE1, RCC_HCLK_DIV16);
 800215c:	4b59      	ldr	r3, [pc, #356]	; (80022c4 <HAL_RCC_ClockConfig+0x1bc>)
 800215e:	689b      	ldr	r3, [r3, #8]
 8002160:	4a58      	ldr	r2, [pc, #352]	; (80022c4 <HAL_RCC_ClockConfig+0x1bc>)
 8002162:	f443 53e0 	orr.w	r3, r3, #7168	; 0x1c00
 8002166:	6093      	str	r3, [r2, #8]
    }

    if(((RCC_ClkInitStruct->ClockType) & RCC_CLOCKTYPE_PCLK2) == RCC_CLOCKTYPE_PCLK2)
 8002168:	687b      	ldr	r3, [r7, #4]
 800216a:	681b      	ldr	r3, [r3, #0]
 800216c:	f003 0308 	and.w	r3, r3, #8
 8002170:	2b00      	cmp	r3, #0
 8002172:	d005      	beq.n	8002180 <HAL_RCC_ClockConfig+0x78>
    {
      MODIFY_REG(RCC->CFGR, RCC_CFGR_PPRE2, (RCC_HCLK_DIV16 << 3));
 8002174:	4b53      	ldr	r3, [pc, #332]	; (80022c4 <HAL_RCC_ClockConfig+0x1bc>)
 8002176:	689b      	ldr	r3, [r3, #8]
 8002178:	4a52      	ldr	r2, [pc, #328]	; (80022c4 <HAL_RCC_ClockConfig+0x1bc>)
 800217a:	f443 4360 	orr.w	r3, r3, #57344	; 0xe000
 800217e:	6093      	str	r3, [r2, #8]
    }

    assert_param(IS_RCC_HCLK(RCC_ClkInitStruct->AHBCLKDivider));
    MODIFY_REG(RCC->CFGR, RCC_CFGR_HPRE, RCC_ClkInitStruct->AHBCLKDivider);
 8002180:	4b50      	ldr	r3, [pc, #320]	; (80022c4 <HAL_RCC_ClockConfig+0x1bc>)
 8002182:	689b      	ldr	r3, [r3, #8]
 8002184:	f023 02f0 	bic.w	r2, r3, #240	; 0xf0
 8002188:	687b      	ldr	r3, [r7, #4]
 800218a:	689b      	ldr	r3, [r3, #8]
 800218c:	494d      	ldr	r1, [pc, #308]	; (80022c4 <HAL_RCC_ClockConfig+0x1bc>)
 800218e:	4313      	orrs	r3, r2
 8002190:	608b      	str	r3, [r1, #8]
  }

  /*------------------------- SYSCLK Configuration ---------------------------*/
  if(((RCC_ClkInitStruct->ClockType) & RCC_CLOCKTYPE_SYSCLK) == RCC_CLOCKTYPE_SYSCLK)
 8002192:	687b      	ldr	r3, [r7, #4]
 8002194:	681b      	ldr	r3, [r3, #0]
 8002196:	f003 0301 	and.w	r3, r3, #1
 800219a:	2b00      	cmp	r3, #0
 800219c:	d044      	beq.n	8002228 <HAL_RCC_ClockConfig+0x120>
  {
    assert_param(IS_RCC_SYSCLKSOURCE(RCC_ClkInitStruct->SYSCLKSource));

    /* HSE is selected as System Clock Source */
    if(RCC_ClkInitStruct->SYSCLKSource == RCC_SYSCLKSOURCE_HSE)
 800219e:	687b      	ldr	r3, [r7, #4]
 80021a0:	685b      	ldr	r3, [r3, #4]
 80021a2:	2b01      	cmp	r3, #1
 80021a4:	d107      	bne.n	80021b6 <HAL_RCC_ClockConfig+0xae>
    {
      /* Check the HSE ready flag */
      if(__HAL_RCC_GET_FLAG(RCC_FLAG_HSERDY) == RESET)
 80021a6:	4b47      	ldr	r3, [pc, #284]	; (80022c4 <HAL_RCC_ClockConfig+0x1bc>)
 80021a8:	681b      	ldr	r3, [r3, #0]
 80021aa:	f403 3300 	and.w	r3, r3, #131072	; 0x20000
 80021ae:	2b00      	cmp	r3, #0
 80021b0:	d119      	bne.n	80021e6 <HAL_RCC_ClockConfig+0xde>
      {
        return HAL_ERROR;
 80021b2:	2301      	movs	r3, #1
 80021b4:	e07f      	b.n	80022b6 <HAL_RCC_ClockConfig+0x1ae>
      }
    }
    /* PLL is selected as System Clock Source */
    else if((RCC_ClkInitStruct->SYSCLKSource == RCC_SYSCLKSOURCE_PLLCLK)   ||
 80021b6:	687b      	ldr	r3, [r7, #4]
 80021b8:	685b      	ldr	r3, [r3, #4]
 80021ba:	2b02      	cmp	r3, #2
 80021bc:	d003      	beq.n	80021c6 <HAL_RCC_ClockConfig+0xbe>
            (RCC_ClkInitStruct->SYSCLKSource == RCC_SYSCLKSOURCE_PLLRCLK))
 80021be:	687b      	ldr	r3, [r7, #4]
 80021c0:	685b      	ldr	r3, [r3, #4]
    else if((RCC_ClkInitStruct->SYSCLKSource == RCC_SYSCLKSOURCE_PLLCLK)   ||
 80021c2:	2b03      	cmp	r3, #3
 80021c4:	d107      	bne.n	80021d6 <HAL_RCC_ClockConfig+0xce>
    {
      /* Check the PLL ready flag */
      if(__HAL_RCC_GET_FLAG(RCC_FLAG_PLLRDY) == RESET)
 80021c6:	4b3f      	ldr	r3, [pc, #252]	; (80022c4 <HAL_RCC_ClockConfig+0x1bc>)
 80021c8:	681b      	ldr	r3, [r3, #0]
 80021ca:	f003 7300 	and.w	r3, r3, #33554432	; 0x2000000
 80021ce:	2b00      	cmp	r3, #0
 80021d0:	d109      	bne.n	80021e6 <HAL_RCC_ClockConfig+0xde>
      {
        return HAL_ERROR;
 80021d2:	2301      	movs	r3, #1
 80021d4:	e06f      	b.n	80022b6 <HAL_RCC_ClockConfig+0x1ae>
    }
    /* HSI is selected as System Clock Source */
    else
    {
      /* Check the HSI ready flag */
      if(__HAL_RCC_GET_FLAG(RCC_FLAG_HSIRDY) == RESET)
 80021d6:	4b3b      	ldr	r3, [pc, #236]	; (80022c4 <HAL_RCC_ClockConfig+0x1bc>)
 80021d8:	681b      	ldr	r3, [r3, #0]
 80021da:	f003 0302 	and.w	r3, r3, #2
 80021de:	2b00      	cmp	r3, #0
 80021e0:	d101      	bne.n	80021e6 <HAL_RCC_ClockConfig+0xde>
      {
        return HAL_ERROR;
 80021e2:	2301      	movs	r3, #1
 80021e4:	e067      	b.n	80022b6 <HAL_RCC_ClockConfig+0x1ae>
      }
    }

    __HAL_RCC_SYSCLK_CONFIG(RCC_ClkInitStruct->SYSCLKSource);
 80021e6:	4b37      	ldr	r3, [pc, #220]	; (80022c4 <HAL_RCC_ClockConfig+0x1bc>)
 80021e8:	689b      	ldr	r3, [r3, #8]
 80021ea:	f023 0203 	bic.w	r2, r3, #3
 80021ee:	687b      	ldr	r3, [r7, #4]
 80021f0:	685b      	ldr	r3, [r3, #4]
 80021f2:	4934      	ldr	r1, [pc, #208]	; (80022c4 <HAL_RCC_ClockConfig+0x1bc>)
 80021f4:	4313      	orrs	r3, r2
 80021f6:	608b      	str	r3, [r1, #8]

    /* Get Start Tick */
    tickstart = HAL_GetTick();
 80021f8:	f7ff f99c 	bl	8001534 <HAL_GetTick>
 80021fc:	60f8      	str	r0, [r7, #12]

    while (__HAL_RCC_GET_SYSCLK_SOURCE() != (RCC_ClkInitStruct->SYSCLKSource << RCC_CFGR_SWS_Pos))
 80021fe:	e00a      	b.n	8002216 <HAL_RCC_ClockConfig+0x10e>
    {
      if ((HAL_GetTick() - tickstart) > CLOCKSWITCH_TIMEOUT_VALUE)
 8002200:	f7ff f998 	bl	8001534 <HAL_GetTick>
 8002204:	4602      	mov	r2, r0
 8002206:	68fb      	ldr	r3, [r7, #12]
 8002208:	1ad3      	subs	r3, r2, r3
 800220a:	f241 3288 	movw	r2, #5000	; 0x1388
 800220e:	4293      	cmp	r3, r2
 8002210:	d901      	bls.n	8002216 <HAL_RCC_ClockConfig+0x10e>
      {
        return HAL_TIMEOUT;
 8002212:	2303      	movs	r3, #3
 8002214:	e04f      	b.n	80022b6 <HAL_RCC_ClockConfig+0x1ae>
    while (__HAL_RCC_GET_SYSCLK_SOURCE() != (RCC_ClkInitStruct->SYSCLKSource << RCC_CFGR_SWS_Pos))
 8002216:	4b2b      	ldr	r3, [pc, #172]	; (80022c4 <HAL_RCC_ClockConfig+0x1bc>)
 8002218:	689b      	ldr	r3, [r3, #8]
 800221a:	f003 020c 	and.w	r2, r3, #12
 800221e:	687b      	ldr	r3, [r7, #4]
 8002220:	685b      	ldr	r3, [r3, #4]
 8002222:	009b      	lsls	r3, r3, #2
 8002224:	429a      	cmp	r2, r3
 8002226:	d1eb      	bne.n	8002200 <HAL_RCC_ClockConfig+0xf8>
      }
    }
  }

  /* Decreasing the number of wait states because of lower CPU frequency */
  if(FLatency < __HAL_FLASH_GET_LATENCY())
 8002228:	4b25      	ldr	r3, [pc, #148]	; (80022c0 <HAL_RCC_ClockConfig+0x1b8>)
 800222a:	681b      	ldr	r3, [r3, #0]
 800222c:	f003 0307 	and.w	r3, r3, #7
 8002230:	683a      	ldr	r2, [r7, #0]
 8002232:	429a      	cmp	r2, r3
 8002234:	d20c      	bcs.n	8002250 <HAL_RCC_ClockConfig+0x148>
  {
     /* Program the new number of wait states to the LATENCY bits in the FLASH_ACR register */
    __HAL_FLASH_SET_LATENCY(FLatency);
 8002236:	4b22      	ldr	r3, [pc, #136]	; (80022c0 <HAL_RCC_ClockConfig+0x1b8>)
 8002238:	683a      	ldr	r2, [r7, #0]
 800223a:	b2d2      	uxtb	r2, r2
 800223c:	701a      	strb	r2, [r3, #0]

    /* Check that the new number of wait states is taken into account to access the Flash
    memory by reading the FLASH_ACR register */
    if(__HAL_FLASH_GET_LATENCY() != FLatency)
 800223e:	4b20      	ldr	r3, [pc, #128]	; (80022c0 <HAL_RCC_ClockConfig+0x1b8>)
 8002240:	681b      	ldr	r3, [r3, #0]
 8002242:	f003 0307 	and.w	r3, r3, #7
 8002246:	683a      	ldr	r2, [r7, #0]
 8002248:	429a      	cmp	r2, r3
 800224a:	d001      	beq.n	8002250 <HAL_RCC_ClockConfig+0x148>
    {
      return HAL_ERROR;
 800224c:	2301      	movs	r3, #1
 800224e:	e032      	b.n	80022b6 <HAL_RCC_ClockConfig+0x1ae>
    }
  }

  /*-------------------------- PCLK1 Configuration ---------------------------*/
  if(((RCC_ClkInitStruct->ClockType) & RCC_CLOCKTYPE_PCLK1) == RCC_CLOCKTYPE_PCLK1)
 8002250:	687b      	ldr	r3, [r7, #4]
 8002252:	681b      	ldr	r3, [r3, #0]
 8002254:	f003 0304 	and.w	r3, r3, #4
 8002258:	2b00      	cmp	r3, #0
 800225a:	d008      	beq.n	800226e <HAL_RCC_ClockConfig+0x166>
  {
    assert_param(IS_RCC_PCLK(RCC_ClkInitStruct->APB1CLKDivider));
    MODIFY_REG(RCC->CFGR, RCC_CFGR_PPRE1, RCC_ClkInitStruct->APB1CLKDivider);
 800225c:	4b19      	ldr	r3, [pc, #100]	; (80022c4 <HAL_RCC_ClockConfig+0x1bc>)
 800225e:	689b      	ldr	r3, [r3, #8]
 8002260:	f423 52e0 	bic.w	r2, r3, #7168	; 0x1c00
 8002264:	687b      	ldr	r3, [r7, #4]
 8002266:	68db      	ldr	r3, [r3, #12]
 8002268:	4916      	ldr	r1, [pc, #88]	; (80022c4 <HAL_RCC_ClockConfig+0x1bc>)
 800226a:	4313      	orrs	r3, r2
 800226c:	608b      	str	r3, [r1, #8]
  }

  /*-------------------------- PCLK2 Configuration ---------------------------*/
  if(((RCC_ClkInitStruct->ClockType) & RCC_CLOCKTYPE_PCLK2) == RCC_CLOCKTYPE_PCLK2)
 800226e:	687b      	ldr	r3, [r7, #4]
 8002270:	681b      	ldr	r3, [r3, #0]
 8002272:	f003 0308 	and.w	r3, r3, #8
 8002276:	2b00      	cmp	r3, #0
 8002278:	d009      	beq.n	800228e <HAL_RCC_ClockConfig+0x186>
  {
    assert_param(IS_RCC_PCLK(RCC_ClkInitStruct->APB2CLKDivider));
    MODIFY_REG(RCC->CFGR, RCC_CFGR_PPRE2, ((RCC_ClkInitStruct->APB2CLKDivider) << 3U));
 800227a:	4b12      	ldr	r3, [pc, #72]	; (80022c4 <HAL_RCC_ClockConfig+0x1bc>)
 800227c:	689b      	ldr	r3, [r3, #8]
 800227e:	f423 4260 	bic.w	r2, r3, #57344	; 0xe000
 8002282:	687b      	ldr	r3, [r7, #4]
 8002284:	691b      	ldr	r3, [r3, #16]
 8002286:	00db      	lsls	r3, r3, #3
 8002288:	490e      	ldr	r1, [pc, #56]	; (80022c4 <HAL_RCC_ClockConfig+0x1bc>)
 800228a:	4313      	orrs	r3, r2
 800228c:	608b      	str	r3, [r1, #8]
  }

  /* Update the SystemCoreClock global variable */
  SystemCoreClock = HAL_RCC_GetSysClockFreq() >> AHBPrescTable[(RCC->CFGR & RCC_CFGR_HPRE)>> RCC_CFGR_HPRE_Pos];
 800228e:	f000 f821 	bl	80022d4 <HAL_RCC_GetSysClockFreq>
 8002292:	4602      	mov	r2, r0
 8002294:	4b0b      	ldr	r3, [pc, #44]	; (80022c4 <HAL_RCC_ClockConfig+0x1bc>)
 8002296:	689b      	ldr	r3, [r3, #8]
 8002298:	091b      	lsrs	r3, r3, #4
 800229a:	f003 030f 	and.w	r3, r3, #15
 800229e:	490a      	ldr	r1, [pc, #40]	; (80022c8 <HAL_RCC_ClockConfig+0x1c0>)
 80022a0:	5ccb      	ldrb	r3, [r1, r3]
 80022a2:	fa22 f303 	lsr.w	r3, r2, r3
 80022a6:	4a09      	ldr	r2, [pc, #36]	; (80022cc <HAL_RCC_ClockConfig+0x1c4>)
 80022a8:	6013      	str	r3, [r2, #0]

  /* Configure the source of time base considering new system clocks settings */
  HAL_InitTick (uwTickPrio);
 80022aa:	4b09      	ldr	r3, [pc, #36]	; (80022d0 <HAL_RCC_ClockConfig+0x1c8>)
 80022ac:	681b      	ldr	r3, [r3, #0]
 80022ae:	4618      	mov	r0, r3
 80022b0:	f7ff f8fc 	bl	80014ac <HAL_InitTick>

  return HAL_OK;
 80022b4:	2300      	movs	r3, #0
}
 80022b6:	4618      	mov	r0, r3
 80022b8:	3710      	adds	r7, #16
 80022ba:	46bd      	mov	sp, r7
 80022bc:	bd80      	pop	{r7, pc}
 80022be:	bf00      	nop
 80022c0:	40023c00 	.word	0x40023c00
 80022c4:	40023800 	.word	0x40023800
 80022c8:	080037a0 	.word	0x080037a0
 80022cc:	2000007c 	.word	0x2000007c
 80022d0:	20000080 	.word	0x20000080

080022d4 <HAL_RCC_GetSysClockFreq>:
  *
  *
  * @retval SYSCLK frequency
  */
__weak uint32_t HAL_RCC_GetSysClockFreq(void)
{
 80022d4:	e92d 4fb0 	stmdb	sp!, {r4, r5, r7, r8, r9, sl, fp, lr}
 80022d8:	b094      	sub	sp, #80	; 0x50
 80022da:	af00      	add	r7, sp, #0
  uint32_t pllm = 0U, pllvco = 0U, pllp = 0U;
 80022dc:	2300      	movs	r3, #0
 80022de:	647b      	str	r3, [r7, #68]	; 0x44
 80022e0:	2300      	movs	r3, #0
 80022e2:	64fb      	str	r3, [r7, #76]	; 0x4c
 80022e4:	2300      	movs	r3, #0
 80022e6:	643b      	str	r3, [r7, #64]	; 0x40
  uint32_t sysclockfreq = 0U;
 80022e8:	2300      	movs	r3, #0
 80022ea:	64bb      	str	r3, [r7, #72]	; 0x48

  /* Get SYSCLK source -------------------------------------------------------*/
  switch (RCC->CFGR & RCC_CFGR_SWS)
 80022ec:	4b79      	ldr	r3, [pc, #484]	; (80024d4 <HAL_RCC_GetSysClockFreq+0x200>)
 80022ee:	689b      	ldr	r3, [r3, #8]
 80022f0:	f003 030c 	and.w	r3, r3, #12
 80022f4:	2b08      	cmp	r3, #8
 80022f6:	d00d      	beq.n	8002314 <HAL_RCC_GetSysClockFreq+0x40>
 80022f8:	2b08      	cmp	r3, #8
 80022fa:	f200 80e1 	bhi.w	80024c0 <HAL_RCC_GetSysClockFreq+0x1ec>
 80022fe:	2b00      	cmp	r3, #0
 8002300:	d002      	beq.n	8002308 <HAL_RCC_GetSysClockFreq+0x34>
 8002302:	2b04      	cmp	r3, #4
 8002304:	d003      	beq.n	800230e <HAL_RCC_GetSysClockFreq+0x3a>
 8002306:	e0db      	b.n	80024c0 <HAL_RCC_GetSysClockFreq+0x1ec>
  {
    case RCC_CFGR_SWS_HSI:  /* HSI used as system clock source */
    {
      sysclockfreq = HSI_VALUE;
 8002308:	4b73      	ldr	r3, [pc, #460]	; (80024d8 <HAL_RCC_GetSysClockFreq+0x204>)
 800230a:	64bb      	str	r3, [r7, #72]	; 0x48
       break;
 800230c:	e0db      	b.n	80024c6 <HAL_RCC_GetSysClockFreq+0x1f2>
    }
    case RCC_CFGR_SWS_HSE:  /* HSE used as system clock  source */
    {
      sysclockfreq = HSE_VALUE;
 800230e:	4b73      	ldr	r3, [pc, #460]	; (80024dc <HAL_RCC_GetSysClockFreq+0x208>)
 8002310:	64bb      	str	r3, [r7, #72]	; 0x48
      break;
 8002312:	e0d8      	b.n	80024c6 <HAL_RCC_GetSysClockFreq+0x1f2>
    }
    case RCC_CFGR_SWS_PLL:  /* PLL used as system clock  source */
    {
      /* PLL_VCO = (HSE_VALUE or HSI_VALUE / PLLM) * PLLN
      SYSCLK = PLL_VCO / PLLP */
      pllm = RCC->PLLCFGR & RCC_PLLCFGR_PLLM;
 8002314:	4b6f      	ldr	r3, [pc, #444]	; (80024d4 <HAL_RCC_GetSysClockFreq+0x200>)
 8002316:	685b      	ldr	r3, [r3, #4]
 8002318:	f003 033f 	and.w	r3, r3, #63	; 0x3f
 800231c:	647b      	str	r3, [r7, #68]	; 0x44
      if(__HAL_RCC_GET_PLL_OSCSOURCE() != RCC_PLLSOURCE_HSI)
 800231e:	4b6d      	ldr	r3, [pc, #436]	; (80024d4 <HAL_RCC_GetSysClockFreq+0x200>)
 8002320:	685b      	ldr	r3, [r3, #4]
 8002322:	f403 0380 	and.w	r3, r3, #4194304	; 0x400000
 8002326:	2b00      	cmp	r3, #0
 8002328:	d063      	beq.n	80023f2 <HAL_RCC_GetSysClockFreq+0x11e>
      {
        /* HSE used as PLL clock source */
        pllvco = (uint32_t) ((((uint64_t) HSE_VALUE * ((uint64_t) ((RCC->PLLCFGR & RCC_PLLCFGR_PLLN) >> RCC_PLLCFGR_PLLN_Pos)))) / (uint64_t)pllm);
 800232a:	4b6a      	ldr	r3, [pc, #424]	; (80024d4 <HAL_RCC_GetSysClockFreq+0x200>)
 800232c:	685b      	ldr	r3, [r3, #4]
 800232e:	099b      	lsrs	r3, r3, #6
 8002330:	2200      	movs	r2, #0
 8002332:	63bb      	str	r3, [r7, #56]	; 0x38
 8002334:	63fa      	str	r2, [r7, #60]	; 0x3c
 8002336:	6bbb      	ldr	r3, [r7, #56]	; 0x38
 8002338:	f3c3 0308 	ubfx	r3, r3, #0, #9
 800233c:	633b      	str	r3, [r7, #48]	; 0x30
 800233e:	2300      	movs	r3, #0
 8002340:	637b      	str	r3, [r7, #52]	; 0x34
 8002342:	e9d7 450c 	ldrd	r4, r5, [r7, #48]	; 0x30
 8002346:	4622      	mov	r2, r4
 8002348:	462b      	mov	r3, r5
 800234a:	f04f 0000 	mov.w	r0, #0
 800234e:	f04f 0100 	mov.w	r1, #0
 8002352:	0159      	lsls	r1, r3, #5
 8002354:	ea41 61d2 	orr.w	r1, r1, r2, lsr #27
 8002358:	0150      	lsls	r0, r2, #5
 800235a:	4602      	mov	r2, r0
 800235c:	460b      	mov	r3, r1
 800235e:	4621      	mov	r1, r4
 8002360:	1a51      	subs	r1, r2, r1
 8002362:	6139      	str	r1, [r7, #16]
 8002364:	4629      	mov	r1, r5
 8002366:	eb63 0301 	sbc.w	r3, r3, r1
 800236a:	617b      	str	r3, [r7, #20]
 800236c:	f04f 0200 	mov.w	r2, #0
 8002370:	f04f 0300 	mov.w	r3, #0
 8002374:	e9d7 ab04 	ldrd	sl, fp, [r7, #16]
 8002378:	4659      	mov	r1, fp
 800237a:	018b      	lsls	r3, r1, #6
 800237c:	4651      	mov	r1, sl
 800237e:	ea43 6391 	orr.w	r3, r3, r1, lsr #26
 8002382:	4651      	mov	r1, sl
 8002384:	018a      	lsls	r2, r1, #6
 8002386:	4651      	mov	r1, sl
 8002388:	ebb2 0801 	subs.w	r8, r2, r1
 800238c:	4659      	mov	r1, fp
 800238e:	eb63 0901 	sbc.w	r9, r3, r1
 8002392:	f04f 0200 	mov.w	r2, #0
 8002396:	f04f 0300 	mov.w	r3, #0
 800239a:	ea4f 03c9 	mov.w	r3, r9, lsl #3
 800239e:	ea43 7358 	orr.w	r3, r3, r8, lsr #29
 80023a2:	ea4f 02c8 	mov.w	r2, r8, lsl #3
 80023a6:	4690      	mov	r8, r2
 80023a8:	4699      	mov	r9, r3
 80023aa:	4623      	mov	r3, r4
 80023ac:	eb18 0303 	adds.w	r3, r8, r3
 80023b0:	60bb      	str	r3, [r7, #8]
 80023b2:	462b      	mov	r3, r5
 80023b4:	eb49 0303 	adc.w	r3, r9, r3
 80023b8:	60fb      	str	r3, [r7, #12]
 80023ba:	f04f 0200 	mov.w	r2, #0
 80023be:	f04f 0300 	mov.w	r3, #0
 80023c2:	e9d7 4502 	ldrd	r4, r5, [r7, #8]
 80023c6:	4629      	mov	r1, r5
 80023c8:	024b      	lsls	r3, r1, #9
 80023ca:	4621      	mov	r1, r4
 80023cc:	ea43 53d1 	orr.w	r3, r3, r1, lsr #23
 80023d0:	4621      	mov	r1, r4
 80023d2:	024a      	lsls	r2, r1, #9
 80023d4:	4610      	mov	r0, r2
 80023d6:	4619      	mov	r1, r3
 80023d8:	6c7b      	ldr	r3, [r7, #68]	; 0x44
 80023da:	2200      	movs	r2, #0
 80023dc:	62bb      	str	r3, [r7, #40]	; 0x28
 80023de:	62fa      	str	r2, [r7, #44]	; 0x2c
 80023e0:	e9d7 230a 	ldrd	r2, r3, [r7, #40]	; 0x28
 80023e4:	f7fe f8b4 	bl	8000550 <__aeabi_uldivmod>
 80023e8:	4602      	mov	r2, r0
 80023ea:	460b      	mov	r3, r1
 80023ec:	4613      	mov	r3, r2
 80023ee:	64fb      	str	r3, [r7, #76]	; 0x4c
 80023f0:	e058      	b.n	80024a4 <HAL_RCC_GetSysClockFreq+0x1d0>
      }
      else
      {
        /* HSI used as PLL clock source */
        pllvco = (uint32_t) ((((uint64_t) HSI_VALUE * ((uint64_t) ((RCC->PLLCFGR & RCC_PLLCFGR_PLLN) >> RCC_PLLCFGR_PLLN_Pos)))) / (uint64_t)pllm);
 80023f2:	4b38      	ldr	r3, [pc, #224]	; (80024d4 <HAL_RCC_GetSysClockFreq+0x200>)
 80023f4:	685b      	ldr	r3, [r3, #4]
 80023f6:	099b      	lsrs	r3, r3, #6
 80023f8:	2200      	movs	r2, #0
 80023fa:	4618      	mov	r0, r3
 80023fc:	4611      	mov	r1, r2
 80023fe:	f3c0 0308 	ubfx	r3, r0, #0, #9
 8002402:	623b      	str	r3, [r7, #32]
 8002404:	2300      	movs	r3, #0
 8002406:	627b      	str	r3, [r7, #36]	; 0x24
 8002408:	e9d7 8908 	ldrd	r8, r9, [r7, #32]
 800240c:	4642      	mov	r2, r8
 800240e:	464b      	mov	r3, r9
 8002410:	f04f 0000 	mov.w	r0, #0
 8002414:	f04f 0100 	mov.w	r1, #0
 8002418:	0159      	lsls	r1, r3, #5
 800241a:	ea41 61d2 	orr.w	r1, r1, r2, lsr #27
 800241e:	0150      	lsls	r0, r2, #5
 8002420:	4602      	mov	r2, r0
 8002422:	460b      	mov	r3, r1
 8002424:	4641      	mov	r1, r8
 8002426:	ebb2 0a01 	subs.w	sl, r2, r1
 800242a:	4649      	mov	r1, r9
 800242c:	eb63 0b01 	sbc.w	fp, r3, r1
 8002430:	f04f 0200 	mov.w	r2, #0
 8002434:	f04f 0300 	mov.w	r3, #0
 8002438:	ea4f 138b 	mov.w	r3, fp, lsl #6
 800243c:	ea43 639a 	orr.w	r3, r3, sl, lsr #26
 8002440:	ea4f 128a 	mov.w	r2, sl, lsl #6
 8002444:	ebb2 040a 	subs.w	r4, r2, sl
 8002448:	eb63 050b 	sbc.w	r5, r3, fp
 800244c:	f04f 0200 	mov.w	r2, #0
 8002450:	f04f 0300 	mov.w	r3, #0
 8002454:	00eb      	lsls	r3, r5, #3
 8002456:	ea43 7354 	orr.w	r3, r3, r4, lsr #29
 800245a:	00e2      	lsls	r2, r4, #3
 800245c:	4614      	mov	r4, r2
 800245e:	461d      	mov	r5, r3
 8002460:	4643      	mov	r3, r8
 8002462:	18e3      	adds	r3, r4, r3
 8002464:	603b      	str	r3, [r7, #0]
 8002466:	464b      	mov	r3, r9
 8002468:	eb45 0303 	adc.w	r3, r5, r3
 800246c:	607b      	str	r3, [r7, #4]
 800246e:	f04f 0200 	mov.w	r2, #0
 8002472:	f04f 0300 	mov.w	r3, #0
 8002476:	e9d7 4500 	ldrd	r4, r5, [r7]
 800247a:	4629      	mov	r1, r5
 800247c:	028b      	lsls	r3, r1, #10
 800247e:	4621      	mov	r1, r4
 8002480:	ea43 5391 	orr.w	r3, r3, r1, lsr #22
 8002484:	4621      	mov	r1, r4
 8002486:	028a      	lsls	r2, r1, #10
 8002488:	4610      	mov	r0, r2
 800248a:	4619      	mov	r1, r3
 800248c:	6c7b      	ldr	r3, [r7, #68]	; 0x44
 800248e:	2200      	movs	r2, #0
 8002490:	61bb      	str	r3, [r7, #24]
 8002492:	61fa      	str	r2, [r7, #28]
 8002494:	e9d7 2306 	ldrd	r2, r3, [r7, #24]
 8002498:	f7fe f85a 	bl	8000550 <__aeabi_uldivmod>
 800249c:	4602      	mov	r2, r0
 800249e:	460b      	mov	r3, r1
 80024a0:	4613      	mov	r3, r2
 80024a2:	64fb      	str	r3, [r7, #76]	; 0x4c
      }
      pllp = ((((RCC->PLLCFGR & RCC_PLLCFGR_PLLP) >> RCC_PLLCFGR_PLLP_Pos) + 1U) *2U);
 80024a4:	4b0b      	ldr	r3, [pc, #44]	; (80024d4 <HAL_RCC_GetSysClockFreq+0x200>)
 80024a6:	685b      	ldr	r3, [r3, #4]
 80024a8:	0c1b      	lsrs	r3, r3, #16
 80024aa:	f003 0303 	and.w	r3, r3, #3
 80024ae:	3301      	adds	r3, #1
 80024b0:	005b      	lsls	r3, r3, #1
 80024b2:	643b      	str	r3, [r7, #64]	; 0x40

      sysclockfreq = pllvco/pllp;
 80024b4:	6cfa      	ldr	r2, [r7, #76]	; 0x4c
 80024b6:	6c3b      	ldr	r3, [r7, #64]	; 0x40
 80024b8:	fbb2 f3f3 	udiv	r3, r2, r3
 80024bc:	64bb      	str	r3, [r7, #72]	; 0x48
      break;
 80024be:	e002      	b.n	80024c6 <HAL_RCC_GetSysClockFreq+0x1f2>
    }
    default:
    {
      sysclockfreq = HSI_VALUE;
 80024c0:	4b05      	ldr	r3, [pc, #20]	; (80024d8 <HAL_RCC_GetSysClockFreq+0x204>)
 80024c2:	64bb      	str	r3, [r7, #72]	; 0x48
      break;
 80024c4:	bf00      	nop
    }
  }
  return sysclockfreq;
 80024c6:	6cbb      	ldr	r3, [r7, #72]	; 0x48
}
 80024c8:	4618      	mov	r0, r3
 80024ca:	3750      	adds	r7, #80	; 0x50
 80024cc:	46bd      	mov	sp, r7
 80024ce:	e8bd 8fb0 	ldmia.w	sp!, {r4, r5, r7, r8, r9, sl, fp, pc}
 80024d2:	bf00      	nop
 80024d4:	40023800 	.word	0x40023800
 80024d8:	00f42400 	.word	0x00f42400
 80024dc:	007a1200 	.word	0x007a1200

080024e0 <HAL_RCC_GetHCLKFreq>:
  * @note   The SystemCoreClock CMSIS variable is used to store System Clock Frequency
  *         and updated within this function
  * @retval HCLK frequency
  */
uint32_t HAL_RCC_GetHCLKFreq(void)
{
 80024e0:	b480      	push	{r7}
 80024e2:	af00      	add	r7, sp, #0
  return SystemCoreClock;
 80024e4:	4b03      	ldr	r3, [pc, #12]	; (80024f4 <HAL_RCC_GetHCLKFreq+0x14>)
 80024e6:	681b      	ldr	r3, [r3, #0]
}
 80024e8:	4618      	mov	r0, r3
 80024ea:	46bd      	mov	sp, r7
 80024ec:	f85d 7b04 	ldr.w	r7, [sp], #4
 80024f0:	4770      	bx	lr
 80024f2:	bf00      	nop
 80024f4:	2000007c 	.word	0x2000007c

080024f8 <HAL_RCC_GetPCLK1Freq>:
  * @note   Each time PCLK1 changes, this function must be called to update the
  *         right PCLK1 value. Otherwise, any configuration based on this function will be incorrect.
  * @retval PCLK1 frequency
  */
uint32_t HAL_RCC_GetPCLK1Freq(void)
{
 80024f8:	b580      	push	{r7, lr}
 80024fa:	af00      	add	r7, sp, #0
  /* Get HCLK source and Compute PCLK1 frequency ---------------------------*/
  return (HAL_RCC_GetHCLKFreq() >> APBPrescTable[(RCC->CFGR & RCC_CFGR_PPRE1)>> RCC_CFGR_PPRE1_Pos]);
 80024fc:	f7ff fff0 	bl	80024e0 <HAL_RCC_GetHCLKFreq>
 8002500:	4602      	mov	r2, r0
 8002502:	4b05      	ldr	r3, [pc, #20]	; (8002518 <HAL_RCC_GetPCLK1Freq+0x20>)
 8002504:	689b      	ldr	r3, [r3, #8]
 8002506:	0a9b      	lsrs	r3, r3, #10
 8002508:	f003 0307 	and.w	r3, r3, #7
 800250c:	4903      	ldr	r1, [pc, #12]	; (800251c <HAL_RCC_GetPCLK1Freq+0x24>)
 800250e:	5ccb      	ldrb	r3, [r1, r3]
 8002510:	fa22 f303 	lsr.w	r3, r2, r3
}
 8002514:	4618      	mov	r0, r3
 8002516:	bd80      	pop	{r7, pc}
 8002518:	40023800 	.word	0x40023800
 800251c:	080037b0 	.word	0x080037b0

08002520 <HAL_RCC_GetPCLK2Freq>:
  * @note   Each time PCLK2 changes, this function must be called to update the
  *         right PCLK2 value. Otherwise, any configuration based on this function will be incorrect.
  * @retval PCLK2 frequency
  */
uint32_t HAL_RCC_GetPCLK2Freq(void)
{
 8002520:	b580      	push	{r7, lr}
 8002522:	af00      	add	r7, sp, #0
  /* Get HCLK source and Compute PCLK2 frequency ---------------------------*/
  return (HAL_RCC_GetHCLKFreq()>> APBPrescTable[(RCC->CFGR & RCC_CFGR_PPRE2)>> RCC_CFGR_PPRE2_Pos]);
 8002524:	f7ff ffdc 	bl	80024e0 <HAL_RCC_GetHCLKFreq>
 8002528:	4602      	mov	r2, r0
 800252a:	4b05      	ldr	r3, [pc, #20]	; (8002540 <HAL_RCC_GetPCLK2Freq+0x20>)
 800252c:	689b      	ldr	r3, [r3, #8]
 800252e:	0b5b      	lsrs	r3, r3, #13
 8002530:	f003 0307 	and.w	r3, r3, #7
 8002534:	4903      	ldr	r1, [pc, #12]	; (8002544 <HAL_RCC_GetPCLK2Freq+0x24>)
 8002536:	5ccb      	ldrb	r3, [r1, r3]
 8002538:	fa22 f303 	lsr.w	r3, r2, r3
}
 800253c:	4618      	mov	r0, r3
 800253e:	bd80      	pop	{r7, pc}
 8002540:	40023800 	.word	0x40023800
 8002544:	080037b0 	.word	0x080037b0

08002548 <HAL_UART_Init>:
  * @param  huart  Pointer to a UART_HandleTypeDef structure that contains
  *                the configuration information for the specified UART module.
  * @retval HAL status
  */
HAL_StatusTypeDef HAL_UART_Init(UART_HandleTypeDef *huart)
{
 8002548:	b580      	push	{r7, lr}
 800254a:	b082      	sub	sp, #8
 800254c:	af00      	add	r7, sp, #0
 800254e:	6078      	str	r0, [r7, #4]
  /* Check the UART handle allocation */
  if (huart == NULL)
 8002550:	687b      	ldr	r3, [r7, #4]
 8002552:	2b00      	cmp	r3, #0
 8002554:	d101      	bne.n	800255a <HAL_UART_Init+0x12>
  {
    return HAL_ERROR;
 8002556:	2301      	movs	r3, #1
 8002558:	e03f      	b.n	80025da <HAL_UART_Init+0x92>
    assert_param(IS_UART_INSTANCE(huart->Instance));
  }
  assert_param(IS_UART_WORD_LENGTH(huart->Init.WordLength));
  assert_param(IS_UART_OVERSAMPLING(huart->Init.OverSampling));

  if (huart->gState == HAL_UART_STATE_RESET)
 800255a:	687b      	ldr	r3, [r7, #4]
 800255c:	f893 303d 	ldrb.w	r3, [r3, #61]	; 0x3d
 8002560:	b2db      	uxtb	r3, r3
 8002562:	2b00      	cmp	r3, #0
 8002564:	d106      	bne.n	8002574 <HAL_UART_Init+0x2c>
  {
    /* Allocate lock resource and initialize it */
    huart->Lock = HAL_UNLOCKED;
 8002566:	687b      	ldr	r3, [r7, #4]
 8002568:	2200      	movs	r2, #0
 800256a:	f883 203c 	strb.w	r2, [r3, #60]	; 0x3c

    /* Init the low level hardware */
    huart->MspInitCallback(huart);
#else
    /* Init the low level hardware : GPIO, CLOCK */
    HAL_UART_MspInit(huart);
 800256e:	6878      	ldr	r0, [r7, #4]
 8002570:	f7fe feba 	bl	80012e8 <HAL_UART_MspInit>
#endif /* (USE_HAL_UART_REGISTER_CALLBACKS) */
  }

  huart->gState = HAL_UART_STATE_BUSY;
 8002574:	687b      	ldr	r3, [r7, #4]
 8002576:	2224      	movs	r2, #36	; 0x24
 8002578:	f883 203d 	strb.w	r2, [r3, #61]	; 0x3d

  /* Disable the peripheral */
  __HAL_UART_DISABLE(huart);
 800257c:	687b      	ldr	r3, [r7, #4]
 800257e:	681b      	ldr	r3, [r3, #0]
 8002580:	68da      	ldr	r2, [r3, #12]
 8002582:	687b      	ldr	r3, [r7, #4]
 8002584:	681b      	ldr	r3, [r3, #0]
 8002586:	f422 5200 	bic.w	r2, r2, #8192	; 0x2000
 800258a:	60da      	str	r2, [r3, #12]

  /* Set the UART Communication parameters */
  UART_SetConfig(huart);
 800258c:	6878      	ldr	r0, [r7, #4]
 800258e:	f000 fddf 	bl	8003150 <UART_SetConfig>

  /* In asynchronous mode, the following bits must be kept cleared:
     - LINEN and CLKEN bits in the USART_CR2 register,
     - SCEN, HDSEL and IREN  bits in the USART_CR3 register.*/
  CLEAR_BIT(huart->Instance->CR2, (USART_CR2_LINEN | USART_CR2_CLKEN));
 8002592:	687b      	ldr	r3, [r7, #4]
 8002594:	681b      	ldr	r3, [r3, #0]
 8002596:	691a      	ldr	r2, [r3, #16]
 8002598:	687b      	ldr	r3, [r7, #4]
 800259a:	681b      	ldr	r3, [r3, #0]
 800259c:	f422 4290 	bic.w	r2, r2, #18432	; 0x4800
 80025a0:	611a      	str	r2, [r3, #16]
  CLEAR_BIT(huart->Instance->CR3, (USART_CR3_SCEN | USART_CR3_HDSEL | USART_CR3_IREN));
 80025a2:	687b      	ldr	r3, [r7, #4]
 80025a4:	681b      	ldr	r3, [r3, #0]
 80025a6:	695a      	ldr	r2, [r3, #20]
 80025a8:	687b      	ldr	r3, [r7, #4]
 80025aa:	681b      	ldr	r3, [r3, #0]
 80025ac:	f022 022a 	bic.w	r2, r2, #42	; 0x2a
 80025b0:	615a      	str	r2, [r3, #20]

  /* Enable the peripheral */
  __HAL_UART_ENABLE(huart);
 80025b2:	687b      	ldr	r3, [r7, #4]
 80025b4:	681b      	ldr	r3, [r3, #0]
 80025b6:	68da      	ldr	r2, [r3, #12]
 80025b8:	687b      	ldr	r3, [r7, #4]
 80025ba:	681b      	ldr	r3, [r3, #0]
 80025bc:	f442 5200 	orr.w	r2, r2, #8192	; 0x2000
 80025c0:	60da      	str	r2, [r3, #12]

  /* Initialize the UART state */
  huart->ErrorCode = HAL_UART_ERROR_NONE;
 80025c2:	687b      	ldr	r3, [r7, #4]
 80025c4:	2200      	movs	r2, #0
 80025c6:	641a      	str	r2, [r3, #64]	; 0x40
  huart->gState = HAL_UART_STATE_READY;
 80025c8:	687b      	ldr	r3, [r7, #4]
 80025ca:	2220      	movs	r2, #32
 80025cc:	f883 203d 	strb.w	r2, [r3, #61]	; 0x3d
  huart->RxState = HAL_UART_STATE_READY;
 80025d0:	687b      	ldr	r3, [r7, #4]
 80025d2:	2220      	movs	r2, #32
 80025d4:	f883 203e 	strb.w	r2, [r3, #62]	; 0x3e

  return HAL_OK;
 80025d8:	2300      	movs	r3, #0
}
 80025da:	4618      	mov	r0, r3
 80025dc:	3708      	adds	r7, #8
 80025de:	46bd      	mov	sp, r7
 80025e0:	bd80      	pop	{r7, pc}

080025e2 <HAL_UART_Transmit>:
  * @param  Size  Amount of data elements (u8 or u16) to be sent
  * @param  Timeout Timeout duration
  * @retval HAL status
  */
HAL_StatusTypeDef HAL_UART_Transmit(UART_HandleTypeDef *huart, const uint8_t *pData, uint16_t Size, uint32_t Timeout)
{
 80025e2:	b580      	push	{r7, lr}
 80025e4:	b08a      	sub	sp, #40	; 0x28
 80025e6:	af02      	add	r7, sp, #8
 80025e8:	60f8      	str	r0, [r7, #12]
 80025ea:	60b9      	str	r1, [r7, #8]
 80025ec:	603b      	str	r3, [r7, #0]
 80025ee:	4613      	mov	r3, r2
 80025f0:	80fb      	strh	r3, [r7, #6]
  const uint8_t  *pdata8bits;
  const uint16_t *pdata16bits;
  uint32_t tickstart = 0U;
 80025f2:	2300      	movs	r3, #0
 80025f4:	617b      	str	r3, [r7, #20]

  /* Check that a Tx process is not already ongoing */
  if (huart->gState == HAL_UART_STATE_READY)
 80025f6:	68fb      	ldr	r3, [r7, #12]
 80025f8:	f893 303d 	ldrb.w	r3, [r3, #61]	; 0x3d
 80025fc:	b2db      	uxtb	r3, r3
 80025fe:	2b20      	cmp	r3, #32
 8002600:	d17c      	bne.n	80026fc <HAL_UART_Transmit+0x11a>
  {
    if ((pData == NULL) || (Size == 0U))
 8002602:	68bb      	ldr	r3, [r7, #8]
 8002604:	2b00      	cmp	r3, #0
 8002606:	d002      	beq.n	800260e <HAL_UART_Transmit+0x2c>
 8002608:	88fb      	ldrh	r3, [r7, #6]
 800260a:	2b00      	cmp	r3, #0
 800260c:	d101      	bne.n	8002612 <HAL_UART_Transmit+0x30>
    {
      return  HAL_ERROR;
 800260e:	2301      	movs	r3, #1
 8002610:	e075      	b.n	80026fe <HAL_UART_Transmit+0x11c>
    }

    /* Process Locked */
    __HAL_LOCK(huart);
 8002612:	68fb      	ldr	r3, [r7, #12]
 8002614:	f893 303c 	ldrb.w	r3, [r3, #60]	; 0x3c
 8002618:	2b01      	cmp	r3, #1
 800261a:	d101      	bne.n	8002620 <HAL_UART_Transmit+0x3e>
 800261c:	2302      	movs	r3, #2
 800261e:	e06e      	b.n	80026fe <HAL_UART_Transmit+0x11c>
 8002620:	68fb      	ldr	r3, [r7, #12]
 8002622:	2201      	movs	r2, #1
 8002624:	f883 203c 	strb.w	r2, [r3, #60]	; 0x3c

    huart->ErrorCode = HAL_UART_ERROR_NONE;
 8002628:	68fb      	ldr	r3, [r7, #12]
 800262a:	2200      	movs	r2, #0
 800262c:	641a      	str	r2, [r3, #64]	; 0x40
    huart->gState = HAL_UART_STATE_BUSY_TX;
 800262e:	68fb      	ldr	r3, [r7, #12]
 8002630:	2221      	movs	r2, #33	; 0x21
 8002632:	f883 203d 	strb.w	r2, [r3, #61]	; 0x3d

    /* Init tickstart for timeout management */
    tickstart = HAL_GetTick();
 8002636:	f7fe ff7d 	bl	8001534 <HAL_GetTick>
 800263a:	6178      	str	r0, [r7, #20]

    huart->TxXferSize = Size;
 800263c:	68fb      	ldr	r3, [r7, #12]
 800263e:	88fa      	ldrh	r2, [r7, #6]
 8002640:	849a      	strh	r2, [r3, #36]	; 0x24
    huart->TxXferCount = Size;
 8002642:	68fb      	ldr	r3, [r7, #12]
 8002644:	88fa      	ldrh	r2, [r7, #6]
 8002646:	84da      	strh	r2, [r3, #38]	; 0x26

    /* In case of 9bits/No Parity transfer, pData needs to be handled as a uint16_t pointer */
    if ((huart->Init.WordLength == UART_WORDLENGTH_9B) && (huart->Init.Parity == UART_PARITY_NONE))
 8002648:	68fb      	ldr	r3, [r7, #12]
 800264a:	689b      	ldr	r3, [r3, #8]
 800264c:	f5b3 5f80 	cmp.w	r3, #4096	; 0x1000
 8002650:	d108      	bne.n	8002664 <HAL_UART_Transmit+0x82>
 8002652:	68fb      	ldr	r3, [r7, #12]
 8002654:	691b      	ldr	r3, [r3, #16]
 8002656:	2b00      	cmp	r3, #0
 8002658:	d104      	bne.n	8002664 <HAL_UART_Transmit+0x82>
    {
      pdata8bits  = NULL;
 800265a:	2300      	movs	r3, #0
 800265c:	61fb      	str	r3, [r7, #28]
      pdata16bits = (const uint16_t *) pData;
 800265e:	68bb      	ldr	r3, [r7, #8]
 8002660:	61bb      	str	r3, [r7, #24]
 8002662:	e003      	b.n	800266c <HAL_UART_Transmit+0x8a>
    }
    else
    {
      pdata8bits  = pData;
 8002664:	68bb      	ldr	r3, [r7, #8]
 8002666:	61fb      	str	r3, [r7, #28]
      pdata16bits = NULL;
 8002668:	2300      	movs	r3, #0
 800266a:	61bb      	str	r3, [r7, #24]
    }

    /* Process Unlocked */
    __HAL_UNLOCK(huart);
 800266c:	68fb      	ldr	r3, [r7, #12]
 800266e:	2200      	movs	r2, #0
 8002670:	f883 203c 	strb.w	r2, [r3, #60]	; 0x3c

    while (huart->TxXferCount > 0U)
 8002674:	e02a      	b.n	80026cc <HAL_UART_Transmit+0xea>
    {
      if (UART_WaitOnFlagUntilTimeout(huart, UART_FLAG_TXE, RESET, tickstart, Timeout) != HAL_OK)
 8002676:	683b      	ldr	r3, [r7, #0]
 8002678:	9300      	str	r3, [sp, #0]
 800267a:	697b      	ldr	r3, [r7, #20]
 800267c:	2200      	movs	r2, #0
 800267e:	2180      	movs	r1, #128	; 0x80
 8002680:	68f8      	ldr	r0, [r7, #12]
 8002682:	f000 fb1f 	bl	8002cc4 <UART_WaitOnFlagUntilTimeout>
 8002686:	4603      	mov	r3, r0
 8002688:	2b00      	cmp	r3, #0
 800268a:	d001      	beq.n	8002690 <HAL_UART_Transmit+0xae>
      {
        return HAL_TIMEOUT;
 800268c:	2303      	movs	r3, #3
 800268e:	e036      	b.n	80026fe <HAL_UART_Transmit+0x11c>
      }
      if (pdata8bits == NULL)
 8002690:	69fb      	ldr	r3, [r7, #28]
 8002692:	2b00      	cmp	r3, #0
 8002694:	d10b      	bne.n	80026ae <HAL_UART_Transmit+0xcc>
      {
        huart->Instance->DR = (uint16_t)(*pdata16bits & 0x01FFU);
 8002696:	69bb      	ldr	r3, [r7, #24]
 8002698:	881b      	ldrh	r3, [r3, #0]
 800269a:	461a      	mov	r2, r3
 800269c:	68fb      	ldr	r3, [r7, #12]
 800269e:	681b      	ldr	r3, [r3, #0]
 80026a0:	f3c2 0208 	ubfx	r2, r2, #0, #9
 80026a4:	605a      	str	r2, [r3, #4]
        pdata16bits++;
 80026a6:	69bb      	ldr	r3, [r7, #24]
 80026a8:	3302      	adds	r3, #2
 80026aa:	61bb      	str	r3, [r7, #24]
 80026ac:	e007      	b.n	80026be <HAL_UART_Transmit+0xdc>
      }
      else
      {
        huart->Instance->DR = (uint8_t)(*pdata8bits & 0xFFU);
 80026ae:	69fb      	ldr	r3, [r7, #28]
 80026b0:	781a      	ldrb	r2, [r3, #0]
 80026b2:	68fb      	ldr	r3, [r7, #12]
 80026b4:	681b      	ldr	r3, [r3, #0]
 80026b6:	605a      	str	r2, [r3, #4]
        pdata8bits++;
 80026b8:	69fb      	ldr	r3, [r7, #28]
 80026ba:	3301      	adds	r3, #1
 80026bc:	61fb      	str	r3, [r7, #28]
      }
      huart->TxXferCount--;
 80026be:	68fb      	ldr	r3, [r7, #12]
 80026c0:	8cdb      	ldrh	r3, [r3, #38]	; 0x26
 80026c2:	b29b      	uxth	r3, r3
 80026c4:	3b01      	subs	r3, #1
 80026c6:	b29a      	uxth	r2, r3
 80026c8:	68fb      	ldr	r3, [r7, #12]
 80026ca:	84da      	strh	r2, [r3, #38]	; 0x26
    while (huart->TxXferCount > 0U)
 80026cc:	68fb      	ldr	r3, [r7, #12]
 80026ce:	8cdb      	ldrh	r3, [r3, #38]	; 0x26
 80026d0:	b29b      	uxth	r3, r3
 80026d2:	2b00      	cmp	r3, #0
 80026d4:	d1cf      	bne.n	8002676 <HAL_UART_Transmit+0x94>
    }

    if (UART_WaitOnFlagUntilTimeout(huart, UART_FLAG_TC, RESET, tickstart, Timeout) != HAL_OK)
 80026d6:	683b      	ldr	r3, [r7, #0]
 80026d8:	9300      	str	r3, [sp, #0]
 80026da:	697b      	ldr	r3, [r7, #20]
 80026dc:	2200      	movs	r2, #0
 80026de:	2140      	movs	r1, #64	; 0x40
 80026e0:	68f8      	ldr	r0, [r7, #12]
 80026e2:	f000 faef 	bl	8002cc4 <UART_WaitOnFlagUntilTimeout>
 80026e6:	4603      	mov	r3, r0
 80026e8:	2b00      	cmp	r3, #0
 80026ea:	d001      	beq.n	80026f0 <HAL_UART_Transmit+0x10e>
    {
      return HAL_TIMEOUT;
 80026ec:	2303      	movs	r3, #3
 80026ee:	e006      	b.n	80026fe <HAL_UART_Transmit+0x11c>
    }

    /* At end of Tx process, restore huart->gState to Ready */
    huart->gState = HAL_UART_STATE_READY;
 80026f0:	68fb      	ldr	r3, [r7, #12]
 80026f2:	2220      	movs	r2, #32
 80026f4:	f883 203d 	strb.w	r2, [r3, #61]	; 0x3d

    return HAL_OK;
 80026f8:	2300      	movs	r3, #0
 80026fa:	e000      	b.n	80026fe <HAL_UART_Transmit+0x11c>
  }
  else
  {
    return HAL_BUSY;
 80026fc:	2302      	movs	r3, #2
  }
}
 80026fe:	4618      	mov	r0, r3
 8002700:	3720      	adds	r7, #32
 8002702:	46bd      	mov	sp, r7
 8002704:	bd80      	pop	{r7, pc}

08002706 <HAL_UART_Receive_IT>:
  * @param  pData Pointer to data buffer (u8 or u16 data elements).
  * @param  Size  Amount of data elements (u8 or u16) to be received.
  * @retval HAL status
  */
HAL_StatusTypeDef HAL_UART_Receive_IT(UART_HandleTypeDef *huart, uint8_t *pData, uint16_t Size)
{
 8002706:	b580      	push	{r7, lr}
 8002708:	b084      	sub	sp, #16
 800270a:	af00      	add	r7, sp, #0
 800270c:	60f8      	str	r0, [r7, #12]
 800270e:	60b9      	str	r1, [r7, #8]
 8002710:	4613      	mov	r3, r2
 8002712:	80fb      	strh	r3, [r7, #6]
  /* Check that a Rx process is not already ongoing */
  if (huart->RxState == HAL_UART_STATE_READY)
 8002714:	68fb      	ldr	r3, [r7, #12]
 8002716:	f893 303e 	ldrb.w	r3, [r3, #62]	; 0x3e
 800271a:	b2db      	uxtb	r3, r3
 800271c:	2b20      	cmp	r3, #32
 800271e:	d11d      	bne.n	800275c <HAL_UART_Receive_IT+0x56>
  {
    if ((pData == NULL) || (Size == 0U))
 8002720:	68bb      	ldr	r3, [r7, #8]
 8002722:	2b00      	cmp	r3, #0
 8002724:	d002      	beq.n	800272c <HAL_UART_Receive_IT+0x26>
 8002726:	88fb      	ldrh	r3, [r7, #6]
 8002728:	2b00      	cmp	r3, #0
 800272a:	d101      	bne.n	8002730 <HAL_UART_Receive_IT+0x2a>
    {
      return HAL_ERROR;
 800272c:	2301      	movs	r3, #1
 800272e:	e016      	b.n	800275e <HAL_UART_Receive_IT+0x58>
    }

    /* Process Locked */
    __HAL_LOCK(huart);
 8002730:	68fb      	ldr	r3, [r7, #12]
 8002732:	f893 303c 	ldrb.w	r3, [r3, #60]	; 0x3c
 8002736:	2b01      	cmp	r3, #1
 8002738:	d101      	bne.n	800273e <HAL_UART_Receive_IT+0x38>
 800273a:	2302      	movs	r3, #2
 800273c:	e00f      	b.n	800275e <HAL_UART_Receive_IT+0x58>
 800273e:	68fb      	ldr	r3, [r7, #12]
 8002740:	2201      	movs	r2, #1
 8002742:	f883 203c 	strb.w	r2, [r3, #60]	; 0x3c

    /* Set Reception type to Standard reception */
    huart->ReceptionType = HAL_UART_RECEPTION_STANDARD;
 8002746:	68fb      	ldr	r3, [r7, #12]
 8002748:	2200      	movs	r2, #0
 800274a:	631a      	str	r2, [r3, #48]	; 0x30

    return (UART_Start_Receive_IT(huart, pData, Size));
 800274c:	88fb      	ldrh	r3, [r7, #6]
 800274e:	461a      	mov	r2, r3
 8002750:	68b9      	ldr	r1, [r7, #8]
 8002752:	68f8      	ldr	r0, [r7, #12]
 8002754:	f000 fb24 	bl	8002da0 <UART_Start_Receive_IT>
 8002758:	4603      	mov	r3, r0
 800275a:	e000      	b.n	800275e <HAL_UART_Receive_IT+0x58>
  }
  else
  {
    return HAL_BUSY;
 800275c:	2302      	movs	r3, #2
  }
}
 800275e:	4618      	mov	r0, r3
 8002760:	3710      	adds	r7, #16
 8002762:	46bd      	mov	sp, r7
 8002764:	bd80      	pop	{r7, pc}
	...

08002768 <HAL_UART_IRQHandler>:
  * @param  huart  Pointer to a UART_HandleTypeDef structure that contains
  *                the configuration information for the specified UART module.
  * @retval None
  */
void HAL_UART_IRQHandler(UART_HandleTypeDef *huart)
{
 8002768:	b580      	push	{r7, lr}
 800276a:	b0ba      	sub	sp, #232	; 0xe8
 800276c:	af00      	add	r7, sp, #0
 800276e:	6078      	str	r0, [r7, #4]
  uint32_t isrflags   = READ_REG(huart->Instance->SR);
 8002770:	687b      	ldr	r3, [r7, #4]
 8002772:	681b      	ldr	r3, [r3, #0]
 8002774:	681b      	ldr	r3, [r3, #0]
 8002776:	f8c7 30e4 	str.w	r3, [r7, #228]	; 0xe4
  uint32_t cr1its     = READ_REG(huart->Instance->CR1);
 800277a:	687b      	ldr	r3, [r7, #4]
 800277c:	681b      	ldr	r3, [r3, #0]
 800277e:	68db      	ldr	r3, [r3, #12]
 8002780:	f8c7 30e0 	str.w	r3, [r7, #224]	; 0xe0
  uint32_t cr3its     = READ_REG(huart->Instance->CR3);
 8002784:	687b      	ldr	r3, [r7, #4]
 8002786:	681b      	ldr	r3, [r3, #0]
 8002788:	695b      	ldr	r3, [r3, #20]
 800278a:	f8c7 30dc 	str.w	r3, [r7, #220]	; 0xdc
  uint32_t errorflags = 0x00U;
 800278e:	2300      	movs	r3, #0
 8002790:	f8c7 30d8 	str.w	r3, [r7, #216]	; 0xd8
  uint32_t dmarequest = 0x00U;
 8002794:	2300      	movs	r3, #0
 8002796:	f8c7 30d4 	str.w	r3, [r7, #212]	; 0xd4

  /* If no error occurs */
  errorflags = (isrflags & (uint32_t)(USART_SR_PE | USART_SR_FE | USART_SR_ORE | USART_SR_NE));
 800279a:	f8d7 30e4 	ldr.w	r3, [r7, #228]	; 0xe4
 800279e:	f003 030f 	and.w	r3, r3, #15
 80027a2:	f8c7 30d8 	str.w	r3, [r7, #216]	; 0xd8
  if (errorflags == RESET)
 80027a6:	f8d7 30d8 	ldr.w	r3, [r7, #216]	; 0xd8
 80027aa:	2b00      	cmp	r3, #0
 80027ac:	d10f      	bne.n	80027ce <HAL_UART_IRQHandler+0x66>
  {
    /* UART in mode Receiver -------------------------------------------------*/
    if (((isrflags & USART_SR_RXNE) != RESET) && ((cr1its & USART_CR1_RXNEIE) != RESET))
 80027ae:	f8d7 30e4 	ldr.w	r3, [r7, #228]	; 0xe4
 80027b2:	f003 0320 	and.w	r3, r3, #32
 80027b6:	2b00      	cmp	r3, #0
 80027b8:	d009      	beq.n	80027ce <HAL_UART_IRQHandler+0x66>
 80027ba:	f8d7 30e0 	ldr.w	r3, [r7, #224]	; 0xe0
 80027be:	f003 0320 	and.w	r3, r3, #32
 80027c2:	2b00      	cmp	r3, #0
 80027c4:	d003      	beq.n	80027ce <HAL_UART_IRQHandler+0x66>
    {
      UART_Receive_IT(huart);
 80027c6:	6878      	ldr	r0, [r7, #4]
 80027c8:	f000 fc07 	bl	8002fda <UART_Receive_IT>
      return;
 80027cc:	e256      	b.n	8002c7c <HAL_UART_IRQHandler+0x514>
    }
  }

  /* If some errors occur */
  if ((errorflags != RESET) && (((cr3its & USART_CR3_EIE) != RESET)
 80027ce:	f8d7 30d8 	ldr.w	r3, [r7, #216]	; 0xd8
 80027d2:	2b00      	cmp	r3, #0
 80027d4:	f000 80de 	beq.w	8002994 <HAL_UART_IRQHandler+0x22c>
 80027d8:	f8d7 30dc 	ldr.w	r3, [r7, #220]	; 0xdc
 80027dc:	f003 0301 	and.w	r3, r3, #1
 80027e0:	2b00      	cmp	r3, #0
 80027e2:	d106      	bne.n	80027f2 <HAL_UART_IRQHandler+0x8a>
                                || ((cr1its & (USART_CR1_RXNEIE | USART_CR1_PEIE)) != RESET)))
 80027e4:	f8d7 30e0 	ldr.w	r3, [r7, #224]	; 0xe0
 80027e8:	f403 7390 	and.w	r3, r3, #288	; 0x120
 80027ec:	2b00      	cmp	r3, #0
 80027ee:	f000 80d1 	beq.w	8002994 <HAL_UART_IRQHandler+0x22c>
  {
    /* UART parity error interrupt occurred ----------------------------------*/
    if (((isrflags & USART_SR_PE) != RESET) && ((cr1its & USART_CR1_PEIE) != RESET))
 80027f2:	f8d7 30e4 	ldr.w	r3, [r7, #228]	; 0xe4
 80027f6:	f003 0301 	and.w	r3, r3, #1
 80027fa:	2b00      	cmp	r3, #0
 80027fc:	d00b      	beq.n	8002816 <HAL_UART_IRQHandler+0xae>
 80027fe:	f8d7 30e0 	ldr.w	r3, [r7, #224]	; 0xe0
 8002802:	f403 7380 	and.w	r3, r3, #256	; 0x100
 8002806:	2b00      	cmp	r3, #0
 8002808:	d005      	beq.n	8002816 <HAL_UART_IRQHandler+0xae>
    {
      huart->ErrorCode |= HAL_UART_ERROR_PE;
 800280a:	687b      	ldr	r3, [r7, #4]
 800280c:	6c1b      	ldr	r3, [r3, #64]	; 0x40
 800280e:	f043 0201 	orr.w	r2, r3, #1
 8002812:	687b      	ldr	r3, [r7, #4]
 8002814:	641a      	str	r2, [r3, #64]	; 0x40
    }

    /* UART noise error interrupt occurred -----------------------------------*/
    if (((isrflags & USART_SR_NE) != RESET) && ((cr3its & USART_CR3_EIE) != RESET))
 8002816:	f8d7 30e4 	ldr.w	r3, [r7, #228]	; 0xe4
 800281a:	f003 0304 	and.w	r3, r3, #4
 800281e:	2b00      	cmp	r3, #0
 8002820:	d00b      	beq.n	800283a <HAL_UART_IRQHandler+0xd2>
 8002822:	f8d7 30dc 	ldr.w	r3, [r7, #220]	; 0xdc
 8002826:	f003 0301 	and.w	r3, r3, #1
 800282a:	2b00      	cmp	r3, #0
 800282c:	d005      	beq.n	800283a <HAL_UART_IRQHandler+0xd2>
    {
      huart->ErrorCode |= HAL_UART_ERROR_NE;
 800282e:	687b      	ldr	r3, [r7, #4]
 8002830:	6c1b      	ldr	r3, [r3, #64]	; 0x40
 8002832:	f043 0202 	orr.w	r2, r3, #2
 8002836:	687b      	ldr	r3, [r7, #4]
 8002838:	641a      	str	r2, [r3, #64]	; 0x40
    }

    /* UART frame error interrupt occurred -----------------------------------*/
    if (((isrflags & USART_SR_FE) != RESET) && ((cr3its & USART_CR3_EIE) != RESET))
 800283a:	f8d7 30e4 	ldr.w	r3, [r7, #228]	; 0xe4
 800283e:	f003 0302 	and.w	r3, r3, #2
 8002842:	2b00      	cmp	r3, #0
 8002844:	d00b      	beq.n	800285e <HAL_UART_IRQHandler+0xf6>
 8002846:	f8d7 30dc 	ldr.w	r3, [r7, #220]	; 0xdc
 800284a:	f003 0301 	and.w	r3, r3, #1
 800284e:	2b00      	cmp	r3, #0
 8002850:	d005      	beq.n	800285e <HAL_UART_IRQHandler+0xf6>
    {
      huart->ErrorCode |= HAL_UART_ERROR_FE;
 8002852:	687b      	ldr	r3, [r7, #4]
 8002854:	6c1b      	ldr	r3, [r3, #64]	; 0x40
 8002856:	f043 0204 	orr.w	r2, r3, #4
 800285a:	687b      	ldr	r3, [r7, #4]
 800285c:	641a      	str	r2, [r3, #64]	; 0x40
    }

    /* UART Over-Run interrupt occurred --------------------------------------*/
    if (((isrflags & USART_SR_ORE) != RESET) && (((cr1its & USART_CR1_RXNEIE) != RESET)
 800285e:	f8d7 30e4 	ldr.w	r3, [r7, #228]	; 0xe4
 8002862:	f003 0308 	and.w	r3, r3, #8
 8002866:	2b00      	cmp	r3, #0
 8002868:	d011      	beq.n	800288e <HAL_UART_IRQHandler+0x126>
 800286a:	f8d7 30e0 	ldr.w	r3, [r7, #224]	; 0xe0
 800286e:	f003 0320 	and.w	r3, r3, #32
 8002872:	2b00      	cmp	r3, #0
 8002874:	d105      	bne.n	8002882 <HAL_UART_IRQHandler+0x11a>
                                                 || ((cr3its & USART_CR3_EIE) != RESET)))
 8002876:	f8d7 30dc 	ldr.w	r3, [r7, #220]	; 0xdc
 800287a:	f003 0301 	and.w	r3, r3, #1
 800287e:	2b00      	cmp	r3, #0
 8002880:	d005      	beq.n	800288e <HAL_UART_IRQHandler+0x126>
    {
      huart->ErrorCode |= HAL_UART_ERROR_ORE;
 8002882:	687b      	ldr	r3, [r7, #4]
 8002884:	6c1b      	ldr	r3, [r3, #64]	; 0x40
 8002886:	f043 0208 	orr.w	r2, r3, #8
 800288a:	687b      	ldr	r3, [r7, #4]
 800288c:	641a      	str	r2, [r3, #64]	; 0x40
    }

    /* Call UART Error Call back function if need be --------------------------*/
    if (huart->ErrorCode != HAL_UART_ERROR_NONE)
 800288e:	687b      	ldr	r3, [r7, #4]
 8002890:	6c1b      	ldr	r3, [r3, #64]	; 0x40
 8002892:	2b00      	cmp	r3, #0
 8002894:	f000 81ed 	beq.w	8002c72 <HAL_UART_IRQHandler+0x50a>
    {
      /* UART in mode Receiver -----------------------------------------------*/
      if (((isrflags & USART_SR_RXNE) != RESET) && ((cr1its & USART_CR1_RXNEIE) != RESET))
 8002898:	f8d7 30e4 	ldr.w	r3, [r7, #228]	; 0xe4
 800289c:	f003 0320 	and.w	r3, r3, #32
 80028a0:	2b00      	cmp	r3, #0
 80028a2:	d008      	beq.n	80028b6 <HAL_UART_IRQHandler+0x14e>
 80028a4:	f8d7 30e0 	ldr.w	r3, [r7, #224]	; 0xe0
 80028a8:	f003 0320 	and.w	r3, r3, #32
 80028ac:	2b00      	cmp	r3, #0
 80028ae:	d002      	beq.n	80028b6 <HAL_UART_IRQHandler+0x14e>
      {
        UART_Receive_IT(huart);
 80028b0:	6878      	ldr	r0, [r7, #4]
 80028b2:	f000 fb92 	bl	8002fda <UART_Receive_IT>
      }

      /* If Overrun error occurs, or if any error occurs in DMA mode reception,
         consider error as blocking */
      dmarequest = HAL_IS_BIT_SET(huart->Instance->CR3, USART_CR3_DMAR);
 80028b6:	687b      	ldr	r3, [r7, #4]
 80028b8:	681b      	ldr	r3, [r3, #0]
 80028ba:	695b      	ldr	r3, [r3, #20]
 80028bc:	f003 0340 	and.w	r3, r3, #64	; 0x40
 80028c0:	2b40      	cmp	r3, #64	; 0x40
 80028c2:	bf0c      	ite	eq
 80028c4:	2301      	moveq	r3, #1
 80028c6:	2300      	movne	r3, #0
 80028c8:	b2db      	uxtb	r3, r3
 80028ca:	f8c7 30d4 	str.w	r3, [r7, #212]	; 0xd4
      if (((huart->ErrorCode & HAL_UART_ERROR_ORE) != RESET) || dmarequest)
 80028ce:	687b      	ldr	r3, [r7, #4]
 80028d0:	6c1b      	ldr	r3, [r3, #64]	; 0x40
 80028d2:	f003 0308 	and.w	r3, r3, #8
 80028d6:	2b00      	cmp	r3, #0
 80028d8:	d103      	bne.n	80028e2 <HAL_UART_IRQHandler+0x17a>
 80028da:	f8d7 30d4 	ldr.w	r3, [r7, #212]	; 0xd4
 80028de:	2b00      	cmp	r3, #0
 80028e0:	d04f      	beq.n	8002982 <HAL_UART_IRQHandler+0x21a>
      {
        /* Blocking error : transfer is aborted
           Set the UART state ready to be able to start again the process,
           Disable Rx Interrupts, and disable Rx DMA request, if ongoing */
        UART_EndRxTransfer(huart);
 80028e2:	6878      	ldr	r0, [r7, #4]
 80028e4:	f000 fa9a 	bl	8002e1c <UART_EndRxTransfer>

        /* Disable the UART DMA Rx request if enabled */
        if (HAL_IS_BIT_SET(huart->Instance->CR3, USART_CR3_DMAR))
 80028e8:	687b      	ldr	r3, [r7, #4]
 80028ea:	681b      	ldr	r3, [r3, #0]
 80028ec:	695b      	ldr	r3, [r3, #20]
 80028ee:	f003 0340 	and.w	r3, r3, #64	; 0x40
 80028f2:	2b40      	cmp	r3, #64	; 0x40
 80028f4:	d141      	bne.n	800297a <HAL_UART_IRQHandler+0x212>
        {
          ATOMIC_CLEAR_BIT(huart->Instance->CR3, USART_CR3_DMAR);
 80028f6:	687b      	ldr	r3, [r7, #4]
 80028f8:	681b      	ldr	r3, [r3, #0]
 80028fa:	3314      	adds	r3, #20
 80028fc:	f8c7 309c 	str.w	r3, [r7, #156]	; 0x9c
 */
__STATIC_FORCEINLINE uint32_t __LDREXW(volatile uint32_t *addr)
{
    uint32_t result;

   __ASM volatile ("ldrex %0, %1" : "=r" (result) : "Q" (*addr) );
 8002900:	f8d7 309c 	ldr.w	r3, [r7, #156]	; 0x9c
 8002904:	e853 3f00 	ldrex	r3, [r3]
 8002908:	f8c7 3098 	str.w	r3, [r7, #152]	; 0x98
   return(result);
 800290c:	f8d7 3098 	ldr.w	r3, [r7, #152]	; 0x98
 8002910:	f023 0340 	bic.w	r3, r3, #64	; 0x40
 8002914:	f8c7 30d0 	str.w	r3, [r7, #208]	; 0xd0
 8002918:	687b      	ldr	r3, [r7, #4]
 800291a:	681b      	ldr	r3, [r3, #0]
 800291c:	3314      	adds	r3, #20
 800291e:	f8d7 20d0 	ldr.w	r2, [r7, #208]	; 0xd0
 8002922:	f8c7 20a8 	str.w	r2, [r7, #168]	; 0xa8
 8002926:	f8c7 30a4 	str.w	r3, [r7, #164]	; 0xa4
 */
__STATIC_FORCEINLINE uint32_t __STREXW(uint32_t value, volatile uint32_t *addr)
{
   uint32_t result;

   __ASM volatile ("strex %0, %2, %1" : "=&r" (result), "=Q" (*addr) : "r" (value) );
 800292a:	f8d7 10a4 	ldr.w	r1, [r7, #164]	; 0xa4
 800292e:	f8d7 20a8 	ldr.w	r2, [r7, #168]	; 0xa8
 8002932:	e841 2300 	strex	r3, r2, [r1]
 8002936:	f8c7 30a0 	str.w	r3, [r7, #160]	; 0xa0
   return(result);
 800293a:	f8d7 30a0 	ldr.w	r3, [r7, #160]	; 0xa0
 800293e:	2b00      	cmp	r3, #0
 8002940:	d1d9      	bne.n	80028f6 <HAL_UART_IRQHandler+0x18e>

          /* Abort the UART DMA Rx stream */
          if (huart->hdmarx != NULL)
 8002942:	687b      	ldr	r3, [r7, #4]
 8002944:	6b9b      	ldr	r3, [r3, #56]	; 0x38
 8002946:	2b00      	cmp	r3, #0
 8002948:	d013      	beq.n	8002972 <HAL_UART_IRQHandler+0x20a>
          {
            /* Set the UART DMA Abort callback :
               will lead to call HAL_UART_ErrorCallback() at end of DMA abort procedure */
            huart->hdmarx->XferAbortCallback = UART_DMAAbortOnError;
 800294a:	687b      	ldr	r3, [r7, #4]
 800294c:	6b9b      	ldr	r3, [r3, #56]	; 0x38
 800294e:	4a7d      	ldr	r2, [pc, #500]	; (8002b44 <HAL_UART_IRQHandler+0x3dc>)
 8002950:	651a      	str	r2, [r3, #80]	; 0x50
            if (HAL_DMA_Abort_IT(huart->hdmarx) != HAL_OK)
 8002952:	687b      	ldr	r3, [r7, #4]
 8002954:	6b9b      	ldr	r3, [r3, #56]	; 0x38
 8002956:	4618      	mov	r0, r3
 8002958:	f7fe ff9d 	bl	8001896 <HAL_DMA_Abort_IT>
 800295c:	4603      	mov	r3, r0
 800295e:	2b00      	cmp	r3, #0
 8002960:	d016      	beq.n	8002990 <HAL_UART_IRQHandler+0x228>
            {
              /* Call Directly XferAbortCallback function in case of error */
              huart->hdmarx->XferAbortCallback(huart->hdmarx);
 8002962:	687b      	ldr	r3, [r7, #4]
 8002964:	6b9b      	ldr	r3, [r3, #56]	; 0x38
 8002966:	6d1b      	ldr	r3, [r3, #80]	; 0x50
 8002968:	687a      	ldr	r2, [r7, #4]
 800296a:	6b92      	ldr	r2, [r2, #56]	; 0x38
 800296c:	4610      	mov	r0, r2
 800296e:	4798      	blx	r3
        if (HAL_IS_BIT_SET(huart->Instance->CR3, USART_CR3_DMAR))
 8002970:	e00e      	b.n	8002990 <HAL_UART_IRQHandler+0x228>
#if (USE_HAL_UART_REGISTER_CALLBACKS == 1)
            /*Call registered error callback*/
            huart->ErrorCallback(huart);
#else
            /*Call legacy weak error callback*/
            HAL_UART_ErrorCallback(huart);
 8002972:	6878      	ldr	r0, [r7, #4]
 8002974:	f000 f990 	bl	8002c98 <HAL_UART_ErrorCallback>
        if (HAL_IS_BIT_SET(huart->Instance->CR3, USART_CR3_DMAR))
 8002978:	e00a      	b.n	8002990 <HAL_UART_IRQHandler+0x228>
#if (USE_HAL_UART_REGISTER_CALLBACKS == 1)
          /*Call registered error callback*/
          huart->ErrorCallback(huart);
#else
          /*Call legacy weak error callback*/
          HAL_UART_ErrorCallback(huart);
 800297a:	6878      	ldr	r0, [r7, #4]
 800297c:	f000 f98c 	bl	8002c98 <HAL_UART_ErrorCallback>
        if (HAL_IS_BIT_SET(huart->Instance->CR3, USART_CR3_DMAR))
 8002980:	e006      	b.n	8002990 <HAL_UART_IRQHandler+0x228>
#if (USE_HAL_UART_REGISTER_CALLBACKS == 1)
        /*Call registered error callback*/
        huart->ErrorCallback(huart);
#else
        /*Call legacy weak error callback*/
        HAL_UART_ErrorCallback(huart);
 8002982:	6878      	ldr	r0, [r7, #4]
 8002984:	f000 f988 	bl	8002c98 <HAL_UART_ErrorCallback>
#endif /* USE_HAL_UART_REGISTER_CALLBACKS */

        huart->ErrorCode = HAL_UART_ERROR_NONE;
 8002988:	687b      	ldr	r3, [r7, #4]
 800298a:	2200      	movs	r2, #0
 800298c:	641a      	str	r2, [r3, #64]	; 0x40
      }
    }
    return;
 800298e:	e170      	b.n	8002c72 <HAL_UART_IRQHandler+0x50a>
        if (HAL_IS_BIT_SET(huart->Instance->CR3, USART_CR3_DMAR))
 8002990:	bf00      	nop
    return;
 8002992:	e16e      	b.n	8002c72 <HAL_UART_IRQHandler+0x50a>
  } /* End if some error occurs */

  /* Check current reception Mode :
     If Reception till IDLE event has been selected : */
  if ((huart->ReceptionType == HAL_UART_RECEPTION_TOIDLE)
 8002994:	687b      	ldr	r3, [r7, #4]
 8002996:	6b1b      	ldr	r3, [r3, #48]	; 0x30
 8002998:	2b01      	cmp	r3, #1
 800299a:	f040 814a 	bne.w	8002c32 <HAL_UART_IRQHandler+0x4ca>
      && ((isrflags & USART_SR_IDLE) != 0U)
 800299e:	f8d7 30e4 	ldr.w	r3, [r7, #228]	; 0xe4
 80029a2:	f003 0310 	and.w	r3, r3, #16
 80029a6:	2b00      	cmp	r3, #0
 80029a8:	f000 8143 	beq.w	8002c32 <HAL_UART_IRQHandler+0x4ca>
      && ((cr1its & USART_SR_IDLE) != 0U))
 80029ac:	f8d7 30e0 	ldr.w	r3, [r7, #224]	; 0xe0
 80029b0:	f003 0310 	and.w	r3, r3, #16
 80029b4:	2b00      	cmp	r3, #0
 80029b6:	f000 813c 	beq.w	8002c32 <HAL_UART_IRQHandler+0x4ca>
  {
    __HAL_UART_CLEAR_IDLEFLAG(huart);
 80029ba:	2300      	movs	r3, #0
 80029bc:	60bb      	str	r3, [r7, #8]
 80029be:	687b      	ldr	r3, [r7, #4]
 80029c0:	681b      	ldr	r3, [r3, #0]
 80029c2:	681b      	ldr	r3, [r3, #0]
 80029c4:	60bb      	str	r3, [r7, #8]
 80029c6:	687b      	ldr	r3, [r7, #4]
 80029c8:	681b      	ldr	r3, [r3, #0]
 80029ca:	685b      	ldr	r3, [r3, #4]
 80029cc:	60bb      	str	r3, [r7, #8]
 80029ce:	68bb      	ldr	r3, [r7, #8]

    /* Check if DMA mode is enabled in UART */
    if (HAL_IS_BIT_SET(huart->Instance->CR3, USART_CR3_DMAR))
 80029d0:	687b      	ldr	r3, [r7, #4]
 80029d2:	681b      	ldr	r3, [r3, #0]
 80029d4:	695b      	ldr	r3, [r3, #20]
 80029d6:	f003 0340 	and.w	r3, r3, #64	; 0x40
 80029da:	2b40      	cmp	r3, #64	; 0x40
 80029dc:	f040 80b4 	bne.w	8002b48 <HAL_UART_IRQHandler+0x3e0>
    {
      /* DMA mode enabled */
      /* Check received length : If all expected data are received, do nothing,
         (DMA cplt callback will be called).
         Otherwise, if at least one data has already been received, IDLE event is to be notified to user */
      uint16_t nb_remaining_rx_data = (uint16_t) __HAL_DMA_GET_COUNTER(huart->hdmarx);
 80029e0:	687b      	ldr	r3, [r7, #4]
 80029e2:	6b9b      	ldr	r3, [r3, #56]	; 0x38
 80029e4:	681b      	ldr	r3, [r3, #0]
 80029e6:	685b      	ldr	r3, [r3, #4]
 80029e8:	f8a7 30be 	strh.w	r3, [r7, #190]	; 0xbe
      if ((nb_remaining_rx_data > 0U)
 80029ec:	f8b7 30be 	ldrh.w	r3, [r7, #190]	; 0xbe
 80029f0:	2b00      	cmp	r3, #0
 80029f2:	f000 8140 	beq.w	8002c76 <HAL_UART_IRQHandler+0x50e>
          && (nb_remaining_rx_data < huart->RxXferSize))
 80029f6:	687b      	ldr	r3, [r7, #4]
 80029f8:	8d9b      	ldrh	r3, [r3, #44]	; 0x2c
 80029fa:	f8b7 20be 	ldrh.w	r2, [r7, #190]	; 0xbe
 80029fe:	429a      	cmp	r2, r3
 8002a00:	f080 8139 	bcs.w	8002c76 <HAL_UART_IRQHandler+0x50e>
      {
        /* Reception is not complete */
        huart->RxXferCount = nb_remaining_rx_data;
 8002a04:	687b      	ldr	r3, [r7, #4]
 8002a06:	f8b7 20be 	ldrh.w	r2, [r7, #190]	; 0xbe
 8002a0a:	85da      	strh	r2, [r3, #46]	; 0x2e

        /* In Normal mode, end DMA xfer and HAL UART Rx process*/
        if (huart->hdmarx->Init.Mode != DMA_CIRCULAR)
 8002a0c:	687b      	ldr	r3, [r7, #4]
 8002a0e:	6b9b      	ldr	r3, [r3, #56]	; 0x38
 8002a10:	69db      	ldr	r3, [r3, #28]
 8002a12:	f5b3 7f80 	cmp.w	r3, #256	; 0x100
 8002a16:	f000 8088 	beq.w	8002b2a <HAL_UART_IRQHandler+0x3c2>
        {
          /* Disable PE and ERR (Frame error, noise error, overrun error) interrupts */
          ATOMIC_CLEAR_BIT(huart->Instance->CR1, USART_CR1_PEIE);
 8002a1a:	687b      	ldr	r3, [r7, #4]
 8002a1c:	681b      	ldr	r3, [r3, #0]
 8002a1e:	330c      	adds	r3, #12
 8002a20:	f8c7 3088 	str.w	r3, [r7, #136]	; 0x88
   __ASM volatile ("ldrex %0, %1" : "=r" (result) : "Q" (*addr) );
 8002a24:	f8d7 3088 	ldr.w	r3, [r7, #136]	; 0x88
 8002a28:	e853 3f00 	ldrex	r3, [r3]
 8002a2c:	f8c7 3084 	str.w	r3, [r7, #132]	; 0x84
   return(result);
 8002a30:	f8d7 3084 	ldr.w	r3, [r7, #132]	; 0x84
 8002a34:	f423 7380 	bic.w	r3, r3, #256	; 0x100
 8002a38:	f8c7 30b8 	str.w	r3, [r7, #184]	; 0xb8
 8002a3c:	687b      	ldr	r3, [r7, #4]
 8002a3e:	681b      	ldr	r3, [r3, #0]
 8002a40:	330c      	adds	r3, #12
 8002a42:	f8d7 20b8 	ldr.w	r2, [r7, #184]	; 0xb8
 8002a46:	f8c7 2094 	str.w	r2, [r7, #148]	; 0x94
 8002a4a:	f8c7 3090 	str.w	r3, [r7, #144]	; 0x90
   __ASM volatile ("strex %0, %2, %1" : "=&r" (result), "=Q" (*addr) : "r" (value) );
 8002a4e:	f8d7 1090 	ldr.w	r1, [r7, #144]	; 0x90
 8002a52:	f8d7 2094 	ldr.w	r2, [r7, #148]	; 0x94
 8002a56:	e841 2300 	strex	r3, r2, [r1]
 8002a5a:	f8c7 308c 	str.w	r3, [r7, #140]	; 0x8c
   return(result);
 8002a5e:	f8d7 308c 	ldr.w	r3, [r7, #140]	; 0x8c
 8002a62:	2b00      	cmp	r3, #0
 8002a64:	d1d9      	bne.n	8002a1a <HAL_UART_IRQHandler+0x2b2>
          ATOMIC_CLEAR_BIT(huart->Instance->CR3, USART_CR3_EIE);
 8002a66:	687b      	ldr	r3, [r7, #4]
 8002a68:	681b      	ldr	r3, [r3, #0]
 8002a6a:	3314      	adds	r3, #20
 8002a6c:	677b      	str	r3, [r7, #116]	; 0x74
   __ASM volatile ("ldrex %0, %1" : "=r" (result) : "Q" (*addr) );
 8002a6e:	6f7b      	ldr	r3, [r7, #116]	; 0x74
 8002a70:	e853 3f00 	ldrex	r3, [r3]
 8002a74:	673b      	str	r3, [r7, #112]	; 0x70
   return(result);
 8002a76:	6f3b      	ldr	r3, [r7, #112]	; 0x70
 8002a78:	f023 0301 	bic.w	r3, r3, #1
 8002a7c:	f8c7 30b4 	str.w	r3, [r7, #180]	; 0xb4
 8002a80:	687b      	ldr	r3, [r7, #4]
 8002a82:	681b      	ldr	r3, [r3, #0]
 8002a84:	3314      	adds	r3, #20
 8002a86:	f8d7 20b4 	ldr.w	r2, [r7, #180]	; 0xb4
 8002a8a:	f8c7 2080 	str.w	r2, [r7, #128]	; 0x80
 8002a8e:	67fb      	str	r3, [r7, #124]	; 0x7c
   __ASM volatile ("strex %0, %2, %1" : "=&r" (result), "=Q" (*addr) : "r" (value) );
 8002a90:	6ff9      	ldr	r1, [r7, #124]	; 0x7c
 8002a92:	f8d7 2080 	ldr.w	r2, [r7, #128]	; 0x80
 8002a96:	e841 2300 	strex	r3, r2, [r1]
 8002a9a:	67bb      	str	r3, [r7, #120]	; 0x78
   return(result);
 8002a9c:	6fbb      	ldr	r3, [r7, #120]	; 0x78
 8002a9e:	2b00      	cmp	r3, #0
 8002aa0:	d1e1      	bne.n	8002a66 <HAL_UART_IRQHandler+0x2fe>

          /* Disable the DMA transfer for the receiver request by resetting the DMAR bit
             in the UART CR3 register */
          ATOMIC_CLEAR_BIT(huart->Instance->CR3, USART_CR3_DMAR);
 8002aa2:	687b      	ldr	r3, [r7, #4]
 8002aa4:	681b      	ldr	r3, [r3, #0]
 8002aa6:	3314      	adds	r3, #20
 8002aa8:	663b      	str	r3, [r7, #96]	; 0x60
   __ASM volatile ("ldrex %0, %1" : "=r" (result) : "Q" (*addr) );
 8002aaa:	6e3b      	ldr	r3, [r7, #96]	; 0x60
 8002aac:	e853 3f00 	ldrex	r3, [r3]
 8002ab0:	65fb      	str	r3, [r7, #92]	; 0x5c
   return(result);
 8002ab2:	6dfb      	ldr	r3, [r7, #92]	; 0x5c
 8002ab4:	f023 0340 	bic.w	r3, r3, #64	; 0x40
 8002ab8:	f8c7 30b0 	str.w	r3, [r7, #176]	; 0xb0
 8002abc:	687b      	ldr	r3, [r7, #4]
 8002abe:	681b      	ldr	r3, [r3, #0]
 8002ac0:	3314      	adds	r3, #20
 8002ac2:	f8d7 20b0 	ldr.w	r2, [r7, #176]	; 0xb0
 8002ac6:	66fa      	str	r2, [r7, #108]	; 0x6c
 8002ac8:	66bb      	str	r3, [r7, #104]	; 0x68
   __ASM volatile ("strex %0, %2, %1" : "=&r" (result), "=Q" (*addr) : "r" (value) );
 8002aca:	6eb9      	ldr	r1, [r7, #104]	; 0x68
 8002acc:	6efa      	ldr	r2, [r7, #108]	; 0x6c
 8002ace:	e841 2300 	strex	r3, r2, [r1]
 8002ad2:	667b      	str	r3, [r7, #100]	; 0x64
   return(result);
 8002ad4:	6e7b      	ldr	r3, [r7, #100]	; 0x64
 8002ad6:	2b00      	cmp	r3, #0
 8002ad8:	d1e3      	bne.n	8002aa2 <HAL_UART_IRQHandler+0x33a>

          /* At end of Rx process, restore huart->RxState to Ready */
          huart->RxState = HAL_UART_STATE_READY;
 8002ada:	687b      	ldr	r3, [r7, #4]
 8002adc:	2220      	movs	r2, #32
 8002ade:	f883 203e 	strb.w	r2, [r3, #62]	; 0x3e
          huart->ReceptionType = HAL_UART_RECEPTION_STANDARD;
 8002ae2:	687b      	ldr	r3, [r7, #4]
 8002ae4:	2200      	movs	r2, #0
 8002ae6:	631a      	str	r2, [r3, #48]	; 0x30

          ATOMIC_CLEAR_BIT(huart->Instance->CR1, USART_CR1_IDLEIE);
 8002ae8:	687b      	ldr	r3, [r7, #4]
 8002aea:	681b      	ldr	r3, [r3, #0]
 8002aec:	330c      	adds	r3, #12
 8002aee:	64fb      	str	r3, [r7, #76]	; 0x4c
   __ASM volatile ("ldrex %0, %1" : "=r" (result) : "Q" (*addr) );
 8002af0:	6cfb      	ldr	r3, [r7, #76]	; 0x4c
 8002af2:	e853 3f00 	ldrex	r3, [r3]
 8002af6:	64bb      	str	r3, [r7, #72]	; 0x48
   return(result);
 8002af8:	6cbb      	ldr	r3, [r7, #72]	; 0x48
 8002afa:	f023 0310 	bic.w	r3, r3, #16
 8002afe:	f8c7 30ac 	str.w	r3, [r7, #172]	; 0xac
 8002b02:	687b      	ldr	r3, [r7, #4]
 8002b04:	681b      	ldr	r3, [r3, #0]
 8002b06:	330c      	adds	r3, #12
 8002b08:	f8d7 20ac 	ldr.w	r2, [r7, #172]	; 0xac
 8002b0c:	65ba      	str	r2, [r7, #88]	; 0x58
 8002b0e:	657b      	str	r3, [r7, #84]	; 0x54
   __ASM volatile ("strex %0, %2, %1" : "=&r" (result), "=Q" (*addr) : "r" (value) );
 8002b10:	6d79      	ldr	r1, [r7, #84]	; 0x54
 8002b12:	6dba      	ldr	r2, [r7, #88]	; 0x58
 8002b14:	e841 2300 	strex	r3, r2, [r1]
 8002b18:	653b      	str	r3, [r7, #80]	; 0x50
   return(result);
 8002b1a:	6d3b      	ldr	r3, [r7, #80]	; 0x50
 8002b1c:	2b00      	cmp	r3, #0
 8002b1e:	d1e3      	bne.n	8002ae8 <HAL_UART_IRQHandler+0x380>

          /* Last bytes received, so no need as the abort is immediate */
          (void)HAL_DMA_Abort(huart->hdmarx);
 8002b20:	687b      	ldr	r3, [r7, #4]
 8002b22:	6b9b      	ldr	r3, [r3, #56]	; 0x38
 8002b24:	4618      	mov	r0, r3
 8002b26:	f7fe fe46 	bl	80017b6 <HAL_DMA_Abort>
#if (USE_HAL_UART_REGISTER_CALLBACKS == 1)
        /*Call registered Rx Event callback*/
        huart->RxEventCallback(huart, (huart->RxXferSize - huart->RxXferCount));
#else
        /*Call legacy weak Rx Event callback*/
        HAL_UARTEx_RxEventCallback(huart, (huart->RxXferSize - huart->RxXferCount));
 8002b2a:	687b      	ldr	r3, [r7, #4]
 8002b2c:	8d9a      	ldrh	r2, [r3, #44]	; 0x2c
 8002b2e:	687b      	ldr	r3, [r7, #4]
 8002b30:	8ddb      	ldrh	r3, [r3, #46]	; 0x2e
 8002b32:	b29b      	uxth	r3, r3
 8002b34:	1ad3      	subs	r3, r2, r3
 8002b36:	b29b      	uxth	r3, r3
 8002b38:	4619      	mov	r1, r3
 8002b3a:	6878      	ldr	r0, [r7, #4]
 8002b3c:	f000 f8b6 	bl	8002cac <HAL_UARTEx_RxEventCallback>
#endif /* USE_HAL_UART_REGISTER_CALLBACKS */
      }
      return;
 8002b40:	e099      	b.n	8002c76 <HAL_UART_IRQHandler+0x50e>
 8002b42:	bf00      	nop
 8002b44:	08002ee3 	.word	0x08002ee3
    else
    {
      /* DMA mode not enabled */
      /* Check received length : If all expected data are received, do nothing.
         Otherwise, if at least one data has already been received, IDLE event is to be notified to user */
      uint16_t nb_rx_data = huart->RxXferSize - huart->RxXferCount;
 8002b48:	687b      	ldr	r3, [r7, #4]
 8002b4a:	8d9a      	ldrh	r2, [r3, #44]	; 0x2c
 8002b4c:	687b      	ldr	r3, [r7, #4]
 8002b4e:	8ddb      	ldrh	r3, [r3, #46]	; 0x2e
 8002b50:	b29b      	uxth	r3, r3
 8002b52:	1ad3      	subs	r3, r2, r3
 8002b54:	f8a7 30ce 	strh.w	r3, [r7, #206]	; 0xce
      if ((huart->RxXferCount > 0U)
 8002b58:	687b      	ldr	r3, [r7, #4]
 8002b5a:	8ddb      	ldrh	r3, [r3, #46]	; 0x2e
 8002b5c:	b29b      	uxth	r3, r3
 8002b5e:	2b00      	cmp	r3, #0
 8002b60:	f000 808b 	beq.w	8002c7a <HAL_UART_IRQHandler+0x512>
          && (nb_rx_data > 0U))
 8002b64:	f8b7 30ce 	ldrh.w	r3, [r7, #206]	; 0xce
 8002b68:	2b00      	cmp	r3, #0
 8002b6a:	f000 8086 	beq.w	8002c7a <HAL_UART_IRQHandler+0x512>
      {
        /* Disable the UART Parity Error Interrupt and RXNE interrupts */
        ATOMIC_CLEAR_BIT(huart->Instance->CR1, (USART_CR1_RXNEIE | USART_CR1_PEIE));
 8002b6e:	687b      	ldr	r3, [r7, #4]
 8002b70:	681b      	ldr	r3, [r3, #0]
 8002b72:	330c      	adds	r3, #12
 8002b74:	63bb      	str	r3, [r7, #56]	; 0x38
   __ASM volatile ("ldrex %0, %1" : "=r" (result) : "Q" (*addr) );
 8002b76:	6bbb      	ldr	r3, [r7, #56]	; 0x38
 8002b78:	e853 3f00 	ldrex	r3, [r3]
 8002b7c:	637b      	str	r3, [r7, #52]	; 0x34
   return(result);
 8002b7e:	6b7b      	ldr	r3, [r7, #52]	; 0x34
 8002b80:	f423 7390 	bic.w	r3, r3, #288	; 0x120
 8002b84:	f8c7 30c8 	str.w	r3, [r7, #200]	; 0xc8
 8002b88:	687b      	ldr	r3, [r7, #4]
 8002b8a:	681b      	ldr	r3, [r3, #0]
 8002b8c:	330c      	adds	r3, #12
 8002b8e:	f8d7 20c8 	ldr.w	r2, [r7, #200]	; 0xc8
 8002b92:	647a      	str	r2, [r7, #68]	; 0x44
 8002b94:	643b      	str	r3, [r7, #64]	; 0x40
   __ASM volatile ("strex %0, %2, %1" : "=&r" (result), "=Q" (*addr) : "r" (value) );
 8002b96:	6c39      	ldr	r1, [r7, #64]	; 0x40
 8002b98:	6c7a      	ldr	r2, [r7, #68]	; 0x44
 8002b9a:	e841 2300 	strex	r3, r2, [r1]
 8002b9e:	63fb      	str	r3, [r7, #60]	; 0x3c
   return(result);
 8002ba0:	6bfb      	ldr	r3, [r7, #60]	; 0x3c
 8002ba2:	2b00      	cmp	r3, #0
 8002ba4:	d1e3      	bne.n	8002b6e <HAL_UART_IRQHandler+0x406>

        /* Disable the UART Error Interrupt: (Frame error, noise error, overrun error) */
        ATOMIC_CLEAR_BIT(huart->Instance->CR3, USART_CR3_EIE);
 8002ba6:	687b      	ldr	r3, [r7, #4]
 8002ba8:	681b      	ldr	r3, [r3, #0]
 8002baa:	3314      	adds	r3, #20
 8002bac:	627b      	str	r3, [r7, #36]	; 0x24
   __ASM volatile ("ldrex %0, %1" : "=r" (result) : "Q" (*addr) );
 8002bae:	6a7b      	ldr	r3, [r7, #36]	; 0x24
 8002bb0:	e853 3f00 	ldrex	r3, [r3]
 8002bb4:	623b      	str	r3, [r7, #32]
   return(result);
 8002bb6:	6a3b      	ldr	r3, [r7, #32]
 8002bb8:	f023 0301 	bic.w	r3, r3, #1
 8002bbc:	f8c7 30c4 	str.w	r3, [r7, #196]	; 0xc4
 8002bc0:	687b      	ldr	r3, [r7, #4]
 8002bc2:	681b      	ldr	r3, [r3, #0]
 8002bc4:	3314      	adds	r3, #20
 8002bc6:	f8d7 20c4 	ldr.w	r2, [r7, #196]	; 0xc4
 8002bca:	633a      	str	r2, [r7, #48]	; 0x30
 8002bcc:	62fb      	str	r3, [r7, #44]	; 0x2c
   __ASM volatile ("strex %0, %2, %1" : "=&r" (result), "=Q" (*addr) : "r" (value) );
 8002bce:	6af9      	ldr	r1, [r7, #44]	; 0x2c
 8002bd0:	6b3a      	ldr	r2, [r7, #48]	; 0x30
 8002bd2:	e841 2300 	strex	r3, r2, [r1]
 8002bd6:	62bb      	str	r3, [r7, #40]	; 0x28
   return(result);
 8002bd8:	6abb      	ldr	r3, [r7, #40]	; 0x28
 8002bda:	2b00      	cmp	r3, #0
 8002bdc:	d1e3      	bne.n	8002ba6 <HAL_UART_IRQHandler+0x43e>

        /* Rx process is completed, restore huart->RxState to Ready */
        huart->RxState = HAL_UART_STATE_READY;
 8002bde:	687b      	ldr	r3, [r7, #4]
 8002be0:	2220      	movs	r2, #32
 8002be2:	f883 203e 	strb.w	r2, [r3, #62]	; 0x3e
        huart->ReceptionType = HAL_UART_RECEPTION_STANDARD;
 8002be6:	687b      	ldr	r3, [r7, #4]
 8002be8:	2200      	movs	r2, #0
 8002bea:	631a      	str	r2, [r3, #48]	; 0x30

        ATOMIC_CLEAR_BIT(huart->Instance->CR1, USART_CR1_IDLEIE);
 8002bec:	687b      	ldr	r3, [r7, #4]
 8002bee:	681b      	ldr	r3, [r3, #0]
 8002bf0:	330c      	adds	r3, #12
 8002bf2:	613b      	str	r3, [r7, #16]
   __ASM volatile ("ldrex %0, %1" : "=r" (result) : "Q" (*addr) );
 8002bf4:	693b      	ldr	r3, [r7, #16]
 8002bf6:	e853 3f00 	ldrex	r3, [r3]
 8002bfa:	60fb      	str	r3, [r7, #12]
   return(result);
 8002bfc:	68fb      	ldr	r3, [r7, #12]
 8002bfe:	f023 0310 	bic.w	r3, r3, #16
 8002c02:	f8c7 30c0 	str.w	r3, [r7, #192]	; 0xc0
 8002c06:	687b      	ldr	r3, [r7, #4]
 8002c08:	681b      	ldr	r3, [r3, #0]
 8002c0a:	330c      	adds	r3, #12
 8002c0c:	f8d7 20c0 	ldr.w	r2, [r7, #192]	; 0xc0
 8002c10:	61fa      	str	r2, [r7, #28]
 8002c12:	61bb      	str	r3, [r7, #24]
   __ASM volatile ("strex %0, %2, %1" : "=&r" (result), "=Q" (*addr) : "r" (value) );
 8002c14:	69b9      	ldr	r1, [r7, #24]
 8002c16:	69fa      	ldr	r2, [r7, #28]
 8002c18:	e841 2300 	strex	r3, r2, [r1]
 8002c1c:	617b      	str	r3, [r7, #20]
   return(result);
 8002c1e:	697b      	ldr	r3, [r7, #20]
 8002c20:	2b00      	cmp	r3, #0
 8002c22:	d1e3      	bne.n	8002bec <HAL_UART_IRQHandler+0x484>
#if (USE_HAL_UART_REGISTER_CALLBACKS == 1)
        /*Call registered Rx complete callback*/
        huart->RxEventCallback(huart, nb_rx_data);
#else
        /*Call legacy weak Rx Event callback*/
        HAL_UARTEx_RxEventCallback(huart, nb_rx_data);
 8002c24:	f8b7 30ce 	ldrh.w	r3, [r7, #206]	; 0xce
 8002c28:	4619      	mov	r1, r3
 8002c2a:	6878      	ldr	r0, [r7, #4]
 8002c2c:	f000 f83e 	bl	8002cac <HAL_UARTEx_RxEventCallback>
#endif /* USE_HAL_UART_REGISTER_CALLBACKS */
      }
      return;
 8002c30:	e023      	b.n	8002c7a <HAL_UART_IRQHandler+0x512>
    }
  }

  /* UART in mode Transmitter ------------------------------------------------*/
  if (((isrflags & USART_SR_TXE) != RESET) && ((cr1its & USART_CR1_TXEIE) != RESET))
 8002c32:	f8d7 30e4 	ldr.w	r3, [r7, #228]	; 0xe4
 8002c36:	f003 0380 	and.w	r3, r3, #128	; 0x80
 8002c3a:	2b00      	cmp	r3, #0
 8002c3c:	d009      	beq.n	8002c52 <HAL_UART_IRQHandler+0x4ea>
 8002c3e:	f8d7 30e0 	ldr.w	r3, [r7, #224]	; 0xe0
 8002c42:	f003 0380 	and.w	r3, r3, #128	; 0x80
 8002c46:	2b00      	cmp	r3, #0
 8002c48:	d003      	beq.n	8002c52 <HAL_UART_IRQHandler+0x4ea>
  {
    UART_Transmit_IT(huart);
 8002c4a:	6878      	ldr	r0, [r7, #4]
 8002c4c:	f000 f95d 	bl	8002f0a <UART_Transmit_IT>
    return;
 8002c50:	e014      	b.n	8002c7c <HAL_UART_IRQHandler+0x514>
  }

  /* UART in mode Transmitter end --------------------------------------------*/
  if (((isrflags & USART_SR_TC) != RESET) && ((cr1its & USART_CR1_TCIE) != RESET))
 8002c52:	f8d7 30e4 	ldr.w	r3, [r7, #228]	; 0xe4
 8002c56:	f003 0340 	and.w	r3, r3, #64	; 0x40
 8002c5a:	2b00      	cmp	r3, #0
 8002c5c:	d00e      	beq.n	8002c7c <HAL_UART_IRQHandler+0x514>
 8002c5e:	f8d7 30e0 	ldr.w	r3, [r7, #224]	; 0xe0
 8002c62:	f003 0340 	and.w	r3, r3, #64	; 0x40
 8002c66:	2b00      	cmp	r3, #0
 8002c68:	d008      	beq.n	8002c7c <HAL_UART_IRQHandler+0x514>
  {
    UART_EndTransmit_IT(huart);
 8002c6a:	6878      	ldr	r0, [r7, #4]
 8002c6c:	f000 f99d 	bl	8002faa <UART_EndTransmit_IT>
    return;
 8002c70:	e004      	b.n	8002c7c <HAL_UART_IRQHandler+0x514>
    return;
 8002c72:	bf00      	nop
 8002c74:	e002      	b.n	8002c7c <HAL_UART_IRQHandler+0x514>
      return;
 8002c76:	bf00      	nop
 8002c78:	e000      	b.n	8002c7c <HAL_UART_IRQHandler+0x514>
      return;
 8002c7a:	bf00      	nop
  }
}
 8002c7c:	37e8      	adds	r7, #232	; 0xe8
 8002c7e:	46bd      	mov	sp, r7
 8002c80:	bd80      	pop	{r7, pc}
 8002c82:	bf00      	nop

08002c84 <HAL_UART_TxCpltCallback>:
  * @param  huart  Pointer to a UART_HandleTypeDef structure that contains
  *                the configuration information for the specified UART module.
  * @retval None
  */
__weak void HAL_UART_TxCpltCallback(UART_HandleTypeDef *huart)
{
 8002c84:	b480      	push	{r7}
 8002c86:	b083      	sub	sp, #12
 8002c88:	af00      	add	r7, sp, #0
 8002c8a:	6078      	str	r0, [r7, #4]
  /* Prevent unused argument(s) compilation warning */
  UNUSED(huart);
  /* NOTE: This function should not be modified, when the callback is needed,
           the HAL_UART_TxCpltCallback could be implemented in the user file
   */
}
 8002c8c:	bf00      	nop
 8002c8e:	370c      	adds	r7, #12
 8002c90:	46bd      	mov	sp, r7
 8002c92:	f85d 7b04 	ldr.w	r7, [sp], #4
 8002c96:	4770      	bx	lr

08002c98 <HAL_UART_ErrorCallback>:
  * @param  huart  Pointer to a UART_HandleTypeDef structure that contains
  *                the configuration information for the specified UART module.
  * @retval None
  */
__weak void HAL_UART_ErrorCallback(UART_HandleTypeDef *huart)
{
 8002c98:	b480      	push	{r7}
 8002c9a:	b083      	sub	sp, #12
 8002c9c:	af00      	add	r7, sp, #0
 8002c9e:	6078      	str	r0, [r7, #4]
  /* Prevent unused argument(s) compilation warning */
  UNUSED(huart);
  /* NOTE: This function should not be modified, when the callback is needed,
           the HAL_UART_ErrorCallback could be implemented in the user file
   */
}
 8002ca0:	bf00      	nop
 8002ca2:	370c      	adds	r7, #12
 8002ca4:	46bd      	mov	sp, r7
 8002ca6:	f85d 7b04 	ldr.w	r7, [sp], #4
 8002caa:	4770      	bx	lr

08002cac <HAL_UARTEx_RxEventCallback>:
  * @param  Size  Number of data available in application reception buffer (indicates a position in
  *               reception buffer until which, data are available)
  * @retval None
  */
__weak void HAL_UARTEx_RxEventCallback(UART_HandleTypeDef *huart, uint16_t Size)
{
 8002cac:	b480      	push	{r7}
 8002cae:	b083      	sub	sp, #12
 8002cb0:	af00      	add	r7, sp, #0
 8002cb2:	6078      	str	r0, [r7, #4]
 8002cb4:	460b      	mov	r3, r1
 8002cb6:	807b      	strh	r3, [r7, #2]
  UNUSED(Size);

  /* NOTE : This function should not be modified, when the callback is needed,
            the HAL_UARTEx_RxEventCallback can be implemented in the user file.
   */
}
 8002cb8:	bf00      	nop
 8002cba:	370c      	adds	r7, #12
 8002cbc:	46bd      	mov	sp, r7
 8002cbe:	f85d 7b04 	ldr.w	r7, [sp], #4
 8002cc2:	4770      	bx	lr

08002cc4 <UART_WaitOnFlagUntilTimeout>:
  * @param  Timeout Timeout duration
  * @retval HAL status
  */
static HAL_StatusTypeDef UART_WaitOnFlagUntilTimeout(UART_HandleTypeDef *huart, uint32_t Flag, FlagStatus Status,
                                                     uint32_t Tickstart, uint32_t Timeout)
{
 8002cc4:	b580      	push	{r7, lr}
 8002cc6:	b090      	sub	sp, #64	; 0x40
 8002cc8:	af00      	add	r7, sp, #0
 8002cca:	60f8      	str	r0, [r7, #12]
 8002ccc:	60b9      	str	r1, [r7, #8]
 8002cce:	603b      	str	r3, [r7, #0]
 8002cd0:	4613      	mov	r3, r2
 8002cd2:	71fb      	strb	r3, [r7, #7]
  /* Wait until flag is set */
  while ((__HAL_UART_GET_FLAG(huart, Flag) ? SET : RESET) == Status)
 8002cd4:	e050      	b.n	8002d78 <UART_WaitOnFlagUntilTimeout+0xb4>
  {
    /* Check for the Timeout */
    if (Timeout != HAL_MAX_DELAY)
 8002cd6:	6cbb      	ldr	r3, [r7, #72]	; 0x48
 8002cd8:	f1b3 3fff 	cmp.w	r3, #4294967295
 8002cdc:	d04c      	beq.n	8002d78 <UART_WaitOnFlagUntilTimeout+0xb4>
    {
      if ((Timeout == 0U) || ((HAL_GetTick() - Tickstart) > Timeout))
 8002cde:	6cbb      	ldr	r3, [r7, #72]	; 0x48
 8002ce0:	2b00      	cmp	r3, #0
 8002ce2:	d007      	beq.n	8002cf4 <UART_WaitOnFlagUntilTimeout+0x30>
 8002ce4:	f7fe fc26 	bl	8001534 <HAL_GetTick>
 8002ce8:	4602      	mov	r2, r0
 8002cea:	683b      	ldr	r3, [r7, #0]
 8002cec:	1ad3      	subs	r3, r2, r3
 8002cee:	6cba      	ldr	r2, [r7, #72]	; 0x48
 8002cf0:	429a      	cmp	r2, r3
 8002cf2:	d241      	bcs.n	8002d78 <UART_WaitOnFlagUntilTimeout+0xb4>
      {
        /* Disable TXE, RXNE, PE and ERR (Frame error, noise error, overrun error) interrupts for the interrupt process */
        ATOMIC_CLEAR_BIT(huart->Instance->CR1, (USART_CR1_RXNEIE | USART_CR1_PEIE | USART_CR1_TXEIE));
 8002cf4:	68fb      	ldr	r3, [r7, #12]
 8002cf6:	681b      	ldr	r3, [r3, #0]
 8002cf8:	330c      	adds	r3, #12
 8002cfa:	62bb      	str	r3, [r7, #40]	; 0x28
   __ASM volatile ("ldrex %0, %1" : "=r" (result) : "Q" (*addr) );
 8002cfc:	6abb      	ldr	r3, [r7, #40]	; 0x28
 8002cfe:	e853 3f00 	ldrex	r3, [r3]
 8002d02:	627b      	str	r3, [r7, #36]	; 0x24
   return(result);
 8002d04:	6a7b      	ldr	r3, [r7, #36]	; 0x24
 8002d06:	f423 73d0 	bic.w	r3, r3, #416	; 0x1a0
 8002d0a:	63fb      	str	r3, [r7, #60]	; 0x3c
 8002d0c:	68fb      	ldr	r3, [r7, #12]
 8002d0e:	681b      	ldr	r3, [r3, #0]
 8002d10:	330c      	adds	r3, #12
 8002d12:	6bfa      	ldr	r2, [r7, #60]	; 0x3c
 8002d14:	637a      	str	r2, [r7, #52]	; 0x34
 8002d16:	633b      	str	r3, [r7, #48]	; 0x30
   __ASM volatile ("strex %0, %2, %1" : "=&r" (result), "=Q" (*addr) : "r" (value) );
 8002d18:	6b39      	ldr	r1, [r7, #48]	; 0x30
 8002d1a:	6b7a      	ldr	r2, [r7, #52]	; 0x34
 8002d1c:	e841 2300 	strex	r3, r2, [r1]
 8002d20:	62fb      	str	r3, [r7, #44]	; 0x2c
   return(result);
 8002d22:	6afb      	ldr	r3, [r7, #44]	; 0x2c
 8002d24:	2b00      	cmp	r3, #0
 8002d26:	d1e5      	bne.n	8002cf4 <UART_WaitOnFlagUntilTimeout+0x30>
        ATOMIC_CLEAR_BIT(huart->Instance->CR3, USART_CR3_EIE);
 8002d28:	68fb      	ldr	r3, [r7, #12]
 8002d2a:	681b      	ldr	r3, [r3, #0]
 8002d2c:	3314      	adds	r3, #20
 8002d2e:	617b      	str	r3, [r7, #20]
   __ASM volatile ("ldrex %0, %1" : "=r" (result) : "Q" (*addr) );
 8002d30:	697b      	ldr	r3, [r7, #20]
 8002d32:	e853 3f00 	ldrex	r3, [r3]
 8002d36:	613b      	str	r3, [r7, #16]
   return(result);
 8002d38:	693b      	ldr	r3, [r7, #16]
 8002d3a:	f023 0301 	bic.w	r3, r3, #1
 8002d3e:	63bb      	str	r3, [r7, #56]	; 0x38
 8002d40:	68fb      	ldr	r3, [r7, #12]
 8002d42:	681b      	ldr	r3, [r3, #0]
 8002d44:	3314      	adds	r3, #20
 8002d46:	6bba      	ldr	r2, [r7, #56]	; 0x38
 8002d48:	623a      	str	r2, [r7, #32]
 8002d4a:	61fb      	str	r3, [r7, #28]
   __ASM volatile ("strex %0, %2, %1" : "=&r" (result), "=Q" (*addr) : "r" (value) );
 8002d4c:	69f9      	ldr	r1, [r7, #28]
 8002d4e:	6a3a      	ldr	r2, [r7, #32]
 8002d50:	e841 2300 	strex	r3, r2, [r1]
 8002d54:	61bb      	str	r3, [r7, #24]
   return(result);
 8002d56:	69bb      	ldr	r3, [r7, #24]
 8002d58:	2b00      	cmp	r3, #0
 8002d5a:	d1e5      	bne.n	8002d28 <UART_WaitOnFlagUntilTimeout+0x64>

        huart->gState  = HAL_UART_STATE_READY;
 8002d5c:	68fb      	ldr	r3, [r7, #12]
 8002d5e:	2220      	movs	r2, #32
 8002d60:	f883 203d 	strb.w	r2, [r3, #61]	; 0x3d
        huart->RxState = HAL_UART_STATE_READY;
 8002d64:	68fb      	ldr	r3, [r7, #12]
 8002d66:	2220      	movs	r2, #32
 8002d68:	f883 203e 	strb.w	r2, [r3, #62]	; 0x3e

        /* Process Unlocked */
        __HAL_UNLOCK(huart);
 8002d6c:	68fb      	ldr	r3, [r7, #12]
 8002d6e:	2200      	movs	r2, #0
 8002d70:	f883 203c 	strb.w	r2, [r3, #60]	; 0x3c

        return HAL_TIMEOUT;
 8002d74:	2303      	movs	r3, #3
 8002d76:	e00f      	b.n	8002d98 <UART_WaitOnFlagUntilTimeout+0xd4>
  while ((__HAL_UART_GET_FLAG(huart, Flag) ? SET : RESET) == Status)
 8002d78:	68fb      	ldr	r3, [r7, #12]
 8002d7a:	681b      	ldr	r3, [r3, #0]
 8002d7c:	681a      	ldr	r2, [r3, #0]
 8002d7e:	68bb      	ldr	r3, [r7, #8]
 8002d80:	4013      	ands	r3, r2
 8002d82:	68ba      	ldr	r2, [r7, #8]
 8002d84:	429a      	cmp	r2, r3
 8002d86:	bf0c      	ite	eq
 8002d88:	2301      	moveq	r3, #1
 8002d8a:	2300      	movne	r3, #0
 8002d8c:	b2db      	uxtb	r3, r3
 8002d8e:	461a      	mov	r2, r3
 8002d90:	79fb      	ldrb	r3, [r7, #7]
 8002d92:	429a      	cmp	r2, r3
 8002d94:	d09f      	beq.n	8002cd6 <UART_WaitOnFlagUntilTimeout+0x12>
      }
    }
  }
  return HAL_OK;
 8002d96:	2300      	movs	r3, #0
}
 8002d98:	4618      	mov	r0, r3
 8002d9a:	3740      	adds	r7, #64	; 0x40
 8002d9c:	46bd      	mov	sp, r7
 8002d9e:	bd80      	pop	{r7, pc}

08002da0 <UART_Start_Receive_IT>:
  * @param  pData Pointer to data buffer (u8 or u16 data elements).
  * @param  Size  Amount of data elements (u8 or u16) to be received.
  * @retval HAL status
  */
HAL_StatusTypeDef UART_Start_Receive_IT(UART_HandleTypeDef *huart, uint8_t *pData, uint16_t Size)
{
 8002da0:	b480      	push	{r7}
 8002da2:	b085      	sub	sp, #20
 8002da4:	af00      	add	r7, sp, #0
 8002da6:	60f8      	str	r0, [r7, #12]
 8002da8:	60b9      	str	r1, [r7, #8]
 8002daa:	4613      	mov	r3, r2
 8002dac:	80fb      	strh	r3, [r7, #6]
  huart->pRxBuffPtr = pData;
 8002dae:	68fb      	ldr	r3, [r7, #12]
 8002db0:	68ba      	ldr	r2, [r7, #8]
 8002db2:	629a      	str	r2, [r3, #40]	; 0x28
  huart->RxXferSize = Size;
 8002db4:	68fb      	ldr	r3, [r7, #12]
 8002db6:	88fa      	ldrh	r2, [r7, #6]
 8002db8:	859a      	strh	r2, [r3, #44]	; 0x2c
  huart->RxXferCount = Size;
 8002dba:	68fb      	ldr	r3, [r7, #12]
 8002dbc:	88fa      	ldrh	r2, [r7, #6]
 8002dbe:	85da      	strh	r2, [r3, #46]	; 0x2e

  huart->ErrorCode = HAL_UART_ERROR_NONE;
 8002dc0:	68fb      	ldr	r3, [r7, #12]
 8002dc2:	2200      	movs	r2, #0
 8002dc4:	641a      	str	r2, [r3, #64]	; 0x40
  huart->RxState = HAL_UART_STATE_BUSY_RX;
 8002dc6:	68fb      	ldr	r3, [r7, #12]
 8002dc8:	2222      	movs	r2, #34	; 0x22
 8002dca:	f883 203e 	strb.w	r2, [r3, #62]	; 0x3e

  /* Process Unlocked */
  __HAL_UNLOCK(huart);
 8002dce:	68fb      	ldr	r3, [r7, #12]
 8002dd0:	2200      	movs	r2, #0
 8002dd2:	f883 203c 	strb.w	r2, [r3, #60]	; 0x3c

  if (huart->Init.Parity != UART_PARITY_NONE)
 8002dd6:	68fb      	ldr	r3, [r7, #12]
 8002dd8:	691b      	ldr	r3, [r3, #16]
 8002dda:	2b00      	cmp	r3, #0
 8002ddc:	d007      	beq.n	8002dee <UART_Start_Receive_IT+0x4e>
  {
    /* Enable the UART Parity Error Interrupt */
    __HAL_UART_ENABLE_IT(huart, UART_IT_PE);
 8002dde:	68fb      	ldr	r3, [r7, #12]
 8002de0:	681b      	ldr	r3, [r3, #0]
 8002de2:	68da      	ldr	r2, [r3, #12]
 8002de4:	68fb      	ldr	r3, [r7, #12]
 8002de6:	681b      	ldr	r3, [r3, #0]
 8002de8:	f442 7280 	orr.w	r2, r2, #256	; 0x100
 8002dec:	60da      	str	r2, [r3, #12]
  }

  /* Enable the UART Error Interrupt: (Frame error, noise error, overrun error) */
  __HAL_UART_ENABLE_IT(huart, UART_IT_ERR);
 8002dee:	68fb      	ldr	r3, [r7, #12]
 8002df0:	681b      	ldr	r3, [r3, #0]
 8002df2:	695a      	ldr	r2, [r3, #20]
 8002df4:	68fb      	ldr	r3, [r7, #12]
 8002df6:	681b      	ldr	r3, [r3, #0]
 8002df8:	f042 0201 	orr.w	r2, r2, #1
 8002dfc:	615a      	str	r2, [r3, #20]

  /* Enable the UART Data Register not empty Interrupt */
  __HAL_UART_ENABLE_IT(huart, UART_IT_RXNE);
 8002dfe:	68fb      	ldr	r3, [r7, #12]
 8002e00:	681b      	ldr	r3, [r3, #0]
 8002e02:	68da      	ldr	r2, [r3, #12]
 8002e04:	68fb      	ldr	r3, [r7, #12]
 8002e06:	681b      	ldr	r3, [r3, #0]
 8002e08:	f042 0220 	orr.w	r2, r2, #32
 8002e0c:	60da      	str	r2, [r3, #12]

  return HAL_OK;
 8002e0e:	2300      	movs	r3, #0
}
 8002e10:	4618      	mov	r0, r3
 8002e12:	3714      	adds	r7, #20
 8002e14:	46bd      	mov	sp, r7
 8002e16:	f85d 7b04 	ldr.w	r7, [sp], #4
 8002e1a:	4770      	bx	lr

08002e1c <UART_EndRxTransfer>:
  * @brief  End ongoing Rx transfer on UART peripheral (following error detection or Reception completion).
  * @param  huart UART handle.
  * @retval None
  */
static void UART_EndRxTransfer(UART_HandleTypeDef *huart)
{
 8002e1c:	b480      	push	{r7}
 8002e1e:	b095      	sub	sp, #84	; 0x54
 8002e20:	af00      	add	r7, sp, #0
 8002e22:	6078      	str	r0, [r7, #4]
  /* Disable RXNE, PE and ERR (Frame error, noise error, overrun error) interrupts */
  ATOMIC_CLEAR_BIT(huart->Instance->CR1, (USART_CR1_RXNEIE | USART_CR1_PEIE));
 8002e24:	687b      	ldr	r3, [r7, #4]
 8002e26:	681b      	ldr	r3, [r3, #0]
 8002e28:	330c      	adds	r3, #12
 8002e2a:	637b      	str	r3, [r7, #52]	; 0x34
   __ASM volatile ("ldrex %0, %1" : "=r" (result) : "Q" (*addr) );
 8002e2c:	6b7b      	ldr	r3, [r7, #52]	; 0x34
 8002e2e:	e853 3f00 	ldrex	r3, [r3]
 8002e32:	633b      	str	r3, [r7, #48]	; 0x30
   return(result);
 8002e34:	6b3b      	ldr	r3, [r7, #48]	; 0x30
 8002e36:	f423 7390 	bic.w	r3, r3, #288	; 0x120
 8002e3a:	64fb      	str	r3, [r7, #76]	; 0x4c
 8002e3c:	687b      	ldr	r3, [r7, #4]
 8002e3e:	681b      	ldr	r3, [r3, #0]
 8002e40:	330c      	adds	r3, #12
 8002e42:	6cfa      	ldr	r2, [r7, #76]	; 0x4c
 8002e44:	643a      	str	r2, [r7, #64]	; 0x40
 8002e46:	63fb      	str	r3, [r7, #60]	; 0x3c
   __ASM volatile ("strex %0, %2, %1" : "=&r" (result), "=Q" (*addr) : "r" (value) );
 8002e48:	6bf9      	ldr	r1, [r7, #60]	; 0x3c
 8002e4a:	6c3a      	ldr	r2, [r7, #64]	; 0x40
 8002e4c:	e841 2300 	strex	r3, r2, [r1]
 8002e50:	63bb      	str	r3, [r7, #56]	; 0x38
   return(result);
 8002e52:	6bbb      	ldr	r3, [r7, #56]	; 0x38
 8002e54:	2b00      	cmp	r3, #0
 8002e56:	d1e5      	bne.n	8002e24 <UART_EndRxTransfer+0x8>
  ATOMIC_CLEAR_BIT(huart->Instance->CR3, USART_CR3_EIE);
 8002e58:	687b      	ldr	r3, [r7, #4]
 8002e5a:	681b      	ldr	r3, [r3, #0]
 8002e5c:	3314      	adds	r3, #20
 8002e5e:	623b      	str	r3, [r7, #32]
   __ASM volatile ("ldrex %0, %1" : "=r" (result) : "Q" (*addr) );
 8002e60:	6a3b      	ldr	r3, [r7, #32]
 8002e62:	e853 3f00 	ldrex	r3, [r3]
 8002e66:	61fb      	str	r3, [r7, #28]
   return(result);
 8002e68:	69fb      	ldr	r3, [r7, #28]
 8002e6a:	f023 0301 	bic.w	r3, r3, #1
 8002e6e:	64bb      	str	r3, [r7, #72]	; 0x48
 8002e70:	687b      	ldr	r3, [r7, #4]
 8002e72:	681b      	ldr	r3, [r3, #0]
 8002e74:	3314      	adds	r3, #20
 8002e76:	6cba      	ldr	r2, [r7, #72]	; 0x48
 8002e78:	62fa      	str	r2, [r7, #44]	; 0x2c
 8002e7a:	62bb      	str	r3, [r7, #40]	; 0x28
   __ASM volatile ("strex %0, %2, %1" : "=&r" (result), "=Q" (*addr) : "r" (value) );
 8002e7c:	6ab9      	ldr	r1, [r7, #40]	; 0x28
 8002e7e:	6afa      	ldr	r2, [r7, #44]	; 0x2c
 8002e80:	e841 2300 	strex	r3, r2, [r1]
 8002e84:	627b      	str	r3, [r7, #36]	; 0x24
   return(result);
 8002e86:	6a7b      	ldr	r3, [r7, #36]	; 0x24
 8002e88:	2b00      	cmp	r3, #0
 8002e8a:	d1e5      	bne.n	8002e58 <UART_EndRxTransfer+0x3c>

  /* In case of reception waiting for IDLE event, disable also the IDLE IE interrupt source */
  if (huart->ReceptionType == HAL_UART_RECEPTION_TOIDLE)
 8002e8c:	687b      	ldr	r3, [r7, #4]
 8002e8e:	6b1b      	ldr	r3, [r3, #48]	; 0x30
 8002e90:	2b01      	cmp	r3, #1
 8002e92:	d119      	bne.n	8002ec8 <UART_EndRxTransfer+0xac>
  {
    ATOMIC_CLEAR_BIT(huart->Instance->CR1, USART_CR1_IDLEIE);
 8002e94:	687b      	ldr	r3, [r7, #4]
 8002e96:	681b      	ldr	r3, [r3, #0]
 8002e98:	330c      	adds	r3, #12
 8002e9a:	60fb      	str	r3, [r7, #12]
   __ASM volatile ("ldrex %0, %1" : "=r" (result) : "Q" (*addr) );
 8002e9c:	68fb      	ldr	r3, [r7, #12]
 8002e9e:	e853 3f00 	ldrex	r3, [r3]
 8002ea2:	60bb      	str	r3, [r7, #8]
   return(result);
 8002ea4:	68bb      	ldr	r3, [r7, #8]
 8002ea6:	f023 0310 	bic.w	r3, r3, #16
 8002eaa:	647b      	str	r3, [r7, #68]	; 0x44
 8002eac:	687b      	ldr	r3, [r7, #4]
 8002eae:	681b      	ldr	r3, [r3, #0]
 8002eb0:	330c      	adds	r3, #12
 8002eb2:	6c7a      	ldr	r2, [r7, #68]	; 0x44
 8002eb4:	61ba      	str	r2, [r7, #24]
 8002eb6:	617b      	str	r3, [r7, #20]
   __ASM volatile ("strex %0, %2, %1" : "=&r" (result), "=Q" (*addr) : "r" (value) );
 8002eb8:	6979      	ldr	r1, [r7, #20]
 8002eba:	69ba      	ldr	r2, [r7, #24]
 8002ebc:	e841 2300 	strex	r3, r2, [r1]
 8002ec0:	613b      	str	r3, [r7, #16]
   return(result);
 8002ec2:	693b      	ldr	r3, [r7, #16]
 8002ec4:	2b00      	cmp	r3, #0
 8002ec6:	d1e5      	bne.n	8002e94 <UART_EndRxTransfer+0x78>
  }

  /* At end of Rx process, restore huart->RxState to Ready */
  huart->RxState = HAL_UART_STATE_READY;
 8002ec8:	687b      	ldr	r3, [r7, #4]
 8002eca:	2220      	movs	r2, #32
 8002ecc:	f883 203e 	strb.w	r2, [r3, #62]	; 0x3e
  huart->ReceptionType = HAL_UART_RECEPTION_STANDARD;
 8002ed0:	687b      	ldr	r3, [r7, #4]
 8002ed2:	2200      	movs	r2, #0
 8002ed4:	631a      	str	r2, [r3, #48]	; 0x30
}
 8002ed6:	bf00      	nop
 8002ed8:	3754      	adds	r7, #84	; 0x54
 8002eda:	46bd      	mov	sp, r7
 8002edc:	f85d 7b04 	ldr.w	r7, [sp], #4
 8002ee0:	4770      	bx	lr

08002ee2 <UART_DMAAbortOnError>:
  * @param  hdma  Pointer to a DMA_HandleTypeDef structure that contains
  *               the configuration information for the specified DMA module.
  * @retval None
  */
static void UART_DMAAbortOnError(DMA_HandleTypeDef *hdma)
{
 8002ee2:	b580      	push	{r7, lr}
 8002ee4:	b084      	sub	sp, #16
 8002ee6:	af00      	add	r7, sp, #0
 8002ee8:	6078      	str	r0, [r7, #4]
  UART_HandleTypeDef *huart = (UART_HandleTypeDef *)((DMA_HandleTypeDef *)hdma)->Parent;
 8002eea:	687b      	ldr	r3, [r7, #4]
 8002eec:	6b9b      	ldr	r3, [r3, #56]	; 0x38
 8002eee:	60fb      	str	r3, [r7, #12]
  huart->RxXferCount = 0x00U;
 8002ef0:	68fb      	ldr	r3, [r7, #12]
 8002ef2:	2200      	movs	r2, #0
 8002ef4:	85da      	strh	r2, [r3, #46]	; 0x2e
  huart->TxXferCount = 0x00U;
 8002ef6:	68fb      	ldr	r3, [r7, #12]
 8002ef8:	2200      	movs	r2, #0
 8002efa:	84da      	strh	r2, [r3, #38]	; 0x26
#if (USE_HAL_UART_REGISTER_CALLBACKS == 1)
  /*Call registered error callback*/
  huart->ErrorCallback(huart);
#else
  /*Call legacy weak error callback*/
  HAL_UART_ErrorCallback(huart);
 8002efc:	68f8      	ldr	r0, [r7, #12]
 8002efe:	f7ff fecb 	bl	8002c98 <HAL_UART_ErrorCallback>
#endif /* USE_HAL_UART_REGISTER_CALLBACKS */
}
 8002f02:	bf00      	nop
 8002f04:	3710      	adds	r7, #16
 8002f06:	46bd      	mov	sp, r7
 8002f08:	bd80      	pop	{r7, pc}

08002f0a <UART_Transmit_IT>:
  * @param  huart  Pointer to a UART_HandleTypeDef structure that contains
  *                the configuration information for the specified UART module.
  * @retval HAL status
  */
static HAL_StatusTypeDef UART_Transmit_IT(UART_HandleTypeDef *huart)
{
 8002f0a:	b480      	push	{r7}
 8002f0c:	b085      	sub	sp, #20
 8002f0e:	af00      	add	r7, sp, #0
 8002f10:	6078      	str	r0, [r7, #4]
  const uint16_t *tmp;

  /* Check that a Tx process is ongoing */
  if (huart->gState == HAL_UART_STATE_BUSY_TX)
 8002f12:	687b      	ldr	r3, [r7, #4]
 8002f14:	f893 303d 	ldrb.w	r3, [r3, #61]	; 0x3d
 8002f18:	b2db      	uxtb	r3, r3
 8002f1a:	2b21      	cmp	r3, #33	; 0x21
 8002f1c:	d13e      	bne.n	8002f9c <UART_Transmit_IT+0x92>
  {
    if ((huart->Init.WordLength == UART_WORDLENGTH_9B) && (huart->Init.Parity == UART_PARITY_NONE))
 8002f1e:	687b      	ldr	r3, [r7, #4]
 8002f20:	689b      	ldr	r3, [r3, #8]
 8002f22:	f5b3 5f80 	cmp.w	r3, #4096	; 0x1000
 8002f26:	d114      	bne.n	8002f52 <UART_Transmit_IT+0x48>
 8002f28:	687b      	ldr	r3, [r7, #4]
 8002f2a:	691b      	ldr	r3, [r3, #16]
 8002f2c:	2b00      	cmp	r3, #0
 8002f2e:	d110      	bne.n	8002f52 <UART_Transmit_IT+0x48>
    {
      tmp = (const uint16_t *) huart->pTxBuffPtr;
 8002f30:	687b      	ldr	r3, [r7, #4]
 8002f32:	6a1b      	ldr	r3, [r3, #32]
 8002f34:	60fb      	str	r3, [r7, #12]
      huart->Instance->DR = (uint16_t)(*tmp & (uint16_t)0x01FF);
 8002f36:	68fb      	ldr	r3, [r7, #12]
 8002f38:	881b      	ldrh	r3, [r3, #0]
 8002f3a:	461a      	mov	r2, r3
 8002f3c:	687b      	ldr	r3, [r7, #4]
 8002f3e:	681b      	ldr	r3, [r3, #0]
 8002f40:	f3c2 0208 	ubfx	r2, r2, #0, #9
 8002f44:	605a      	str	r2, [r3, #4]
      huart->pTxBuffPtr += 2U;
 8002f46:	687b      	ldr	r3, [r7, #4]
 8002f48:	6a1b      	ldr	r3, [r3, #32]
 8002f4a:	1c9a      	adds	r2, r3, #2
 8002f4c:	687b      	ldr	r3, [r7, #4]
 8002f4e:	621a      	str	r2, [r3, #32]
 8002f50:	e008      	b.n	8002f64 <UART_Transmit_IT+0x5a>
    }
    else
    {
      huart->Instance->DR = (uint8_t)(*huart->pTxBuffPtr++ & (uint8_t)0x00FF);
 8002f52:	687b      	ldr	r3, [r7, #4]
 8002f54:	6a1b      	ldr	r3, [r3, #32]
 8002f56:	1c59      	adds	r1, r3, #1
 8002f58:	687a      	ldr	r2, [r7, #4]
 8002f5a:	6211      	str	r1, [r2, #32]
 8002f5c:	781a      	ldrb	r2, [r3, #0]
 8002f5e:	687b      	ldr	r3, [r7, #4]
 8002f60:	681b      	ldr	r3, [r3, #0]
 8002f62:	605a      	str	r2, [r3, #4]
    }

    if (--huart->TxXferCount == 0U)
 8002f64:	687b      	ldr	r3, [r7, #4]
 8002f66:	8cdb      	ldrh	r3, [r3, #38]	; 0x26
 8002f68:	b29b      	uxth	r3, r3
 8002f6a:	3b01      	subs	r3, #1
 8002f6c:	b29b      	uxth	r3, r3
 8002f6e:	687a      	ldr	r2, [r7, #4]
 8002f70:	4619      	mov	r1, r3
 8002f72:	84d1      	strh	r1, [r2, #38]	; 0x26
 8002f74:	2b00      	cmp	r3, #0
 8002f76:	d10f      	bne.n	8002f98 <UART_Transmit_IT+0x8e>
    {
      /* Disable the UART Transmit Data Register Empty Interrupt */
      __HAL_UART_DISABLE_IT(huart, UART_IT_TXE);
 8002f78:	687b      	ldr	r3, [r7, #4]
 8002f7a:	681b      	ldr	r3, [r3, #0]
 8002f7c:	68da      	ldr	r2, [r3, #12]
 8002f7e:	687b      	ldr	r3, [r7, #4]
 8002f80:	681b      	ldr	r3, [r3, #0]
 8002f82:	f022 0280 	bic.w	r2, r2, #128	; 0x80
 8002f86:	60da      	str	r2, [r3, #12]

      /* Enable the UART Transmit Complete Interrupt */
      __HAL_UART_ENABLE_IT(huart, UART_IT_TC);
 8002f88:	687b      	ldr	r3, [r7, #4]
 8002f8a:	681b      	ldr	r3, [r3, #0]
 8002f8c:	68da      	ldr	r2, [r3, #12]
 8002f8e:	687b      	ldr	r3, [r7, #4]
 8002f90:	681b      	ldr	r3, [r3, #0]
 8002f92:	f042 0240 	orr.w	r2, r2, #64	; 0x40
 8002f96:	60da      	str	r2, [r3, #12]
    }
    return HAL_OK;
 8002f98:	2300      	movs	r3, #0
 8002f9a:	e000      	b.n	8002f9e <UART_Transmit_IT+0x94>
  }
  else
  {
    return HAL_BUSY;
 8002f9c:	2302      	movs	r3, #2
  }
}
 8002f9e:	4618      	mov	r0, r3
 8002fa0:	3714      	adds	r7, #20
 8002fa2:	46bd      	mov	sp, r7
 8002fa4:	f85d 7b04 	ldr.w	r7, [sp], #4
 8002fa8:	4770      	bx	lr

08002faa <UART_EndTransmit_IT>:
  * @param  huart  Pointer to a UART_HandleTypeDef structure that contains
  *                the configuration information for the specified UART module.
  * @retval HAL status
  */
static HAL_StatusTypeDef UART_EndTransmit_IT(UART_HandleTypeDef *huart)
{
 8002faa:	b580      	push	{r7, lr}
 8002fac:	b082      	sub	sp, #8
 8002fae:	af00      	add	r7, sp, #0
 8002fb0:	6078      	str	r0, [r7, #4]
  /* Disable the UART Transmit Complete Interrupt */
  __HAL_UART_DISABLE_IT(huart, UART_IT_TC);
 8002fb2:	687b      	ldr	r3, [r7, #4]
 8002fb4:	681b      	ldr	r3, [r3, #0]
 8002fb6:	68da      	ldr	r2, [r3, #12]
 8002fb8:	687b      	ldr	r3, [r7, #4]
 8002fba:	681b      	ldr	r3, [r3, #0]
 8002fbc:	f022 0240 	bic.w	r2, r2, #64	; 0x40
 8002fc0:	60da      	str	r2, [r3, #12]

  /* Tx process is ended, restore huart->gState to Ready */
  huart->gState = HAL_UART_STATE_READY;
 8002fc2:	687b      	ldr	r3, [r7, #4]
 8002fc4:	2220      	movs	r2, #32
 8002fc6:	f883 203d 	strb.w	r2, [r3, #61]	; 0x3d
#if (USE_HAL_UART_REGISTER_CALLBACKS == 1)
  /*Call registered Tx complete callback*/
  huart->TxCpltCallback(huart);
#else
  /*Call legacy weak Tx complete callback*/
  HAL_UART_TxCpltCallback(huart);
 8002fca:	6878      	ldr	r0, [r7, #4]
 8002fcc:	f7ff fe5a 	bl	8002c84 <HAL_UART_TxCpltCallback>
#endif /* USE_HAL_UART_REGISTER_CALLBACKS */

  return HAL_OK;
 8002fd0:	2300      	movs	r3, #0
}
 8002fd2:	4618      	mov	r0, r3
 8002fd4:	3708      	adds	r7, #8
 8002fd6:	46bd      	mov	sp, r7
 8002fd8:	bd80      	pop	{r7, pc}

08002fda <UART_Receive_IT>:
  * @param  huart  Pointer to a UART_HandleTypeDef structure that contains
  *                the configuration information for the specified UART module.
  * @retval HAL status
  */
static HAL_StatusTypeDef UART_Receive_IT(UART_HandleTypeDef *huart)
{
 8002fda:	b580      	push	{r7, lr}
 8002fdc:	b08c      	sub	sp, #48	; 0x30
 8002fde:	af00      	add	r7, sp, #0
 8002fe0:	6078      	str	r0, [r7, #4]
  uint8_t  *pdata8bits;
  uint16_t *pdata16bits;

  /* Check that a Rx process is ongoing */
  if (huart->RxState == HAL_UART_STATE_BUSY_RX)
 8002fe2:	687b      	ldr	r3, [r7, #4]
 8002fe4:	f893 303e 	ldrb.w	r3, [r3, #62]	; 0x3e
 8002fe8:	b2db      	uxtb	r3, r3
 8002fea:	2b22      	cmp	r3, #34	; 0x22
 8002fec:	f040 80ab 	bne.w	8003146 <UART_Receive_IT+0x16c>
  {
    if ((huart->Init.WordLength == UART_WORDLENGTH_9B) && (huart->Init.Parity == UART_PARITY_NONE))
 8002ff0:	687b      	ldr	r3, [r7, #4]
 8002ff2:	689b      	ldr	r3, [r3, #8]
 8002ff4:	f5b3 5f80 	cmp.w	r3, #4096	; 0x1000
 8002ff8:	d117      	bne.n	800302a <UART_Receive_IT+0x50>
 8002ffa:	687b      	ldr	r3, [r7, #4]
 8002ffc:	691b      	ldr	r3, [r3, #16]
 8002ffe:	2b00      	cmp	r3, #0
 8003000:	d113      	bne.n	800302a <UART_Receive_IT+0x50>
    {
      pdata8bits  = NULL;
 8003002:	2300      	movs	r3, #0
 8003004:	62fb      	str	r3, [r7, #44]	; 0x2c
      pdata16bits = (uint16_t *) huart->pRxBuffPtr;
 8003006:	687b      	ldr	r3, [r7, #4]
 8003008:	6a9b      	ldr	r3, [r3, #40]	; 0x28
 800300a:	62bb      	str	r3, [r7, #40]	; 0x28
      *pdata16bits = (uint16_t)(huart->Instance->DR & (uint16_t)0x01FF);
 800300c:	687b      	ldr	r3, [r7, #4]
 800300e:	681b      	ldr	r3, [r3, #0]
 8003010:	685b      	ldr	r3, [r3, #4]
 8003012:	b29b      	uxth	r3, r3
 8003014:	f3c3 0308 	ubfx	r3, r3, #0, #9
 8003018:	b29a      	uxth	r2, r3
 800301a:	6abb      	ldr	r3, [r7, #40]	; 0x28
 800301c:	801a      	strh	r2, [r3, #0]
      huart->pRxBuffPtr += 2U;
 800301e:	687b      	ldr	r3, [r7, #4]
 8003020:	6a9b      	ldr	r3, [r3, #40]	; 0x28
 8003022:	1c9a      	adds	r2, r3, #2
 8003024:	687b      	ldr	r3, [r7, #4]
 8003026:	629a      	str	r2, [r3, #40]	; 0x28
 8003028:	e026      	b.n	8003078 <UART_Receive_IT+0x9e>
    }
    else
    {
      pdata8bits = (uint8_t *) huart->pRxBuffPtr;
 800302a:	687b      	ldr	r3, [r7, #4]
 800302c:	6a9b      	ldr	r3, [r3, #40]	; 0x28
 800302e:	62fb      	str	r3, [r7, #44]	; 0x2c
      pdata16bits  = NULL;
 8003030:	2300      	movs	r3, #0
 8003032:	62bb      	str	r3, [r7, #40]	; 0x28

      if ((huart->Init.WordLength == UART_WORDLENGTH_9B) || ((huart->Init.WordLength == UART_WORDLENGTH_8B) && (huart->Init.Parity == UART_PARITY_NONE)))
 8003034:	687b      	ldr	r3, [r7, #4]
 8003036:	689b      	ldr	r3, [r3, #8]
 8003038:	f5b3 5f80 	cmp.w	r3, #4096	; 0x1000
 800303c:	d007      	beq.n	800304e <UART_Receive_IT+0x74>
 800303e:	687b      	ldr	r3, [r7, #4]
 8003040:	689b      	ldr	r3, [r3, #8]
 8003042:	2b00      	cmp	r3, #0
 8003044:	d10a      	bne.n	800305c <UART_Receive_IT+0x82>
 8003046:	687b      	ldr	r3, [r7, #4]
 8003048:	691b      	ldr	r3, [r3, #16]
 800304a:	2b00      	cmp	r3, #0
 800304c:	d106      	bne.n	800305c <UART_Receive_IT+0x82>
      {
        *pdata8bits = (uint8_t)(huart->Instance->DR & (uint8_t)0x00FF);
 800304e:	687b      	ldr	r3, [r7, #4]
 8003050:	681b      	ldr	r3, [r3, #0]
 8003052:	685b      	ldr	r3, [r3, #4]
 8003054:	b2da      	uxtb	r2, r3
 8003056:	6afb      	ldr	r3, [r7, #44]	; 0x2c
 8003058:	701a      	strb	r2, [r3, #0]
 800305a:	e008      	b.n	800306e <UART_Receive_IT+0x94>
      }
      else
      {
        *pdata8bits = (uint8_t)(huart->Instance->DR & (uint8_t)0x007F);
 800305c:	687b      	ldr	r3, [r7, #4]
 800305e:	681b      	ldr	r3, [r3, #0]
 8003060:	685b      	ldr	r3, [r3, #4]
 8003062:	b2db      	uxtb	r3, r3
 8003064:	f003 037f 	and.w	r3, r3, #127	; 0x7f
 8003068:	b2da      	uxtb	r2, r3
 800306a:	6afb      	ldr	r3, [r7, #44]	; 0x2c
 800306c:	701a      	strb	r2, [r3, #0]
      }
      huart->pRxBuffPtr += 1U;
 800306e:	687b      	ldr	r3, [r7, #4]
 8003070:	6a9b      	ldr	r3, [r3, #40]	; 0x28
 8003072:	1c5a      	adds	r2, r3, #1
 8003074:	687b      	ldr	r3, [r7, #4]
 8003076:	629a      	str	r2, [r3, #40]	; 0x28
    }

    if (--huart->RxXferCount == 0U)
 8003078:	687b      	ldr	r3, [r7, #4]
 800307a:	8ddb      	ldrh	r3, [r3, #46]	; 0x2e
 800307c:	b29b      	uxth	r3, r3
 800307e:	3b01      	subs	r3, #1
 8003080:	b29b      	uxth	r3, r3
 8003082:	687a      	ldr	r2, [r7, #4]
 8003084:	4619      	mov	r1, r3
 8003086:	85d1      	strh	r1, [r2, #46]	; 0x2e
 8003088:	2b00      	cmp	r3, #0
 800308a:	d15a      	bne.n	8003142 <UART_Receive_IT+0x168>
    {
      /* Disable the UART Data Register not empty Interrupt */
      __HAL_UART_DISABLE_IT(huart, UART_IT_RXNE);
 800308c:	687b      	ldr	r3, [r7, #4]
 800308e:	681b      	ldr	r3, [r3, #0]
 8003090:	68da      	ldr	r2, [r3, #12]
 8003092:	687b      	ldr	r3, [r7, #4]
 8003094:	681b      	ldr	r3, [r3, #0]
 8003096:	f022 0220 	bic.w	r2, r2, #32
 800309a:	60da      	str	r2, [r3, #12]

      /* Disable the UART Parity Error Interrupt */
      __HAL_UART_DISABLE_IT(huart, UART_IT_PE);
 800309c:	687b      	ldr	r3, [r7, #4]
 800309e:	681b      	ldr	r3, [r3, #0]
 80030a0:	68da      	ldr	r2, [r3, #12]
 80030a2:	687b      	ldr	r3, [r7, #4]
 80030a4:	681b      	ldr	r3, [r3, #0]
 80030a6:	f422 7280 	bic.w	r2, r2, #256	; 0x100
 80030aa:	60da      	str	r2, [r3, #12]

      /* Disable the UART Error Interrupt: (Frame error, noise error, overrun error) */
      __HAL_UART_DISABLE_IT(huart, UART_IT_ERR);
 80030ac:	687b      	ldr	r3, [r7, #4]
 80030ae:	681b      	ldr	r3, [r3, #0]
 80030b0:	695a      	ldr	r2, [r3, #20]
 80030b2:	687b      	ldr	r3, [r7, #4]
 80030b4:	681b      	ldr	r3, [r3, #0]
 80030b6:	f022 0201 	bic.w	r2, r2, #1
 80030ba:	615a      	str	r2, [r3, #20]

      /* Rx process is completed, restore huart->RxState to Ready */
      huart->RxState = HAL_UART_STATE_READY;
 80030bc:	687b      	ldr	r3, [r7, #4]
 80030be:	2220      	movs	r2, #32
 80030c0:	f883 203e 	strb.w	r2, [r3, #62]	; 0x3e

      /* Check current reception Mode :
         If Reception till IDLE event has been selected : */
      if (huart->ReceptionType == HAL_UART_RECEPTION_TOIDLE)
 80030c4:	687b      	ldr	r3, [r7, #4]
 80030c6:	6b1b      	ldr	r3, [r3, #48]	; 0x30
 80030c8:	2b01      	cmp	r3, #1
 80030ca:	d135      	bne.n	8003138 <UART_Receive_IT+0x15e>
      {
        /* Set reception type to Standard */
        huart->ReceptionType = HAL_UART_RECEPTION_STANDARD;
 80030cc:	687b      	ldr	r3, [r7, #4]
 80030ce:	2200      	movs	r2, #0
 80030d0:	631a      	str	r2, [r3, #48]	; 0x30

        /* Disable IDLE interrupt */
        ATOMIC_CLEAR_BIT(huart->Instance->CR1, USART_CR1_IDLEIE);
 80030d2:	687b      	ldr	r3, [r7, #4]
 80030d4:	681b      	ldr	r3, [r3, #0]
 80030d6:	330c      	adds	r3, #12
 80030d8:	617b      	str	r3, [r7, #20]
   __ASM volatile ("ldrex %0, %1" : "=r" (result) : "Q" (*addr) );
 80030da:	697b      	ldr	r3, [r7, #20]
 80030dc:	e853 3f00 	ldrex	r3, [r3]
 80030e0:	613b      	str	r3, [r7, #16]
   return(result);
 80030e2:	693b      	ldr	r3, [r7, #16]
 80030e4:	f023 0310 	bic.w	r3, r3, #16
 80030e8:	627b      	str	r3, [r7, #36]	; 0x24
 80030ea:	687b      	ldr	r3, [r7, #4]
 80030ec:	681b      	ldr	r3, [r3, #0]
 80030ee:	330c      	adds	r3, #12
 80030f0:	6a7a      	ldr	r2, [r7, #36]	; 0x24
 80030f2:	623a      	str	r2, [r7, #32]
 80030f4:	61fb      	str	r3, [r7, #28]
   __ASM volatile ("strex %0, %2, %1" : "=&r" (result), "=Q" (*addr) : "r" (value) );
 80030f6:	69f9      	ldr	r1, [r7, #28]
 80030f8:	6a3a      	ldr	r2, [r7, #32]
 80030fa:	e841 2300 	strex	r3, r2, [r1]
 80030fe:	61bb      	str	r3, [r7, #24]
   return(result);
 8003100:	69bb      	ldr	r3, [r7, #24]
 8003102:	2b00      	cmp	r3, #0
 8003104:	d1e5      	bne.n	80030d2 <UART_Receive_IT+0xf8>

        /* Check if IDLE flag is set */
        if (__HAL_UART_GET_FLAG(huart, UART_FLAG_IDLE))
 8003106:	687b      	ldr	r3, [r7, #4]
 8003108:	681b      	ldr	r3, [r3, #0]
 800310a:	681b      	ldr	r3, [r3, #0]
 800310c:	f003 0310 	and.w	r3, r3, #16
 8003110:	2b10      	cmp	r3, #16
 8003112:	d10a      	bne.n	800312a <UART_Receive_IT+0x150>
        {
          /* Clear IDLE flag in ISR */
          __HAL_UART_CLEAR_IDLEFLAG(huart);
 8003114:	2300      	movs	r3, #0
 8003116:	60fb      	str	r3, [r7, #12]
 8003118:	687b      	ldr	r3, [r7, #4]
 800311a:	681b      	ldr	r3, [r3, #0]
 800311c:	681b      	ldr	r3, [r3, #0]
 800311e:	60fb      	str	r3, [r7, #12]
 8003120:	687b      	ldr	r3, [r7, #4]
 8003122:	681b      	ldr	r3, [r3, #0]
 8003124:	685b      	ldr	r3, [r3, #4]
 8003126:	60fb      	str	r3, [r7, #12]
 8003128:	68fb      	ldr	r3, [r7, #12]
#if (USE_HAL_UART_REGISTER_CALLBACKS == 1)
        /*Call registered Rx Event callback*/
        huart->RxEventCallback(huart, huart->RxXferSize);
#else
        /*Call legacy weak Rx Event callback*/
        HAL_UARTEx_RxEventCallback(huart, huart->RxXferSize);
 800312a:	687b      	ldr	r3, [r7, #4]
 800312c:	8d9b      	ldrh	r3, [r3, #44]	; 0x2c
 800312e:	4619      	mov	r1, r3
 8003130:	6878      	ldr	r0, [r7, #4]
 8003132:	f7ff fdbb 	bl	8002cac <HAL_UARTEx_RxEventCallback>
 8003136:	e002      	b.n	800313e <UART_Receive_IT+0x164>
#if (USE_HAL_UART_REGISTER_CALLBACKS == 1)
        /*Call registered Rx complete callback*/
        huart->RxCpltCallback(huart);
#else
        /*Call legacy weak Rx complete callback*/
        HAL_UART_RxCpltCallback(huart);
 8003138:	6878      	ldr	r0, [r7, #4]
 800313a:	f7fd feb5 	bl	8000ea8 <HAL_UART_RxCpltCallback>
#endif /* USE_HAL_UART_REGISTER_CALLBACKS */
      }

      return HAL_OK;
 800313e:	2300      	movs	r3, #0
 8003140:	e002      	b.n	8003148 <UART_Receive_IT+0x16e>
    }
    return HAL_OK;
 8003142:	2300      	movs	r3, #0
 8003144:	e000      	b.n	8003148 <UART_Receive_IT+0x16e>
  }
  else
  {
    return HAL_BUSY;
 8003146:	2302      	movs	r3, #2
  }
}
 8003148:	4618      	mov	r0, r3
 800314a:	3730      	adds	r7, #48	; 0x30
 800314c:	46bd      	mov	sp, r7
 800314e:	bd80      	pop	{r7, pc}

08003150 <UART_SetConfig>:
  * @param  huart  Pointer to a UART_HandleTypeDef structure that contains
  *                the configuration information for the specified UART module.
  * @retval None
  */
static void UART_SetConfig(UART_HandleTypeDef *huart)
{
 8003150:	e92d 4fb0 	stmdb	sp!, {r4, r5, r7, r8, r9, sl, fp, lr}
 8003154:	b0c0      	sub	sp, #256	; 0x100
 8003156:	af00      	add	r7, sp, #0
 8003158:	f8c7 00f4 	str.w	r0, [r7, #244]	; 0xf4
  assert_param(IS_UART_MODE(huart->Init.Mode));

  /*-------------------------- USART CR2 Configuration -----------------------*/
  /* Configure the UART Stop Bits: Set STOP[13:12] bits
     according to huart->Init.StopBits value */
  MODIFY_REG(huart->Instance->CR2, USART_CR2_STOP, huart->Init.StopBits);
 800315c:	f8d7 30f4 	ldr.w	r3, [r7, #244]	; 0xf4
 8003160:	681b      	ldr	r3, [r3, #0]
 8003162:	691b      	ldr	r3, [r3, #16]
 8003164:	f423 5040 	bic.w	r0, r3, #12288	; 0x3000
 8003168:	f8d7 30f4 	ldr.w	r3, [r7, #244]	; 0xf4
 800316c:	68d9      	ldr	r1, [r3, #12]
 800316e:	f8d7 30f4 	ldr.w	r3, [r7, #244]	; 0xf4
 8003172:	681a      	ldr	r2, [r3, #0]
 8003174:	ea40 0301 	orr.w	r3, r0, r1
 8003178:	6113      	str	r3, [r2, #16]
     Set the M bits according to huart->Init.WordLength value
     Set PCE and PS bits according to huart->Init.Parity value
     Set TE and RE bits according to huart->Init.Mode value
     Set OVER8 bit according to huart->Init.OverSampling value */

  tmpreg = (uint32_t)huart->Init.WordLength | huart->Init.Parity | huart->Init.Mode | huart->Init.OverSampling;
 800317a:	f8d7 30f4 	ldr.w	r3, [r7, #244]	; 0xf4
 800317e:	689a      	ldr	r2, [r3, #8]
 8003180:	f8d7 30f4 	ldr.w	r3, [r7, #244]	; 0xf4
 8003184:	691b      	ldr	r3, [r3, #16]
 8003186:	431a      	orrs	r2, r3
 8003188:	f8d7 30f4 	ldr.w	r3, [r7, #244]	; 0xf4
 800318c:	695b      	ldr	r3, [r3, #20]
 800318e:	431a      	orrs	r2, r3
 8003190:	f8d7 30f4 	ldr.w	r3, [r7, #244]	; 0xf4
 8003194:	69db      	ldr	r3, [r3, #28]
 8003196:	4313      	orrs	r3, r2
 8003198:	f8c7 30f8 	str.w	r3, [r7, #248]	; 0xf8
  MODIFY_REG(huart->Instance->CR1,
 800319c:	f8d7 30f4 	ldr.w	r3, [r7, #244]	; 0xf4
 80031a0:	681b      	ldr	r3, [r3, #0]
 80031a2:	68db      	ldr	r3, [r3, #12]
 80031a4:	f423 4116 	bic.w	r1, r3, #38400	; 0x9600
 80031a8:	f021 010c 	bic.w	r1, r1, #12
 80031ac:	f8d7 30f4 	ldr.w	r3, [r7, #244]	; 0xf4
 80031b0:	681a      	ldr	r2, [r3, #0]
 80031b2:	f8d7 30f8 	ldr.w	r3, [r7, #248]	; 0xf8
 80031b6:	430b      	orrs	r3, r1
 80031b8:	60d3      	str	r3, [r2, #12]
             (uint32_t)(USART_CR1_M | USART_CR1_PCE | USART_CR1_PS | USART_CR1_TE | USART_CR1_RE | USART_CR1_OVER8),
             tmpreg);

  /*-------------------------- USART CR3 Configuration -----------------------*/
  /* Configure the UART HFC: Set CTSE and RTSE bits according to huart->Init.HwFlowCtl value */
  MODIFY_REG(huart->Instance->CR3, (USART_CR3_RTSE | USART_CR3_CTSE), huart->Init.HwFlowCtl);
 80031ba:	f8d7 30f4 	ldr.w	r3, [r7, #244]	; 0xf4
 80031be:	681b      	ldr	r3, [r3, #0]
 80031c0:	695b      	ldr	r3, [r3, #20]
 80031c2:	f423 7040 	bic.w	r0, r3, #768	; 0x300
 80031c6:	f8d7 30f4 	ldr.w	r3, [r7, #244]	; 0xf4
 80031ca:	6999      	ldr	r1, [r3, #24]
 80031cc:	f8d7 30f4 	ldr.w	r3, [r7, #244]	; 0xf4
 80031d0:	681a      	ldr	r2, [r3, #0]
 80031d2:	ea40 0301 	orr.w	r3, r0, r1
 80031d6:	6153      	str	r3, [r2, #20]
    if ((huart->Instance == USART1) || (huart->Instance == USART6) || (huart->Instance == UART9) || (huart->Instance == UART10))
    {
      pclk = HAL_RCC_GetPCLK2Freq();
    }
#elif defined(USART6)
    if ((huart->Instance == USART1) || (huart->Instance == USART6))
 80031d8:	f8d7 30f4 	ldr.w	r3, [r7, #244]	; 0xf4
 80031dc:	681a      	ldr	r2, [r3, #0]
 80031de:	4b8f      	ldr	r3, [pc, #572]	; (800341c <UART_SetConfig+0x2cc>)
 80031e0:	429a      	cmp	r2, r3
 80031e2:	d005      	beq.n	80031f0 <UART_SetConfig+0xa0>
 80031e4:	f8d7 30f4 	ldr.w	r3, [r7, #244]	; 0xf4
 80031e8:	681a      	ldr	r2, [r3, #0]
 80031ea:	4b8d      	ldr	r3, [pc, #564]	; (8003420 <UART_SetConfig+0x2d0>)
 80031ec:	429a      	cmp	r2, r3
 80031ee:	d104      	bne.n	80031fa <UART_SetConfig+0xaa>
    {
      pclk = HAL_RCC_GetPCLK2Freq();
 80031f0:	f7ff f996 	bl	8002520 <HAL_RCC_GetPCLK2Freq>
 80031f4:	f8c7 00fc 	str.w	r0, [r7, #252]	; 0xfc
 80031f8:	e003      	b.n	8003202 <UART_SetConfig+0xb2>
      pclk = HAL_RCC_GetPCLK2Freq();
    }
#endif /* USART6 */
    else
    {
      pclk = HAL_RCC_GetPCLK1Freq();
 80031fa:	f7ff f97d 	bl	80024f8 <HAL_RCC_GetPCLK1Freq>
 80031fe:	f8c7 00fc 	str.w	r0, [r7, #252]	; 0xfc
    }
  /*-------------------------- USART BRR Configuration ---------------------*/
  if (huart->Init.OverSampling == UART_OVERSAMPLING_8)
 8003202:	f8d7 30f4 	ldr.w	r3, [r7, #244]	; 0xf4
 8003206:	69db      	ldr	r3, [r3, #28]
 8003208:	f5b3 4f00 	cmp.w	r3, #32768	; 0x8000
 800320c:	f040 810c 	bne.w	8003428 <UART_SetConfig+0x2d8>
  {
    huart->Instance->BRR = UART_BRR_SAMPLING8(pclk, huart->Init.BaudRate);
 8003210:	f8d7 30fc 	ldr.w	r3, [r7, #252]	; 0xfc
 8003214:	2200      	movs	r2, #0
 8003216:	f8c7 30e8 	str.w	r3, [r7, #232]	; 0xe8
 800321a:	f8c7 20ec 	str.w	r2, [r7, #236]	; 0xec
 800321e:	e9d7 453a 	ldrd	r4, r5, [r7, #232]	; 0xe8
 8003222:	4622      	mov	r2, r4
 8003224:	462b      	mov	r3, r5
 8003226:	1891      	adds	r1, r2, r2
 8003228:	65b9      	str	r1, [r7, #88]	; 0x58
 800322a:	415b      	adcs	r3, r3
 800322c:	65fb      	str	r3, [r7, #92]	; 0x5c
 800322e:	e9d7 2316 	ldrd	r2, r3, [r7, #88]	; 0x58
 8003232:	4621      	mov	r1, r4
 8003234:	eb12 0801 	adds.w	r8, r2, r1
 8003238:	4629      	mov	r1, r5
 800323a:	eb43 0901 	adc.w	r9, r3, r1
 800323e:	f04f 0200 	mov.w	r2, #0
 8003242:	f04f 0300 	mov.w	r3, #0
 8003246:	ea4f 03c9 	mov.w	r3, r9, lsl #3
 800324a:	ea43 7358 	orr.w	r3, r3, r8, lsr #29
 800324e:	ea4f 02c8 	mov.w	r2, r8, lsl #3
 8003252:	4690      	mov	r8, r2
 8003254:	4699      	mov	r9, r3
 8003256:	4623      	mov	r3, r4
 8003258:	eb18 0303 	adds.w	r3, r8, r3
 800325c:	f8c7 30e0 	str.w	r3, [r7, #224]	; 0xe0
 8003260:	462b      	mov	r3, r5
 8003262:	eb49 0303 	adc.w	r3, r9, r3
 8003266:	f8c7 30e4 	str.w	r3, [r7, #228]	; 0xe4
 800326a:	f8d7 30f4 	ldr.w	r3, [r7, #244]	; 0xf4
 800326e:	685b      	ldr	r3, [r3, #4]
 8003270:	2200      	movs	r2, #0
 8003272:	f8c7 30d8 	str.w	r3, [r7, #216]	; 0xd8
 8003276:	f8c7 20dc 	str.w	r2, [r7, #220]	; 0xdc
 800327a:	e9d7 1236 	ldrd	r1, r2, [r7, #216]	; 0xd8
 800327e:	460b      	mov	r3, r1
 8003280:	18db      	adds	r3, r3, r3
 8003282:	653b      	str	r3, [r7, #80]	; 0x50
 8003284:	4613      	mov	r3, r2
 8003286:	eb42 0303 	adc.w	r3, r2, r3
 800328a:	657b      	str	r3, [r7, #84]	; 0x54
 800328c:	e9d7 2314 	ldrd	r2, r3, [r7, #80]	; 0x50
 8003290:	e9d7 0138 	ldrd	r0, r1, [r7, #224]	; 0xe0
 8003294:	f7fd f95c 	bl	8000550 <__aeabi_uldivmod>
 8003298:	4602      	mov	r2, r0
 800329a:	460b      	mov	r3, r1
 800329c:	4b61      	ldr	r3, [pc, #388]	; (8003424 <UART_SetConfig+0x2d4>)
 800329e:	fba3 2302 	umull	r2, r3, r3, r2
 80032a2:	095b      	lsrs	r3, r3, #5
 80032a4:	011c      	lsls	r4, r3, #4
 80032a6:	f8d7 30fc 	ldr.w	r3, [r7, #252]	; 0xfc
 80032aa:	2200      	movs	r2, #0
 80032ac:	f8c7 30d0 	str.w	r3, [r7, #208]	; 0xd0
 80032b0:	f8c7 20d4 	str.w	r2, [r7, #212]	; 0xd4
 80032b4:	e9d7 8934 	ldrd	r8, r9, [r7, #208]	; 0xd0
 80032b8:	4642      	mov	r2, r8
 80032ba:	464b      	mov	r3, r9
 80032bc:	1891      	adds	r1, r2, r2
 80032be:	64b9      	str	r1, [r7, #72]	; 0x48
 80032c0:	415b      	adcs	r3, r3
 80032c2:	64fb      	str	r3, [r7, #76]	; 0x4c
 80032c4:	e9d7 2312 	ldrd	r2, r3, [r7, #72]	; 0x48
 80032c8:	4641      	mov	r1, r8
 80032ca:	eb12 0a01 	adds.w	sl, r2, r1
 80032ce:	4649      	mov	r1, r9
 80032d0:	eb43 0b01 	adc.w	fp, r3, r1
 80032d4:	f04f 0200 	mov.w	r2, #0
 80032d8:	f04f 0300 	mov.w	r3, #0
 80032dc:	ea4f 03cb 	mov.w	r3, fp, lsl #3
 80032e0:	ea43 735a 	orr.w	r3, r3, sl, lsr #29
 80032e4:	ea4f 02ca 	mov.w	r2, sl, lsl #3
 80032e8:	4692      	mov	sl, r2
 80032ea:	469b      	mov	fp, r3
 80032ec:	4643      	mov	r3, r8
 80032ee:	eb1a 0303 	adds.w	r3, sl, r3
 80032f2:	f8c7 30c8 	str.w	r3, [r7, #200]	; 0xc8
 80032f6:	464b      	mov	r3, r9
 80032f8:	eb4b 0303 	adc.w	r3, fp, r3
 80032fc:	f8c7 30cc 	str.w	r3, [r7, #204]	; 0xcc
 8003300:	f8d7 30f4 	ldr.w	r3, [r7, #244]	; 0xf4
 8003304:	685b      	ldr	r3, [r3, #4]
 8003306:	2200      	movs	r2, #0
 8003308:	f8c7 30c0 	str.w	r3, [r7, #192]	; 0xc0
 800330c:	f8c7 20c4 	str.w	r2, [r7, #196]	; 0xc4
 8003310:	e9d7 1230 	ldrd	r1, r2, [r7, #192]	; 0xc0
 8003314:	460b      	mov	r3, r1
 8003316:	18db      	adds	r3, r3, r3
 8003318:	643b      	str	r3, [r7, #64]	; 0x40
 800331a:	4613      	mov	r3, r2
 800331c:	eb42 0303 	adc.w	r3, r2, r3
 8003320:	647b      	str	r3, [r7, #68]	; 0x44
 8003322:	e9d7 2310 	ldrd	r2, r3, [r7, #64]	; 0x40
 8003326:	e9d7 0132 	ldrd	r0, r1, [r7, #200]	; 0xc8
 800332a:	f7fd f911 	bl	8000550 <__aeabi_uldivmod>
 800332e:	4602      	mov	r2, r0
 8003330:	460b      	mov	r3, r1
 8003332:	4611      	mov	r1, r2
 8003334:	4b3b      	ldr	r3, [pc, #236]	; (8003424 <UART_SetConfig+0x2d4>)
 8003336:	fba3 2301 	umull	r2, r3, r3, r1
 800333a:	095b      	lsrs	r3, r3, #5
 800333c:	2264      	movs	r2, #100	; 0x64
 800333e:	fb02 f303 	mul.w	r3, r2, r3
 8003342:	1acb      	subs	r3, r1, r3
 8003344:	00db      	lsls	r3, r3, #3
 8003346:	f103 0232 	add.w	r2, r3, #50	; 0x32
 800334a:	4b36      	ldr	r3, [pc, #216]	; (8003424 <UART_SetConfig+0x2d4>)
 800334c:	fba3 2302 	umull	r2, r3, r3, r2
 8003350:	095b      	lsrs	r3, r3, #5
 8003352:	005b      	lsls	r3, r3, #1
 8003354:	f403 73f8 	and.w	r3, r3, #496	; 0x1f0
 8003358:	441c      	add	r4, r3
 800335a:	f8d7 30fc 	ldr.w	r3, [r7, #252]	; 0xfc
 800335e:	2200      	movs	r2, #0
 8003360:	f8c7 30b8 	str.w	r3, [r7, #184]	; 0xb8
 8003364:	f8c7 20bc 	str.w	r2, [r7, #188]	; 0xbc
 8003368:	e9d7 892e 	ldrd	r8, r9, [r7, #184]	; 0xb8
 800336c:	4642      	mov	r2, r8
 800336e:	464b      	mov	r3, r9
 8003370:	1891      	adds	r1, r2, r2
 8003372:	63b9      	str	r1, [r7, #56]	; 0x38
 8003374:	415b      	adcs	r3, r3
 8003376:	63fb      	str	r3, [r7, #60]	; 0x3c
 8003378:	e9d7 230e 	ldrd	r2, r3, [r7, #56]	; 0x38
 800337c:	4641      	mov	r1, r8
 800337e:	1851      	adds	r1, r2, r1
 8003380:	6339      	str	r1, [r7, #48]	; 0x30
 8003382:	4649      	mov	r1, r9
 8003384:	414b      	adcs	r3, r1
 8003386:	637b      	str	r3, [r7, #52]	; 0x34
 8003388:	f04f 0200 	mov.w	r2, #0
 800338c:	f04f 0300 	mov.w	r3, #0
 8003390:	e9d7 ab0c 	ldrd	sl, fp, [r7, #48]	; 0x30
 8003394:	4659      	mov	r1, fp
 8003396:	00cb      	lsls	r3, r1, #3
 8003398:	4651      	mov	r1, sl
 800339a:	ea43 7351 	orr.w	r3, r3, r1, lsr #29
 800339e:	4651      	mov	r1, sl
 80033a0:	00ca      	lsls	r2, r1, #3
 80033a2:	4610      	mov	r0, r2
 80033a4:	4619      	mov	r1, r3
 80033a6:	4603      	mov	r3, r0
 80033a8:	4642      	mov	r2, r8
 80033aa:	189b      	adds	r3, r3, r2
 80033ac:	f8c7 30b0 	str.w	r3, [r7, #176]	; 0xb0
 80033b0:	464b      	mov	r3, r9
 80033b2:	460a      	mov	r2, r1
 80033b4:	eb42 0303 	adc.w	r3, r2, r3
 80033b8:	f8c7 30b4 	str.w	r3, [r7, #180]	; 0xb4
 80033bc:	f8d7 30f4 	ldr.w	r3, [r7, #244]	; 0xf4
 80033c0:	685b      	ldr	r3, [r3, #4]
 80033c2:	2200      	movs	r2, #0
 80033c4:	f8c7 30a8 	str.w	r3, [r7, #168]	; 0xa8
 80033c8:	f8c7 20ac 	str.w	r2, [r7, #172]	; 0xac
 80033cc:	e9d7 122a 	ldrd	r1, r2, [r7, #168]	; 0xa8
 80033d0:	460b      	mov	r3, r1
 80033d2:	18db      	adds	r3, r3, r3
 80033d4:	62bb      	str	r3, [r7, #40]	; 0x28
 80033d6:	4613      	mov	r3, r2
 80033d8:	eb42 0303 	adc.w	r3, r2, r3
 80033dc:	62fb      	str	r3, [r7, #44]	; 0x2c
 80033de:	e9d7 230a 	ldrd	r2, r3, [r7, #40]	; 0x28
 80033e2:	e9d7 012c 	ldrd	r0, r1, [r7, #176]	; 0xb0
 80033e6:	f7fd f8b3 	bl	8000550 <__aeabi_uldivmod>
 80033ea:	4602      	mov	r2, r0
 80033ec:	460b      	mov	r3, r1
 80033ee:	4b0d      	ldr	r3, [pc, #52]	; (8003424 <UART_SetConfig+0x2d4>)
 80033f0:	fba3 1302 	umull	r1, r3, r3, r2
 80033f4:	095b      	lsrs	r3, r3, #5
 80033f6:	2164      	movs	r1, #100	; 0x64
 80033f8:	fb01 f303 	mul.w	r3, r1, r3
 80033fc:	1ad3      	subs	r3, r2, r3
 80033fe:	00db      	lsls	r3, r3, #3
 8003400:	3332      	adds	r3, #50	; 0x32
 8003402:	4a08      	ldr	r2, [pc, #32]	; (8003424 <UART_SetConfig+0x2d4>)
 8003404:	fba2 2303 	umull	r2, r3, r2, r3
 8003408:	095b      	lsrs	r3, r3, #5
 800340a:	f003 0207 	and.w	r2, r3, #7
 800340e:	f8d7 30f4 	ldr.w	r3, [r7, #244]	; 0xf4
 8003412:	681b      	ldr	r3, [r3, #0]
 8003414:	4422      	add	r2, r4
 8003416:	609a      	str	r2, [r3, #8]
  }
  else
  {
    huart->Instance->BRR = UART_BRR_SAMPLING16(pclk, huart->Init.BaudRate);
  }
}
 8003418:	e106      	b.n	8003628 <UART_SetConfig+0x4d8>
 800341a:	bf00      	nop
 800341c:	40011000 	.word	0x40011000
 8003420:	40011400 	.word	0x40011400
 8003424:	51eb851f 	.word	0x51eb851f
    huart->Instance->BRR = UART_BRR_SAMPLING16(pclk, huart->Init.BaudRate);
 8003428:	f8d7 30fc 	ldr.w	r3, [r7, #252]	; 0xfc
 800342c:	2200      	movs	r2, #0
 800342e:	f8c7 30a0 	str.w	r3, [r7, #160]	; 0xa0
 8003432:	f8c7 20a4 	str.w	r2, [r7, #164]	; 0xa4
 8003436:	e9d7 8928 	ldrd	r8, r9, [r7, #160]	; 0xa0
 800343a:	4642      	mov	r2, r8
 800343c:	464b      	mov	r3, r9
 800343e:	1891      	adds	r1, r2, r2
 8003440:	6239      	str	r1, [r7, #32]
 8003442:	415b      	adcs	r3, r3
 8003444:	627b      	str	r3, [r7, #36]	; 0x24
 8003446:	e9d7 2308 	ldrd	r2, r3, [r7, #32]
 800344a:	4641      	mov	r1, r8
 800344c:	1854      	adds	r4, r2, r1
 800344e:	4649      	mov	r1, r9
 8003450:	eb43 0501 	adc.w	r5, r3, r1
 8003454:	f04f 0200 	mov.w	r2, #0
 8003458:	f04f 0300 	mov.w	r3, #0
 800345c:	00eb      	lsls	r3, r5, #3
 800345e:	ea43 7354 	orr.w	r3, r3, r4, lsr #29
 8003462:	00e2      	lsls	r2, r4, #3
 8003464:	4614      	mov	r4, r2
 8003466:	461d      	mov	r5, r3
 8003468:	4643      	mov	r3, r8
 800346a:	18e3      	adds	r3, r4, r3
 800346c:	f8c7 3098 	str.w	r3, [r7, #152]	; 0x98
 8003470:	464b      	mov	r3, r9
 8003472:	eb45 0303 	adc.w	r3, r5, r3
 8003476:	f8c7 309c 	str.w	r3, [r7, #156]	; 0x9c
 800347a:	f8d7 30f4 	ldr.w	r3, [r7, #244]	; 0xf4
 800347e:	685b      	ldr	r3, [r3, #4]
 8003480:	2200      	movs	r2, #0
 8003482:	f8c7 3090 	str.w	r3, [r7, #144]	; 0x90
 8003486:	f8c7 2094 	str.w	r2, [r7, #148]	; 0x94
 800348a:	f04f 0200 	mov.w	r2, #0
 800348e:	f04f 0300 	mov.w	r3, #0
 8003492:	e9d7 4524 	ldrd	r4, r5, [r7, #144]	; 0x90
 8003496:	4629      	mov	r1, r5
 8003498:	008b      	lsls	r3, r1, #2
 800349a:	4621      	mov	r1, r4
 800349c:	ea43 7391 	orr.w	r3, r3, r1, lsr #30
 80034a0:	4621      	mov	r1, r4
 80034a2:	008a      	lsls	r2, r1, #2
 80034a4:	e9d7 0126 	ldrd	r0, r1, [r7, #152]	; 0x98
 80034a8:	f7fd f852 	bl	8000550 <__aeabi_uldivmod>
 80034ac:	4602      	mov	r2, r0
 80034ae:	460b      	mov	r3, r1
 80034b0:	4b60      	ldr	r3, [pc, #384]	; (8003634 <UART_SetConfig+0x4e4>)
 80034b2:	fba3 2302 	umull	r2, r3, r3, r2
 80034b6:	095b      	lsrs	r3, r3, #5
 80034b8:	011c      	lsls	r4, r3, #4
 80034ba:	f8d7 30fc 	ldr.w	r3, [r7, #252]	; 0xfc
 80034be:	2200      	movs	r2, #0
 80034c0:	f8c7 3088 	str.w	r3, [r7, #136]	; 0x88
 80034c4:	f8c7 208c 	str.w	r2, [r7, #140]	; 0x8c
 80034c8:	e9d7 8922 	ldrd	r8, r9, [r7, #136]	; 0x88
 80034cc:	4642      	mov	r2, r8
 80034ce:	464b      	mov	r3, r9
 80034d0:	1891      	adds	r1, r2, r2
 80034d2:	61b9      	str	r1, [r7, #24]
 80034d4:	415b      	adcs	r3, r3
 80034d6:	61fb      	str	r3, [r7, #28]
 80034d8:	e9d7 2306 	ldrd	r2, r3, [r7, #24]
 80034dc:	4641      	mov	r1, r8
 80034de:	1851      	adds	r1, r2, r1
 80034e0:	6139      	str	r1, [r7, #16]
 80034e2:	4649      	mov	r1, r9
 80034e4:	414b      	adcs	r3, r1
 80034e6:	617b      	str	r3, [r7, #20]
 80034e8:	f04f 0200 	mov.w	r2, #0
 80034ec:	f04f 0300 	mov.w	r3, #0
 80034f0:	e9d7 ab04 	ldrd	sl, fp, [r7, #16]
 80034f4:	4659      	mov	r1, fp
 80034f6:	00cb      	lsls	r3, r1, #3
 80034f8:	4651      	mov	r1, sl
 80034fa:	ea43 7351 	orr.w	r3, r3, r1, lsr #29
 80034fe:	4651      	mov	r1, sl
 8003500:	00ca      	lsls	r2, r1, #3
 8003502:	4610      	mov	r0, r2
 8003504:	4619      	mov	r1, r3
 8003506:	4603      	mov	r3, r0
 8003508:	4642      	mov	r2, r8
 800350a:	189b      	adds	r3, r3, r2
 800350c:	f8c7 3080 	str.w	r3, [r7, #128]	; 0x80
 8003510:	464b      	mov	r3, r9
 8003512:	460a      	mov	r2, r1
 8003514:	eb42 0303 	adc.w	r3, r2, r3
 8003518:	f8c7 3084 	str.w	r3, [r7, #132]	; 0x84
 800351c:	f8d7 30f4 	ldr.w	r3, [r7, #244]	; 0xf4
 8003520:	685b      	ldr	r3, [r3, #4]
 8003522:	2200      	movs	r2, #0
 8003524:	67bb      	str	r3, [r7, #120]	; 0x78
 8003526:	67fa      	str	r2, [r7, #124]	; 0x7c
 8003528:	f04f 0200 	mov.w	r2, #0
 800352c:	f04f 0300 	mov.w	r3, #0
 8003530:	e9d7 891e 	ldrd	r8, r9, [r7, #120]	; 0x78
 8003534:	4649      	mov	r1, r9
 8003536:	008b      	lsls	r3, r1, #2
 8003538:	4641      	mov	r1, r8
 800353a:	ea43 7391 	orr.w	r3, r3, r1, lsr #30
 800353e:	4641      	mov	r1, r8
 8003540:	008a      	lsls	r2, r1, #2
 8003542:	e9d7 0120 	ldrd	r0, r1, [r7, #128]	; 0x80
 8003546:	f7fd f803 	bl	8000550 <__aeabi_uldivmod>
 800354a:	4602      	mov	r2, r0
 800354c:	460b      	mov	r3, r1
 800354e:	4611      	mov	r1, r2
 8003550:	4b38      	ldr	r3, [pc, #224]	; (8003634 <UART_SetConfig+0x4e4>)
 8003552:	fba3 2301 	umull	r2, r3, r3, r1
 8003556:	095b      	lsrs	r3, r3, #5
 8003558:	2264      	movs	r2, #100	; 0x64
 800355a:	fb02 f303 	mul.w	r3, r2, r3
 800355e:	1acb      	subs	r3, r1, r3
 8003560:	011b      	lsls	r3, r3, #4
 8003562:	3332      	adds	r3, #50	; 0x32
 8003564:	4a33      	ldr	r2, [pc, #204]	; (8003634 <UART_SetConfig+0x4e4>)
 8003566:	fba2 2303 	umull	r2, r3, r2, r3
 800356a:	095b      	lsrs	r3, r3, #5
 800356c:	f003 03f0 	and.w	r3, r3, #240	; 0xf0
 8003570:	441c      	add	r4, r3
 8003572:	f8d7 30fc 	ldr.w	r3, [r7, #252]	; 0xfc
 8003576:	2200      	movs	r2, #0
 8003578:	673b      	str	r3, [r7, #112]	; 0x70
 800357a:	677a      	str	r2, [r7, #116]	; 0x74
 800357c:	e9d7 891c 	ldrd	r8, r9, [r7, #112]	; 0x70
 8003580:	4642      	mov	r2, r8
 8003582:	464b      	mov	r3, r9
 8003584:	1891      	adds	r1, r2, r2
 8003586:	60b9      	str	r1, [r7, #8]
 8003588:	415b      	adcs	r3, r3
 800358a:	60fb      	str	r3, [r7, #12]
 800358c:	e9d7 2302 	ldrd	r2, r3, [r7, #8]
 8003590:	4641      	mov	r1, r8
 8003592:	1851      	adds	r1, r2, r1
 8003594:	6039      	str	r1, [r7, #0]
 8003596:	4649      	mov	r1, r9
 8003598:	414b      	adcs	r3, r1
 800359a:	607b      	str	r3, [r7, #4]
 800359c:	f04f 0200 	mov.w	r2, #0
 80035a0:	f04f 0300 	mov.w	r3, #0
 80035a4:	e9d7 ab00 	ldrd	sl, fp, [r7]
 80035a8:	4659      	mov	r1, fp
 80035aa:	00cb      	lsls	r3, r1, #3
 80035ac:	4651      	mov	r1, sl
 80035ae:	ea43 7351 	orr.w	r3, r3, r1, lsr #29
 80035b2:	4651      	mov	r1, sl
 80035b4:	00ca      	lsls	r2, r1, #3
 80035b6:	4610      	mov	r0, r2
 80035b8:	4619      	mov	r1, r3
 80035ba:	4603      	mov	r3, r0
 80035bc:	4642      	mov	r2, r8
 80035be:	189b      	adds	r3, r3, r2
 80035c0:	66bb      	str	r3, [r7, #104]	; 0x68
 80035c2:	464b      	mov	r3, r9
 80035c4:	460a      	mov	r2, r1
 80035c6:	eb42 0303 	adc.w	r3, r2, r3
 80035ca:	66fb      	str	r3, [r7, #108]	; 0x6c
 80035cc:	f8d7 30f4 	ldr.w	r3, [r7, #244]	; 0xf4
 80035d0:	685b      	ldr	r3, [r3, #4]
 80035d2:	2200      	movs	r2, #0
 80035d4:	663b      	str	r3, [r7, #96]	; 0x60
 80035d6:	667a      	str	r2, [r7, #100]	; 0x64
 80035d8:	f04f 0200 	mov.w	r2, #0
 80035dc:	f04f 0300 	mov.w	r3, #0
 80035e0:	e9d7 8918 	ldrd	r8, r9, [r7, #96]	; 0x60
 80035e4:	4649      	mov	r1, r9
 80035e6:	008b      	lsls	r3, r1, #2
 80035e8:	4641      	mov	r1, r8
 80035ea:	ea43 7391 	orr.w	r3, r3, r1, lsr #30
 80035ee:	4641      	mov	r1, r8
 80035f0:	008a      	lsls	r2, r1, #2
 80035f2:	e9d7 011a 	ldrd	r0, r1, [r7, #104]	; 0x68
 80035f6:	f7fc ffab 	bl	8000550 <__aeabi_uldivmod>
 80035fa:	4602      	mov	r2, r0
 80035fc:	460b      	mov	r3, r1
 80035fe:	4b0d      	ldr	r3, [pc, #52]	; (8003634 <UART_SetConfig+0x4e4>)
 8003600:	fba3 1302 	umull	r1, r3, r3, r2
 8003604:	095b      	lsrs	r3, r3, #5
 8003606:	2164      	movs	r1, #100	; 0x64
 8003608:	fb01 f303 	mul.w	r3, r1, r3
 800360c:	1ad3      	subs	r3, r2, r3
 800360e:	011b      	lsls	r3, r3, #4
 8003610:	3332      	adds	r3, #50	; 0x32
 8003612:	4a08      	ldr	r2, [pc, #32]	; (8003634 <UART_SetConfig+0x4e4>)
 8003614:	fba2 2303 	umull	r2, r3, r2, r3
 8003618:	095b      	lsrs	r3, r3, #5
 800361a:	f003 020f 	and.w	r2, r3, #15
 800361e:	f8d7 30f4 	ldr.w	r3, [r7, #244]	; 0xf4
 8003622:	681b      	ldr	r3, [r3, #0]
 8003624:	4422      	add	r2, r4
 8003626:	609a      	str	r2, [r3, #8]
}
 8003628:	bf00      	nop
 800362a:	f507 7780 	add.w	r7, r7, #256	; 0x100
 800362e:	46bd      	mov	sp, r7
 8003630:	e8bd 8fb0 	ldmia.w	sp!, {r4, r5, r7, r8, r9, sl, fp, pc}
 8003634:	51eb851f 	.word	0x51eb851f

08003638 <memset>:
 8003638:	4402      	add	r2, r0
 800363a:	4603      	mov	r3, r0
 800363c:	4293      	cmp	r3, r2
 800363e:	d100      	bne.n	8003642 <memset+0xa>
 8003640:	4770      	bx	lr
 8003642:	f803 1b01 	strb.w	r1, [r3], #1
 8003646:	e7f9      	b.n	800363c <memset+0x4>

08003648 <__libc_init_array>:
 8003648:	b570      	push	{r4, r5, r6, lr}
 800364a:	4d0d      	ldr	r5, [pc, #52]	; (8003680 <__libc_init_array+0x38>)
 800364c:	4c0d      	ldr	r4, [pc, #52]	; (8003684 <__libc_init_array+0x3c>)
 800364e:	1b64      	subs	r4, r4, r5
 8003650:	10a4      	asrs	r4, r4, #2
 8003652:	2600      	movs	r6, #0
 8003654:	42a6      	cmp	r6, r4
 8003656:	d109      	bne.n	800366c <__libc_init_array+0x24>
 8003658:	4d0b      	ldr	r5, [pc, #44]	; (8003688 <__libc_init_array+0x40>)
 800365a:	4c0c      	ldr	r4, [pc, #48]	; (800368c <__libc_init_array+0x44>)
 800365c:	f000 f818 	bl	8003690 <_init>
 8003660:	1b64      	subs	r4, r4, r5
 8003662:	10a4      	asrs	r4, r4, #2
 8003664:	2600      	movs	r6, #0
 8003666:	42a6      	cmp	r6, r4
 8003668:	d105      	bne.n	8003676 <__libc_init_array+0x2e>
 800366a:	bd70      	pop	{r4, r5, r6, pc}
 800366c:	f855 3b04 	ldr.w	r3, [r5], #4
 8003670:	4798      	blx	r3
 8003672:	3601      	adds	r6, #1
 8003674:	e7ee      	b.n	8003654 <__libc_init_array+0xc>
 8003676:	f855 3b04 	ldr.w	r3, [r5], #4
 800367a:	4798      	blx	r3
 800367c:	3601      	adds	r6, #1
 800367e:	e7f2      	b.n	8003666 <__libc_init_array+0x1e>
 8003680:	080037c0 	.word	0x080037c0
 8003684:	080037c0 	.word	0x080037c0
 8003688:	080037c0 	.word	0x080037c0
 800368c:	080037c4 	.word	0x080037c4

08003690 <_init>:
 8003690:	b5f8      	push	{r3, r4, r5, r6, r7, lr}
 8003692:	bf00      	nop
 8003694:	bcf8      	pop	{r3, r4, r5, r6, r7}
 8003696:	bc08      	pop	{r3}
 8003698:	469e      	mov	lr, r3
 800369a:	4770      	bx	lr

0800369c <_fini>:
 800369c:	b5f8      	push	{r3, r4, r5, r6, r7, lr}
 800369e:	bf00      	nop
 80036a0:	bcf8      	pop	{r3, r4, r5, r6, r7}
 80036a2:	bc08      	pop	{r3}
 80036a4:	469e      	mov	lr, r3
 80036a6:	4770      	bx	lr
