
APC1.elf:     file format elf32-littlearm

Sections:
Idx Name          Size      VMA       LMA       File off  Algn
  0 .isr_vector   00000198  08000000  08000000  00010000  2**0
                  CONTENTS, ALLOC, LOAD, READONLY, DATA
  1 .text         0000359c  08000198  08000198  00010198  2**2
                  CONTENTS, ALLOC, LOAD, READONLY, CODE
  2 .rodata       00000110  08003734  08003734  00013734  2**2
                  CONTENTS, ALLOC, LOAD, READONLY, DATA
  3 .ARM.extab    00000000  08003844  08003844  00020088  2**0
                  CONTENTS
  4 .ARM          00000008  08003844  08003844  00013844  2**2
                  CONTENTS, ALLOC, LOAD, READONLY, DATA
  5 .preinit_array 00000000  0800384c  0800384c  00020088  2**0
                  CONTENTS, ALLOC, LOAD, DATA
  6 .init_array   00000004  0800384c  0800384c  0001384c  2**2
                  CONTENTS, ALLOC, LOAD, DATA
  7 .fini_array   00000004  08003850  08003850  00013850  2**2
                  CONTENTS, ALLOC, LOAD, DATA
  8 .data         00000088  20000000  08003854  00020000  2**2
                  CONTENTS, ALLOC, LOAD, DATA
  9 .bss          00000144  20000088  080038dc  00020088  2**3
                  ALLOC
 10 ._user_heap_stack 00000604  200001cc  080038dc  000201cc  2**0
                  ALLOC
 11 .ARM.attributes 00000030  00000000  00000000  00020088  2**0
                  CONTENTS, READONLY
 12 .comment      00000043  00000000  00000000  000200b8  2**0
                  CONTENTS, READONLY
 13 .debug_info   00009024  00000000  00000000  000200fb  2**0
                  CONTENTS, READONLY, DEBUGGING, OCTETS
 14 .debug_abbrev 00001955  00000000  00000000  0002911f  2**0
                  CONTENTS, READONLY, DEBUGGING, OCTETS
 15 .debug_aranges 000007c0  00000000  00000000  0002aa78  2**3
                  CONTENTS, READONLY, DEBUGGING, OCTETS
 16 .debug_rnglists 000005eb  00000000  00000000  0002b238  2**0
                  CONTENTS, READONLY, DEBUGGING, OCTETS
 17 .debug_macro  000155da  00000000  00000000  0002b823  2**0
                  CONTENTS, READONLY, DEBUGGING, OCTETS
 18 .debug_line   00009873  00000000  00000000  00040dfd  2**0
                  CONTENTS, READONLY, DEBUGGING, OCTETS
 19 .debug_str    0008552c  00000000  00000000  0004a670  2**0
                  CONTENTS, READONLY, DEBUGGING, OCTETS
 20 .debug_frame  00001f24  00000000  00000000  000cfb9c  2**2
                  CONTENTS, READONLY, DEBUGGING, OCTETS
 21 .debug_line_str 00000079  00000000  00000000  000d1ac0  2**0
                  CONTENTS, READONLY, DEBUGGING, OCTETS

Disassembly of section .text:

08000198 <__do_global_dtors_aux>:
 8000198:	b510      	push	{r4, lr}
 800019a:	4c05      	ldr	r4, [pc, #20]	; (80001b0 <__do_global_dtors_aux+0x18>)
 800019c:	7823      	ldrb	r3, [r4, #0]
 800019e:	b933      	cbnz	r3, 80001ae <__do_global_dtors_aux+0x16>
 80001a0:	4b04      	ldr	r3, [pc, #16]	; (80001b4 <__do_global_dtors_aux+0x1c>)
 80001a2:	b113      	cbz	r3, 80001aa <__do_global_dtors_aux+0x12>
 80001a4:	4804      	ldr	r0, [pc, #16]	; (80001b8 <__do_global_dtors_aux+0x20>)
 80001a6:	f3af 8000 	nop.w
 80001aa:	2301      	movs	r3, #1
 80001ac:	7023      	strb	r3, [r4, #0]
 80001ae:	bd10      	pop	{r4, pc}
 80001b0:	20000088 	.word	0x20000088
 80001b4:	00000000 	.word	0x00000000
 80001b8:	0800371c 	.word	0x0800371c

080001bc <frame_dummy>:
 80001bc:	b508      	push	{r3, lr}
 80001be:	4b03      	ldr	r3, [pc, #12]	; (80001cc <frame_dummy+0x10>)
 80001c0:	b11b      	cbz	r3, 80001ca <frame_dummy+0xe>
 80001c2:	4903      	ldr	r1, [pc, #12]	; (80001d0 <frame_dummy+0x14>)
 80001c4:	4803      	ldr	r0, [pc, #12]	; (80001d4 <frame_dummy+0x18>)
 80001c6:	f3af 8000 	nop.w
 80001ca:	bd08      	pop	{r3, pc}
 80001cc:	00000000 	.word	0x00000000
 80001d0:	2000008c 	.word	0x2000008c
 80001d4:	0800371c 	.word	0x0800371c

080001d8 <__aeabi_drsub>:
 80001d8:	f081 4100 	eor.w	r1, r1, #2147483648	; 0x80000000
 80001dc:	e002      	b.n	80001e4 <__adddf3>
 80001de:	bf00      	nop

080001e0 <__aeabi_dsub>:
 80001e0:	f083 4300 	eor.w	r3, r3, #2147483648	; 0x80000000

080001e4 <__adddf3>:
 80001e4:	b530      	push	{r4, r5, lr}
 80001e6:	ea4f 0441 	mov.w	r4, r1, lsl #1
 80001ea:	ea4f 0543 	mov.w	r5, r3, lsl #1
 80001ee:	ea94 0f05 	teq	r4, r5
 80001f2:	bf08      	it	eq
 80001f4:	ea90 0f02 	teqeq	r0, r2
 80001f8:	bf1f      	itttt	ne
 80001fa:	ea54 0c00 	orrsne.w	ip, r4, r0
 80001fe:	ea55 0c02 	orrsne.w	ip, r5, r2
 8000202:	ea7f 5c64 	mvnsne.w	ip, r4, asr #21
 8000206:	ea7f 5c65 	mvnsne.w	ip, r5, asr #21
 800020a:	f000 80e2 	beq.w	80003d2 <__adddf3+0x1ee>
 800020e:	ea4f 5454 	mov.w	r4, r4, lsr #21
 8000212:	ebd4 5555 	rsbs	r5, r4, r5, lsr #21
 8000216:	bfb8      	it	lt
 8000218:	426d      	neglt	r5, r5
 800021a:	dd0c      	ble.n	8000236 <__adddf3+0x52>
 800021c:	442c      	add	r4, r5
 800021e:	ea80 0202 	eor.w	r2, r0, r2
 8000222:	ea81 0303 	eor.w	r3, r1, r3
 8000226:	ea82 0000 	eor.w	r0, r2, r0
 800022a:	ea83 0101 	eor.w	r1, r3, r1
 800022e:	ea80 0202 	eor.w	r2, r0, r2
 8000232:	ea81 0303 	eor.w	r3, r1, r3
 8000236:	2d36      	cmp	r5, #54	; 0x36
 8000238:	bf88      	it	hi
 800023a:	bd30      	pophi	{r4, r5, pc}
 800023c:	f011 4f00 	tst.w	r1, #2147483648	; 0x80000000
 8000240:	ea4f 3101 	mov.w	r1, r1, lsl #12
 8000244:	f44f 1c80 	mov.w	ip, #1048576	; 0x100000
 8000248:	ea4c 3111 	orr.w	r1, ip, r1, lsr #12
 800024c:	d002      	beq.n	8000254 <__adddf3+0x70>
 800024e:	4240      	negs	r0, r0
 8000250:	eb61 0141 	sbc.w	r1, r1, r1, lsl #1
 8000254:	f013 4f00 	tst.w	r3, #2147483648	; 0x80000000
 8000258:	ea4f 3303 	mov.w	r3, r3, lsl #12
 800025c:	ea4c 3313 	orr.w	r3, ip, r3, lsr #12
 8000260:	d002      	beq.n	8000268 <__adddf3+0x84>
 8000262:	4252      	negs	r2, r2
 8000264:	eb63 0343 	sbc.w	r3, r3, r3, lsl #1
 8000268:	ea94 0f05 	teq	r4, r5
 800026c:	f000 80a7 	beq.w	80003be <__adddf3+0x1da>
 8000270:	f1a4 0401 	sub.w	r4, r4, #1
 8000274:	f1d5 0e20 	rsbs	lr, r5, #32
 8000278:	db0d      	blt.n	8000296 <__adddf3+0xb2>
 800027a:	fa02 fc0e 	lsl.w	ip, r2, lr
 800027e:	fa22 f205 	lsr.w	r2, r2, r5
 8000282:	1880      	adds	r0, r0, r2
 8000284:	f141 0100 	adc.w	r1, r1, #0
 8000288:	fa03 f20e 	lsl.w	r2, r3, lr
 800028c:	1880      	adds	r0, r0, r2
 800028e:	fa43 f305 	asr.w	r3, r3, r5
 8000292:	4159      	adcs	r1, r3
 8000294:	e00e      	b.n	80002b4 <__adddf3+0xd0>
 8000296:	f1a5 0520 	sub.w	r5, r5, #32
 800029a:	f10e 0e20 	add.w	lr, lr, #32
 800029e:	2a01      	cmp	r2, #1
 80002a0:	fa03 fc0e 	lsl.w	ip, r3, lr
 80002a4:	bf28      	it	cs
 80002a6:	f04c 0c02 	orrcs.w	ip, ip, #2
 80002aa:	fa43 f305 	asr.w	r3, r3, r5
 80002ae:	18c0      	adds	r0, r0, r3
 80002b0:	eb51 71e3 	adcs.w	r1, r1, r3, asr #31
 80002b4:	f001 4500 	and.w	r5, r1, #2147483648	; 0x80000000
 80002b8:	d507      	bpl.n	80002ca <__adddf3+0xe6>
 80002ba:	f04f 0e00 	mov.w	lr, #0
 80002be:	f1dc 0c00 	rsbs	ip, ip, #0
 80002c2:	eb7e 0000 	sbcs.w	r0, lr, r0
 80002c6:	eb6e 0101 	sbc.w	r1, lr, r1
 80002ca:	f5b1 1f80 	cmp.w	r1, #1048576	; 0x100000
 80002ce:	d31b      	bcc.n	8000308 <__adddf3+0x124>
 80002d0:	f5b1 1f00 	cmp.w	r1, #2097152	; 0x200000
 80002d4:	d30c      	bcc.n	80002f0 <__adddf3+0x10c>
 80002d6:	0849      	lsrs	r1, r1, #1
 80002d8:	ea5f 0030 	movs.w	r0, r0, rrx
 80002dc:	ea4f 0c3c 	mov.w	ip, ip, rrx
 80002e0:	f104 0401 	add.w	r4, r4, #1
 80002e4:	ea4f 5244 	mov.w	r2, r4, lsl #21
 80002e8:	f512 0f80 	cmn.w	r2, #4194304	; 0x400000
 80002ec:	f080 809a 	bcs.w	8000424 <__adddf3+0x240>
 80002f0:	f1bc 4f00 	cmp.w	ip, #2147483648	; 0x80000000
 80002f4:	bf08      	it	eq
 80002f6:	ea5f 0c50 	movseq.w	ip, r0, lsr #1
 80002fa:	f150 0000 	adcs.w	r0, r0, #0
 80002fe:	eb41 5104 	adc.w	r1, r1, r4, lsl #20
 8000302:	ea41 0105 	orr.w	r1, r1, r5
 8000306:	bd30      	pop	{r4, r5, pc}
 8000308:	ea5f 0c4c 	movs.w	ip, ip, lsl #1
 800030c:	4140      	adcs	r0, r0
 800030e:	eb41 0101 	adc.w	r1, r1, r1
 8000312:	3c01      	subs	r4, #1
 8000314:	bf28      	it	cs
 8000316:	f5b1 1f80 	cmpcs.w	r1, #1048576	; 0x100000
 800031a:	d2e9      	bcs.n	80002f0 <__adddf3+0x10c>
 800031c:	f091 0f00 	teq	r1, #0
 8000320:	bf04      	itt	eq
 8000322:	4601      	moveq	r1, r0
 8000324:	2000      	moveq	r0, #0
 8000326:	fab1 f381 	clz	r3, r1
 800032a:	bf08      	it	eq
 800032c:	3320      	addeq	r3, #32
 800032e:	f1a3 030b 	sub.w	r3, r3, #11
 8000332:	f1b3 0220 	subs.w	r2, r3, #32
 8000336:	da0c      	bge.n	8000352 <__adddf3+0x16e>
 8000338:	320c      	adds	r2, #12
 800033a:	dd08      	ble.n	800034e <__adddf3+0x16a>
 800033c:	f102 0c14 	add.w	ip, r2, #20
 8000340:	f1c2 020c 	rsb	r2, r2, #12
 8000344:	fa01 f00c 	lsl.w	r0, r1, ip
 8000348:	fa21 f102 	lsr.w	r1, r1, r2
 800034c:	e00c      	b.n	8000368 <__adddf3+0x184>
 800034e:	f102 0214 	add.w	r2, r2, #20
 8000352:	bfd8      	it	le
 8000354:	f1c2 0c20 	rsble	ip, r2, #32
 8000358:	fa01 f102 	lsl.w	r1, r1, r2
 800035c:	fa20 fc0c 	lsr.w	ip, r0, ip
 8000360:	bfdc      	itt	le
 8000362:	ea41 010c 	orrle.w	r1, r1, ip
 8000366:	4090      	lslle	r0, r2
 8000368:	1ae4      	subs	r4, r4, r3
 800036a:	bfa2      	ittt	ge
 800036c:	eb01 5104 	addge.w	r1, r1, r4, lsl #20
 8000370:	4329      	orrge	r1, r5
 8000372:	bd30      	popge	{r4, r5, pc}
 8000374:	ea6f 0404 	mvn.w	r4, r4
 8000378:	3c1f      	subs	r4, #31
 800037a:	da1c      	bge.n	80003b6 <__adddf3+0x1d2>
 800037c:	340c      	adds	r4, #12
 800037e:	dc0e      	bgt.n	800039e <__adddf3+0x1ba>
 8000380:	f104 0414 	add.w	r4, r4, #20
 8000384:	f1c4 0220 	rsb	r2, r4, #32
 8000388:	fa20 f004 	lsr.w	r0, r0, r4
 800038c:	fa01 f302 	lsl.w	r3, r1, r2
 8000390:	ea40 0003 	orr.w	r0, r0, r3
 8000394:	fa21 f304 	lsr.w	r3, r1, r4
 8000398:	ea45 0103 	orr.w	r1, r5, r3
 800039c:	bd30      	pop	{r4, r5, pc}
 800039e:	f1c4 040c 	rsb	r4, r4, #12
 80003a2:	f1c4 0220 	rsb	r2, r4, #32
 80003a6:	fa20 f002 	lsr.w	r0, r0, r2
 80003aa:	fa01 f304 	lsl.w	r3, r1, r4
 80003ae:	ea40 0003 	orr.w	r0, r0, r3
 80003b2:	4629      	mov	r1, r5
 80003b4:	bd30      	pop	{r4, r5, pc}
 80003b6:	fa21 f004 	lsr.w	r0, r1, r4
 80003ba:	4629      	mov	r1, r5
 80003bc:	bd30      	pop	{r4, r5, pc}
 80003be:	f094 0f00 	teq	r4, #0
 80003c2:	f483 1380 	eor.w	r3, r3, #1048576	; 0x100000
 80003c6:	bf06      	itte	eq
 80003c8:	f481 1180 	eoreq.w	r1, r1, #1048576	; 0x100000
 80003cc:	3401      	addeq	r4, #1
 80003ce:	3d01      	subne	r5, #1
 80003d0:	e74e      	b.n	8000270 <__adddf3+0x8c>
 80003d2:	ea7f 5c64 	mvns.w	ip, r4, asr #21
 80003d6:	bf18      	it	ne
 80003d8:	ea7f 5c65 	mvnsne.w	ip, r5, asr #21
 80003dc:	d029      	beq.n	8000432 <__adddf3+0x24e>
 80003de:	ea94 0f05 	teq	r4, r5
 80003e2:	bf08      	it	eq
 80003e4:	ea90 0f02 	teqeq	r0, r2
 80003e8:	d005      	beq.n	80003f6 <__adddf3+0x212>
 80003ea:	ea54 0c00 	orrs.w	ip, r4, r0
 80003ee:	bf04      	itt	eq
 80003f0:	4619      	moveq	r1, r3
 80003f2:	4610      	moveq	r0, r2
 80003f4:	bd30      	pop	{r4, r5, pc}
 80003f6:	ea91 0f03 	teq	r1, r3
 80003fa:	bf1e      	ittt	ne
 80003fc:	2100      	movne	r1, #0
 80003fe:	2000      	movne	r0, #0
 8000400:	bd30      	popne	{r4, r5, pc}
 8000402:	ea5f 5c54 	movs.w	ip, r4, lsr #21
 8000406:	d105      	bne.n	8000414 <__adddf3+0x230>
 8000408:	0040      	lsls	r0, r0, #1
 800040a:	4149      	adcs	r1, r1
 800040c:	bf28      	it	cs
 800040e:	f041 4100 	orrcs.w	r1, r1, #2147483648	; 0x80000000
 8000412:	bd30      	pop	{r4, r5, pc}
 8000414:	f514 0480 	adds.w	r4, r4, #4194304	; 0x400000
 8000418:	bf3c      	itt	cc
 800041a:	f501 1180 	addcc.w	r1, r1, #1048576	; 0x100000
 800041e:	bd30      	popcc	{r4, r5, pc}
 8000420:	f001 4500 	and.w	r5, r1, #2147483648	; 0x80000000
 8000424:	f045 41fe 	orr.w	r1, r5, #2130706432	; 0x7f000000
 8000428:	f441 0170 	orr.w	r1, r1, #15728640	; 0xf00000
 800042c:	f04f 0000 	mov.w	r0, #0
 8000430:	bd30      	pop	{r4, r5, pc}
 8000432:	ea7f 5c64 	mvns.w	ip, r4, asr #21
 8000436:	bf1a      	itte	ne
 8000438:	4619      	movne	r1, r3
 800043a:	4610      	movne	r0, r2
 800043c:	ea7f 5c65 	mvnseq.w	ip, r5, asr #21
 8000440:	bf1c      	itt	ne
 8000442:	460b      	movne	r3, r1
 8000444:	4602      	movne	r2, r0
 8000446:	ea50 3401 	orrs.w	r4, r0, r1, lsl #12
 800044a:	bf06      	itte	eq
 800044c:	ea52 3503 	orrseq.w	r5, r2, r3, lsl #12
 8000450:	ea91 0f03 	teqeq	r1, r3
 8000454:	f441 2100 	orrne.w	r1, r1, #524288	; 0x80000
 8000458:	bd30      	pop	{r4, r5, pc}
 800045a:	bf00      	nop

0800045c <__aeabi_ui2d>:
 800045c:	f090 0f00 	teq	r0, #0
 8000460:	bf04      	itt	eq
 8000462:	2100      	moveq	r1, #0
 8000464:	4770      	bxeq	lr
 8000466:	b530      	push	{r4, r5, lr}
 8000468:	f44f 6480 	mov.w	r4, #1024	; 0x400
 800046c:	f104 0432 	add.w	r4, r4, #50	; 0x32
 8000470:	f04f 0500 	mov.w	r5, #0
 8000474:	f04f 0100 	mov.w	r1, #0
 8000478:	e750      	b.n	800031c <__adddf3+0x138>
 800047a:	bf00      	nop

0800047c <__aeabi_i2d>:
 800047c:	f090 0f00 	teq	r0, #0
 8000480:	bf04      	itt	eq
 8000482:	2100      	moveq	r1, #0
 8000484:	4770      	bxeq	lr
 8000486:	b530      	push	{r4, r5, lr}
 8000488:	f44f 6480 	mov.w	r4, #1024	; 0x400
 800048c:	f104 0432 	add.w	r4, r4, #50	; 0x32
 8000490:	f010 4500 	ands.w	r5, r0, #2147483648	; 0x80000000
 8000494:	bf48      	it	mi
 8000496:	4240      	negmi	r0, r0
 8000498:	f04f 0100 	mov.w	r1, #0
 800049c:	e73e      	b.n	800031c <__adddf3+0x138>
 800049e:	bf00      	nop

080004a0 <__aeabi_f2d>:
 80004a0:	0042      	lsls	r2, r0, #1
 80004a2:	ea4f 01e2 	mov.w	r1, r2, asr #3
 80004a6:	ea4f 0131 	mov.w	r1, r1, rrx
 80004aa:	ea4f 7002 	mov.w	r0, r2, lsl #28
 80004ae:	bf1f      	itttt	ne
 80004b0:	f012 437f 	andsne.w	r3, r2, #4278190080	; 0xff000000
 80004b4:	f093 4f7f 	teqne	r3, #4278190080	; 0xff000000
 80004b8:	f081 5160 	eorne.w	r1, r1, #939524096	; 0x38000000
 80004bc:	4770      	bxne	lr
 80004be:	f032 427f 	bics.w	r2, r2, #4278190080	; 0xff000000
 80004c2:	bf08      	it	eq
 80004c4:	4770      	bxeq	lr
 80004c6:	f093 4f7f 	teq	r3, #4278190080	; 0xff000000
 80004ca:	bf04      	itt	eq
 80004cc:	f441 2100 	orreq.w	r1, r1, #524288	; 0x80000
 80004d0:	4770      	bxeq	lr
 80004d2:	b530      	push	{r4, r5, lr}
 80004d4:	f44f 7460 	mov.w	r4, #896	; 0x380
 80004d8:	f001 4500 	and.w	r5, r1, #2147483648	; 0x80000000
 80004dc:	f021 4100 	bic.w	r1, r1, #2147483648	; 0x80000000
 80004e0:	e71c      	b.n	800031c <__adddf3+0x138>
 80004e2:	bf00      	nop

080004e4 <__aeabi_ul2d>:
 80004e4:	ea50 0201 	orrs.w	r2, r0, r1
 80004e8:	bf08      	it	eq
 80004ea:	4770      	bxeq	lr
 80004ec:	b530      	push	{r4, r5, lr}
 80004ee:	f04f 0500 	mov.w	r5, #0
 80004f2:	e00a      	b.n	800050a <__aeabi_l2d+0x16>

080004f4 <__aeabi_l2d>:
 80004f4:	ea50 0201 	orrs.w	r2, r0, r1
 80004f8:	bf08      	it	eq
 80004fa:	4770      	bxeq	lr
 80004fc:	b530      	push	{r4, r5, lr}
 80004fe:	f011 4500 	ands.w	r5, r1, #2147483648	; 0x80000000
 8000502:	d502      	bpl.n	800050a <__aeabi_l2d+0x16>
 8000504:	4240      	negs	r0, r0
 8000506:	eb61 0141 	sbc.w	r1, r1, r1, lsl #1
 800050a:	f44f 6480 	mov.w	r4, #1024	; 0x400
 800050e:	f104 0432 	add.w	r4, r4, #50	; 0x32
 8000512:	ea5f 5c91 	movs.w	ip, r1, lsr #22
 8000516:	f43f aed8 	beq.w	80002ca <__adddf3+0xe6>
 800051a:	f04f 0203 	mov.w	r2, #3
 800051e:	ea5f 0cdc 	movs.w	ip, ip, lsr #3
 8000522:	bf18      	it	ne
 8000524:	3203      	addne	r2, #3
 8000526:	ea5f 0cdc 	movs.w	ip, ip, lsr #3
 800052a:	bf18      	it	ne
 800052c:	3203      	addne	r2, #3
 800052e:	eb02 02dc 	add.w	r2, r2, ip, lsr #3
 8000532:	f1c2 0320 	rsb	r3, r2, #32
 8000536:	fa00 fc03 	lsl.w	ip, r0, r3
 800053a:	fa20 f002 	lsr.w	r0, r0, r2
 800053e:	fa01 fe03 	lsl.w	lr, r1, r3
 8000542:	ea40 000e 	orr.w	r0, r0, lr
 8000546:	fa21 f102 	lsr.w	r1, r1, r2
 800054a:	4414      	add	r4, r2
 800054c:	e6bd      	b.n	80002ca <__adddf3+0xe6>
 800054e:	bf00      	nop

08000550 <__aeabi_uldivmod>:
 8000550:	b953      	cbnz	r3, 8000568 <__aeabi_uldivmod+0x18>
 8000552:	b94a      	cbnz	r2, 8000568 <__aeabi_uldivmod+0x18>
 8000554:	2900      	cmp	r1, #0
 8000556:	bf08      	it	eq
 8000558:	2800      	cmpeq	r0, #0
 800055a:	bf1c      	itt	ne
 800055c:	f04f 31ff 	movne.w	r1, #4294967295
 8000560:	f04f 30ff 	movne.w	r0, #4294967295
 8000564:	f000 b970 	b.w	8000848 <__aeabi_idiv0>
 8000568:	f1ad 0c08 	sub.w	ip, sp, #8
 800056c:	e96d ce04 	strd	ip, lr, [sp, #-16]!
 8000570:	f000 f806 	bl	8000580 <__udivmoddi4>
 8000574:	f8dd e004 	ldr.w	lr, [sp, #4]
 8000578:	e9dd 2302 	ldrd	r2, r3, [sp, #8]
 800057c:	b004      	add	sp, #16
 800057e:	4770      	bx	lr

08000580 <__udivmoddi4>:
 8000580:	e92d 47f0 	stmdb	sp!, {r4, r5, r6, r7, r8, r9, sl, lr}
 8000584:	9e08      	ldr	r6, [sp, #32]
 8000586:	460d      	mov	r5, r1
 8000588:	4604      	mov	r4, r0
 800058a:	460f      	mov	r7, r1
 800058c:	2b00      	cmp	r3, #0
 800058e:	d14a      	bne.n	8000626 <__udivmoddi4+0xa6>
 8000590:	428a      	cmp	r2, r1
 8000592:	4694      	mov	ip, r2
 8000594:	d965      	bls.n	8000662 <__udivmoddi4+0xe2>
 8000596:	fab2 f382 	clz	r3, r2
 800059a:	b143      	cbz	r3, 80005ae <__udivmoddi4+0x2e>
 800059c:	fa02 fc03 	lsl.w	ip, r2, r3
 80005a0:	f1c3 0220 	rsb	r2, r3, #32
 80005a4:	409f      	lsls	r7, r3
 80005a6:	fa20 f202 	lsr.w	r2, r0, r2
 80005aa:	4317      	orrs	r7, r2
 80005ac:	409c      	lsls	r4, r3
 80005ae:	ea4f 4e1c 	mov.w	lr, ip, lsr #16
 80005b2:	fa1f f58c 	uxth.w	r5, ip
 80005b6:	fbb7 f1fe 	udiv	r1, r7, lr
 80005ba:	0c22      	lsrs	r2, r4, #16
 80005bc:	fb0e 7711 	mls	r7, lr, r1, r7
 80005c0:	ea42 4207 	orr.w	r2, r2, r7, lsl #16
 80005c4:	fb01 f005 	mul.w	r0, r1, r5
 80005c8:	4290      	cmp	r0, r2
 80005ca:	d90a      	bls.n	80005e2 <__udivmoddi4+0x62>
 80005cc:	eb1c 0202 	adds.w	r2, ip, r2
 80005d0:	f101 37ff 	add.w	r7, r1, #4294967295
 80005d4:	f080 811c 	bcs.w	8000810 <__udivmoddi4+0x290>
 80005d8:	4290      	cmp	r0, r2
 80005da:	f240 8119 	bls.w	8000810 <__udivmoddi4+0x290>
 80005de:	3902      	subs	r1, #2
 80005e0:	4462      	add	r2, ip
 80005e2:	1a12      	subs	r2, r2, r0
 80005e4:	b2a4      	uxth	r4, r4
 80005e6:	fbb2 f0fe 	udiv	r0, r2, lr
 80005ea:	fb0e 2210 	mls	r2, lr, r0, r2
 80005ee:	ea44 4402 	orr.w	r4, r4, r2, lsl #16
 80005f2:	fb00 f505 	mul.w	r5, r0, r5
 80005f6:	42a5      	cmp	r5, r4
 80005f8:	d90a      	bls.n	8000610 <__udivmoddi4+0x90>
 80005fa:	eb1c 0404 	adds.w	r4, ip, r4
 80005fe:	f100 32ff 	add.w	r2, r0, #4294967295
 8000602:	f080 8107 	bcs.w	8000814 <__udivmoddi4+0x294>
 8000606:	42a5      	cmp	r5, r4
 8000608:	f240 8104 	bls.w	8000814 <__udivmoddi4+0x294>
 800060c:	4464      	add	r4, ip
 800060e:	3802      	subs	r0, #2
 8000610:	ea40 4001 	orr.w	r0, r0, r1, lsl #16
 8000614:	1b64      	subs	r4, r4, r5
 8000616:	2100      	movs	r1, #0
 8000618:	b11e      	cbz	r6, 8000622 <__udivmoddi4+0xa2>
 800061a:	40dc      	lsrs	r4, r3
 800061c:	2300      	movs	r3, #0
 800061e:	e9c6 4300 	strd	r4, r3, [r6]
 8000622:	e8bd 87f0 	ldmia.w	sp!, {r4, r5, r6, r7, r8, r9, sl, pc}
 8000626:	428b      	cmp	r3, r1
 8000628:	d908      	bls.n	800063c <__udivmoddi4+0xbc>
 800062a:	2e00      	cmp	r6, #0
 800062c:	f000 80ed 	beq.w	800080a <__udivmoddi4+0x28a>
 8000630:	2100      	movs	r1, #0
 8000632:	e9c6 0500 	strd	r0, r5, [r6]
 8000636:	4608      	mov	r0, r1
 8000638:	e8bd 87f0 	ldmia.w	sp!, {r4, r5, r6, r7, r8, r9, sl, pc}
 800063c:	fab3 f183 	clz	r1, r3
 8000640:	2900      	cmp	r1, #0
 8000642:	d149      	bne.n	80006d8 <__udivmoddi4+0x158>
 8000644:	42ab      	cmp	r3, r5
 8000646:	d302      	bcc.n	800064e <__udivmoddi4+0xce>
 8000648:	4282      	cmp	r2, r0
 800064a:	f200 80f8 	bhi.w	800083e <__udivmoddi4+0x2be>
 800064e:	1a84      	subs	r4, r0, r2
 8000650:	eb65 0203 	sbc.w	r2, r5, r3
 8000654:	2001      	movs	r0, #1
 8000656:	4617      	mov	r7, r2
 8000658:	2e00      	cmp	r6, #0
 800065a:	d0e2      	beq.n	8000622 <__udivmoddi4+0xa2>
 800065c:	e9c6 4700 	strd	r4, r7, [r6]
 8000660:	e7df      	b.n	8000622 <__udivmoddi4+0xa2>
 8000662:	b902      	cbnz	r2, 8000666 <__udivmoddi4+0xe6>
 8000664:	deff      	udf	#255	; 0xff
 8000666:	fab2 f382 	clz	r3, r2
 800066a:	2b00      	cmp	r3, #0
 800066c:	f040 8090 	bne.w	8000790 <__udivmoddi4+0x210>
 8000670:	1a8a      	subs	r2, r1, r2
 8000672:	ea4f 471c 	mov.w	r7, ip, lsr #16
 8000676:	fa1f fe8c 	uxth.w	lr, ip
 800067a:	2101      	movs	r1, #1
 800067c:	fbb2 f5f7 	udiv	r5, r2, r7
 8000680:	fb07 2015 	mls	r0, r7, r5, r2
 8000684:	0c22      	lsrs	r2, r4, #16
 8000686:	ea42 4200 	orr.w	r2, r2, r0, lsl #16
 800068a:	fb0e f005 	mul.w	r0, lr, r5
 800068e:	4290      	cmp	r0, r2
 8000690:	d908      	bls.n	80006a4 <__udivmoddi4+0x124>
 8000692:	eb1c 0202 	adds.w	r2, ip, r2
 8000696:	f105 38ff 	add.w	r8, r5, #4294967295
 800069a:	d202      	bcs.n	80006a2 <__udivmoddi4+0x122>
 800069c:	4290      	cmp	r0, r2
 800069e:	f200 80cb 	bhi.w	8000838 <__udivmoddi4+0x2b8>
 80006a2:	4645      	mov	r5, r8
 80006a4:	1a12      	subs	r2, r2, r0
 80006a6:	b2a4      	uxth	r4, r4
 80006a8:	fbb2 f0f7 	udiv	r0, r2, r7
 80006ac:	fb07 2210 	mls	r2, r7, r0, r2
 80006b0:	ea44 4402 	orr.w	r4, r4, r2, lsl #16
 80006b4:	fb0e fe00 	mul.w	lr, lr, r0
 80006b8:	45a6      	cmp	lr, r4
 80006ba:	d908      	bls.n	80006ce <__udivmoddi4+0x14e>
 80006bc:	eb1c 0404 	adds.w	r4, ip, r4
 80006c0:	f100 32ff 	add.w	r2, r0, #4294967295
 80006c4:	d202      	bcs.n	80006cc <__udivmoddi4+0x14c>
 80006c6:	45a6      	cmp	lr, r4
 80006c8:	f200 80bb 	bhi.w	8000842 <__udivmoddi4+0x2c2>
 80006cc:	4610      	mov	r0, r2
 80006ce:	eba4 040e 	sub.w	r4, r4, lr
 80006d2:	ea40 4005 	orr.w	r0, r0, r5, lsl #16
 80006d6:	e79f      	b.n	8000618 <__udivmoddi4+0x98>
 80006d8:	f1c1 0720 	rsb	r7, r1, #32
 80006dc:	408b      	lsls	r3, r1
 80006de:	fa22 fc07 	lsr.w	ip, r2, r7
 80006e2:	ea4c 0c03 	orr.w	ip, ip, r3
 80006e6:	fa05 f401 	lsl.w	r4, r5, r1
 80006ea:	fa20 f307 	lsr.w	r3, r0, r7
 80006ee:	40fd      	lsrs	r5, r7
 80006f0:	ea4f 491c 	mov.w	r9, ip, lsr #16
 80006f4:	4323      	orrs	r3, r4
 80006f6:	fbb5 f8f9 	udiv	r8, r5, r9
 80006fa:	fa1f fe8c 	uxth.w	lr, ip
 80006fe:	fb09 5518 	mls	r5, r9, r8, r5
 8000702:	0c1c      	lsrs	r4, r3, #16
 8000704:	ea44 4405 	orr.w	r4, r4, r5, lsl #16
 8000708:	fb08 f50e 	mul.w	r5, r8, lr
 800070c:	42a5      	cmp	r5, r4
 800070e:	fa02 f201 	lsl.w	r2, r2, r1
 8000712:	fa00 f001 	lsl.w	r0, r0, r1
 8000716:	d90b      	bls.n	8000730 <__udivmoddi4+0x1b0>
 8000718:	eb1c 0404 	adds.w	r4, ip, r4
 800071c:	f108 3aff 	add.w	sl, r8, #4294967295
 8000720:	f080 8088 	bcs.w	8000834 <__udivmoddi4+0x2b4>
 8000724:	42a5      	cmp	r5, r4
 8000726:	f240 8085 	bls.w	8000834 <__udivmoddi4+0x2b4>
 800072a:	f1a8 0802 	sub.w	r8, r8, #2
 800072e:	4464      	add	r4, ip
 8000730:	1b64      	subs	r4, r4, r5
 8000732:	b29d      	uxth	r5, r3
 8000734:	fbb4 f3f9 	udiv	r3, r4, r9
 8000738:	fb09 4413 	mls	r4, r9, r3, r4
 800073c:	ea45 4404 	orr.w	r4, r5, r4, lsl #16
 8000740:	fb03 fe0e 	mul.w	lr, r3, lr
 8000744:	45a6      	cmp	lr, r4
 8000746:	d908      	bls.n	800075a <__udivmoddi4+0x1da>
 8000748:	eb1c 0404 	adds.w	r4, ip, r4
 800074c:	f103 35ff 	add.w	r5, r3, #4294967295
 8000750:	d26c      	bcs.n	800082c <__udivmoddi4+0x2ac>
 8000752:	45a6      	cmp	lr, r4
 8000754:	d96a      	bls.n	800082c <__udivmoddi4+0x2ac>
 8000756:	3b02      	subs	r3, #2
 8000758:	4464      	add	r4, ip
 800075a:	ea43 4308 	orr.w	r3, r3, r8, lsl #16
 800075e:	fba3 9502 	umull	r9, r5, r3, r2
 8000762:	eba4 040e 	sub.w	r4, r4, lr
 8000766:	42ac      	cmp	r4, r5
 8000768:	46c8      	mov	r8, r9
 800076a:	46ae      	mov	lr, r5
 800076c:	d356      	bcc.n	800081c <__udivmoddi4+0x29c>
 800076e:	d053      	beq.n	8000818 <__udivmoddi4+0x298>
 8000770:	b156      	cbz	r6, 8000788 <__udivmoddi4+0x208>
 8000772:	ebb0 0208 	subs.w	r2, r0, r8
 8000776:	eb64 040e 	sbc.w	r4, r4, lr
 800077a:	fa04 f707 	lsl.w	r7, r4, r7
 800077e:	40ca      	lsrs	r2, r1
 8000780:	40cc      	lsrs	r4, r1
 8000782:	4317      	orrs	r7, r2
 8000784:	e9c6 7400 	strd	r7, r4, [r6]
 8000788:	4618      	mov	r0, r3
 800078a:	2100      	movs	r1, #0
 800078c:	e8bd 87f0 	ldmia.w	sp!, {r4, r5, r6, r7, r8, r9, sl, pc}
 8000790:	f1c3 0120 	rsb	r1, r3, #32
 8000794:	fa02 fc03 	lsl.w	ip, r2, r3
 8000798:	fa20 f201 	lsr.w	r2, r0, r1
 800079c:	fa25 f101 	lsr.w	r1, r5, r1
 80007a0:	409d      	lsls	r5, r3
 80007a2:	432a      	orrs	r2, r5
 80007a4:	ea4f 471c 	mov.w	r7, ip, lsr #16
 80007a8:	fa1f fe8c 	uxth.w	lr, ip
 80007ac:	fbb1 f0f7 	udiv	r0, r1, r7
 80007b0:	fb07 1510 	mls	r5, r7, r0, r1
 80007b4:	0c11      	lsrs	r1, r2, #16
 80007b6:	ea41 4105 	orr.w	r1, r1, r5, lsl #16
 80007ba:	fb00 f50e 	mul.w	r5, r0, lr
 80007be:	428d      	cmp	r5, r1
 80007c0:	fa04 f403 	lsl.w	r4, r4, r3
 80007c4:	d908      	bls.n	80007d8 <__udivmoddi4+0x258>
 80007c6:	eb1c 0101 	adds.w	r1, ip, r1
 80007ca:	f100 38ff 	add.w	r8, r0, #4294967295
 80007ce:	d22f      	bcs.n	8000830 <__udivmoddi4+0x2b0>
 80007d0:	428d      	cmp	r5, r1
 80007d2:	d92d      	bls.n	8000830 <__udivmoddi4+0x2b0>
 80007d4:	3802      	subs	r0, #2
 80007d6:	4461      	add	r1, ip
 80007d8:	1b49      	subs	r1, r1, r5
 80007da:	b292      	uxth	r2, r2
 80007dc:	fbb1 f5f7 	udiv	r5, r1, r7
 80007e0:	fb07 1115 	mls	r1, r7, r5, r1
 80007e4:	ea42 4201 	orr.w	r2, r2, r1, lsl #16
 80007e8:	fb05 f10e 	mul.w	r1, r5, lr
 80007ec:	4291      	cmp	r1, r2
 80007ee:	d908      	bls.n	8000802 <__udivmoddi4+0x282>
 80007f0:	eb1c 0202 	adds.w	r2, ip, r2
 80007f4:	f105 38ff 	add.w	r8, r5, #4294967295
 80007f8:	d216      	bcs.n	8000828 <__udivmoddi4+0x2a8>
 80007fa:	4291      	cmp	r1, r2
 80007fc:	d914      	bls.n	8000828 <__udivmoddi4+0x2a8>
 80007fe:	3d02      	subs	r5, #2
 8000800:	4462      	add	r2, ip
 8000802:	1a52      	subs	r2, r2, r1
 8000804:	ea45 4100 	orr.w	r1, r5, r0, lsl #16
 8000808:	e738      	b.n	800067c <__udivmoddi4+0xfc>
 800080a:	4631      	mov	r1, r6
 800080c:	4630      	mov	r0, r6
 800080e:	e708      	b.n	8000622 <__udivmoddi4+0xa2>
 8000810:	4639      	mov	r1, r7
 8000812:	e6e6      	b.n	80005e2 <__udivmoddi4+0x62>
 8000814:	4610      	mov	r0, r2
 8000816:	e6fb      	b.n	8000610 <__udivmoddi4+0x90>
 8000818:	4548      	cmp	r0, r9
 800081a:	d2a9      	bcs.n	8000770 <__udivmoddi4+0x1f0>
 800081c:	ebb9 0802 	subs.w	r8, r9, r2
 8000820:	eb65 0e0c 	sbc.w	lr, r5, ip
 8000824:	3b01      	subs	r3, #1
 8000826:	e7a3      	b.n	8000770 <__udivmoddi4+0x1f0>
 8000828:	4645      	mov	r5, r8
 800082a:	e7ea      	b.n	8000802 <__udivmoddi4+0x282>
 800082c:	462b      	mov	r3, r5
 800082e:	e794      	b.n	800075a <__udivmoddi4+0x1da>
 8000830:	4640      	mov	r0, r8
 8000832:	e7d1      	b.n	80007d8 <__udivmoddi4+0x258>
 8000834:	46d0      	mov	r8, sl
 8000836:	e77b      	b.n	8000730 <__udivmoddi4+0x1b0>
 8000838:	3d02      	subs	r5, #2
 800083a:	4462      	add	r2, ip
 800083c:	e732      	b.n	80006a4 <__udivmoddi4+0x124>
 800083e:	4608      	mov	r0, r1
 8000840:	e70a      	b.n	8000658 <__udivmoddi4+0xd8>
 8000842:	4464      	add	r4, ip
 8000844:	3802      	subs	r0, #2
 8000846:	e742      	b.n	80006ce <__udivmoddi4+0x14e>

08000848 <__aeabi_idiv0>:
 8000848:	4770      	bx	lr
 800084a:	bf00      	nop

0800084c <APC1_Send_Receive_Command>:
		"APC1_ERROR_VOC",
		"APC1_ERROR_RHT",
		"APC1_ERROR_CRC"
};

HAL_StatusTypeDef APC1_Send_Receive_Command(UART_HandleTypeDef *huart, struct APC1_Command_Settings setting, int get_response) {
 800084c:	b580      	push	{r7, lr}
 800084e:	b086      	sub	sp, #24
 8000850:	af00      	add	r7, sp, #0
 8000852:	60f8      	str	r0, [r7, #12]
 8000854:	4638      	mov	r0, r7
 8000856:	e880 000e 	stmia.w	r0, {r1, r2, r3}

	HAL_StatusTypeDef status;

	memset(buffer, 0, BUFFER_SIZE);
 800085a:	2264      	movs	r2, #100	; 0x64
 800085c:	2100      	movs	r1, #0
 800085e:	4813      	ldr	r0, [pc, #76]	; (80008ac <APC1_Send_Receive_Command+0x60>)
 8000860:	f002 ff30 	bl	80036c4 <memset>
	if (get_response) {
 8000864:	6a3b      	ldr	r3, [r7, #32]
 8000866:	2b00      	cmp	r3, #0
 8000868:	d00d      	beq.n	8000886 <APC1_Send_Receive_Command+0x3a>
		if ((status = HAL_UART_Receive_IT(huart, buffer, setting.response_size)) != HAL_OK) {
 800086a:	7abb      	ldrb	r3, [r7, #10]
 800086c:	b29b      	uxth	r3, r3
 800086e:	461a      	mov	r2, r3
 8000870:	490e      	ldr	r1, [pc, #56]	; (80008ac <APC1_Send_Receive_Command+0x60>)
 8000872:	68f8      	ldr	r0, [r7, #12]
 8000874:	f001 ff8d 	bl	8002792 <HAL_UART_Receive_IT>
 8000878:	4603      	mov	r3, r0
 800087a:	75fb      	strb	r3, [r7, #23]
 800087c:	7dfb      	ldrb	r3, [r7, #23]
 800087e:	2b00      	cmp	r3, #0
 8000880:	d001      	beq.n	8000886 <APC1_Send_Receive_Command+0x3a>
			return status;
 8000882:	7dfb      	ldrb	r3, [r7, #23]
 8000884:	e00e      	b.n	80008a4 <APC1_Send_Receive_Command+0x58>
		}
	}
	if ((status = HAL_UART_Transmit(huart, setting.cmd, COMMAND_LENGHT, 2000)) != HAL_OK) {
 8000886:	4639      	mov	r1, r7
 8000888:	f44f 63fa 	mov.w	r3, #2000	; 0x7d0
 800088c:	2207      	movs	r2, #7
 800088e:	68f8      	ldr	r0, [r7, #12]
 8000890:	f001 feed 	bl	800266e <HAL_UART_Transmit>
 8000894:	4603      	mov	r3, r0
 8000896:	75fb      	strb	r3, [r7, #23]
 8000898:	7dfb      	ldrb	r3, [r7, #23]
 800089a:	2b00      	cmp	r3, #0
 800089c:	d001      	beq.n	80008a2 <APC1_Send_Receive_Command+0x56>
		return status;
 800089e:	7dfb      	ldrb	r3, [r7, #23]
 80008a0:	e000      	b.n	80008a4 <APC1_Send_Receive_Command+0x58>
	}

	return status;
 80008a2:	7dfb      	ldrb	r3, [r7, #23]

}
 80008a4:	4618      	mov	r0, r3
 80008a6:	3718      	adds	r7, #24
 80008a8:	46bd      	mov	sp, r7
 80008aa:	bd80      	pop	{r7, pc}
 80008ac:	200000a4 	.word	0x200000a4

080008b0 <APC1_Read_Mea_Data>:

	return status;

}

enum APC1_Status APC1_Read_Mea_Data(void) {
 80008b0:	b590      	push	{r4, r7, lr}
 80008b2:	b083      	sub	sp, #12
 80008b4:	af02      	add	r7, sp, #8

	if (APC1_Send_Receive_Command(&huart1, command[APC1_CMD_READ_MEA_DATA], GET_RESPONSE) != HAL_OK) {
 80008b6:	4b16      	ldr	r3, [pc, #88]	; (8000910 <APC1_Read_Mea_Data+0x60>)
 80008b8:	2201      	movs	r2, #1
 80008ba:	9200      	str	r2, [sp, #0]
 80008bc:	f8d3 200b 	ldr.w	r2, [r3, #11]
 80008c0:	4614      	mov	r4, r2
 80008c2:	f8d3 200f 	ldr.w	r2, [r3, #15]
 80008c6:	4610      	mov	r0, r2
 80008c8:	7cda      	ldrb	r2, [r3, #19]
 80008ca:	7d19      	ldrb	r1, [r3, #20]
 80008cc:	0209      	lsls	r1, r1, #8
 80008ce:	430a      	orrs	r2, r1
 80008d0:	7d5b      	ldrb	r3, [r3, #21]
 80008d2:	041b      	lsls	r3, r3, #16
 80008d4:	431a      	orrs	r2, r3
 80008d6:	2300      	movs	r3, #0
 80008d8:	f362 0317 	bfi	r3, r2, #0, #24
 80008dc:	4621      	mov	r1, r4
 80008de:	4602      	mov	r2, r0
 80008e0:	480c      	ldr	r0, [pc, #48]	; (8000914 <APC1_Read_Mea_Data+0x64>)
 80008e2:	f7ff ffb3 	bl	800084c <APC1_Send_Receive_Command>
 80008e6:	4603      	mov	r3, r0
 80008e8:	2b00      	cmp	r3, #0
 80008ea:	d001      	beq.n	80008f0 <APC1_Read_Mea_Data+0x40>
		return APC1_ERROR_CMD;
 80008ec:	2381      	movs	r3, #129	; 0x81
 80008ee:	e00a      	b.n	8000906 <APC1_Read_Mea_Data+0x56>
	}
	while (received_response == 0);
 80008f0:	bf00      	nop
 80008f2:	4b09      	ldr	r3, [pc, #36]	; (8000918 <APC1_Read_Mea_Data+0x68>)
 80008f4:	681b      	ldr	r3, [r3, #0]
 80008f6:	2b00      	cmp	r3, #0
 80008f8:	d0fb      	beq.n	80008f2 <APC1_Read_Mea_Data+0x42>
	received_response = 0;
 80008fa:	4b07      	ldr	r3, [pc, #28]	; (8000918 <APC1_Read_Mea_Data+0x68>)
 80008fc:	2200      	movs	r2, #0
 80008fe:	601a      	str	r2, [r3, #0]

	return APC1_Process_Mea_Data();
 8000900:	f000 f80c 	bl	800091c <APC1_Process_Mea_Data>
 8000904:	4603      	mov	r3, r0

}
 8000906:	4618      	mov	r0, r3
 8000908:	3704      	adds	r7, #4
 800090a:	46bd      	mov	sp, r7
 800090c:	bd90      	pop	{r4, r7, pc}
 800090e:	bf00      	nop
 8000910:	20000000 	.word	0x20000000
 8000914:	20000184 	.word	0x20000184
 8000918:	20000108 	.word	0x20000108

0800091c <APC1_Process_Mea_Data>:

enum APC1_Status APC1_Process_Mea_Data(void) {
 800091c:	b580      	push	{r7, lr}
 800091e:	b084      	sub	sp, #16
 8000920:	af00      	add	r7, sp, #0

	enum APC1_Status errorStat;

	if ((errorStat = APC1_Check_Checksum(SUM_OF_VALUES_MEA, CHECKSUM_LOW_OUTPUT_REGISTER, CHECKSUM_HIGH_OUTPUT_REGISTER)) != APC1_OK) {
 8000922:	223f      	movs	r2, #63	; 0x3f
 8000924:	213e      	movs	r1, #62	; 0x3e
 8000926:	203e      	movs	r0, #62	; 0x3e
 8000928:	f000 f852 	bl	80009d0 <APC1_Check_Checksum>
 800092c:	4603      	mov	r3, r0
 800092e:	72fb      	strb	r3, [r7, #11]
 8000930:	7afb      	ldrb	r3, [r7, #11]
 8000932:	2b00      	cmp	r3, #0
 8000934:	d004      	beq.n	8000940 <APC1_Process_Mea_Data+0x24>
		err = 8;
 8000936:	4b22      	ldr	r3, [pc, #136]	; (80009c0 <APC1_Process_Mea_Data+0xa4>)
 8000938:	2208      	movs	r2, #8
 800093a:	601a      	str	r2, [r3, #0]
		return errorStat;
 800093c:	7afb      	ldrb	r3, [r7, #11]
 800093e:	e03b      	b.n	80009b8 <APC1_Process_Mea_Data+0x9c>
	}

	if ((errorStat = APC1_Check_For_Error()) != APC1_OK) {
 8000940:	f000 f878 	bl	8000a34 <APC1_Check_For_Error>
 8000944:	4603      	mov	r3, r0
 8000946:	72fb      	strb	r3, [r7, #11]
 8000948:	7afb      	ldrb	r3, [r7, #11]
 800094a:	2b00      	cmp	r3, #0
 800094c:	d001      	beq.n	8000952 <APC1_Process_Mea_Data+0x36>
		return errorStat;
 800094e:	7afb      	ldrb	r3, [r7, #11]
 8000950:	e032      	b.n	80009b8 <APC1_Process_Mea_Data+0x9c>
	}

	uint16_t index = 4, i = 0;
 8000952:	2304      	movs	r3, #4
 8000954:	81fb      	strh	r3, [r7, #14]
 8000956:	2300      	movs	r3, #0
 8000958:	81bb      	strh	r3, [r7, #12]
	uint16_t *struct_member = &processed_data.pm1_0;
 800095a:	4b1a      	ldr	r3, [pc, #104]	; (80009c4 <APC1_Process_Mea_Data+0xa8>)
 800095c:	607b      	str	r3, [r7, #4]
	while (index < RS0_OUTPUT_REGISTER) {
 800095e:	e01c      	b.n	800099a <APC1_Process_Mea_Data+0x7e>
		if (index == RESERVED_OUTPUT_REGISTER) { // skip reserved two bytes in output data at address 0x20
 8000960:	89fb      	ldrh	r3, [r7, #14]
 8000962:	2b20      	cmp	r3, #32
 8000964:	d102      	bne.n	800096c <APC1_Process_Mea_Data+0x50>
			index += 2;
 8000966:	89fb      	ldrh	r3, [r7, #14]
 8000968:	3302      	adds	r3, #2
 800096a:	81fb      	strh	r3, [r7, #14]
		}
		struct_member[i++] = APC1_Convert(buffer[index], buffer[index + 1]);
 800096c:	89fb      	ldrh	r3, [r7, #14]
 800096e:	4a16      	ldr	r2, [pc, #88]	; (80009c8 <APC1_Process_Mea_Data+0xac>)
 8000970:	5cd3      	ldrb	r3, [r2, r3]
 8000972:	021b      	lsls	r3, r3, #8
 8000974:	b21a      	sxth	r2, r3
 8000976:	89fb      	ldrh	r3, [r7, #14]
 8000978:	3301      	adds	r3, #1
 800097a:	4913      	ldr	r1, [pc, #76]	; (80009c8 <APC1_Process_Mea_Data+0xac>)
 800097c:	5ccb      	ldrb	r3, [r1, r3]
 800097e:	b21b      	sxth	r3, r3
 8000980:	4313      	orrs	r3, r2
 8000982:	b219      	sxth	r1, r3
 8000984:	89bb      	ldrh	r3, [r7, #12]
 8000986:	1c5a      	adds	r2, r3, #1
 8000988:	81ba      	strh	r2, [r7, #12]
 800098a:	005b      	lsls	r3, r3, #1
 800098c:	687a      	ldr	r2, [r7, #4]
 800098e:	4413      	add	r3, r2
 8000990:	b28a      	uxth	r2, r1
 8000992:	801a      	strh	r2, [r3, #0]
		index += 2;
 8000994:	89fb      	ldrh	r3, [r7, #14]
 8000996:	3302      	adds	r3, #2
 8000998:	81fb      	strh	r3, [r7, #14]
	while (index < RS0_OUTPUT_REGISTER) {
 800099a:	89fb      	ldrh	r3, [r7, #14]
 800099c:	2b29      	cmp	r3, #41	; 0x29
 800099e:	d9df      	bls.n	8000960 <APC1_Process_Mea_Data+0x44>
	}
	processed_data.aqi = buffer[AQI_OUTPUT_REGISTER];
 80009a0:	4b09      	ldr	r3, [pc, #36]	; (80009c8 <APC1_Process_Mea_Data+0xac>)
 80009a2:	f893 203a 	ldrb.w	r2, [r3, #58]	; 0x3a
 80009a6:	4b07      	ldr	r3, [pc, #28]	; (80009c4 <APC1_Process_Mea_Data+0xa8>)
 80009a8:	f883 2024 	strb.w	r2, [r3, #36]	; 0x24
	dev_settings.fw_vesion = buffer[VERSION_OUTPUT_REGISTER];
 80009ac:	4b06      	ldr	r3, [pc, #24]	; (80009c8 <APC1_Process_Mea_Data+0xac>)
 80009ae:	f893 203c 	ldrb.w	r2, [r3, #60]	; 0x3c
 80009b2:	4b06      	ldr	r3, [pc, #24]	; (80009cc <APC1_Process_Mea_Data+0xb0>)
 80009b4:	705a      	strb	r2, [r3, #1]

	return APC1_OK;
 80009b6:	2300      	movs	r3, #0

}
 80009b8:	4618      	mov	r0, r3
 80009ba:	3710      	adds	r7, #16
 80009bc:	46bd      	mov	sp, r7
 80009be:	bd80      	pop	{r7, pc}
 80009c0:	2000010c 	.word	0x2000010c
 80009c4:	20000110 	.word	0x20000110
 80009c8:	200000a4 	.word	0x200000a4
 80009cc:	20000138 	.word	0x20000138

080009d0 <APC1_Check_Checksum>:

enum APC1_Status APC1_Check_Checksum(int limit, int low, int high) {
 80009d0:	b480      	push	{r7}
 80009d2:	b087      	sub	sp, #28
 80009d4:	af00      	add	r7, sp, #0
 80009d6:	60f8      	str	r0, [r7, #12]
 80009d8:	60b9      	str	r1, [r7, #8]
 80009da:	607a      	str	r2, [r7, #4]

	int sum = 0;
 80009dc:	2300      	movs	r3, #0
 80009de:	617b      	str	r3, [r7, #20]
	for (int i = 0; i<limit; i++) {
 80009e0:	2300      	movs	r3, #0
 80009e2:	613b      	str	r3, [r7, #16]
 80009e4:	e00a      	b.n	80009fc <APC1_Check_Checksum+0x2c>
		sum += buffer[i];
 80009e6:	4a12      	ldr	r2, [pc, #72]	; (8000a30 <APC1_Check_Checksum+0x60>)
 80009e8:	693b      	ldr	r3, [r7, #16]
 80009ea:	4413      	add	r3, r2
 80009ec:	781b      	ldrb	r3, [r3, #0]
 80009ee:	461a      	mov	r2, r3
 80009f0:	697b      	ldr	r3, [r7, #20]
 80009f2:	4413      	add	r3, r2
 80009f4:	617b      	str	r3, [r7, #20]
	for (int i = 0; i<limit; i++) {
 80009f6:	693b      	ldr	r3, [r7, #16]
 80009f8:	3301      	adds	r3, #1
 80009fa:	613b      	str	r3, [r7, #16]
 80009fc:	693a      	ldr	r2, [r7, #16]
 80009fe:	68fb      	ldr	r3, [r7, #12]
 8000a00:	429a      	cmp	r2, r3
 8000a02:	dbf0      	blt.n	80009e6 <APC1_Check_Checksum+0x16>
	}

	return (APC1_Convert(buffer[low], buffer[high])) == sum ? APC1_OK : APC1_ERROR_CRC;
 8000a04:	4a0a      	ldr	r2, [pc, #40]	; (8000a30 <APC1_Check_Checksum+0x60>)
 8000a06:	68bb      	ldr	r3, [r7, #8]
 8000a08:	4413      	add	r3, r2
 8000a0a:	781b      	ldrb	r3, [r3, #0]
 8000a0c:	021b      	lsls	r3, r3, #8
 8000a0e:	4908      	ldr	r1, [pc, #32]	; (8000a30 <APC1_Check_Checksum+0x60>)
 8000a10:	687a      	ldr	r2, [r7, #4]
 8000a12:	440a      	add	r2, r1
 8000a14:	7812      	ldrb	r2, [r2, #0]
 8000a16:	4313      	orrs	r3, r2
 8000a18:	697a      	ldr	r2, [r7, #20]
 8000a1a:	429a      	cmp	r2, r3
 8000a1c:	d101      	bne.n	8000a22 <APC1_Check_Checksum+0x52>
 8000a1e:	2300      	movs	r3, #0
 8000a20:	e000      	b.n	8000a24 <APC1_Check_Checksum+0x54>
 8000a22:	2380      	movs	r3, #128	; 0x80

}
 8000a24:	4618      	mov	r0, r3
 8000a26:	371c      	adds	r7, #28
 8000a28:	46bd      	mov	sp, r7
 8000a2a:	f85d 7b04 	ldr.w	r7, [sp], #4
 8000a2e:	4770      	bx	lr
 8000a30:	200000a4 	.word	0x200000a4

08000a34 <APC1_Check_For_Error>:

enum APC1_Status APC1_Check_For_Error(void) {
 8000a34:	b480      	push	{r7}
 8000a36:	af00      	add	r7, sp, #0

	// TODO: needs fix for multiple errors
	switch (buffer[ERROR_OUTPUT_REGISTER]) {
 8000a38:	4b3e      	ldr	r3, [pc, #248]	; (8000b34 <APC1_Check_For_Error+0x100>)
 8000a3a:	f893 303d 	ldrb.w	r3, [r3, #61]	; 0x3d
 8000a3e:	2b20      	cmp	r3, #32
 8000a40:	dc48      	bgt.n	8000ad4 <APC1_Check_For_Error+0xa0>
 8000a42:	2b00      	cmp	r3, #0
 8000a44:	dd6c      	ble.n	8000b20 <APC1_Check_For_Error+0xec>
 8000a46:	3b01      	subs	r3, #1
 8000a48:	2b1f      	cmp	r3, #31
 8000a4a:	d869      	bhi.n	8000b20 <APC1_Check_For_Error+0xec>
 8000a4c:	a201      	add	r2, pc, #4	; (adr r2, 8000a54 <APC1_Check_For_Error+0x20>)
 8000a4e:	f852 f023 	ldr.w	pc, [r2, r3, lsl #2]
 8000a52:	bf00      	nop
 8000a54:	08000adb 	.word	0x08000adb
 8000a58:	08000ae5 	.word	0x08000ae5
 8000a5c:	08000b21 	.word	0x08000b21
 8000a60:	08000aef 	.word	0x08000aef
 8000a64:	08000b21 	.word	0x08000b21
 8000a68:	08000b21 	.word	0x08000b21
 8000a6c:	08000b21 	.word	0x08000b21
 8000a70:	08000af9 	.word	0x08000af9
 8000a74:	08000b21 	.word	0x08000b21
 8000a78:	08000b21 	.word	0x08000b21
 8000a7c:	08000b21 	.word	0x08000b21
 8000a80:	08000b21 	.word	0x08000b21
 8000a84:	08000b21 	.word	0x08000b21
 8000a88:	08000b21 	.word	0x08000b21
 8000a8c:	08000b21 	.word	0x08000b21
 8000a90:	08000b03 	.word	0x08000b03
 8000a94:	08000b21 	.word	0x08000b21
 8000a98:	08000b21 	.word	0x08000b21
 8000a9c:	08000b21 	.word	0x08000b21
 8000aa0:	08000b21 	.word	0x08000b21
 8000aa4:	08000b21 	.word	0x08000b21
 8000aa8:	08000b21 	.word	0x08000b21
 8000aac:	08000b21 	.word	0x08000b21
 8000ab0:	08000b21 	.word	0x08000b21
 8000ab4:	08000b21 	.word	0x08000b21
 8000ab8:	08000b21 	.word	0x08000b21
 8000abc:	08000b21 	.word	0x08000b21
 8000ac0:	08000b21 	.word	0x08000b21
 8000ac4:	08000b21 	.word	0x08000b21
 8000ac8:	08000b21 	.word	0x08000b21
 8000acc:	08000b21 	.word	0x08000b21
 8000ad0:	08000b0d 	.word	0x08000b0d
 8000ad4:	2b40      	cmp	r3, #64	; 0x40
 8000ad6:	d01e      	beq.n	8000b16 <APC1_Check_For_Error+0xe2>
 8000ad8:	e022      	b.n	8000b20 <APC1_Check_For_Error+0xec>
		case APC1_ERROR_TOO_MANY_FAN_RESTARTS:
			err = 1;
 8000ada:	4b17      	ldr	r3, [pc, #92]	; (8000b38 <APC1_Check_For_Error+0x104>)
 8000adc:	2201      	movs	r2, #1
 8000ade:	601a      	str	r2, [r3, #0]
			return APC1_ERROR_TOO_MANY_FAN_RESTARTS;
 8000ae0:	2301      	movs	r3, #1
 8000ae2:	e021      	b.n	8000b28 <APC1_Check_For_Error+0xf4>
			break;
		case APC1_ERROR_FAN_SPEED_LOW:
			err = 2;
 8000ae4:	4b14      	ldr	r3, [pc, #80]	; (8000b38 <APC1_Check_For_Error+0x104>)
 8000ae6:	2202      	movs	r2, #2
 8000ae8:	601a      	str	r2, [r3, #0]
			return APC1_ERROR_FAN_SPEED_LOW;
 8000aea:	2302      	movs	r3, #2
 8000aec:	e01c      	b.n	8000b28 <APC1_Check_For_Error+0xf4>
			break;
		case APC1_ERROR_PHOTODIODE:
			err = 3;
 8000aee:	4b12      	ldr	r3, [pc, #72]	; (8000b38 <APC1_Check_For_Error+0x104>)
 8000af0:	2203      	movs	r2, #3
 8000af2:	601a      	str	r2, [r3, #0]
			return APC1_ERROR_PHOTODIODE;
 8000af4:	2304      	movs	r3, #4
 8000af6:	e017      	b.n	8000b28 <APC1_Check_For_Error+0xf4>
			break;
		case APC1_ERROR_FAN_STOPPED:
			err = 4;
 8000af8:	4b0f      	ldr	r3, [pc, #60]	; (8000b38 <APC1_Check_For_Error+0x104>)
 8000afa:	2204      	movs	r2, #4
 8000afc:	601a      	str	r2, [r3, #0]
			return APC1_ERROR_FAN_STOPPED;
 8000afe:	2308      	movs	r3, #8
 8000b00:	e012      	b.n	8000b28 <APC1_Check_For_Error+0xf4>
			break;
		case APC1_ERROR_LASER:
			err = 5;
 8000b02:	4b0d      	ldr	r3, [pc, #52]	; (8000b38 <APC1_Check_For_Error+0x104>)
 8000b04:	2205      	movs	r2, #5
 8000b06:	601a      	str	r2, [r3, #0]
			return APC1_ERROR_LASER;
 8000b08:	2310      	movs	r3, #16
 8000b0a:	e00d      	b.n	8000b28 <APC1_Check_For_Error+0xf4>
			break;
		case APC1_ERROR_VOC:
			err = 6;
 8000b0c:	4b0a      	ldr	r3, [pc, #40]	; (8000b38 <APC1_Check_For_Error+0x104>)
 8000b0e:	2206      	movs	r2, #6
 8000b10:	601a      	str	r2, [r3, #0]
			return APC1_ERROR_VOC;
 8000b12:	2320      	movs	r3, #32
 8000b14:	e008      	b.n	8000b28 <APC1_Check_For_Error+0xf4>
			break;
		case APC1_ERROR_RHT:
			err = 7;
 8000b16:	4b08      	ldr	r3, [pc, #32]	; (8000b38 <APC1_Check_For_Error+0x104>)
 8000b18:	2207      	movs	r2, #7
 8000b1a:	601a      	str	r2, [r3, #0]
			return APC1_ERROR_RHT;
 8000b1c:	2340      	movs	r3, #64	; 0x40
 8000b1e:	e003      	b.n	8000b28 <APC1_Check_For_Error+0xf4>
			break;
		default:
			err = 0;
 8000b20:	4b05      	ldr	r3, [pc, #20]	; (8000b38 <APC1_Check_For_Error+0x104>)
 8000b22:	2200      	movs	r2, #0
 8000b24:	601a      	str	r2, [r3, #0]
			return APC1_OK;
 8000b26:	2300      	movs	r3, #0
			break;
	}

}
 8000b28:	4618      	mov	r0, r3
 8000b2a:	46bd      	mov	sp, r7
 8000b2c:	f85d 7b04 	ldr.w	r7, [sp], #4
 8000b30:	4770      	bx	lr
 8000b32:	bf00      	nop
 8000b34:	200000a4 	.word	0x200000a4
 8000b38:	2000010c 	.word	0x2000010c

08000b3c <APC1_Set_Idle_Mode>:

enum APC1_Status APC1_Set_Idle_Mode(void) {
 8000b3c:	b580      	push	{r7, lr}
 8000b3e:	b082      	sub	sp, #8
 8000b40:	af02      	add	r7, sp, #8

	if (APC1_Send_Receive_Command(&huart1, command[APC1_CMD_SET_IDLE_MODE], GET_RESPONSE) != HAL_OK) {
 8000b42:	4b0f      	ldr	r3, [pc, #60]	; (8000b80 <APC1_Set_Idle_Mode+0x44>)
 8000b44:	2201      	movs	r2, #1
 8000b46:	9200      	str	r2, [sp, #0]
 8000b48:	332c      	adds	r3, #44	; 0x2c
 8000b4a:	cb0e      	ldmia	r3, {r1, r2, r3}
 8000b4c:	480d      	ldr	r0, [pc, #52]	; (8000b84 <APC1_Set_Idle_Mode+0x48>)
 8000b4e:	f7ff fe7d 	bl	800084c <APC1_Send_Receive_Command>
 8000b52:	4603      	mov	r3, r0
 8000b54:	2b00      	cmp	r3, #0
 8000b56:	d001      	beq.n	8000b5c <APC1_Set_Idle_Mode+0x20>
		return APC1_ERROR_CMD;
 8000b58:	2381      	movs	r3, #129	; 0x81
 8000b5a:	e00e      	b.n	8000b7a <APC1_Set_Idle_Mode+0x3e>
	}
	while (received_response == 0);
 8000b5c:	bf00      	nop
 8000b5e:	4b0a      	ldr	r3, [pc, #40]	; (8000b88 <APC1_Set_Idle_Mode+0x4c>)
 8000b60:	681b      	ldr	r3, [r3, #0]
 8000b62:	2b00      	cmp	r3, #0
 8000b64:	d0fb      	beq.n	8000b5e <APC1_Set_Idle_Mode+0x22>
	received_response = 0;
 8000b66:	4b08      	ldr	r3, [pc, #32]	; (8000b88 <APC1_Set_Idle_Mode+0x4c>)
 8000b68:	2200      	movs	r2, #0
 8000b6a:	601a      	str	r2, [r3, #0]

	return APC1_Check_Command_Answer(command[APC1_CMD_SET_IDLE_MODE]);
 8000b6c:	4b04      	ldr	r3, [pc, #16]	; (8000b80 <APC1_Set_Idle_Mode+0x44>)
 8000b6e:	332c      	adds	r3, #44	; 0x2c
 8000b70:	e893 0007 	ldmia.w	r3, {r0, r1, r2}
 8000b74:	f000 f852 	bl	8000c1c <APC1_Check_Command_Answer>
 8000b78:	4603      	mov	r3, r0

}
 8000b7a:	4618      	mov	r0, r3
 8000b7c:	46bd      	mov	sp, r7
 8000b7e:	bd80      	pop	{r7, pc}
 8000b80:	20000000 	.word	0x20000000
 8000b84:	20000184 	.word	0x20000184
 8000b88:	20000108 	.word	0x20000108

08000b8c <APC1_Set_Mea_Mode>:
	return APC1_Check_Command_Answer(command[APC1_CMD_SET_ACTIVE_COMM]);

}

// TODO: still a mystery what happens in active mode
enum APC1_Status APC1_Set_Mea_Mode(void) {
 8000b8c:	b590      	push	{r4, r7, lr}
 8000b8e:	b083      	sub	sp, #12
 8000b90:	af02      	add	r7, sp, #8

	// if device mode is ACTIVE, then there is a response, otherwise not
	if (APC1_Send_Receive_Command(&huart1, command[APC1_CMD_SET_MEA_MODE],
		(dev_settings.mode) ? GET_RESPONSE : NO_RESPONSE) != HAL_OK) {
 8000b92:	4b1e      	ldr	r3, [pc, #120]	; (8000c0c <APC1_Set_Mea_Mode+0x80>)
 8000b94:	781b      	ldrb	r3, [r3, #0]
	if (APC1_Send_Receive_Command(&huart1, command[APC1_CMD_SET_MEA_MODE],
 8000b96:	2b00      	cmp	r3, #0
 8000b98:	bf14      	ite	ne
 8000b9a:	2301      	movne	r3, #1
 8000b9c:	2300      	moveq	r3, #0
 8000b9e:	b2db      	uxtb	r3, r3
 8000ba0:	461a      	mov	r2, r3
 8000ba2:	4b1b      	ldr	r3, [pc, #108]	; (8000c10 <APC1_Set_Mea_Mode+0x84>)
 8000ba4:	9200      	str	r2, [sp, #0]
 8000ba6:	f8d3 2037 	ldr.w	r2, [r3, #55]	; 0x37
 8000baa:	4614      	mov	r4, r2
 8000bac:	f8d3 203b 	ldr.w	r2, [r3, #59]	; 0x3b
 8000bb0:	4610      	mov	r0, r2
 8000bb2:	f893 203f 	ldrb.w	r2, [r3, #63]	; 0x3f
 8000bb6:	f893 1040 	ldrb.w	r1, [r3, #64]	; 0x40
 8000bba:	0209      	lsls	r1, r1, #8
 8000bbc:	430a      	orrs	r2, r1
 8000bbe:	f893 3041 	ldrb.w	r3, [r3, #65]	; 0x41
 8000bc2:	041b      	lsls	r3, r3, #16
 8000bc4:	431a      	orrs	r2, r3
 8000bc6:	2300      	movs	r3, #0
 8000bc8:	f362 0317 	bfi	r3, r2, #0, #24
 8000bcc:	4621      	mov	r1, r4
 8000bce:	4602      	mov	r2, r0
 8000bd0:	4810      	ldr	r0, [pc, #64]	; (8000c14 <APC1_Set_Mea_Mode+0x88>)
 8000bd2:	f7ff fe3b 	bl	800084c <APC1_Send_Receive_Command>
 8000bd6:	4603      	mov	r3, r0
 8000bd8:	2b00      	cmp	r3, #0
 8000bda:	d001      	beq.n	8000be0 <APC1_Set_Mea_Mode+0x54>
		return APC1_ERROR_CMD;
 8000bdc:	2381      	movs	r3, #129	; 0x81
 8000bde:	e010      	b.n	8000c02 <APC1_Set_Mea_Mode+0x76>
	}
	if (dev_settings.mode) {
 8000be0:	4b0a      	ldr	r3, [pc, #40]	; (8000c0c <APC1_Set_Mea_Mode+0x80>)
 8000be2:	781b      	ldrb	r3, [r3, #0]
 8000be4:	2b00      	cmp	r3, #0
 8000be6:	d00b      	beq.n	8000c00 <APC1_Set_Mea_Mode+0x74>
		while (received_response == 0);
 8000be8:	bf00      	nop
 8000bea:	4b0b      	ldr	r3, [pc, #44]	; (8000c18 <APC1_Set_Mea_Mode+0x8c>)
 8000bec:	681b      	ldr	r3, [r3, #0]
 8000bee:	2b00      	cmp	r3, #0
 8000bf0:	d0fb      	beq.n	8000bea <APC1_Set_Mea_Mode+0x5e>
		received_response = 0;
 8000bf2:	4b09      	ldr	r3, [pc, #36]	; (8000c18 <APC1_Set_Mea_Mode+0x8c>)
 8000bf4:	2200      	movs	r2, #0
 8000bf6:	601a      	str	r2, [r3, #0]
		return APC1_Process_Mea_Data();
 8000bf8:	f7ff fe90 	bl	800091c <APC1_Process_Mea_Data>
 8000bfc:	4603      	mov	r3, r0
 8000bfe:	e000      	b.n	8000c02 <APC1_Set_Mea_Mode+0x76>
	}

	return APC1_OK;
 8000c00:	2300      	movs	r3, #0

}
 8000c02:	4618      	mov	r0, r3
 8000c04:	3704      	adds	r7, #4
 8000c06:	46bd      	mov	sp, r7
 8000c08:	bd90      	pop	{r4, r7, pc}
 8000c0a:	bf00      	nop
 8000c0c:	20000138 	.word	0x20000138
 8000c10:	20000000 	.word	0x20000000
 8000c14:	20000184 	.word	0x20000184
 8000c18:	20000108 	.word	0x20000108

08000c1c <APC1_Check_Command_Answer>:

	return APC1_Check_Command_Answer(command[APC1_CMD_SET_PASSIVE_COMM]);

}

enum APC1_Status APC1_Check_Command_Answer(struct APC1_Command_Settings setting) {
 8000c1c:	b580      	push	{r7, lr}
 8000c1e:	b084      	sub	sp, #16
 8000c20:	af00      	add	r7, sp, #0
 8000c22:	1d3b      	adds	r3, r7, #4
 8000c24:	e883 0007 	stmia.w	r3, {r0, r1, r2}

	if (setting.da_frame_lenght_l != buffer[ANSWER_FRAME_LENGTH_L] ||
 8000c28:	7afa      	ldrb	r2, [r7, #11]
 8000c2a:	4b0d      	ldr	r3, [pc, #52]	; (8000c60 <APC1_Check_Command_Answer+0x44>)
 8000c2c:	78db      	ldrb	r3, [r3, #3]
 8000c2e:	429a      	cmp	r2, r3
 8000c30:	d109      	bne.n	8000c46 <APC1_Check_Command_Answer+0x2a>
		setting.da_cmd_or_data != buffer[ANSWER_CMD] ||
 8000c32:	7b3a      	ldrb	r2, [r7, #12]
 8000c34:	4b0a      	ldr	r3, [pc, #40]	; (8000c60 <APC1_Check_Command_Answer+0x44>)
 8000c36:	791b      	ldrb	r3, [r3, #4]
	if (setting.da_frame_lenght_l != buffer[ANSWER_FRAME_LENGTH_L] ||
 8000c38:	429a      	cmp	r2, r3
 8000c3a:	d104      	bne.n	8000c46 <APC1_Check_Command_Answer+0x2a>
		setting.da_modeL_or_data != buffer[ANSWER_DATA]) {
 8000c3c:	7b7a      	ldrb	r2, [r7, #13]
 8000c3e:	4b08      	ldr	r3, [pc, #32]	; (8000c60 <APC1_Check_Command_Answer+0x44>)
 8000c40:	795b      	ldrb	r3, [r3, #5]
		setting.da_cmd_or_data != buffer[ANSWER_CMD] ||
 8000c42:	429a      	cmp	r2, r3
 8000c44:	d001      	beq.n	8000c4a <APC1_Check_Command_Answer+0x2e>
		return APC1_ERROR_CMD;
 8000c46:	2381      	movs	r3, #129	; 0x81
 8000c48:	e005      	b.n	8000c56 <APC1_Check_Command_Answer+0x3a>
	}

	return APC1_Check_Checksum(SUM_OF_VALUES_CMD, CHECKSUM_LOW_CMD_ANSWER, CHECKSUM_HIGH_CMD_ANSWER);
 8000c4a:	2207      	movs	r2, #7
 8000c4c:	2106      	movs	r1, #6
 8000c4e:	2006      	movs	r0, #6
 8000c50:	f7ff febe 	bl	80009d0 <APC1_Check_Checksum>
 8000c54:	4603      	mov	r3, r0

}
 8000c56:	4618      	mov	r0, r3
 8000c58:	3710      	adds	r7, #16
 8000c5a:	46bd      	mov	sp, r7
 8000c5c:	bd80      	pop	{r7, pc}
 8000c5e:	bf00      	nop
 8000c60:	200000a4 	.word	0x200000a4

08000c64 <APC1_Get_PM1_0>:

uint16_t APC1_Get_PM1_0(void) {
 8000c64:	b480      	push	{r7}
 8000c66:	af00      	add	r7, sp, #0

	return processed_data.pm1_0;
 8000c68:	4b03      	ldr	r3, [pc, #12]	; (8000c78 <APC1_Get_PM1_0+0x14>)
 8000c6a:	881b      	ldrh	r3, [r3, #0]

}
 8000c6c:	4618      	mov	r0, r3
 8000c6e:	46bd      	mov	sp, r7
 8000c70:	f85d 7b04 	ldr.w	r7, [sp], #4
 8000c74:	4770      	bx	lr
 8000c76:	bf00      	nop
 8000c78:	20000110 	.word	0x20000110

08000c7c <APC1_Get_PM2_5>:

uint16_t APC1_Get_PM2_5(void) {
 8000c7c:	b480      	push	{r7}
 8000c7e:	af00      	add	r7, sp, #0

	return processed_data.pm2_5;
 8000c80:	4b03      	ldr	r3, [pc, #12]	; (8000c90 <APC1_Get_PM2_5+0x14>)
 8000c82:	885b      	ldrh	r3, [r3, #2]

}
 8000c84:	4618      	mov	r0, r3
 8000c86:	46bd      	mov	sp, r7
 8000c88:	f85d 7b04 	ldr.w	r7, [sp], #4
 8000c8c:	4770      	bx	lr
 8000c8e:	bf00      	nop
 8000c90:	20000110 	.word	0x20000110

08000c94 <APC1_Get_PM10>:

uint16_t APC1_Get_PM10(void) {
 8000c94:	b480      	push	{r7}
 8000c96:	af00      	add	r7, sp, #0

	return processed_data.pm10;
 8000c98:	4b03      	ldr	r3, [pc, #12]	; (8000ca8 <APC1_Get_PM10+0x14>)
 8000c9a:	889b      	ldrh	r3, [r3, #4]

}
 8000c9c:	4618      	mov	r0, r3
 8000c9e:	46bd      	mov	sp, r7
 8000ca0:	f85d 7b04 	ldr.w	r7, [sp], #4
 8000ca4:	4770      	bx	lr
 8000ca6:	bf00      	nop
 8000ca8:	20000110 	.word	0x20000110

08000cac <APC1_Get_PM1_0_air>:

uint16_t APC1_Get_PM1_0_air(void) {
 8000cac:	b480      	push	{r7}
 8000cae:	af00      	add	r7, sp, #0

	return processed_data.pm1_0_air;
 8000cb0:	4b03      	ldr	r3, [pc, #12]	; (8000cc0 <APC1_Get_PM1_0_air+0x14>)
 8000cb2:	88db      	ldrh	r3, [r3, #6]

}
 8000cb4:	4618      	mov	r0, r3
 8000cb6:	46bd      	mov	sp, r7
 8000cb8:	f85d 7b04 	ldr.w	r7, [sp], #4
 8000cbc:	4770      	bx	lr
 8000cbe:	bf00      	nop
 8000cc0:	20000110 	.word	0x20000110

08000cc4 <APC1_Get_PM2_5_air>:

uint16_t APC1_Get_PM2_5_air(void) {
 8000cc4:	b480      	push	{r7}
 8000cc6:	af00      	add	r7, sp, #0

	return processed_data.pm2_5_air;
 8000cc8:	4b03      	ldr	r3, [pc, #12]	; (8000cd8 <APC1_Get_PM2_5_air+0x14>)
 8000cca:	891b      	ldrh	r3, [r3, #8]

}
 8000ccc:	4618      	mov	r0, r3
 8000cce:	46bd      	mov	sp, r7
 8000cd0:	f85d 7b04 	ldr.w	r7, [sp], #4
 8000cd4:	4770      	bx	lr
 8000cd6:	bf00      	nop
 8000cd8:	20000110 	.word	0x20000110

08000cdc <APC1_Get_PM10_air>:

uint16_t APC1_Get_PM10_air(void) {
 8000cdc:	b480      	push	{r7}
 8000cde:	af00      	add	r7, sp, #0

	return processed_data.pm10_air;
 8000ce0:	4b03      	ldr	r3, [pc, #12]	; (8000cf0 <APC1_Get_PM10_air+0x14>)
 8000ce2:	895b      	ldrh	r3, [r3, #10]

}
 8000ce4:	4618      	mov	r0, r3
 8000ce6:	46bd      	mov	sp, r7
 8000ce8:	f85d 7b04 	ldr.w	r7, [sp], #4
 8000cec:	4770      	bx	lr
 8000cee:	bf00      	nop
 8000cf0:	20000110 	.word	0x20000110

08000cf4 <APC1_Get_Particles_GT_0_3>:

uint16_t APC1_Get_Particles_GT_0_3(void) {
 8000cf4:	b480      	push	{r7}
 8000cf6:	af00      	add	r7, sp, #0

	return processed_data.particles_0_3;
 8000cf8:	4b03      	ldr	r3, [pc, #12]	; (8000d08 <APC1_Get_Particles_GT_0_3+0x14>)
 8000cfa:	899b      	ldrh	r3, [r3, #12]

}
 8000cfc:	4618      	mov	r0, r3
 8000cfe:	46bd      	mov	sp, r7
 8000d00:	f85d 7b04 	ldr.w	r7, [sp], #4
 8000d04:	4770      	bx	lr
 8000d06:	bf00      	nop
 8000d08:	20000110 	.word	0x20000110

08000d0c <APC1_Get_Particles_GT_0_5>:

uint16_t APC1_Get_Particles_GT_0_5(void) {
 8000d0c:	b480      	push	{r7}
 8000d0e:	af00      	add	r7, sp, #0

	return processed_data.particles_0_5 - processed_data.particles_0_3;
 8000d10:	4b05      	ldr	r3, [pc, #20]	; (8000d28 <APC1_Get_Particles_GT_0_5+0x1c>)
 8000d12:	89da      	ldrh	r2, [r3, #14]
 8000d14:	4b04      	ldr	r3, [pc, #16]	; (8000d28 <APC1_Get_Particles_GT_0_5+0x1c>)
 8000d16:	899b      	ldrh	r3, [r3, #12]
 8000d18:	1ad3      	subs	r3, r2, r3
 8000d1a:	b29b      	uxth	r3, r3

}
 8000d1c:	4618      	mov	r0, r3
 8000d1e:	46bd      	mov	sp, r7
 8000d20:	f85d 7b04 	ldr.w	r7, [sp], #4
 8000d24:	4770      	bx	lr
 8000d26:	bf00      	nop
 8000d28:	20000110 	.word	0x20000110

08000d2c <APC1_Get_Particles_GT_1_0>:

uint16_t APC1_Get_Particles_GT_1_0(void) {
 8000d2c:	b480      	push	{r7}
 8000d2e:	af00      	add	r7, sp, #0

	return processed_data.particles_1_0 - processed_data.particles_0_3;
 8000d30:	4b05      	ldr	r3, [pc, #20]	; (8000d48 <APC1_Get_Particles_GT_1_0+0x1c>)
 8000d32:	8a1a      	ldrh	r2, [r3, #16]
 8000d34:	4b04      	ldr	r3, [pc, #16]	; (8000d48 <APC1_Get_Particles_GT_1_0+0x1c>)
 8000d36:	899b      	ldrh	r3, [r3, #12]
 8000d38:	1ad3      	subs	r3, r2, r3
 8000d3a:	b29b      	uxth	r3, r3

}
 8000d3c:	4618      	mov	r0, r3
 8000d3e:	46bd      	mov	sp, r7
 8000d40:	f85d 7b04 	ldr.w	r7, [sp], #4
 8000d44:	4770      	bx	lr
 8000d46:	bf00      	nop
 8000d48:	20000110 	.word	0x20000110

08000d4c <APC1_Get_Particles_GT_2_5>:

uint16_t APC1_Get_Particles_GT_2_5(void) {
 8000d4c:	b480      	push	{r7}
 8000d4e:	af00      	add	r7, sp, #0

	return processed_data.particles_2_5 - processed_data.particles_0_3;
 8000d50:	4b05      	ldr	r3, [pc, #20]	; (8000d68 <APC1_Get_Particles_GT_2_5+0x1c>)
 8000d52:	8a5a      	ldrh	r2, [r3, #18]
 8000d54:	4b04      	ldr	r3, [pc, #16]	; (8000d68 <APC1_Get_Particles_GT_2_5+0x1c>)
 8000d56:	899b      	ldrh	r3, [r3, #12]
 8000d58:	1ad3      	subs	r3, r2, r3
 8000d5a:	b29b      	uxth	r3, r3

}
 8000d5c:	4618      	mov	r0, r3
 8000d5e:	46bd      	mov	sp, r7
 8000d60:	f85d 7b04 	ldr.w	r7, [sp], #4
 8000d64:	4770      	bx	lr
 8000d66:	bf00      	nop
 8000d68:	20000110 	.word	0x20000110

08000d6c <APC1_Get_Particles_GT_5_0>:

uint16_t APC1_Get_Particles_GT_5_0(void) {
 8000d6c:	b480      	push	{r7}
 8000d6e:	af00      	add	r7, sp, #0

	return processed_data.particles_5_0 - processed_data.particles_0_3;
 8000d70:	4b05      	ldr	r3, [pc, #20]	; (8000d88 <APC1_Get_Particles_GT_5_0+0x1c>)
 8000d72:	8a9a      	ldrh	r2, [r3, #20]
 8000d74:	4b04      	ldr	r3, [pc, #16]	; (8000d88 <APC1_Get_Particles_GT_5_0+0x1c>)
 8000d76:	899b      	ldrh	r3, [r3, #12]
 8000d78:	1ad3      	subs	r3, r2, r3
 8000d7a:	b29b      	uxth	r3, r3

}
 8000d7c:	4618      	mov	r0, r3
 8000d7e:	46bd      	mov	sp, r7
 8000d80:	f85d 7b04 	ldr.w	r7, [sp], #4
 8000d84:	4770      	bx	lr
 8000d86:	bf00      	nop
 8000d88:	20000110 	.word	0x20000110

08000d8c <APC1_Get_Particles_GT_10>:

uint16_t APC1_Get_Particles_GT_10(void) {
 8000d8c:	b480      	push	{r7}
 8000d8e:	af00      	add	r7, sp, #0

	return processed_data.particles_10 - processed_data.particles_0_3;
 8000d90:	4b05      	ldr	r3, [pc, #20]	; (8000da8 <APC1_Get_Particles_GT_10+0x1c>)
 8000d92:	8ada      	ldrh	r2, [r3, #22]
 8000d94:	4b04      	ldr	r3, [pc, #16]	; (8000da8 <APC1_Get_Particles_GT_10+0x1c>)
 8000d96:	899b      	ldrh	r3, [r3, #12]
 8000d98:	1ad3      	subs	r3, r2, r3
 8000d9a:	b29b      	uxth	r3, r3

}
 8000d9c:	4618      	mov	r0, r3
 8000d9e:	46bd      	mov	sp, r7
 8000da0:	f85d 7b04 	ldr.w	r7, [sp], #4
 8000da4:	4770      	bx	lr
 8000da6:	bf00      	nop
 8000da8:	20000110 	.word	0x20000110

08000dac <APC1_Get_TVOC>:

uint16_t APC1_Get_TVOC(void) {
 8000dac:	b480      	push	{r7}
 8000dae:	af00      	add	r7, sp, #0

	return processed_data.TVOC;
 8000db0:	4b03      	ldr	r3, [pc, #12]	; (8000dc0 <APC1_Get_TVOC+0x14>)
 8000db2:	8b1b      	ldrh	r3, [r3, #24]

}
 8000db4:	4618      	mov	r0, r3
 8000db6:	46bd      	mov	sp, r7
 8000db8:	f85d 7b04 	ldr.w	r7, [sp], #4
 8000dbc:	4770      	bx	lr
 8000dbe:	bf00      	nop
 8000dc0:	20000110 	.word	0x20000110

08000dc4 <APC1_Get_eCO2>:

uint16_t APC1_Get_eCO2(void) {
 8000dc4:	b480      	push	{r7}
 8000dc6:	af00      	add	r7, sp, #0

	return processed_data.eCO2;
 8000dc8:	4b03      	ldr	r3, [pc, #12]	; (8000dd8 <APC1_Get_eCO2+0x14>)
 8000dca:	8b5b      	ldrh	r3, [r3, #26]

}
 8000dcc:	4618      	mov	r0, r3
 8000dce:	46bd      	mov	sp, r7
 8000dd0:	f85d 7b04 	ldr.w	r7, [sp], #4
 8000dd4:	4770      	bx	lr
 8000dd6:	bf00      	nop
 8000dd8:	20000110 	.word	0x20000110

08000ddc <APC1_Get_T_Comp>:

double APC1_Get_T_Comp(void) {
 8000ddc:	b580      	push	{r7, lr}
 8000dde:	af00      	add	r7, sp, #0

	return processed_data.t_comp * 0.1f;
 8000de0:	4b0b      	ldr	r3, [pc, #44]	; (8000e10 <APC1_Get_T_Comp+0x34>)
 8000de2:	8b9b      	ldrh	r3, [r3, #28]
 8000de4:	ee07 3a90 	vmov	s15, r3
 8000de8:	eef8 7ae7 	vcvt.f32.s32	s15, s15
 8000dec:	ed9f 7a09 	vldr	s14, [pc, #36]	; 8000e14 <APC1_Get_T_Comp+0x38>
 8000df0:	ee67 7a87 	vmul.f32	s15, s15, s14
 8000df4:	ee17 0a90 	vmov	r0, s15
 8000df8:	f7ff fb52 	bl	80004a0 <__aeabi_f2d>
 8000dfc:	4602      	mov	r2, r0
 8000dfe:	460b      	mov	r3, r1
 8000e00:	ec43 2b17 	vmov	d7, r2, r3

}
 8000e04:	eeb0 0a47 	vmov.f32	s0, s14
 8000e08:	eef0 0a67 	vmov.f32	s1, s15
 8000e0c:	bd80      	pop	{r7, pc}
 8000e0e:	bf00      	nop
 8000e10:	20000110 	.word	0x20000110
 8000e14:	3dcccccd 	.word	0x3dcccccd

08000e18 <APC1_Get_RH_Comp>:

double APC1_Get_RH_Comp(void) {
 8000e18:	b580      	push	{r7, lr}
 8000e1a:	af00      	add	r7, sp, #0

	return processed_data.rh_comp * 0.1f;
 8000e1c:	4b0b      	ldr	r3, [pc, #44]	; (8000e4c <APC1_Get_RH_Comp+0x34>)
 8000e1e:	8bdb      	ldrh	r3, [r3, #30]
 8000e20:	ee07 3a90 	vmov	s15, r3
 8000e24:	eef8 7ae7 	vcvt.f32.s32	s15, s15
 8000e28:	ed9f 7a09 	vldr	s14, [pc, #36]	; 8000e50 <APC1_Get_RH_Comp+0x38>
 8000e2c:	ee67 7a87 	vmul.f32	s15, s15, s14
 8000e30:	ee17 0a90 	vmov	r0, s15
 8000e34:	f7ff fb34 	bl	80004a0 <__aeabi_f2d>
 8000e38:	4602      	mov	r2, r0
 8000e3a:	460b      	mov	r3, r1
 8000e3c:	ec43 2b17 	vmov	d7, r2, r3

}
 8000e40:	eeb0 0a47 	vmov.f32	s0, s14
 8000e44:	eef0 0a67 	vmov.f32	s1, s15
 8000e48:	bd80      	pop	{r7, pc}
 8000e4a:	bf00      	nop
 8000e4c:	20000110 	.word	0x20000110
 8000e50:	3dcccccd 	.word	0x3dcccccd

08000e54 <APC1_Get_T_Raw>:

double APC1_Get_T_Raw(void) {
 8000e54:	b580      	push	{r7, lr}
 8000e56:	af00      	add	r7, sp, #0

	return processed_data.t_raw * 0.1f;
 8000e58:	4b0b      	ldr	r3, [pc, #44]	; (8000e88 <APC1_Get_T_Raw+0x34>)
 8000e5a:	8c1b      	ldrh	r3, [r3, #32]
 8000e5c:	ee07 3a90 	vmov	s15, r3
 8000e60:	eef8 7ae7 	vcvt.f32.s32	s15, s15
 8000e64:	ed9f 7a09 	vldr	s14, [pc, #36]	; 8000e8c <APC1_Get_T_Raw+0x38>
 8000e68:	ee67 7a87 	vmul.f32	s15, s15, s14
 8000e6c:	ee17 0a90 	vmov	r0, s15
 8000e70:	f7ff fb16 	bl	80004a0 <__aeabi_f2d>
 8000e74:	4602      	mov	r2, r0
 8000e76:	460b      	mov	r3, r1
 8000e78:	ec43 2b17 	vmov	d7, r2, r3

}
 8000e7c:	eeb0 0a47 	vmov.f32	s0, s14
 8000e80:	eef0 0a67 	vmov.f32	s1, s15
 8000e84:	bd80      	pop	{r7, pc}
 8000e86:	bf00      	nop
 8000e88:	20000110 	.word	0x20000110
 8000e8c:	3dcccccd 	.word	0x3dcccccd

08000e90 <APC1_Get_RH_Raw>:

double APC1_Get_RH_Raw(void) {
 8000e90:	b580      	push	{r7, lr}
 8000e92:	af00      	add	r7, sp, #0

	return processed_data.rh_raw * 0.1f;
 8000e94:	4b0b      	ldr	r3, [pc, #44]	; (8000ec4 <APC1_Get_RH_Raw+0x34>)
 8000e96:	8c5b      	ldrh	r3, [r3, #34]	; 0x22
 8000e98:	ee07 3a90 	vmov	s15, r3
 8000e9c:	eef8 7ae7 	vcvt.f32.s32	s15, s15
 8000ea0:	ed9f 7a09 	vldr	s14, [pc, #36]	; 8000ec8 <APC1_Get_RH_Raw+0x38>
 8000ea4:	ee67 7a87 	vmul.f32	s15, s15, s14
 8000ea8:	ee17 0a90 	vmov	r0, s15
 8000eac:	f7ff faf8 	bl	80004a0 <__aeabi_f2d>
 8000eb0:	4602      	mov	r2, r0
 8000eb2:	460b      	mov	r3, r1
 8000eb4:	ec43 2b17 	vmov	d7, r2, r3

}
 8000eb8:	eeb0 0a47 	vmov.f32	s0, s14
 8000ebc:	eef0 0a67 	vmov.f32	s1, s15
 8000ec0:	bd80      	pop	{r7, pc}
 8000ec2:	bf00      	nop
 8000ec4:	20000110 	.word	0x20000110
 8000ec8:	3dcccccd 	.word	0x3dcccccd

08000ecc <APC1_Get_AQI>:

uint8_t	APC1_Get_AQI(void) {
 8000ecc:	b480      	push	{r7}
 8000ece:	af00      	add	r7, sp, #0

	return processed_data.aqi;
 8000ed0:	4b03      	ldr	r3, [pc, #12]	; (8000ee0 <APC1_Get_AQI+0x14>)
 8000ed2:	f893 3024 	ldrb.w	r3, [r3, #36]	; 0x24

}
 8000ed6:	4618      	mov	r0, r3
 8000ed8:	46bd      	mov	sp, r7
 8000eda:	f85d 7b04 	ldr.w	r7, [sp], #4
 8000ede:	4770      	bx	lr
 8000ee0:	20000110 	.word	0x20000110

08000ee4 <APC1_Get_AQI_String>:

const char *APC1_Get_AQI_String(void) {
 8000ee4:	b580      	push	{r7, lr}
 8000ee6:	b082      	sub	sp, #8
 8000ee8:	af00      	add	r7, sp, #0

	// if somehow we get a wrong index
	uint8_t index = APC1_Get_AQI();
 8000eea:	f7ff ffef 	bl	8000ecc <APC1_Get_AQI>
 8000eee:	4603      	mov	r3, r0
 8000ef0:	71fb      	strb	r3, [r7, #7]
	return (index <= 5 && index >= 1) ? APC1_AQI_Strings[index - 1] : "Error";
 8000ef2:	79fb      	ldrb	r3, [r7, #7]
 8000ef4:	2b05      	cmp	r3, #5
 8000ef6:	d808      	bhi.n	8000f0a <APC1_Get_AQI_String+0x26>
 8000ef8:	79fb      	ldrb	r3, [r7, #7]
 8000efa:	2b00      	cmp	r3, #0
 8000efc:	d005      	beq.n	8000f0a <APC1_Get_AQI_String+0x26>
 8000efe:	79fb      	ldrb	r3, [r7, #7]
 8000f00:	3b01      	subs	r3, #1
 8000f02:	4a04      	ldr	r2, [pc, #16]	; (8000f14 <APC1_Get_AQI_String+0x30>)
 8000f04:	f852 3023 	ldr.w	r3, [r2, r3, lsl #2]
 8000f08:	e000      	b.n	8000f0c <APC1_Get_AQI_String+0x28>
 8000f0a:	4b03      	ldr	r3, [pc, #12]	; (8000f18 <APC1_Get_AQI_String+0x34>)

}
 8000f0c:	4618      	mov	r0, r3
 8000f0e:	3708      	adds	r7, #8
 8000f10:	46bd      	mov	sp, r7
 8000f12:	bd80      	pop	{r7, pc}
 8000f14:	20000044 	.word	0x20000044
 8000f18:	08003824 	.word	0x08003824

08000f1c <APC1_Get_Error_String>:

const char *APC1_Get_Error_String(void) {
 8000f1c:	b480      	push	{r7}
 8000f1e:	af00      	add	r7, sp, #0

	return APC1_Status_Strings[err];
 8000f20:	4b04      	ldr	r3, [pc, #16]	; (8000f34 <APC1_Get_Error_String+0x18>)
 8000f22:	681b      	ldr	r3, [r3, #0]
 8000f24:	4a04      	ldr	r2, [pc, #16]	; (8000f38 <APC1_Get_Error_String+0x1c>)
 8000f26:	f852 3023 	ldr.w	r3, [r2, r3, lsl #2]

}
 8000f2a:	4618      	mov	r0, r3
 8000f2c:	46bd      	mov	sp, r7
 8000f2e:	f85d 7b04 	ldr.w	r7, [sp], #4
 8000f32:	4770      	bx	lr
 8000f34:	2000010c 	.word	0x2000010c
 8000f38:	20000058 	.word	0x20000058

08000f3c <HAL_UART_RxCpltCallback>:

void HAL_UART_RxCpltCallback(UART_HandleTypeDef *huart) {
 8000f3c:	b480      	push	{r7}
 8000f3e:	b083      	sub	sp, #12
 8000f40:	af00      	add	r7, sp, #0
 8000f42:	6078      	str	r0, [r7, #4]

	if (huart->Instance == USART1) {
 8000f44:	687b      	ldr	r3, [r7, #4]
 8000f46:	681b      	ldr	r3, [r3, #0]
 8000f48:	4a05      	ldr	r2, [pc, #20]	; (8000f60 <HAL_UART_RxCpltCallback+0x24>)
 8000f4a:	4293      	cmp	r3, r2
 8000f4c:	d102      	bne.n	8000f54 <HAL_UART_RxCpltCallback+0x18>
		received_response = 1;
 8000f4e:	4b05      	ldr	r3, [pc, #20]	; (8000f64 <HAL_UART_RxCpltCallback+0x28>)
 8000f50:	2201      	movs	r2, #1
 8000f52:	601a      	str	r2, [r3, #0]
	}

}
 8000f54:	bf00      	nop
 8000f56:	370c      	adds	r7, #12
 8000f58:	46bd      	mov	sp, r7
 8000f5a:	f85d 7b04 	ldr.w	r7, [sp], #4
 8000f5e:	4770      	bx	lr
 8000f60:	40011000 	.word	0x40011000
 8000f64:	20000108 	.word	0x20000108

08000f68 <main>:
/**
  * @brief  The application entry point.
  * @retval int
  */
int main(void)
{
 8000f68:	b580      	push	{r7, lr}
 8000f6a:	af00      	add	r7, sp, #0
  /* USER CODE END 1 */

  /* MCU Configuration--------------------------------------------------------*/

  /* Reset of all peripherals, Initializes the Flash interface and the Systick. */
  HAL_Init();
 8000f6c:	f000 fac2 	bl	80014f4 <HAL_Init>
  /* USER CODE BEGIN Init */

  /* USER CODE END Init */

  /* Configure the system clock */
  SystemClock_Config();
 8000f70:	f000 f8ca 	bl	8001108 <SystemClock_Config>
  /* USER CODE BEGIN SysInit */

  /* USER CODE END SysInit */

  /* Initialize all configured peripherals */
  MX_GPIO_Init();
 8000f74:	f000 f95c 	bl	8001230 <MX_GPIO_Init>
  MX_USART1_UART_Init();
 8000f78:	f000 f930 	bl	80011dc <MX_USART1_UART_Init>
  /* USER CODE BEGIN 2 */

  // HAL_Delay(10000);
  APC1_Set_Idle_Mode();
 8000f7c:	f7ff fdde 	bl	8000b3c <APC1_Set_Idle_Mode>
  HAL_Delay(10000);
 8000f80:	f242 7010 	movw	r0, #10000	; 0x2710
 8000f84:	f000 fb28 	bl	80015d8 <HAL_Delay>
  APC1_Set_Mea_Mode();
 8000f88:	f7ff fe00 	bl	8000b8c <APC1_Set_Mea_Mode>

  /* Infinite loop */
  /* USER CODE BEGIN WHILE */
  while (1)
  {
	  if (APC1_Read_Mea_Data() != APC1_OK) {
 8000f8c:	f7ff fc90 	bl	80008b0 <APC1_Read_Mea_Data>
 8000f90:	4603      	mov	r3, r0
 8000f92:	2b00      	cmp	r3, #0
 8000f94:	d001      	beq.n	8000f9a <main+0x32>
		  Error_Handler();
 8000f96:	f000 f9b9 	bl	800130c <Error_Handler>
	  }
	  T_pm1_0 = APC1_Get_PM1_0();
 8000f9a:	f7ff fe63 	bl	8000c64 <APC1_Get_PM1_0>
 8000f9e:	4603      	mov	r3, r0
 8000fa0:	461a      	mov	r2, r3
 8000fa2:	4b44      	ldr	r3, [pc, #272]	; (80010b4 <main+0x14c>)
 8000fa4:	801a      	strh	r2, [r3, #0]
	  T_pm2_5 = APC1_Get_PM2_5();
 8000fa6:	f7ff fe69 	bl	8000c7c <APC1_Get_PM2_5>
 8000faa:	4603      	mov	r3, r0
 8000fac:	461a      	mov	r2, r3
 8000fae:	4b42      	ldr	r3, [pc, #264]	; (80010b8 <main+0x150>)
 8000fb0:	801a      	strh	r2, [r3, #0]
	  T_pm10 = APC1_Get_PM10();
 8000fb2:	f7ff fe6f 	bl	8000c94 <APC1_Get_PM10>
 8000fb6:	4603      	mov	r3, r0
 8000fb8:	461a      	mov	r2, r3
 8000fba:	4b40      	ldr	r3, [pc, #256]	; (80010bc <main+0x154>)
 8000fbc:	801a      	strh	r2, [r3, #0]
	  T_pm1_0_air = APC1_Get_PM1_0_air();
 8000fbe:	f7ff fe75 	bl	8000cac <APC1_Get_PM1_0_air>
 8000fc2:	4603      	mov	r3, r0
 8000fc4:	461a      	mov	r2, r3
 8000fc6:	4b3e      	ldr	r3, [pc, #248]	; (80010c0 <main+0x158>)
 8000fc8:	801a      	strh	r2, [r3, #0]
	  T_pm2_5_air = APC1_Get_PM2_5_air();
 8000fca:	f7ff fe7b 	bl	8000cc4 <APC1_Get_PM2_5_air>
 8000fce:	4603      	mov	r3, r0
 8000fd0:	461a      	mov	r2, r3
 8000fd2:	4b3c      	ldr	r3, [pc, #240]	; (80010c4 <main+0x15c>)
 8000fd4:	801a      	strh	r2, [r3, #0]
	  T_pm10_air = APC1_Get_PM10_air();
 8000fd6:	f7ff fe81 	bl	8000cdc <APC1_Get_PM10_air>
 8000fda:	4603      	mov	r3, r0
 8000fdc:	461a      	mov	r2, r3
 8000fde:	4b3a      	ldr	r3, [pc, #232]	; (80010c8 <main+0x160>)
 8000fe0:	801a      	strh	r2, [r3, #0]
	  T_particles_0_3 = APC1_Get_Particles_GT_0_3();
 8000fe2:	f7ff fe87 	bl	8000cf4 <APC1_Get_Particles_GT_0_3>
 8000fe6:	4603      	mov	r3, r0
 8000fe8:	461a      	mov	r2, r3
 8000fea:	4b38      	ldr	r3, [pc, #224]	; (80010cc <main+0x164>)
 8000fec:	801a      	strh	r2, [r3, #0]
	  T_particles_0_5 = APC1_Get_Particles_GT_0_5();
 8000fee:	f7ff fe8d 	bl	8000d0c <APC1_Get_Particles_GT_0_5>
 8000ff2:	4603      	mov	r3, r0
 8000ff4:	461a      	mov	r2, r3
 8000ff6:	4b36      	ldr	r3, [pc, #216]	; (80010d0 <main+0x168>)
 8000ff8:	801a      	strh	r2, [r3, #0]
	  T_particles_1_0 = APC1_Get_Particles_GT_1_0();
 8000ffa:	f7ff fe97 	bl	8000d2c <APC1_Get_Particles_GT_1_0>
 8000ffe:	4603      	mov	r3, r0
 8001000:	461a      	mov	r2, r3
 8001002:	4b34      	ldr	r3, [pc, #208]	; (80010d4 <main+0x16c>)
 8001004:	801a      	strh	r2, [r3, #0]
	  T_particles_2_5 = APC1_Get_Particles_GT_2_5();
 8001006:	f7ff fea1 	bl	8000d4c <APC1_Get_Particles_GT_2_5>
 800100a:	4603      	mov	r3, r0
 800100c:	461a      	mov	r2, r3
 800100e:	4b32      	ldr	r3, [pc, #200]	; (80010d8 <main+0x170>)
 8001010:	801a      	strh	r2, [r3, #0]
	  T_particles_5_0 = APC1_Get_Particles_GT_5_0();
 8001012:	f7ff feab 	bl	8000d6c <APC1_Get_Particles_GT_5_0>
 8001016:	4603      	mov	r3, r0
 8001018:	461a      	mov	r2, r3
 800101a:	4b30      	ldr	r3, [pc, #192]	; (80010dc <main+0x174>)
 800101c:	801a      	strh	r2, [r3, #0]
	  T_particles_10 = APC1_Get_Particles_GT_10();
 800101e:	f7ff feb5 	bl	8000d8c <APC1_Get_Particles_GT_10>
 8001022:	4603      	mov	r3, r0
 8001024:	461a      	mov	r2, r3
 8001026:	4b2e      	ldr	r3, [pc, #184]	; (80010e0 <main+0x178>)
 8001028:	801a      	strh	r2, [r3, #0]
	  T_TVOC = APC1_Get_TVOC();
 800102a:	f7ff febf 	bl	8000dac <APC1_Get_TVOC>
 800102e:	4603      	mov	r3, r0
 8001030:	461a      	mov	r2, r3
 8001032:	4b2c      	ldr	r3, [pc, #176]	; (80010e4 <main+0x17c>)
 8001034:	801a      	strh	r2, [r3, #0]
	  T_eCO2 = APC1_Get_eCO2();
 8001036:	f7ff fec5 	bl	8000dc4 <APC1_Get_eCO2>
 800103a:	4603      	mov	r3, r0
 800103c:	461a      	mov	r2, r3
 800103e:	4b2a      	ldr	r3, [pc, #168]	; (80010e8 <main+0x180>)
 8001040:	801a      	strh	r2, [r3, #0]
	  T_t_comp = APC1_Get_T_Comp();
 8001042:	f7ff fecb 	bl	8000ddc <APC1_Get_T_Comp>
 8001046:	eeb0 7a40 	vmov.f32	s14, s0
 800104a:	eef0 7a60 	vmov.f32	s15, s1
 800104e:	4b27      	ldr	r3, [pc, #156]	; (80010ec <main+0x184>)
 8001050:	ed83 7b00 	vstr	d7, [r3]
	  T_rh_comp = APC1_Get_RH_Comp();
 8001054:	f7ff fee0 	bl	8000e18 <APC1_Get_RH_Comp>
 8001058:	eeb0 7a40 	vmov.f32	s14, s0
 800105c:	eef0 7a60 	vmov.f32	s15, s1
 8001060:	4b23      	ldr	r3, [pc, #140]	; (80010f0 <main+0x188>)
 8001062:	ed83 7b00 	vstr	d7, [r3]
	  T_t_raw = APC1_Get_T_Raw();
 8001066:	f7ff fef5 	bl	8000e54 <APC1_Get_T_Raw>
 800106a:	eeb0 7a40 	vmov.f32	s14, s0
 800106e:	eef0 7a60 	vmov.f32	s15, s1
 8001072:	4b20      	ldr	r3, [pc, #128]	; (80010f4 <main+0x18c>)
 8001074:	ed83 7b00 	vstr	d7, [r3]
	  T_rh_raw = APC1_Get_RH_Raw();
 8001078:	f7ff ff0a 	bl	8000e90 <APC1_Get_RH_Raw>
 800107c:	eeb0 7a40 	vmov.f32	s14, s0
 8001080:	eef0 7a60 	vmov.f32	s15, s1
 8001084:	4b1c      	ldr	r3, [pc, #112]	; (80010f8 <main+0x190>)
 8001086:	ed83 7b00 	vstr	d7, [r3]
	  T_aqi = APC1_Get_AQI();
 800108a:	f7ff ff1f 	bl	8000ecc <APC1_Get_AQI>
 800108e:	4603      	mov	r3, r0
 8001090:	461a      	mov	r2, r3
 8001092:	4b1a      	ldr	r3, [pc, #104]	; (80010fc <main+0x194>)
 8001094:	701a      	strb	r2, [r3, #0]
	  aqi_string = APC1_Get_AQI_String();
 8001096:	f7ff ff25 	bl	8000ee4 <APC1_Get_AQI_String>
 800109a:	4603      	mov	r3, r0
 800109c:	4a18      	ldr	r2, [pc, #96]	; (8001100 <main+0x198>)
 800109e:	6013      	str	r3, [r2, #0]
	  error_string = APC1_Get_Error_String();
 80010a0:	f7ff ff3c 	bl	8000f1c <APC1_Get_Error_String>
 80010a4:	4603      	mov	r3, r0
 80010a6:	4a17      	ldr	r2, [pc, #92]	; (8001104 <main+0x19c>)
 80010a8:	6013      	str	r3, [r2, #0]
	  HAL_Delay(2000);
 80010aa:	f44f 60fa 	mov.w	r0, #2000	; 0x7d0
 80010ae:	f000 fa93 	bl	80015d8 <HAL_Delay>
	  if (APC1_Read_Mea_Data() != APC1_OK) {
 80010b2:	e76b      	b.n	8000f8c <main+0x24>
 80010b4:	2000013a 	.word	0x2000013a
 80010b8:	2000013c 	.word	0x2000013c
 80010bc:	2000013e 	.word	0x2000013e
 80010c0:	20000140 	.word	0x20000140
 80010c4:	20000142 	.word	0x20000142
 80010c8:	20000144 	.word	0x20000144
 80010cc:	20000146 	.word	0x20000146
 80010d0:	20000148 	.word	0x20000148
 80010d4:	2000014a 	.word	0x2000014a
 80010d8:	2000014c 	.word	0x2000014c
 80010dc:	2000014e 	.word	0x2000014e
 80010e0:	20000150 	.word	0x20000150
 80010e4:	20000152 	.word	0x20000152
 80010e8:	20000154 	.word	0x20000154
 80010ec:	20000158 	.word	0x20000158
 80010f0:	20000160 	.word	0x20000160
 80010f4:	20000168 	.word	0x20000168
 80010f8:	20000170 	.word	0x20000170
 80010fc:	20000180 	.word	0x20000180
 8001100:	20000178 	.word	0x20000178
 8001104:	2000017c 	.word	0x2000017c

08001108 <SystemClock_Config>:
/**
  * @brief System Clock Configuration
  * @retval None
  */
void SystemClock_Config(void)
{
 8001108:	b580      	push	{r7, lr}
 800110a:	b094      	sub	sp, #80	; 0x50
 800110c:	af00      	add	r7, sp, #0
  RCC_OscInitTypeDef RCC_OscInitStruct = {0};
 800110e:	f107 0320 	add.w	r3, r7, #32
 8001112:	2230      	movs	r2, #48	; 0x30
 8001114:	2100      	movs	r1, #0
 8001116:	4618      	mov	r0, r3
 8001118:	f002 fad4 	bl	80036c4 <memset>
  RCC_ClkInitTypeDef RCC_ClkInitStruct = {0};
 800111c:	f107 030c 	add.w	r3, r7, #12
 8001120:	2200      	movs	r2, #0
 8001122:	601a      	str	r2, [r3, #0]
 8001124:	605a      	str	r2, [r3, #4]
 8001126:	609a      	str	r2, [r3, #8]
 8001128:	60da      	str	r2, [r3, #12]
 800112a:	611a      	str	r2, [r3, #16]

  /** Configure the main internal regulator output voltage
  */
  __HAL_RCC_PWR_CLK_ENABLE();
 800112c:	2300      	movs	r3, #0
 800112e:	60bb      	str	r3, [r7, #8]
 8001130:	4b28      	ldr	r3, [pc, #160]	; (80011d4 <SystemClock_Config+0xcc>)
 8001132:	6c1b      	ldr	r3, [r3, #64]	; 0x40
 8001134:	4a27      	ldr	r2, [pc, #156]	; (80011d4 <SystemClock_Config+0xcc>)
 8001136:	f043 5380 	orr.w	r3, r3, #268435456	; 0x10000000
 800113a:	6413      	str	r3, [r2, #64]	; 0x40
 800113c:	4b25      	ldr	r3, [pc, #148]	; (80011d4 <SystemClock_Config+0xcc>)
 800113e:	6c1b      	ldr	r3, [r3, #64]	; 0x40
 8001140:	f003 5380 	and.w	r3, r3, #268435456	; 0x10000000
 8001144:	60bb      	str	r3, [r7, #8]
 8001146:	68bb      	ldr	r3, [r7, #8]
  __HAL_PWR_VOLTAGESCALING_CONFIG(PWR_REGULATOR_VOLTAGE_SCALE1);
 8001148:	2300      	movs	r3, #0
 800114a:	607b      	str	r3, [r7, #4]
 800114c:	4b22      	ldr	r3, [pc, #136]	; (80011d8 <SystemClock_Config+0xd0>)
 800114e:	681b      	ldr	r3, [r3, #0]
 8001150:	4a21      	ldr	r2, [pc, #132]	; (80011d8 <SystemClock_Config+0xd0>)
 8001152:	f443 4340 	orr.w	r3, r3, #49152	; 0xc000
 8001156:	6013      	str	r3, [r2, #0]
 8001158:	4b1f      	ldr	r3, [pc, #124]	; (80011d8 <SystemClock_Config+0xd0>)
 800115a:	681b      	ldr	r3, [r3, #0]
 800115c:	f403 4340 	and.w	r3, r3, #49152	; 0xc000
 8001160:	607b      	str	r3, [r7, #4]
 8001162:	687b      	ldr	r3, [r7, #4]

  /** Initializes the RCC Oscillators according to the specified parameters
  * in the RCC_OscInitTypeDef structure.
  */
  RCC_OscInitStruct.OscillatorType = RCC_OSCILLATORTYPE_HSI;
 8001164:	2302      	movs	r3, #2
 8001166:	623b      	str	r3, [r7, #32]
  RCC_OscInitStruct.HSIState = RCC_HSI_ON;
 8001168:	2301      	movs	r3, #1
 800116a:	62fb      	str	r3, [r7, #44]	; 0x2c
  RCC_OscInitStruct.HSICalibrationValue = RCC_HSICALIBRATION_DEFAULT;
 800116c:	2310      	movs	r3, #16
 800116e:	633b      	str	r3, [r7, #48]	; 0x30
  RCC_OscInitStruct.PLL.PLLState = RCC_PLL_ON;
 8001170:	2302      	movs	r3, #2
 8001172:	63bb      	str	r3, [r7, #56]	; 0x38
  RCC_OscInitStruct.PLL.PLLSource = RCC_PLLSOURCE_HSI;
 8001174:	2300      	movs	r3, #0
 8001176:	63fb      	str	r3, [r7, #60]	; 0x3c
  RCC_OscInitStruct.PLL.PLLM = 16;
 8001178:	2310      	movs	r3, #16
 800117a:	643b      	str	r3, [r7, #64]	; 0x40
  RCC_OscInitStruct.PLL.PLLN = 336;
 800117c:	f44f 73a8 	mov.w	r3, #336	; 0x150
 8001180:	647b      	str	r3, [r7, #68]	; 0x44
  RCC_OscInitStruct.PLL.PLLP = RCC_PLLP_DIV4;
 8001182:	2304      	movs	r3, #4
 8001184:	64bb      	str	r3, [r7, #72]	; 0x48
  RCC_OscInitStruct.PLL.PLLQ = 4;
 8001186:	2304      	movs	r3, #4
 8001188:	64fb      	str	r3, [r7, #76]	; 0x4c
  if (HAL_RCC_OscConfig(&RCC_OscInitStruct) != HAL_OK)
 800118a:	f107 0320 	add.w	r3, r7, #32
 800118e:	4618      	mov	r0, r3
 8001190:	f000 fd88 	bl	8001ca4 <HAL_RCC_OscConfig>
 8001194:	4603      	mov	r3, r0
 8001196:	2b00      	cmp	r3, #0
 8001198:	d001      	beq.n	800119e <SystemClock_Config+0x96>
  {
    Error_Handler();
 800119a:	f000 f8b7 	bl	800130c <Error_Handler>
  }

  /** Initializes the CPU, AHB and APB buses clocks
  */
  RCC_ClkInitStruct.ClockType = RCC_CLOCKTYPE_HCLK|RCC_CLOCKTYPE_SYSCLK
 800119e:	230f      	movs	r3, #15
 80011a0:	60fb      	str	r3, [r7, #12]
                              |RCC_CLOCKTYPE_PCLK1|RCC_CLOCKTYPE_PCLK2;
  RCC_ClkInitStruct.SYSCLKSource = RCC_SYSCLKSOURCE_PLLCLK;
 80011a2:	2302      	movs	r3, #2
 80011a4:	613b      	str	r3, [r7, #16]
  RCC_ClkInitStruct.AHBCLKDivider = RCC_SYSCLK_DIV1;
 80011a6:	2300      	movs	r3, #0
 80011a8:	617b      	str	r3, [r7, #20]
  RCC_ClkInitStruct.APB1CLKDivider = RCC_HCLK_DIV2;
 80011aa:	f44f 5380 	mov.w	r3, #4096	; 0x1000
 80011ae:	61bb      	str	r3, [r7, #24]
  RCC_ClkInitStruct.APB2CLKDivider = RCC_HCLK_DIV1;
 80011b0:	2300      	movs	r3, #0
 80011b2:	61fb      	str	r3, [r7, #28]

  if (HAL_RCC_ClockConfig(&RCC_ClkInitStruct, FLASH_LATENCY_2) != HAL_OK)
 80011b4:	f107 030c 	add.w	r3, r7, #12
 80011b8:	2102      	movs	r1, #2
 80011ba:	4618      	mov	r0, r3
 80011bc:	f000 ffea 	bl	8002194 <HAL_RCC_ClockConfig>
 80011c0:	4603      	mov	r3, r0
 80011c2:	2b00      	cmp	r3, #0
 80011c4:	d001      	beq.n	80011ca <SystemClock_Config+0xc2>
  {
    Error_Handler();
 80011c6:	f000 f8a1 	bl	800130c <Error_Handler>
  }
}
 80011ca:	bf00      	nop
 80011cc:	3750      	adds	r7, #80	; 0x50
 80011ce:	46bd      	mov	sp, r7
 80011d0:	bd80      	pop	{r7, pc}
 80011d2:	bf00      	nop
 80011d4:	40023800 	.word	0x40023800
 80011d8:	40007000 	.word	0x40007000

080011dc <MX_USART1_UART_Init>:
  * @brief USART1 Initialization Function
  * @param None
  * @retval None
  */
static void MX_USART1_UART_Init(void)
{
 80011dc:	b580      	push	{r7, lr}
 80011de:	af00      	add	r7, sp, #0
  /* USER CODE END USART1_Init 0 */

  /* USER CODE BEGIN USART1_Init 1 */

  /* USER CODE END USART1_Init 1 */
  huart1.Instance = USART1;
 80011e0:	4b11      	ldr	r3, [pc, #68]	; (8001228 <MX_USART1_UART_Init+0x4c>)
 80011e2:	4a12      	ldr	r2, [pc, #72]	; (800122c <MX_USART1_UART_Init+0x50>)
 80011e4:	601a      	str	r2, [r3, #0]
  huart1.Init.BaudRate = 9600;
 80011e6:	4b10      	ldr	r3, [pc, #64]	; (8001228 <MX_USART1_UART_Init+0x4c>)
 80011e8:	f44f 5216 	mov.w	r2, #9600	; 0x2580
 80011ec:	605a      	str	r2, [r3, #4]
  huart1.Init.WordLength = UART_WORDLENGTH_8B;
 80011ee:	4b0e      	ldr	r3, [pc, #56]	; (8001228 <MX_USART1_UART_Init+0x4c>)
 80011f0:	2200      	movs	r2, #0
 80011f2:	609a      	str	r2, [r3, #8]
  huart1.Init.StopBits = UART_STOPBITS_1;
 80011f4:	4b0c      	ldr	r3, [pc, #48]	; (8001228 <MX_USART1_UART_Init+0x4c>)
 80011f6:	2200      	movs	r2, #0
 80011f8:	60da      	str	r2, [r3, #12]
  huart1.Init.Parity = UART_PARITY_NONE;
 80011fa:	4b0b      	ldr	r3, [pc, #44]	; (8001228 <MX_USART1_UART_Init+0x4c>)
 80011fc:	2200      	movs	r2, #0
 80011fe:	611a      	str	r2, [r3, #16]
  huart1.Init.Mode = UART_MODE_TX_RX;
 8001200:	4b09      	ldr	r3, [pc, #36]	; (8001228 <MX_USART1_UART_Init+0x4c>)
 8001202:	220c      	movs	r2, #12
 8001204:	615a      	str	r2, [r3, #20]
  huart1.Init.HwFlowCtl = UART_HWCONTROL_NONE;
 8001206:	4b08      	ldr	r3, [pc, #32]	; (8001228 <MX_USART1_UART_Init+0x4c>)
 8001208:	2200      	movs	r2, #0
 800120a:	619a      	str	r2, [r3, #24]
  huart1.Init.OverSampling = UART_OVERSAMPLING_16;
 800120c:	4b06      	ldr	r3, [pc, #24]	; (8001228 <MX_USART1_UART_Init+0x4c>)
 800120e:	2200      	movs	r2, #0
 8001210:	61da      	str	r2, [r3, #28]
  if (HAL_UART_Init(&huart1) != HAL_OK)
 8001212:	4805      	ldr	r0, [pc, #20]	; (8001228 <MX_USART1_UART_Init+0x4c>)
 8001214:	f001 f9de 	bl	80025d4 <HAL_UART_Init>
 8001218:	4603      	mov	r3, r0
 800121a:	2b00      	cmp	r3, #0
 800121c:	d001      	beq.n	8001222 <MX_USART1_UART_Init+0x46>
  {
    Error_Handler();
 800121e:	f000 f875 	bl	800130c <Error_Handler>
  }
  /* USER CODE BEGIN USART1_Init 2 */

  /* USER CODE END USART1_Init 2 */

}
 8001222:	bf00      	nop
 8001224:	bd80      	pop	{r7, pc}
 8001226:	bf00      	nop
 8001228:	20000184 	.word	0x20000184
 800122c:	40011000 	.word	0x40011000

08001230 <MX_GPIO_Init>:
  * @brief GPIO Initialization Function
  * @param None
  * @retval None
  */
static void MX_GPIO_Init(void)
{
 8001230:	b580      	push	{r7, lr}
 8001232:	b08a      	sub	sp, #40	; 0x28
 8001234:	af00      	add	r7, sp, #0
  GPIO_InitTypeDef GPIO_InitStruct = {0};
 8001236:	f107 0314 	add.w	r3, r7, #20
 800123a:	2200      	movs	r2, #0
 800123c:	601a      	str	r2, [r3, #0]
 800123e:	605a      	str	r2, [r3, #4]
 8001240:	609a      	str	r2, [r3, #8]
 8001242:	60da      	str	r2, [r3, #12]
 8001244:	611a      	str	r2, [r3, #16]
/* USER CODE BEGIN MX_GPIO_Init_1 */
/* USER CODE END MX_GPIO_Init_1 */

  /* GPIO Ports Clock Enable */
  __HAL_RCC_GPIOC_CLK_ENABLE();
 8001246:	2300      	movs	r3, #0
 8001248:	613b      	str	r3, [r7, #16]
 800124a:	4b2d      	ldr	r3, [pc, #180]	; (8001300 <MX_GPIO_Init+0xd0>)
 800124c:	6b1b      	ldr	r3, [r3, #48]	; 0x30
 800124e:	4a2c      	ldr	r2, [pc, #176]	; (8001300 <MX_GPIO_Init+0xd0>)
 8001250:	f043 0304 	orr.w	r3, r3, #4
 8001254:	6313      	str	r3, [r2, #48]	; 0x30
 8001256:	4b2a      	ldr	r3, [pc, #168]	; (8001300 <MX_GPIO_Init+0xd0>)
 8001258:	6b1b      	ldr	r3, [r3, #48]	; 0x30
 800125a:	f003 0304 	and.w	r3, r3, #4
 800125e:	613b      	str	r3, [r7, #16]
 8001260:	693b      	ldr	r3, [r7, #16]
  __HAL_RCC_GPIOH_CLK_ENABLE();
 8001262:	2300      	movs	r3, #0
 8001264:	60fb      	str	r3, [r7, #12]
 8001266:	4b26      	ldr	r3, [pc, #152]	; (8001300 <MX_GPIO_Init+0xd0>)
 8001268:	6b1b      	ldr	r3, [r3, #48]	; 0x30
 800126a:	4a25      	ldr	r2, [pc, #148]	; (8001300 <MX_GPIO_Init+0xd0>)
 800126c:	f043 0380 	orr.w	r3, r3, #128	; 0x80
 8001270:	6313      	str	r3, [r2, #48]	; 0x30
 8001272:	4b23      	ldr	r3, [pc, #140]	; (8001300 <MX_GPIO_Init+0xd0>)
 8001274:	6b1b      	ldr	r3, [r3, #48]	; 0x30
 8001276:	f003 0380 	and.w	r3, r3, #128	; 0x80
 800127a:	60fb      	str	r3, [r7, #12]
 800127c:	68fb      	ldr	r3, [r7, #12]
  __HAL_RCC_GPIOA_CLK_ENABLE();
 800127e:	2300      	movs	r3, #0
 8001280:	60bb      	str	r3, [r7, #8]
 8001282:	4b1f      	ldr	r3, [pc, #124]	; (8001300 <MX_GPIO_Init+0xd0>)
 8001284:	6b1b      	ldr	r3, [r3, #48]	; 0x30
 8001286:	4a1e      	ldr	r2, [pc, #120]	; (8001300 <MX_GPIO_Init+0xd0>)
 8001288:	f043 0301 	orr.w	r3, r3, #1
 800128c:	6313      	str	r3, [r2, #48]	; 0x30
 800128e:	4b1c      	ldr	r3, [pc, #112]	; (8001300 <MX_GPIO_Init+0xd0>)
 8001290:	6b1b      	ldr	r3, [r3, #48]	; 0x30
 8001292:	f003 0301 	and.w	r3, r3, #1
 8001296:	60bb      	str	r3, [r7, #8]
 8001298:	68bb      	ldr	r3, [r7, #8]
  __HAL_RCC_GPIOB_CLK_ENABLE();
 800129a:	2300      	movs	r3, #0
 800129c:	607b      	str	r3, [r7, #4]
 800129e:	4b18      	ldr	r3, [pc, #96]	; (8001300 <MX_GPIO_Init+0xd0>)
 80012a0:	6b1b      	ldr	r3, [r3, #48]	; 0x30
 80012a2:	4a17      	ldr	r2, [pc, #92]	; (8001300 <MX_GPIO_Init+0xd0>)
 80012a4:	f043 0302 	orr.w	r3, r3, #2
 80012a8:	6313      	str	r3, [r2, #48]	; 0x30
 80012aa:	4b15      	ldr	r3, [pc, #84]	; (8001300 <MX_GPIO_Init+0xd0>)
 80012ac:	6b1b      	ldr	r3, [r3, #48]	; 0x30
 80012ae:	f003 0302 	and.w	r3, r3, #2
 80012b2:	607b      	str	r3, [r7, #4]
 80012b4:	687b      	ldr	r3, [r7, #4]

  /*Configure GPIO pin Output Level */
  HAL_GPIO_WritePin(LD2_GPIO_Port, LD2_Pin, GPIO_PIN_RESET);
 80012b6:	2200      	movs	r2, #0
 80012b8:	2120      	movs	r1, #32
 80012ba:	4812      	ldr	r0, [pc, #72]	; (8001304 <MX_GPIO_Init+0xd4>)
 80012bc:	f000 fcd8 	bl	8001c70 <HAL_GPIO_WritePin>

  /*Configure GPIO pin : B1_Pin */
  GPIO_InitStruct.Pin = B1_Pin;
 80012c0:	f44f 5300 	mov.w	r3, #8192	; 0x2000
 80012c4:	617b      	str	r3, [r7, #20]
  GPIO_InitStruct.Mode = GPIO_MODE_IT_FALLING;
 80012c6:	f44f 1304 	mov.w	r3, #2162688	; 0x210000
 80012ca:	61bb      	str	r3, [r7, #24]
  GPIO_InitStruct.Pull = GPIO_NOPULL;
 80012cc:	2300      	movs	r3, #0
 80012ce:	61fb      	str	r3, [r7, #28]
  HAL_GPIO_Init(B1_GPIO_Port, &GPIO_InitStruct);
 80012d0:	f107 0314 	add.w	r3, r7, #20
 80012d4:	4619      	mov	r1, r3
 80012d6:	480c      	ldr	r0, [pc, #48]	; (8001308 <MX_GPIO_Init+0xd8>)
 80012d8:	f000 fb46 	bl	8001968 <HAL_GPIO_Init>

  /*Configure GPIO pin : LD2_Pin */
  GPIO_InitStruct.Pin = LD2_Pin;
 80012dc:	2320      	movs	r3, #32
 80012de:	617b      	str	r3, [r7, #20]
  GPIO_InitStruct.Mode = GPIO_MODE_OUTPUT_PP;
 80012e0:	2301      	movs	r3, #1
 80012e2:	61bb      	str	r3, [r7, #24]
  GPIO_InitStruct.Pull = GPIO_NOPULL;
 80012e4:	2300      	movs	r3, #0
 80012e6:	61fb      	str	r3, [r7, #28]
  GPIO_InitStruct.Speed = GPIO_SPEED_FREQ_LOW;
 80012e8:	2300      	movs	r3, #0
 80012ea:	623b      	str	r3, [r7, #32]
  HAL_GPIO_Init(LD2_GPIO_Port, &GPIO_InitStruct);
 80012ec:	f107 0314 	add.w	r3, r7, #20
 80012f0:	4619      	mov	r1, r3
 80012f2:	4804      	ldr	r0, [pc, #16]	; (8001304 <MX_GPIO_Init+0xd4>)
 80012f4:	f000 fb38 	bl	8001968 <HAL_GPIO_Init>

/* USER CODE BEGIN MX_GPIO_Init_2 */
/* USER CODE END MX_GPIO_Init_2 */
}
 80012f8:	bf00      	nop
 80012fa:	3728      	adds	r7, #40	; 0x28
 80012fc:	46bd      	mov	sp, r7
 80012fe:	bd80      	pop	{r7, pc}
 8001300:	40023800 	.word	0x40023800
 8001304:	40020000 	.word	0x40020000
 8001308:	40020800 	.word	0x40020800

0800130c <Error_Handler>:
/**
  * @brief  This function is executed in case of error occurrence.
  * @retval None
  */
void Error_Handler(void)
{
 800130c:	b580      	push	{r7, lr}
 800130e:	af00      	add	r7, sp, #0
  \details Disables IRQ interrupts by setting the I-bit in the CPSR.
           Can only be executed in Privileged modes.
 */
__STATIC_FORCEINLINE void __disable_irq(void)
{
  __ASM volatile ("cpsid i" : : : "memory");
 8001310:	b672      	cpsid	i
}
 8001312:	bf00      	nop
  /* USER CODE BEGIN Error_Handler_Debug */
  /* User can add his own implementation to report the HAL error return state */
  __disable_irq();
  while (1)
  {
	  error_string = APC1_Get_Error_String();
 8001314:	f7ff fe02 	bl	8000f1c <APC1_Get_Error_String>
 8001318:	4603      	mov	r3, r0
 800131a:	4a01      	ldr	r2, [pc, #4]	; (8001320 <Error_Handler+0x14>)
 800131c:	6013      	str	r3, [r2, #0]
 800131e:	e7f9      	b.n	8001314 <Error_Handler+0x8>
 8001320:	2000017c 	.word	0x2000017c

08001324 <HAL_MspInit>:
/* USER CODE END 0 */
/**
  * Initializes the Global MSP.
  */
void HAL_MspInit(void)
{
 8001324:	b580      	push	{r7, lr}
 8001326:	b082      	sub	sp, #8
 8001328:	af00      	add	r7, sp, #0
  /* USER CODE BEGIN MspInit 0 */

  /* USER CODE END MspInit 0 */

  __HAL_RCC_SYSCFG_CLK_ENABLE();
 800132a:	2300      	movs	r3, #0
 800132c:	607b      	str	r3, [r7, #4]
 800132e:	4b10      	ldr	r3, [pc, #64]	; (8001370 <HAL_MspInit+0x4c>)
 8001330:	6c5b      	ldr	r3, [r3, #68]	; 0x44
 8001332:	4a0f      	ldr	r2, [pc, #60]	; (8001370 <HAL_MspInit+0x4c>)
 8001334:	f443 4380 	orr.w	r3, r3, #16384	; 0x4000
 8001338:	6453      	str	r3, [r2, #68]	; 0x44
 800133a:	4b0d      	ldr	r3, [pc, #52]	; (8001370 <HAL_MspInit+0x4c>)
 800133c:	6c5b      	ldr	r3, [r3, #68]	; 0x44
 800133e:	f403 4380 	and.w	r3, r3, #16384	; 0x4000
 8001342:	607b      	str	r3, [r7, #4]
 8001344:	687b      	ldr	r3, [r7, #4]
  __HAL_RCC_PWR_CLK_ENABLE();
 8001346:	2300      	movs	r3, #0
 8001348:	603b      	str	r3, [r7, #0]
 800134a:	4b09      	ldr	r3, [pc, #36]	; (8001370 <HAL_MspInit+0x4c>)
 800134c:	6c1b      	ldr	r3, [r3, #64]	; 0x40
 800134e:	4a08      	ldr	r2, [pc, #32]	; (8001370 <HAL_MspInit+0x4c>)
 8001350:	f043 5380 	orr.w	r3, r3, #268435456	; 0x10000000
 8001354:	6413      	str	r3, [r2, #64]	; 0x40
 8001356:	4b06      	ldr	r3, [pc, #24]	; (8001370 <HAL_MspInit+0x4c>)
 8001358:	6c1b      	ldr	r3, [r3, #64]	; 0x40
 800135a:	f003 5380 	and.w	r3, r3, #268435456	; 0x10000000
 800135e:	603b      	str	r3, [r7, #0]
 8001360:	683b      	ldr	r3, [r7, #0]

  HAL_NVIC_SetPriorityGrouping(NVIC_PRIORITYGROUP_0);
 8001362:	2007      	movs	r0, #7
 8001364:	f000 fa2c 	bl	80017c0 <HAL_NVIC_SetPriorityGrouping>
  /* System interrupt init*/

  /* USER CODE BEGIN MspInit 1 */

  /* USER CODE END MspInit 1 */
}
 8001368:	bf00      	nop
 800136a:	3708      	adds	r7, #8
 800136c:	46bd      	mov	sp, r7
 800136e:	bd80      	pop	{r7, pc}
 8001370:	40023800 	.word	0x40023800

08001374 <HAL_UART_MspInit>:
* This function configures the hardware resources used in this example
* @param huart: UART handle pointer
* @retval None
*/
void HAL_UART_MspInit(UART_HandleTypeDef* huart)
{
 8001374:	b580      	push	{r7, lr}
 8001376:	b08a      	sub	sp, #40	; 0x28
 8001378:	af00      	add	r7, sp, #0
 800137a:	6078      	str	r0, [r7, #4]
  GPIO_InitTypeDef GPIO_InitStruct = {0};
 800137c:	f107 0314 	add.w	r3, r7, #20
 8001380:	2200      	movs	r2, #0
 8001382:	601a      	str	r2, [r3, #0]
 8001384:	605a      	str	r2, [r3, #4]
 8001386:	609a      	str	r2, [r3, #8]
 8001388:	60da      	str	r2, [r3, #12]
 800138a:	611a      	str	r2, [r3, #16]
  if(huart->Instance==USART1)
 800138c:	687b      	ldr	r3, [r7, #4]
 800138e:	681b      	ldr	r3, [r3, #0]
 8001390:	4a1d      	ldr	r2, [pc, #116]	; (8001408 <HAL_UART_MspInit+0x94>)
 8001392:	4293      	cmp	r3, r2
 8001394:	d134      	bne.n	8001400 <HAL_UART_MspInit+0x8c>
  {
  /* USER CODE BEGIN USART1_MspInit 0 */

  /* USER CODE END USART1_MspInit 0 */
    /* Peripheral clock enable */
    __HAL_RCC_USART1_CLK_ENABLE();
 8001396:	2300      	movs	r3, #0
 8001398:	613b      	str	r3, [r7, #16]
 800139a:	4b1c      	ldr	r3, [pc, #112]	; (800140c <HAL_UART_MspInit+0x98>)
 800139c:	6c5b      	ldr	r3, [r3, #68]	; 0x44
 800139e:	4a1b      	ldr	r2, [pc, #108]	; (800140c <HAL_UART_MspInit+0x98>)
 80013a0:	f043 0310 	orr.w	r3, r3, #16
 80013a4:	6453      	str	r3, [r2, #68]	; 0x44
 80013a6:	4b19      	ldr	r3, [pc, #100]	; (800140c <HAL_UART_MspInit+0x98>)
 80013a8:	6c5b      	ldr	r3, [r3, #68]	; 0x44
 80013aa:	f003 0310 	and.w	r3, r3, #16
 80013ae:	613b      	str	r3, [r7, #16]
 80013b0:	693b      	ldr	r3, [r7, #16]

    __HAL_RCC_GPIOA_CLK_ENABLE();
 80013b2:	2300      	movs	r3, #0
 80013b4:	60fb      	str	r3, [r7, #12]
 80013b6:	4b15      	ldr	r3, [pc, #84]	; (800140c <HAL_UART_MspInit+0x98>)
 80013b8:	6b1b      	ldr	r3, [r3, #48]	; 0x30
 80013ba:	4a14      	ldr	r2, [pc, #80]	; (800140c <HAL_UART_MspInit+0x98>)
 80013bc:	f043 0301 	orr.w	r3, r3, #1
 80013c0:	6313      	str	r3, [r2, #48]	; 0x30
 80013c2:	4b12      	ldr	r3, [pc, #72]	; (800140c <HAL_UART_MspInit+0x98>)
 80013c4:	6b1b      	ldr	r3, [r3, #48]	; 0x30
 80013c6:	f003 0301 	and.w	r3, r3, #1
 80013ca:	60fb      	str	r3, [r7, #12]
 80013cc:	68fb      	ldr	r3, [r7, #12]
    /**USART1 GPIO Configuration
    PA9     ------> USART1_TX
    PA10     ------> USART1_RX
    */
    GPIO_InitStruct.Pin = GPIO_PIN_9|GPIO_PIN_10;
 80013ce:	f44f 63c0 	mov.w	r3, #1536	; 0x600
 80013d2:	617b      	str	r3, [r7, #20]
    GPIO_InitStruct.Mode = GPIO_MODE_AF_PP;
 80013d4:	2302      	movs	r3, #2
 80013d6:	61bb      	str	r3, [r7, #24]
    GPIO_InitStruct.Pull = GPIO_NOPULL;
 80013d8:	2300      	movs	r3, #0
 80013da:	61fb      	str	r3, [r7, #28]
    GPIO_InitStruct.Speed = GPIO_SPEED_FREQ_VERY_HIGH;
 80013dc:	2303      	movs	r3, #3
 80013de:	623b      	str	r3, [r7, #32]
    GPIO_InitStruct.Alternate = GPIO_AF7_USART1;
 80013e0:	2307      	movs	r3, #7
 80013e2:	627b      	str	r3, [r7, #36]	; 0x24
    HAL_GPIO_Init(GPIOA, &GPIO_InitStruct);
 80013e4:	f107 0314 	add.w	r3, r7, #20
 80013e8:	4619      	mov	r1, r3
 80013ea:	4809      	ldr	r0, [pc, #36]	; (8001410 <HAL_UART_MspInit+0x9c>)
 80013ec:	f000 fabc 	bl	8001968 <HAL_GPIO_Init>

    /* USART1 interrupt Init */
    HAL_NVIC_SetPriority(USART1_IRQn, 0, 0);
 80013f0:	2200      	movs	r2, #0
 80013f2:	2100      	movs	r1, #0
 80013f4:	2025      	movs	r0, #37	; 0x25
 80013f6:	f000 f9ee 	bl	80017d6 <HAL_NVIC_SetPriority>
    HAL_NVIC_EnableIRQ(USART1_IRQn);
 80013fa:	2025      	movs	r0, #37	; 0x25
 80013fc:	f000 fa07 	bl	800180e <HAL_NVIC_EnableIRQ>
  /* USER CODE BEGIN USART1_MspInit 1 */

  /* USER CODE END USART1_MspInit 1 */
  }

}
 8001400:	bf00      	nop
 8001402:	3728      	adds	r7, #40	; 0x28
 8001404:	46bd      	mov	sp, r7
 8001406:	bd80      	pop	{r7, pc}
 8001408:	40011000 	.word	0x40011000
 800140c:	40023800 	.word	0x40023800
 8001410:	40020000 	.word	0x40020000

08001414 <NMI_Handler>:
/******************************************************************************/
/**
  * @brief This function handles Non maskable interrupt.
  */
void NMI_Handler(void)
{
 8001414:	b480      	push	{r7}
 8001416:	af00      	add	r7, sp, #0
  /* USER CODE BEGIN NonMaskableInt_IRQn 0 */

  /* USER CODE END NonMaskableInt_IRQn 0 */
  /* USER CODE BEGIN NonMaskableInt_IRQn 1 */
  while (1)
 8001418:	e7fe      	b.n	8001418 <NMI_Handler+0x4>

0800141a <HardFault_Handler>:

/**
  * @brief This function handles Hard fault interrupt.
  */
void HardFault_Handler(void)
{
 800141a:	b480      	push	{r7}
 800141c:	af00      	add	r7, sp, #0
  /* USER CODE BEGIN HardFault_IRQn 0 */

  /* USER CODE END HardFault_IRQn 0 */
  while (1)
 800141e:	e7fe      	b.n	800141e <HardFault_Handler+0x4>

08001420 <MemManage_Handler>:

/**
  * @brief This function handles Memory management fault.
  */
void MemManage_Handler(void)
{
 8001420:	b480      	push	{r7}
 8001422:	af00      	add	r7, sp, #0
  /* USER CODE BEGIN MemoryManagement_IRQn 0 */

  /* USER CODE END MemoryManagement_IRQn 0 */
  while (1)
 8001424:	e7fe      	b.n	8001424 <MemManage_Handler+0x4>

08001426 <BusFault_Handler>:

/**
  * @brief This function handles Pre-fetch fault, memory access fault.
  */
void BusFault_Handler(void)
{
 8001426:	b480      	push	{r7}
 8001428:	af00      	add	r7, sp, #0
  /* USER CODE BEGIN BusFault_IRQn 0 */

  /* USER CODE END BusFault_IRQn 0 */
  while (1)
 800142a:	e7fe      	b.n	800142a <BusFault_Handler+0x4>

0800142c <UsageFault_Handler>:

/**
  * @brief This function handles Undefined instruction or illegal state.
  */
void UsageFault_Handler(void)
{
 800142c:	b480      	push	{r7}
 800142e:	af00      	add	r7, sp, #0
  /* USER CODE BEGIN UsageFault_IRQn 0 */

  /* USER CODE END UsageFault_IRQn 0 */
  while (1)
 8001430:	e7fe      	b.n	8001430 <UsageFault_Handler+0x4>

08001432 <SVC_Handler>:

/**
  * @brief This function handles System service call via SWI instruction.
  */
void SVC_Handler(void)
{
 8001432:	b480      	push	{r7}
 8001434:	af00      	add	r7, sp, #0

  /* USER CODE END SVCall_IRQn 0 */
  /* USER CODE BEGIN SVCall_IRQn 1 */

  /* USER CODE END SVCall_IRQn 1 */
}
 8001436:	bf00      	nop
 8001438:	46bd      	mov	sp, r7
 800143a:	f85d 7b04 	ldr.w	r7, [sp], #4
 800143e:	4770      	bx	lr

08001440 <DebugMon_Handler>:

/**
  * @brief This function handles Debug monitor.
  */
void DebugMon_Handler(void)
{
 8001440:	b480      	push	{r7}
 8001442:	af00      	add	r7, sp, #0

  /* USER CODE END DebugMonitor_IRQn 0 */
  /* USER CODE BEGIN DebugMonitor_IRQn 1 */

  /* USER CODE END DebugMonitor_IRQn 1 */
}
 8001444:	bf00      	nop
 8001446:	46bd      	mov	sp, r7
 8001448:	f85d 7b04 	ldr.w	r7, [sp], #4
 800144c:	4770      	bx	lr

0800144e <PendSV_Handler>:

/**
  * @brief This function handles Pendable request for system service.
  */
void PendSV_Handler(void)
{
 800144e:	b480      	push	{r7}
 8001450:	af00      	add	r7, sp, #0

  /* USER CODE END PendSV_IRQn 0 */
  /* USER CODE BEGIN PendSV_IRQn 1 */

  /* USER CODE END PendSV_IRQn 1 */
}
 8001452:	bf00      	nop
 8001454:	46bd      	mov	sp, r7
 8001456:	f85d 7b04 	ldr.w	r7, [sp], #4
 800145a:	4770      	bx	lr

0800145c <SysTick_Handler>:

/**
  * @brief This function handles System tick timer.
  */
void SysTick_Handler(void)
{
 800145c:	b580      	push	{r7, lr}
 800145e:	af00      	add	r7, sp, #0
  /* USER CODE BEGIN SysTick_IRQn 0 */

  /* USER CODE END SysTick_IRQn 0 */
  HAL_IncTick();
 8001460:	f000 f89a 	bl	8001598 <HAL_IncTick>
  /* USER CODE BEGIN SysTick_IRQn 1 */

  /* USER CODE END SysTick_IRQn 1 */
}
 8001464:	bf00      	nop
 8001466:	bd80      	pop	{r7, pc}

08001468 <USART1_IRQHandler>:

/**
  * @brief This function handles USART1 global interrupt.
  */
void USART1_IRQHandler(void)
{
 8001468:	b580      	push	{r7, lr}
 800146a:	af00      	add	r7, sp, #0
	//	// uint8_t new_c = USART1->DR;
	//	rx[my_index++] = USART1->DR;
	//}

  /* USER CODE END USART1_IRQn 0 */
  HAL_UART_IRQHandler(&huart1);
 800146c:	4802      	ldr	r0, [pc, #8]	; (8001478 <USART1_IRQHandler+0x10>)
 800146e:	f001 f9c1 	bl	80027f4 <HAL_UART_IRQHandler>
  /* USER CODE BEGIN USART1_IRQn 1 */

  /* USER CODE END USART1_IRQn 1 */
}
 8001472:	bf00      	nop
 8001474:	bd80      	pop	{r7, pc}
 8001476:	bf00      	nop
 8001478:	20000184 	.word	0x20000184

0800147c <SystemInit>:
  *         configuration.
  * @param  None
  * @retval None
  */
void SystemInit(void)
{
 800147c:	b480      	push	{r7}
 800147e:	af00      	add	r7, sp, #0
  /* FPU settings ------------------------------------------------------------*/
  #if (__FPU_PRESENT == 1) && (__FPU_USED == 1)
    SCB->CPACR |= ((3UL << 10*2)|(3UL << 11*2));  /* set CP10 and CP11 Full Access */
 8001480:	4b06      	ldr	r3, [pc, #24]	; (800149c <SystemInit+0x20>)
 8001482:	f8d3 3088 	ldr.w	r3, [r3, #136]	; 0x88
 8001486:	4a05      	ldr	r2, [pc, #20]	; (800149c <SystemInit+0x20>)
 8001488:	f443 0370 	orr.w	r3, r3, #15728640	; 0xf00000
 800148c:	f8c2 3088 	str.w	r3, [r2, #136]	; 0x88

  /* Configure the Vector Table location -------------------------------------*/
#if defined(USER_VECT_TAB_ADDRESS)
  SCB->VTOR = VECT_TAB_BASE_ADDRESS | VECT_TAB_OFFSET; /* Vector Table Relocation in Internal SRAM */
#endif /* USER_VECT_TAB_ADDRESS */
}
 8001490:	bf00      	nop
 8001492:	46bd      	mov	sp, r7
 8001494:	f85d 7b04 	ldr.w	r7, [sp], #4
 8001498:	4770      	bx	lr
 800149a:	bf00      	nop
 800149c:	e000ed00 	.word	0xe000ed00

080014a0 <Reset_Handler>:

    .section  .text.Reset_Handler
  .weak  Reset_Handler
  .type  Reset_Handler, %function
Reset_Handler:  
  ldr   sp, =_estack    		 /* set stack pointer */
 80014a0:	f8df d034 	ldr.w	sp, [pc, #52]	; 80014d8 <LoopFillZerobss+0x12>

/* Copy the data segment initializers from flash to SRAM */  
  ldr r0, =_sdata
 80014a4:	480d      	ldr	r0, [pc, #52]	; (80014dc <LoopFillZerobss+0x16>)
  ldr r1, =_edata
 80014a6:	490e      	ldr	r1, [pc, #56]	; (80014e0 <LoopFillZerobss+0x1a>)
  ldr r2, =_sidata
 80014a8:	4a0e      	ldr	r2, [pc, #56]	; (80014e4 <LoopFillZerobss+0x1e>)
  movs r3, #0
 80014aa:	2300      	movs	r3, #0
  b LoopCopyDataInit
 80014ac:	e002      	b.n	80014b4 <LoopCopyDataInit>

080014ae <CopyDataInit>:

CopyDataInit:
  ldr r4, [r2, r3]
 80014ae:	58d4      	ldr	r4, [r2, r3]
  str r4, [r0, r3]
 80014b0:	50c4      	str	r4, [r0, r3]
  adds r3, r3, #4
 80014b2:	3304      	adds	r3, #4

080014b4 <LoopCopyDataInit>:

LoopCopyDataInit:
  adds r4, r0, r3
 80014b4:	18c4      	adds	r4, r0, r3
  cmp r4, r1
 80014b6:	428c      	cmp	r4, r1
  bcc CopyDataInit
 80014b8:	d3f9      	bcc.n	80014ae <CopyDataInit>
  
/* Zero fill the bss segment. */
  ldr r2, =_sbss
 80014ba:	4a0b      	ldr	r2, [pc, #44]	; (80014e8 <LoopFillZerobss+0x22>)
  ldr r4, =_ebss
 80014bc:	4c0b      	ldr	r4, [pc, #44]	; (80014ec <LoopFillZerobss+0x26>)
  movs r3, #0
 80014be:	2300      	movs	r3, #0
  b LoopFillZerobss
 80014c0:	e001      	b.n	80014c6 <LoopFillZerobss>

080014c2 <FillZerobss>:

FillZerobss:
  str  r3, [r2]
 80014c2:	6013      	str	r3, [r2, #0]
  adds r2, r2, #4
 80014c4:	3204      	adds	r2, #4

080014c6 <LoopFillZerobss>:

LoopFillZerobss:
  cmp r2, r4
 80014c6:	42a2      	cmp	r2, r4
  bcc FillZerobss
 80014c8:	d3fb      	bcc.n	80014c2 <FillZerobss>

/* Call the clock system initialization function.*/
  bl  SystemInit   
 80014ca:	f7ff ffd7 	bl	800147c <SystemInit>
/* Call static constructors */
    bl __libc_init_array
 80014ce:	f002 f901 	bl	80036d4 <__libc_init_array>
/* Call the application's entry point.*/
  bl  main
 80014d2:	f7ff fd49 	bl	8000f68 <main>
  bx  lr    
 80014d6:	4770      	bx	lr
  ldr   sp, =_estack    		 /* set stack pointer */
 80014d8:	20020000 	.word	0x20020000
  ldr r0, =_sdata
 80014dc:	20000000 	.word	0x20000000
  ldr r1, =_edata
 80014e0:	20000088 	.word	0x20000088
  ldr r2, =_sidata
 80014e4:	08003854 	.word	0x08003854
  ldr r2, =_sbss
 80014e8:	20000088 	.word	0x20000088
  ldr r4, =_ebss
 80014ec:	200001cc 	.word	0x200001cc

080014f0 <ADC_IRQHandler>:
 * @retval None       
*/
    .section  .text.Default_Handler,"ax",%progbits
Default_Handler:
Infinite_Loop:
  b  Infinite_Loop
 80014f0:	e7fe      	b.n	80014f0 <ADC_IRQHandler>
	...

080014f4 <HAL_Init>:
  *         need to ensure that the SysTick time base is always set to 1 millisecond
  *         to have correct HAL operation.
  * @retval HAL status
  */
HAL_StatusTypeDef HAL_Init(void)
{
 80014f4:	b580      	push	{r7, lr}
 80014f6:	af00      	add	r7, sp, #0
  /* Configure Flash prefetch, Instruction cache, Data cache */ 
#if (INSTRUCTION_CACHE_ENABLE != 0U)
  __HAL_FLASH_INSTRUCTION_CACHE_ENABLE();
 80014f8:	4b0e      	ldr	r3, [pc, #56]	; (8001534 <HAL_Init+0x40>)
 80014fa:	681b      	ldr	r3, [r3, #0]
 80014fc:	4a0d      	ldr	r2, [pc, #52]	; (8001534 <HAL_Init+0x40>)
 80014fe:	f443 7300 	orr.w	r3, r3, #512	; 0x200
 8001502:	6013      	str	r3, [r2, #0]
#endif /* INSTRUCTION_CACHE_ENABLE */

#if (DATA_CACHE_ENABLE != 0U)
  __HAL_FLASH_DATA_CACHE_ENABLE();
 8001504:	4b0b      	ldr	r3, [pc, #44]	; (8001534 <HAL_Init+0x40>)
 8001506:	681b      	ldr	r3, [r3, #0]
 8001508:	4a0a      	ldr	r2, [pc, #40]	; (8001534 <HAL_Init+0x40>)
 800150a:	f443 6380 	orr.w	r3, r3, #1024	; 0x400
 800150e:	6013      	str	r3, [r2, #0]
#endif /* DATA_CACHE_ENABLE */

#if (PREFETCH_ENABLE != 0U)
  __HAL_FLASH_PREFETCH_BUFFER_ENABLE();
 8001510:	4b08      	ldr	r3, [pc, #32]	; (8001534 <HAL_Init+0x40>)
 8001512:	681b      	ldr	r3, [r3, #0]
 8001514:	4a07      	ldr	r2, [pc, #28]	; (8001534 <HAL_Init+0x40>)
 8001516:	f443 7380 	orr.w	r3, r3, #256	; 0x100
 800151a:	6013      	str	r3, [r2, #0]
#endif /* PREFETCH_ENABLE */

  /* Set Interrupt Group Priority */
  HAL_NVIC_SetPriorityGrouping(NVIC_PRIORITYGROUP_4);
 800151c:	2003      	movs	r0, #3
 800151e:	f000 f94f 	bl	80017c0 <HAL_NVIC_SetPriorityGrouping>

  /* Use systick as time base source and configure 1ms tick (default clock after Reset is HSI) */
  HAL_InitTick(TICK_INT_PRIORITY);
 8001522:	2000      	movs	r0, #0
 8001524:	f000 f808 	bl	8001538 <HAL_InitTick>

  /* Init the low level hardware */
  HAL_MspInit();
 8001528:	f7ff fefc 	bl	8001324 <HAL_MspInit>

  /* Return function status */
  return HAL_OK;
 800152c:	2300      	movs	r3, #0
}
 800152e:	4618      	mov	r0, r3
 8001530:	bd80      	pop	{r7, pc}
 8001532:	bf00      	nop
 8001534:	40023c00 	.word	0x40023c00

08001538 <HAL_InitTick>:
  *       implementation  in user file.
  * @param TickPriority Tick interrupt priority.
  * @retval HAL status
  */
__weak HAL_StatusTypeDef HAL_InitTick(uint32_t TickPriority)
{
 8001538:	b580      	push	{r7, lr}
 800153a:	b082      	sub	sp, #8
 800153c:	af00      	add	r7, sp, #0
 800153e:	6078      	str	r0, [r7, #4]
  /* Configure the SysTick to have interrupt in 1ms time basis*/
  if (HAL_SYSTICK_Config(SystemCoreClock / (1000U / uwTickFreq)) > 0U)
 8001540:	4b12      	ldr	r3, [pc, #72]	; (800158c <HAL_InitTick+0x54>)
 8001542:	681a      	ldr	r2, [r3, #0]
 8001544:	4b12      	ldr	r3, [pc, #72]	; (8001590 <HAL_InitTick+0x58>)
 8001546:	781b      	ldrb	r3, [r3, #0]
 8001548:	4619      	mov	r1, r3
 800154a:	f44f 737a 	mov.w	r3, #1000	; 0x3e8
 800154e:	fbb3 f3f1 	udiv	r3, r3, r1
 8001552:	fbb2 f3f3 	udiv	r3, r2, r3
 8001556:	4618      	mov	r0, r3
 8001558:	f000 f967 	bl	800182a <HAL_SYSTICK_Config>
 800155c:	4603      	mov	r3, r0
 800155e:	2b00      	cmp	r3, #0
 8001560:	d001      	beq.n	8001566 <HAL_InitTick+0x2e>
  {
    return HAL_ERROR;
 8001562:	2301      	movs	r3, #1
 8001564:	e00e      	b.n	8001584 <HAL_InitTick+0x4c>
  }

  /* Configure the SysTick IRQ priority */
  if (TickPriority < (1UL << __NVIC_PRIO_BITS))
 8001566:	687b      	ldr	r3, [r7, #4]
 8001568:	2b0f      	cmp	r3, #15
 800156a:	d80a      	bhi.n	8001582 <HAL_InitTick+0x4a>
  {
    HAL_NVIC_SetPriority(SysTick_IRQn, TickPriority, 0U);
 800156c:	2200      	movs	r2, #0
 800156e:	6879      	ldr	r1, [r7, #4]
 8001570:	f04f 30ff 	mov.w	r0, #4294967295
 8001574:	f000 f92f 	bl	80017d6 <HAL_NVIC_SetPriority>
    uwTickPrio = TickPriority;
 8001578:	4a06      	ldr	r2, [pc, #24]	; (8001594 <HAL_InitTick+0x5c>)
 800157a:	687b      	ldr	r3, [r7, #4]
 800157c:	6013      	str	r3, [r2, #0]
  {
    return HAL_ERROR;
  }

  /* Return function status */
  return HAL_OK;
 800157e:	2300      	movs	r3, #0
 8001580:	e000      	b.n	8001584 <HAL_InitTick+0x4c>
    return HAL_ERROR;
 8001582:	2301      	movs	r3, #1
}
 8001584:	4618      	mov	r0, r3
 8001586:	3708      	adds	r7, #8
 8001588:	46bd      	mov	sp, r7
 800158a:	bd80      	pop	{r7, pc}
 800158c:	2000007c 	.word	0x2000007c
 8001590:	20000084 	.word	0x20000084
 8001594:	20000080 	.word	0x20000080

08001598 <HAL_IncTick>:
 * @note This function is declared as __weak to be overwritten in case of other 
  *      implementations in user file.
  * @retval None
  */
__weak void HAL_IncTick(void)
{
 8001598:	b480      	push	{r7}
 800159a:	af00      	add	r7, sp, #0
  uwTick += uwTickFreq;
 800159c:	4b06      	ldr	r3, [pc, #24]	; (80015b8 <HAL_IncTick+0x20>)
 800159e:	781b      	ldrb	r3, [r3, #0]
 80015a0:	461a      	mov	r2, r3
 80015a2:	4b06      	ldr	r3, [pc, #24]	; (80015bc <HAL_IncTick+0x24>)
 80015a4:	681b      	ldr	r3, [r3, #0]
 80015a6:	4413      	add	r3, r2
 80015a8:	4a04      	ldr	r2, [pc, #16]	; (80015bc <HAL_IncTick+0x24>)
 80015aa:	6013      	str	r3, [r2, #0]
}
 80015ac:	bf00      	nop
 80015ae:	46bd      	mov	sp, r7
 80015b0:	f85d 7b04 	ldr.w	r7, [sp], #4
 80015b4:	4770      	bx	lr
 80015b6:	bf00      	nop
 80015b8:	20000084 	.word	0x20000084
 80015bc:	200001c8 	.word	0x200001c8

080015c0 <HAL_GetTick>:
  * @note This function is declared as __weak to be overwritten in case of other 
  *       implementations in user file.
  * @retval tick value
  */
__weak uint32_t HAL_GetTick(void)
{
 80015c0:	b480      	push	{r7}
 80015c2:	af00      	add	r7, sp, #0
  return uwTick;
 80015c4:	4b03      	ldr	r3, [pc, #12]	; (80015d4 <HAL_GetTick+0x14>)
 80015c6:	681b      	ldr	r3, [r3, #0]
}
 80015c8:	4618      	mov	r0, r3
 80015ca:	46bd      	mov	sp, r7
 80015cc:	f85d 7b04 	ldr.w	r7, [sp], #4
 80015d0:	4770      	bx	lr
 80015d2:	bf00      	nop
 80015d4:	200001c8 	.word	0x200001c8

080015d8 <HAL_Delay>:
  *       implementations in user file.
  * @param Delay specifies the delay time length, in milliseconds.
  * @retval None
  */
__weak void HAL_Delay(uint32_t Delay)
{
 80015d8:	b580      	push	{r7, lr}
 80015da:	b084      	sub	sp, #16
 80015dc:	af00      	add	r7, sp, #0
 80015de:	6078      	str	r0, [r7, #4]
  uint32_t tickstart = HAL_GetTick();
 80015e0:	f7ff ffee 	bl	80015c0 <HAL_GetTick>
 80015e4:	60b8      	str	r0, [r7, #8]
  uint32_t wait = Delay;
 80015e6:	687b      	ldr	r3, [r7, #4]
 80015e8:	60fb      	str	r3, [r7, #12]

  /* Add a freq to guarantee minimum wait */
  if (wait < HAL_MAX_DELAY)
 80015ea:	68fb      	ldr	r3, [r7, #12]
 80015ec:	f1b3 3fff 	cmp.w	r3, #4294967295
 80015f0:	d005      	beq.n	80015fe <HAL_Delay+0x26>
  {
    wait += (uint32_t)(uwTickFreq);
 80015f2:	4b0a      	ldr	r3, [pc, #40]	; (800161c <HAL_Delay+0x44>)
 80015f4:	781b      	ldrb	r3, [r3, #0]
 80015f6:	461a      	mov	r2, r3
 80015f8:	68fb      	ldr	r3, [r7, #12]
 80015fa:	4413      	add	r3, r2
 80015fc:	60fb      	str	r3, [r7, #12]
  }

  while((HAL_GetTick() - tickstart) < wait)
 80015fe:	bf00      	nop
 8001600:	f7ff ffde 	bl	80015c0 <HAL_GetTick>
 8001604:	4602      	mov	r2, r0
 8001606:	68bb      	ldr	r3, [r7, #8]
 8001608:	1ad3      	subs	r3, r2, r3
 800160a:	68fa      	ldr	r2, [r7, #12]
 800160c:	429a      	cmp	r2, r3
 800160e:	d8f7      	bhi.n	8001600 <HAL_Delay+0x28>
  {
  }
}
 8001610:	bf00      	nop
 8001612:	bf00      	nop
 8001614:	3710      	adds	r7, #16
 8001616:	46bd      	mov	sp, r7
 8001618:	bd80      	pop	{r7, pc}
 800161a:	bf00      	nop
 800161c:	20000084 	.word	0x20000084

08001620 <__NVIC_SetPriorityGrouping>:
           In case of a conflict between priority grouping and available
           priority bits (__NVIC_PRIO_BITS), the smallest possible priority group is set.
  \param [in]      PriorityGroup  Priority grouping field.
 */
__STATIC_INLINE void __NVIC_SetPriorityGrouping(uint32_t PriorityGroup)
{
 8001620:	b480      	push	{r7}
 8001622:	b085      	sub	sp, #20
 8001624:	af00      	add	r7, sp, #0
 8001626:	6078      	str	r0, [r7, #4]
  uint32_t reg_value;
  uint32_t PriorityGroupTmp = (PriorityGroup & (uint32_t)0x07UL);             /* only values 0..7 are used          */
 8001628:	687b      	ldr	r3, [r7, #4]
 800162a:	f003 0307 	and.w	r3, r3, #7
 800162e:	60fb      	str	r3, [r7, #12]

  reg_value  =  SCB->AIRCR;                                                   /* read old register configuration    */
 8001630:	4b0c      	ldr	r3, [pc, #48]	; (8001664 <__NVIC_SetPriorityGrouping+0x44>)
 8001632:	68db      	ldr	r3, [r3, #12]
 8001634:	60bb      	str	r3, [r7, #8]
  reg_value &= ~((uint32_t)(SCB_AIRCR_VECTKEY_Msk | SCB_AIRCR_PRIGROUP_Msk)); /* clear bits to change               */
 8001636:	68ba      	ldr	r2, [r7, #8]
 8001638:	f64f 03ff 	movw	r3, #63743	; 0xf8ff
 800163c:	4013      	ands	r3, r2
 800163e:	60bb      	str	r3, [r7, #8]
  reg_value  =  (reg_value                                   |
                ((uint32_t)0x5FAUL << SCB_AIRCR_VECTKEY_Pos) |
                (PriorityGroupTmp << SCB_AIRCR_PRIGROUP_Pos)  );              /* Insert write key and priority group */
 8001640:	68fb      	ldr	r3, [r7, #12]
 8001642:	021a      	lsls	r2, r3, #8
                ((uint32_t)0x5FAUL << SCB_AIRCR_VECTKEY_Pos) |
 8001644:	68bb      	ldr	r3, [r7, #8]
 8001646:	4313      	orrs	r3, r2
  reg_value  =  (reg_value                                   |
 8001648:	f043 63bf 	orr.w	r3, r3, #100139008	; 0x5f80000
 800164c:	f443 3300 	orr.w	r3, r3, #131072	; 0x20000
 8001650:	60bb      	str	r3, [r7, #8]
  SCB->AIRCR =  reg_value;
 8001652:	4a04      	ldr	r2, [pc, #16]	; (8001664 <__NVIC_SetPriorityGrouping+0x44>)
 8001654:	68bb      	ldr	r3, [r7, #8]
 8001656:	60d3      	str	r3, [r2, #12]
}
 8001658:	bf00      	nop
 800165a:	3714      	adds	r7, #20
 800165c:	46bd      	mov	sp, r7
 800165e:	f85d 7b04 	ldr.w	r7, [sp], #4
 8001662:	4770      	bx	lr
 8001664:	e000ed00 	.word	0xe000ed00

08001668 <__NVIC_GetPriorityGrouping>:
  \brief   Get Priority Grouping
  \details Reads the priority grouping field from the NVIC Interrupt Controller.
  \return                Priority grouping field (SCB->AIRCR [10:8] PRIGROUP field).
 */
__STATIC_INLINE uint32_t __NVIC_GetPriorityGrouping(void)
{
 8001668:	b480      	push	{r7}
 800166a:	af00      	add	r7, sp, #0
  return ((uint32_t)((SCB->AIRCR & SCB_AIRCR_PRIGROUP_Msk) >> SCB_AIRCR_PRIGROUP_Pos));
 800166c:	4b04      	ldr	r3, [pc, #16]	; (8001680 <__NVIC_GetPriorityGrouping+0x18>)
 800166e:	68db      	ldr	r3, [r3, #12]
 8001670:	0a1b      	lsrs	r3, r3, #8
 8001672:	f003 0307 	and.w	r3, r3, #7
}
 8001676:	4618      	mov	r0, r3
 8001678:	46bd      	mov	sp, r7
 800167a:	f85d 7b04 	ldr.w	r7, [sp], #4
 800167e:	4770      	bx	lr
 8001680:	e000ed00 	.word	0xe000ed00

08001684 <__NVIC_EnableIRQ>:
  \details Enables a device specific interrupt in the NVIC interrupt controller.
  \param [in]      IRQn  Device specific interrupt number.
  \note    IRQn must not be negative.
 */
__STATIC_INLINE void __NVIC_EnableIRQ(IRQn_Type IRQn)
{
 8001684:	b480      	push	{r7}
 8001686:	b083      	sub	sp, #12
 8001688:	af00      	add	r7, sp, #0
 800168a:	4603      	mov	r3, r0
 800168c:	71fb      	strb	r3, [r7, #7]
  if ((int32_t)(IRQn) >= 0)
 800168e:	f997 3007 	ldrsb.w	r3, [r7, #7]
 8001692:	2b00      	cmp	r3, #0
 8001694:	db0b      	blt.n	80016ae <__NVIC_EnableIRQ+0x2a>
  {
    NVIC->ISER[(((uint32_t)IRQn) >> 5UL)] = (uint32_t)(1UL << (((uint32_t)IRQn) & 0x1FUL));
 8001696:	79fb      	ldrb	r3, [r7, #7]
 8001698:	f003 021f 	and.w	r2, r3, #31
 800169c:	4907      	ldr	r1, [pc, #28]	; (80016bc <__NVIC_EnableIRQ+0x38>)
 800169e:	f997 3007 	ldrsb.w	r3, [r7, #7]
 80016a2:	095b      	lsrs	r3, r3, #5
 80016a4:	2001      	movs	r0, #1
 80016a6:	fa00 f202 	lsl.w	r2, r0, r2
 80016aa:	f841 2023 	str.w	r2, [r1, r3, lsl #2]
  }
}
 80016ae:	bf00      	nop
 80016b0:	370c      	adds	r7, #12
 80016b2:	46bd      	mov	sp, r7
 80016b4:	f85d 7b04 	ldr.w	r7, [sp], #4
 80016b8:	4770      	bx	lr
 80016ba:	bf00      	nop
 80016bc:	e000e100 	.word	0xe000e100

080016c0 <__NVIC_SetPriority>:
  \param [in]      IRQn  Interrupt number.
  \param [in]  priority  Priority to set.
  \note    The priority cannot be set for every processor exception.
 */
__STATIC_INLINE void __NVIC_SetPriority(IRQn_Type IRQn, uint32_t priority)
{
 80016c0:	b480      	push	{r7}
 80016c2:	b083      	sub	sp, #12
 80016c4:	af00      	add	r7, sp, #0
 80016c6:	4603      	mov	r3, r0
 80016c8:	6039      	str	r1, [r7, #0]
 80016ca:	71fb      	strb	r3, [r7, #7]
  if ((int32_t)(IRQn) >= 0)
 80016cc:	f997 3007 	ldrsb.w	r3, [r7, #7]
 80016d0:	2b00      	cmp	r3, #0
 80016d2:	db0a      	blt.n	80016ea <__NVIC_SetPriority+0x2a>
  {
    NVIC->IP[((uint32_t)IRQn)]               = (uint8_t)((priority << (8U - __NVIC_PRIO_BITS)) & (uint32_t)0xFFUL);
 80016d4:	683b      	ldr	r3, [r7, #0]
 80016d6:	b2da      	uxtb	r2, r3
 80016d8:	490c      	ldr	r1, [pc, #48]	; (800170c <__NVIC_SetPriority+0x4c>)
 80016da:	f997 3007 	ldrsb.w	r3, [r7, #7]
 80016de:	0112      	lsls	r2, r2, #4
 80016e0:	b2d2      	uxtb	r2, r2
 80016e2:	440b      	add	r3, r1
 80016e4:	f883 2300 	strb.w	r2, [r3, #768]	; 0x300
  }
  else
  {
    SCB->SHP[(((uint32_t)IRQn) & 0xFUL)-4UL] = (uint8_t)((priority << (8U - __NVIC_PRIO_BITS)) & (uint32_t)0xFFUL);
  }
}
 80016e8:	e00a      	b.n	8001700 <__NVIC_SetPriority+0x40>
    SCB->SHP[(((uint32_t)IRQn) & 0xFUL)-4UL] = (uint8_t)((priority << (8U - __NVIC_PRIO_BITS)) & (uint32_t)0xFFUL);
 80016ea:	683b      	ldr	r3, [r7, #0]
 80016ec:	b2da      	uxtb	r2, r3
 80016ee:	4908      	ldr	r1, [pc, #32]	; (8001710 <__NVIC_SetPriority+0x50>)
 80016f0:	79fb      	ldrb	r3, [r7, #7]
 80016f2:	f003 030f 	and.w	r3, r3, #15
 80016f6:	3b04      	subs	r3, #4
 80016f8:	0112      	lsls	r2, r2, #4
 80016fa:	b2d2      	uxtb	r2, r2
 80016fc:	440b      	add	r3, r1
 80016fe:	761a      	strb	r2, [r3, #24]
}
 8001700:	bf00      	nop
 8001702:	370c      	adds	r7, #12
 8001704:	46bd      	mov	sp, r7
 8001706:	f85d 7b04 	ldr.w	r7, [sp], #4
 800170a:	4770      	bx	lr
 800170c:	e000e100 	.word	0xe000e100
 8001710:	e000ed00 	.word	0xe000ed00

08001714 <NVIC_EncodePriority>:
  \param [in]   PreemptPriority  Preemptive priority value (starting from 0).
  \param [in]       SubPriority  Subpriority value (starting from 0).
  \return                        Encoded priority. Value can be used in the function \ref NVIC_SetPriority().
 */
__STATIC_INLINE uint32_t NVIC_EncodePriority (uint32_t PriorityGroup, uint32_t PreemptPriority, uint32_t SubPriority)
{
 8001714:	b480      	push	{r7}
 8001716:	b089      	sub	sp, #36	; 0x24
 8001718:	af00      	add	r7, sp, #0
 800171a:	60f8      	str	r0, [r7, #12]
 800171c:	60b9      	str	r1, [r7, #8]
 800171e:	607a      	str	r2, [r7, #4]
  uint32_t PriorityGroupTmp = (PriorityGroup & (uint32_t)0x07UL);   /* only values 0..7 are used          */
 8001720:	68fb      	ldr	r3, [r7, #12]
 8001722:	f003 0307 	and.w	r3, r3, #7
 8001726:	61fb      	str	r3, [r7, #28]
  uint32_t PreemptPriorityBits;
  uint32_t SubPriorityBits;

  PreemptPriorityBits = ((7UL - PriorityGroupTmp) > (uint32_t)(__NVIC_PRIO_BITS)) ? (uint32_t)(__NVIC_PRIO_BITS) : (uint32_t)(7UL - PriorityGroupTmp);
 8001728:	69fb      	ldr	r3, [r7, #28]
 800172a:	f1c3 0307 	rsb	r3, r3, #7
 800172e:	2b04      	cmp	r3, #4
 8001730:	bf28      	it	cs
 8001732:	2304      	movcs	r3, #4
 8001734:	61bb      	str	r3, [r7, #24]
  SubPriorityBits     = ((PriorityGroupTmp + (uint32_t)(__NVIC_PRIO_BITS)) < (uint32_t)7UL) ? (uint32_t)0UL : (uint32_t)((PriorityGroupTmp - 7UL) + (uint32_t)(__NVIC_PRIO_BITS));
 8001736:	69fb      	ldr	r3, [r7, #28]
 8001738:	3304      	adds	r3, #4
 800173a:	2b06      	cmp	r3, #6
 800173c:	d902      	bls.n	8001744 <NVIC_EncodePriority+0x30>
 800173e:	69fb      	ldr	r3, [r7, #28]
 8001740:	3b03      	subs	r3, #3
 8001742:	e000      	b.n	8001746 <NVIC_EncodePriority+0x32>
 8001744:	2300      	movs	r3, #0
 8001746:	617b      	str	r3, [r7, #20]

  return (
           ((PreemptPriority & (uint32_t)((1UL << (PreemptPriorityBits)) - 1UL)) << SubPriorityBits) |
 8001748:	f04f 32ff 	mov.w	r2, #4294967295
 800174c:	69bb      	ldr	r3, [r7, #24]
 800174e:	fa02 f303 	lsl.w	r3, r2, r3
 8001752:	43da      	mvns	r2, r3
 8001754:	68bb      	ldr	r3, [r7, #8]
 8001756:	401a      	ands	r2, r3
 8001758:	697b      	ldr	r3, [r7, #20]
 800175a:	409a      	lsls	r2, r3
           ((SubPriority     & (uint32_t)((1UL << (SubPriorityBits    )) - 1UL)))
 800175c:	f04f 31ff 	mov.w	r1, #4294967295
 8001760:	697b      	ldr	r3, [r7, #20]
 8001762:	fa01 f303 	lsl.w	r3, r1, r3
 8001766:	43d9      	mvns	r1, r3
 8001768:	687b      	ldr	r3, [r7, #4]
 800176a:	400b      	ands	r3, r1
           ((PreemptPriority & (uint32_t)((1UL << (PreemptPriorityBits)) - 1UL)) << SubPriorityBits) |
 800176c:	4313      	orrs	r3, r2
         );
}
 800176e:	4618      	mov	r0, r3
 8001770:	3724      	adds	r7, #36	; 0x24
 8001772:	46bd      	mov	sp, r7
 8001774:	f85d 7b04 	ldr.w	r7, [sp], #4
 8001778:	4770      	bx	lr
	...

0800177c <SysTick_Config>:
  \note    When the variable <b>__Vendor_SysTickConfig</b> is set to 1, then the
           function <b>SysTick_Config</b> is not included. In this case, the file <b><i>device</i>.h</b>
           must contain a vendor-specific implementation of this function.
 */
__STATIC_INLINE uint32_t SysTick_Config(uint32_t ticks)
{
 800177c:	b580      	push	{r7, lr}
 800177e:	b082      	sub	sp, #8
 8001780:	af00      	add	r7, sp, #0
 8001782:	6078      	str	r0, [r7, #4]
  if ((ticks - 1UL) > SysTick_LOAD_RELOAD_Msk)
 8001784:	687b      	ldr	r3, [r7, #4]
 8001786:	3b01      	subs	r3, #1
 8001788:	f1b3 7f80 	cmp.w	r3, #16777216	; 0x1000000
 800178c:	d301      	bcc.n	8001792 <SysTick_Config+0x16>
  {
    return (1UL);                                                   /* Reload value impossible */
 800178e:	2301      	movs	r3, #1
 8001790:	e00f      	b.n	80017b2 <SysTick_Config+0x36>
  }

  SysTick->LOAD  = (uint32_t)(ticks - 1UL);                         /* set reload register */
 8001792:	4a0a      	ldr	r2, [pc, #40]	; (80017bc <SysTick_Config+0x40>)
 8001794:	687b      	ldr	r3, [r7, #4]
 8001796:	3b01      	subs	r3, #1
 8001798:	6053      	str	r3, [r2, #4]
  NVIC_SetPriority (SysTick_IRQn, (1UL << __NVIC_PRIO_BITS) - 1UL); /* set Priority for Systick Interrupt */
 800179a:	210f      	movs	r1, #15
 800179c:	f04f 30ff 	mov.w	r0, #4294967295
 80017a0:	f7ff ff8e 	bl	80016c0 <__NVIC_SetPriority>
  SysTick->VAL   = 0UL;                                             /* Load the SysTick Counter Value */
 80017a4:	4b05      	ldr	r3, [pc, #20]	; (80017bc <SysTick_Config+0x40>)
 80017a6:	2200      	movs	r2, #0
 80017a8:	609a      	str	r2, [r3, #8]
  SysTick->CTRL  = SysTick_CTRL_CLKSOURCE_Msk |
 80017aa:	4b04      	ldr	r3, [pc, #16]	; (80017bc <SysTick_Config+0x40>)
 80017ac:	2207      	movs	r2, #7
 80017ae:	601a      	str	r2, [r3, #0]
                   SysTick_CTRL_TICKINT_Msk   |
                   SysTick_CTRL_ENABLE_Msk;                         /* Enable SysTick IRQ and SysTick Timer */
  return (0UL);                                                     /* Function successful */
 80017b0:	2300      	movs	r3, #0
}
 80017b2:	4618      	mov	r0, r3
 80017b4:	3708      	adds	r7, #8
 80017b6:	46bd      	mov	sp, r7
 80017b8:	bd80      	pop	{r7, pc}
 80017ba:	bf00      	nop
 80017bc:	e000e010 	.word	0xe000e010

080017c0 <HAL_NVIC_SetPriorityGrouping>:
  * @note   When the NVIC_PriorityGroup_0 is selected, IRQ preemption is no more possible. 
  *         The pending IRQ priority will be managed only by the subpriority. 
  * @retval None
  */
void HAL_NVIC_SetPriorityGrouping(uint32_t PriorityGroup)
{
 80017c0:	b580      	push	{r7, lr}
 80017c2:	b082      	sub	sp, #8
 80017c4:	af00      	add	r7, sp, #0
 80017c6:	6078      	str	r0, [r7, #4]
  /* Check the parameters */
  assert_param(IS_NVIC_PRIORITY_GROUP(PriorityGroup));
  
  /* Set the PRIGROUP[10:8] bits according to the PriorityGroup parameter value */
  NVIC_SetPriorityGrouping(PriorityGroup);
 80017c8:	6878      	ldr	r0, [r7, #4]
 80017ca:	f7ff ff29 	bl	8001620 <__NVIC_SetPriorityGrouping>
}
 80017ce:	bf00      	nop
 80017d0:	3708      	adds	r7, #8
 80017d2:	46bd      	mov	sp, r7
 80017d4:	bd80      	pop	{r7, pc}

080017d6 <HAL_NVIC_SetPriority>:
  *         This parameter can be a value between 0 and 15
  *         A lower priority value indicates a higher priority.          
  * @retval None
  */
void HAL_NVIC_SetPriority(IRQn_Type IRQn, uint32_t PreemptPriority, uint32_t SubPriority)
{ 
 80017d6:	b580      	push	{r7, lr}
 80017d8:	b086      	sub	sp, #24
 80017da:	af00      	add	r7, sp, #0
 80017dc:	4603      	mov	r3, r0
 80017de:	60b9      	str	r1, [r7, #8]
 80017e0:	607a      	str	r2, [r7, #4]
 80017e2:	73fb      	strb	r3, [r7, #15]
  uint32_t prioritygroup = 0x00U;
 80017e4:	2300      	movs	r3, #0
 80017e6:	617b      	str	r3, [r7, #20]
  
  /* Check the parameters */
  assert_param(IS_NVIC_SUB_PRIORITY(SubPriority));
  assert_param(IS_NVIC_PREEMPTION_PRIORITY(PreemptPriority));
  
  prioritygroup = NVIC_GetPriorityGrouping();
 80017e8:	f7ff ff3e 	bl	8001668 <__NVIC_GetPriorityGrouping>
 80017ec:	6178      	str	r0, [r7, #20]
  
  NVIC_SetPriority(IRQn, NVIC_EncodePriority(prioritygroup, PreemptPriority, SubPriority));
 80017ee:	687a      	ldr	r2, [r7, #4]
 80017f0:	68b9      	ldr	r1, [r7, #8]
 80017f2:	6978      	ldr	r0, [r7, #20]
 80017f4:	f7ff ff8e 	bl	8001714 <NVIC_EncodePriority>
 80017f8:	4602      	mov	r2, r0
 80017fa:	f997 300f 	ldrsb.w	r3, [r7, #15]
 80017fe:	4611      	mov	r1, r2
 8001800:	4618      	mov	r0, r3
 8001802:	f7ff ff5d 	bl	80016c0 <__NVIC_SetPriority>
}
 8001806:	bf00      	nop
 8001808:	3718      	adds	r7, #24
 800180a:	46bd      	mov	sp, r7
 800180c:	bd80      	pop	{r7, pc}

0800180e <HAL_NVIC_EnableIRQ>:
  *         This parameter can be an enumerator of IRQn_Type enumeration
  *         (For the complete STM32 Devices IRQ Channels list, please refer to the appropriate CMSIS device file (stm32f4xxxx.h))
  * @retval None
  */
void HAL_NVIC_EnableIRQ(IRQn_Type IRQn)
{
 800180e:	b580      	push	{r7, lr}
 8001810:	b082      	sub	sp, #8
 8001812:	af00      	add	r7, sp, #0
 8001814:	4603      	mov	r3, r0
 8001816:	71fb      	strb	r3, [r7, #7]
  /* Check the parameters */
  assert_param(IS_NVIC_DEVICE_IRQ(IRQn));
  
  /* Enable interrupt */
  NVIC_EnableIRQ(IRQn);
 8001818:	f997 3007 	ldrsb.w	r3, [r7, #7]
 800181c:	4618      	mov	r0, r3
 800181e:	f7ff ff31 	bl	8001684 <__NVIC_EnableIRQ>
}
 8001822:	bf00      	nop
 8001824:	3708      	adds	r7, #8
 8001826:	46bd      	mov	sp, r7
 8001828:	bd80      	pop	{r7, pc}

0800182a <HAL_SYSTICK_Config>:
  * @param  TicksNumb Specifies the ticks Number of ticks between two interrupts.
  * @retval status:  - 0  Function succeeded.
  *                  - 1  Function failed.
  */
uint32_t HAL_SYSTICK_Config(uint32_t TicksNumb)
{
 800182a:	b580      	push	{r7, lr}
 800182c:	b082      	sub	sp, #8
 800182e:	af00      	add	r7, sp, #0
 8001830:	6078      	str	r0, [r7, #4]
   return SysTick_Config(TicksNumb);
 8001832:	6878      	ldr	r0, [r7, #4]
 8001834:	f7ff ffa2 	bl	800177c <SysTick_Config>
 8001838:	4603      	mov	r3, r0
}
 800183a:	4618      	mov	r0, r3
 800183c:	3708      	adds	r7, #8
 800183e:	46bd      	mov	sp, r7
 8001840:	bd80      	pop	{r7, pc}

08001842 <HAL_DMA_Abort>:
  *        and the Stream will be effectively disabled only after the transfer of
  *        this single data is finished.  
  * @retval HAL status
  */
HAL_StatusTypeDef HAL_DMA_Abort(DMA_HandleTypeDef *hdma)
{
 8001842:	b580      	push	{r7, lr}
 8001844:	b084      	sub	sp, #16
 8001846:	af00      	add	r7, sp, #0
 8001848:	6078      	str	r0, [r7, #4]
  /* calculate DMA base and stream number */
  DMA_Base_Registers *regs = (DMA_Base_Registers *)hdma->StreamBaseAddress;
 800184a:	687b      	ldr	r3, [r7, #4]
 800184c:	6d9b      	ldr	r3, [r3, #88]	; 0x58
 800184e:	60fb      	str	r3, [r7, #12]
  
  uint32_t tickstart = HAL_GetTick();
 8001850:	f7ff feb6 	bl	80015c0 <HAL_GetTick>
 8001854:	60b8      	str	r0, [r7, #8]
  
  if(hdma->State != HAL_DMA_STATE_BUSY)
 8001856:	687b      	ldr	r3, [r7, #4]
 8001858:	f893 3035 	ldrb.w	r3, [r3, #53]	; 0x35
 800185c:	b2db      	uxtb	r3, r3
 800185e:	2b02      	cmp	r3, #2
 8001860:	d008      	beq.n	8001874 <HAL_DMA_Abort+0x32>
  {
    hdma->ErrorCode = HAL_DMA_ERROR_NO_XFER;
 8001862:	687b      	ldr	r3, [r7, #4]
 8001864:	2280      	movs	r2, #128	; 0x80
 8001866:	655a      	str	r2, [r3, #84]	; 0x54
    
    /* Process Unlocked */
    __HAL_UNLOCK(hdma);
 8001868:	687b      	ldr	r3, [r7, #4]
 800186a:	2200      	movs	r2, #0
 800186c:	f883 2034 	strb.w	r2, [r3, #52]	; 0x34
    
    return HAL_ERROR;
 8001870:	2301      	movs	r3, #1
 8001872:	e052      	b.n	800191a <HAL_DMA_Abort+0xd8>
  }
  else
  {
    /* Disable all the transfer interrupts */
    hdma->Instance->CR  &= ~(DMA_IT_TC | DMA_IT_TE | DMA_IT_DME);
 8001874:	687b      	ldr	r3, [r7, #4]
 8001876:	681b      	ldr	r3, [r3, #0]
 8001878:	681a      	ldr	r2, [r3, #0]
 800187a:	687b      	ldr	r3, [r7, #4]
 800187c:	681b      	ldr	r3, [r3, #0]
 800187e:	f022 0216 	bic.w	r2, r2, #22
 8001882:	601a      	str	r2, [r3, #0]
    hdma->Instance->FCR &= ~(DMA_IT_FE);
 8001884:	687b      	ldr	r3, [r7, #4]
 8001886:	681b      	ldr	r3, [r3, #0]
 8001888:	695a      	ldr	r2, [r3, #20]
 800188a:	687b      	ldr	r3, [r7, #4]
 800188c:	681b      	ldr	r3, [r3, #0]
 800188e:	f022 0280 	bic.w	r2, r2, #128	; 0x80
 8001892:	615a      	str	r2, [r3, #20]
    
    if((hdma->XferHalfCpltCallback != NULL) || (hdma->XferM1HalfCpltCallback != NULL))
 8001894:	687b      	ldr	r3, [r7, #4]
 8001896:	6c1b      	ldr	r3, [r3, #64]	; 0x40
 8001898:	2b00      	cmp	r3, #0
 800189a:	d103      	bne.n	80018a4 <HAL_DMA_Abort+0x62>
 800189c:	687b      	ldr	r3, [r7, #4]
 800189e:	6c9b      	ldr	r3, [r3, #72]	; 0x48
 80018a0:	2b00      	cmp	r3, #0
 80018a2:	d007      	beq.n	80018b4 <HAL_DMA_Abort+0x72>
    {
      hdma->Instance->CR  &= ~(DMA_IT_HT);
 80018a4:	687b      	ldr	r3, [r7, #4]
 80018a6:	681b      	ldr	r3, [r3, #0]
 80018a8:	681a      	ldr	r2, [r3, #0]
 80018aa:	687b      	ldr	r3, [r7, #4]
 80018ac:	681b      	ldr	r3, [r3, #0]
 80018ae:	f022 0208 	bic.w	r2, r2, #8
 80018b2:	601a      	str	r2, [r3, #0]
    }
    
    /* Disable the stream */
    __HAL_DMA_DISABLE(hdma);
 80018b4:	687b      	ldr	r3, [r7, #4]
 80018b6:	681b      	ldr	r3, [r3, #0]
 80018b8:	681a      	ldr	r2, [r3, #0]
 80018ba:	687b      	ldr	r3, [r7, #4]
 80018bc:	681b      	ldr	r3, [r3, #0]
 80018be:	f022 0201 	bic.w	r2, r2, #1
 80018c2:	601a      	str	r2, [r3, #0]
    
    /* Check if the DMA Stream is effectively disabled */
    while((hdma->Instance->CR & DMA_SxCR_EN) != RESET)
 80018c4:	e013      	b.n	80018ee <HAL_DMA_Abort+0xac>
    {
      /* Check for the Timeout */
      if((HAL_GetTick() - tickstart ) > HAL_TIMEOUT_DMA_ABORT)
 80018c6:	f7ff fe7b 	bl	80015c0 <HAL_GetTick>
 80018ca:	4602      	mov	r2, r0
 80018cc:	68bb      	ldr	r3, [r7, #8]
 80018ce:	1ad3      	subs	r3, r2, r3
 80018d0:	2b05      	cmp	r3, #5
 80018d2:	d90c      	bls.n	80018ee <HAL_DMA_Abort+0xac>
      {
        /* Update error code */
        hdma->ErrorCode = HAL_DMA_ERROR_TIMEOUT;
 80018d4:	687b      	ldr	r3, [r7, #4]
 80018d6:	2220      	movs	r2, #32
 80018d8:	655a      	str	r2, [r3, #84]	; 0x54
        
        /* Change the DMA state */
        hdma->State = HAL_DMA_STATE_TIMEOUT;
 80018da:	687b      	ldr	r3, [r7, #4]
 80018dc:	2203      	movs	r2, #3
 80018de:	f883 2035 	strb.w	r2, [r3, #53]	; 0x35
        
        /* Process Unlocked */
        __HAL_UNLOCK(hdma);
 80018e2:	687b      	ldr	r3, [r7, #4]
 80018e4:	2200      	movs	r2, #0
 80018e6:	f883 2034 	strb.w	r2, [r3, #52]	; 0x34
        
        return HAL_TIMEOUT;
 80018ea:	2303      	movs	r3, #3
 80018ec:	e015      	b.n	800191a <HAL_DMA_Abort+0xd8>
    while((hdma->Instance->CR & DMA_SxCR_EN) != RESET)
 80018ee:	687b      	ldr	r3, [r7, #4]
 80018f0:	681b      	ldr	r3, [r3, #0]
 80018f2:	681b      	ldr	r3, [r3, #0]
 80018f4:	f003 0301 	and.w	r3, r3, #1
 80018f8:	2b00      	cmp	r3, #0
 80018fa:	d1e4      	bne.n	80018c6 <HAL_DMA_Abort+0x84>
      }
    }
    
    /* Clear all interrupt flags at correct offset within the register */
    regs->IFCR = 0x3FU << hdma->StreamIndex;
 80018fc:	687b      	ldr	r3, [r7, #4]
 80018fe:	6ddb      	ldr	r3, [r3, #92]	; 0x5c
 8001900:	223f      	movs	r2, #63	; 0x3f
 8001902:	409a      	lsls	r2, r3
 8001904:	68fb      	ldr	r3, [r7, #12]
 8001906:	609a      	str	r2, [r3, #8]
    
    /* Change the DMA state*/
    hdma->State = HAL_DMA_STATE_READY;
 8001908:	687b      	ldr	r3, [r7, #4]
 800190a:	2201      	movs	r2, #1
 800190c:	f883 2035 	strb.w	r2, [r3, #53]	; 0x35
    
    /* Process Unlocked */
    __HAL_UNLOCK(hdma);
 8001910:	687b      	ldr	r3, [r7, #4]
 8001912:	2200      	movs	r2, #0
 8001914:	f883 2034 	strb.w	r2, [r3, #52]	; 0x34
  }
  return HAL_OK;
 8001918:	2300      	movs	r3, #0
}
 800191a:	4618      	mov	r0, r3
 800191c:	3710      	adds	r7, #16
 800191e:	46bd      	mov	sp, r7
 8001920:	bd80      	pop	{r7, pc}

08001922 <HAL_DMA_Abort_IT>:
  * @param  hdma   pointer to a DMA_HandleTypeDef structure that contains
  *                 the configuration information for the specified DMA Stream.
  * @retval HAL status
  */
HAL_StatusTypeDef HAL_DMA_Abort_IT(DMA_HandleTypeDef *hdma)
{
 8001922:	b480      	push	{r7}
 8001924:	b083      	sub	sp, #12
 8001926:	af00      	add	r7, sp, #0
 8001928:	6078      	str	r0, [r7, #4]
  if(hdma->State != HAL_DMA_STATE_BUSY)
 800192a:	687b      	ldr	r3, [r7, #4]
 800192c:	f893 3035 	ldrb.w	r3, [r3, #53]	; 0x35
 8001930:	b2db      	uxtb	r3, r3
 8001932:	2b02      	cmp	r3, #2
 8001934:	d004      	beq.n	8001940 <HAL_DMA_Abort_IT+0x1e>
  {
    hdma->ErrorCode = HAL_DMA_ERROR_NO_XFER;
 8001936:	687b      	ldr	r3, [r7, #4]
 8001938:	2280      	movs	r2, #128	; 0x80
 800193a:	655a      	str	r2, [r3, #84]	; 0x54
    return HAL_ERROR;
 800193c:	2301      	movs	r3, #1
 800193e:	e00c      	b.n	800195a <HAL_DMA_Abort_IT+0x38>
  }
  else
  {
    /* Set Abort State  */
    hdma->State = HAL_DMA_STATE_ABORT;
 8001940:	687b      	ldr	r3, [r7, #4]
 8001942:	2205      	movs	r2, #5
 8001944:	f883 2035 	strb.w	r2, [r3, #53]	; 0x35
    
    /* Disable the stream */
    __HAL_DMA_DISABLE(hdma);
 8001948:	687b      	ldr	r3, [r7, #4]
 800194a:	681b      	ldr	r3, [r3, #0]
 800194c:	681a      	ldr	r2, [r3, #0]
 800194e:	687b      	ldr	r3, [r7, #4]
 8001950:	681b      	ldr	r3, [r3, #0]
 8001952:	f022 0201 	bic.w	r2, r2, #1
 8001956:	601a      	str	r2, [r3, #0]
  }

  return HAL_OK;
 8001958:	2300      	movs	r3, #0
}
 800195a:	4618      	mov	r0, r3
 800195c:	370c      	adds	r7, #12
 800195e:	46bd      	mov	sp, r7
 8001960:	f85d 7b04 	ldr.w	r7, [sp], #4
 8001964:	4770      	bx	lr
	...

08001968 <HAL_GPIO_Init>:
  * @param  GPIO_Init pointer to a GPIO_InitTypeDef structure that contains
  *         the configuration information for the specified GPIO peripheral.
  * @retval None
  */
void HAL_GPIO_Init(GPIO_TypeDef  *GPIOx, GPIO_InitTypeDef *GPIO_Init)
{
 8001968:	b480      	push	{r7}
 800196a:	b089      	sub	sp, #36	; 0x24
 800196c:	af00      	add	r7, sp, #0
 800196e:	6078      	str	r0, [r7, #4]
 8001970:	6039      	str	r1, [r7, #0]
  uint32_t position;
  uint32_t ioposition = 0x00U;
 8001972:	2300      	movs	r3, #0
 8001974:	617b      	str	r3, [r7, #20]
  uint32_t iocurrent = 0x00U;
 8001976:	2300      	movs	r3, #0
 8001978:	613b      	str	r3, [r7, #16]
  uint32_t temp = 0x00U;
 800197a:	2300      	movs	r3, #0
 800197c:	61bb      	str	r3, [r7, #24]
  assert_param(IS_GPIO_ALL_INSTANCE(GPIOx));
  assert_param(IS_GPIO_PIN(GPIO_Init->Pin));
  assert_param(IS_GPIO_MODE(GPIO_Init->Mode));

  /* Configure the port pins */
  for(position = 0U; position < GPIO_NUMBER; position++)
 800197e:	2300      	movs	r3, #0
 8001980:	61fb      	str	r3, [r7, #28]
 8001982:	e159      	b.n	8001c38 <HAL_GPIO_Init+0x2d0>
  {
    /* Get the IO position */
    ioposition = 0x01U << position;
 8001984:	2201      	movs	r2, #1
 8001986:	69fb      	ldr	r3, [r7, #28]
 8001988:	fa02 f303 	lsl.w	r3, r2, r3
 800198c:	617b      	str	r3, [r7, #20]
    /* Get the current IO position */
    iocurrent = (uint32_t)(GPIO_Init->Pin) & ioposition;
 800198e:	683b      	ldr	r3, [r7, #0]
 8001990:	681b      	ldr	r3, [r3, #0]
 8001992:	697a      	ldr	r2, [r7, #20]
 8001994:	4013      	ands	r3, r2
 8001996:	613b      	str	r3, [r7, #16]

    if(iocurrent == ioposition)
 8001998:	693a      	ldr	r2, [r7, #16]
 800199a:	697b      	ldr	r3, [r7, #20]
 800199c:	429a      	cmp	r2, r3
 800199e:	f040 8148 	bne.w	8001c32 <HAL_GPIO_Init+0x2ca>
    {
      /*--------------------- GPIO Mode Configuration ------------------------*/
      /* In case of Output or Alternate function mode selection */
      if(((GPIO_Init->Mode & GPIO_MODE) == MODE_OUTPUT) || \
 80019a2:	683b      	ldr	r3, [r7, #0]
 80019a4:	685b      	ldr	r3, [r3, #4]
 80019a6:	f003 0303 	and.w	r3, r3, #3
 80019aa:	2b01      	cmp	r3, #1
 80019ac:	d005      	beq.n	80019ba <HAL_GPIO_Init+0x52>
          (GPIO_Init->Mode & GPIO_MODE) == MODE_AF)
 80019ae:	683b      	ldr	r3, [r7, #0]
 80019b0:	685b      	ldr	r3, [r3, #4]
 80019b2:	f003 0303 	and.w	r3, r3, #3
      if(((GPIO_Init->Mode & GPIO_MODE) == MODE_OUTPUT) || \
 80019b6:	2b02      	cmp	r3, #2
 80019b8:	d130      	bne.n	8001a1c <HAL_GPIO_Init+0xb4>
      {
        /* Check the Speed parameter */
        assert_param(IS_GPIO_SPEED(GPIO_Init->Speed));
        /* Configure the IO Speed */
        temp = GPIOx->OSPEEDR; 
 80019ba:	687b      	ldr	r3, [r7, #4]
 80019bc:	689b      	ldr	r3, [r3, #8]
 80019be:	61bb      	str	r3, [r7, #24]
        temp &= ~(GPIO_OSPEEDER_OSPEEDR0 << (position * 2U));
 80019c0:	69fb      	ldr	r3, [r7, #28]
 80019c2:	005b      	lsls	r3, r3, #1
 80019c4:	2203      	movs	r2, #3
 80019c6:	fa02 f303 	lsl.w	r3, r2, r3
 80019ca:	43db      	mvns	r3, r3
 80019cc:	69ba      	ldr	r2, [r7, #24]
 80019ce:	4013      	ands	r3, r2
 80019d0:	61bb      	str	r3, [r7, #24]
        temp |= (GPIO_Init->Speed << (position * 2U));
 80019d2:	683b      	ldr	r3, [r7, #0]
 80019d4:	68da      	ldr	r2, [r3, #12]
 80019d6:	69fb      	ldr	r3, [r7, #28]
 80019d8:	005b      	lsls	r3, r3, #1
 80019da:	fa02 f303 	lsl.w	r3, r2, r3
 80019de:	69ba      	ldr	r2, [r7, #24]
 80019e0:	4313      	orrs	r3, r2
 80019e2:	61bb      	str	r3, [r7, #24]
        GPIOx->OSPEEDR = temp;
 80019e4:	687b      	ldr	r3, [r7, #4]
 80019e6:	69ba      	ldr	r2, [r7, #24]
 80019e8:	609a      	str	r2, [r3, #8]

        /* Configure the IO Output Type */
        temp = GPIOx->OTYPER;
 80019ea:	687b      	ldr	r3, [r7, #4]
 80019ec:	685b      	ldr	r3, [r3, #4]
 80019ee:	61bb      	str	r3, [r7, #24]
        temp &= ~(GPIO_OTYPER_OT_0 << position) ;
 80019f0:	2201      	movs	r2, #1
 80019f2:	69fb      	ldr	r3, [r7, #28]
 80019f4:	fa02 f303 	lsl.w	r3, r2, r3
 80019f8:	43db      	mvns	r3, r3
 80019fa:	69ba      	ldr	r2, [r7, #24]
 80019fc:	4013      	ands	r3, r2
 80019fe:	61bb      	str	r3, [r7, #24]
        temp |= (((GPIO_Init->Mode & OUTPUT_TYPE) >> OUTPUT_TYPE_Pos) << position);
 8001a00:	683b      	ldr	r3, [r7, #0]
 8001a02:	685b      	ldr	r3, [r3, #4]
 8001a04:	091b      	lsrs	r3, r3, #4
 8001a06:	f003 0201 	and.w	r2, r3, #1
 8001a0a:	69fb      	ldr	r3, [r7, #28]
 8001a0c:	fa02 f303 	lsl.w	r3, r2, r3
 8001a10:	69ba      	ldr	r2, [r7, #24]
 8001a12:	4313      	orrs	r3, r2
 8001a14:	61bb      	str	r3, [r7, #24]
        GPIOx->OTYPER = temp;
 8001a16:	687b      	ldr	r3, [r7, #4]
 8001a18:	69ba      	ldr	r2, [r7, #24]
 8001a1a:	605a      	str	r2, [r3, #4]
       }

      if((GPIO_Init->Mode & GPIO_MODE) != MODE_ANALOG)
 8001a1c:	683b      	ldr	r3, [r7, #0]
 8001a1e:	685b      	ldr	r3, [r3, #4]
 8001a20:	f003 0303 	and.w	r3, r3, #3
 8001a24:	2b03      	cmp	r3, #3
 8001a26:	d017      	beq.n	8001a58 <HAL_GPIO_Init+0xf0>
      {
        /* Check the parameters */
        assert_param(IS_GPIO_PULL(GPIO_Init->Pull));
        
        /* Activate the Pull-up or Pull down resistor for the current IO */
        temp = GPIOx->PUPDR;
 8001a28:	687b      	ldr	r3, [r7, #4]
 8001a2a:	68db      	ldr	r3, [r3, #12]
 8001a2c:	61bb      	str	r3, [r7, #24]
        temp &= ~(GPIO_PUPDR_PUPDR0 << (position * 2U));
 8001a2e:	69fb      	ldr	r3, [r7, #28]
 8001a30:	005b      	lsls	r3, r3, #1
 8001a32:	2203      	movs	r2, #3
 8001a34:	fa02 f303 	lsl.w	r3, r2, r3
 8001a38:	43db      	mvns	r3, r3
 8001a3a:	69ba      	ldr	r2, [r7, #24]
 8001a3c:	4013      	ands	r3, r2
 8001a3e:	61bb      	str	r3, [r7, #24]
        temp |= ((GPIO_Init->Pull) << (position * 2U));
 8001a40:	683b      	ldr	r3, [r7, #0]
 8001a42:	689a      	ldr	r2, [r3, #8]
 8001a44:	69fb      	ldr	r3, [r7, #28]
 8001a46:	005b      	lsls	r3, r3, #1
 8001a48:	fa02 f303 	lsl.w	r3, r2, r3
 8001a4c:	69ba      	ldr	r2, [r7, #24]
 8001a4e:	4313      	orrs	r3, r2
 8001a50:	61bb      	str	r3, [r7, #24]
        GPIOx->PUPDR = temp;
 8001a52:	687b      	ldr	r3, [r7, #4]
 8001a54:	69ba      	ldr	r2, [r7, #24]
 8001a56:	60da      	str	r2, [r3, #12]
      }

      /* In case of Alternate function mode selection */
      if((GPIO_Init->Mode & GPIO_MODE) == MODE_AF)
 8001a58:	683b      	ldr	r3, [r7, #0]
 8001a5a:	685b      	ldr	r3, [r3, #4]
 8001a5c:	f003 0303 	and.w	r3, r3, #3
 8001a60:	2b02      	cmp	r3, #2
 8001a62:	d123      	bne.n	8001aac <HAL_GPIO_Init+0x144>
      {
        /* Check the Alternate function parameter */
        assert_param(IS_GPIO_AF(GPIO_Init->Alternate));
        /* Configure Alternate function mapped with the current IO */
        temp = GPIOx->AFR[position >> 3U];
 8001a64:	69fb      	ldr	r3, [r7, #28]
 8001a66:	08da      	lsrs	r2, r3, #3
 8001a68:	687b      	ldr	r3, [r7, #4]
 8001a6a:	3208      	adds	r2, #8
 8001a6c:	f853 3022 	ldr.w	r3, [r3, r2, lsl #2]
 8001a70:	61bb      	str	r3, [r7, #24]
        temp &= ~(0xFU << ((uint32_t)(position & 0x07U) * 4U)) ;
 8001a72:	69fb      	ldr	r3, [r7, #28]
 8001a74:	f003 0307 	and.w	r3, r3, #7
 8001a78:	009b      	lsls	r3, r3, #2
 8001a7a:	220f      	movs	r2, #15
 8001a7c:	fa02 f303 	lsl.w	r3, r2, r3
 8001a80:	43db      	mvns	r3, r3
 8001a82:	69ba      	ldr	r2, [r7, #24]
 8001a84:	4013      	ands	r3, r2
 8001a86:	61bb      	str	r3, [r7, #24]
        temp |= ((uint32_t)(GPIO_Init->Alternate) << (((uint32_t)position & 0x07U) * 4U));
 8001a88:	683b      	ldr	r3, [r7, #0]
 8001a8a:	691a      	ldr	r2, [r3, #16]
 8001a8c:	69fb      	ldr	r3, [r7, #28]
 8001a8e:	f003 0307 	and.w	r3, r3, #7
 8001a92:	009b      	lsls	r3, r3, #2
 8001a94:	fa02 f303 	lsl.w	r3, r2, r3
 8001a98:	69ba      	ldr	r2, [r7, #24]
 8001a9a:	4313      	orrs	r3, r2
 8001a9c:	61bb      	str	r3, [r7, #24]
        GPIOx->AFR[position >> 3U] = temp;
 8001a9e:	69fb      	ldr	r3, [r7, #28]
 8001aa0:	08da      	lsrs	r2, r3, #3
 8001aa2:	687b      	ldr	r3, [r7, #4]
 8001aa4:	3208      	adds	r2, #8
 8001aa6:	69b9      	ldr	r1, [r7, #24]
 8001aa8:	f843 1022 	str.w	r1, [r3, r2, lsl #2]
      }

      /* Configure IO Direction mode (Input, Output, Alternate or Analog) */
      temp = GPIOx->MODER;
 8001aac:	687b      	ldr	r3, [r7, #4]
 8001aae:	681b      	ldr	r3, [r3, #0]
 8001ab0:	61bb      	str	r3, [r7, #24]
      temp &= ~(GPIO_MODER_MODER0 << (position * 2U));
 8001ab2:	69fb      	ldr	r3, [r7, #28]
 8001ab4:	005b      	lsls	r3, r3, #1
 8001ab6:	2203      	movs	r2, #3
 8001ab8:	fa02 f303 	lsl.w	r3, r2, r3
 8001abc:	43db      	mvns	r3, r3
 8001abe:	69ba      	ldr	r2, [r7, #24]
 8001ac0:	4013      	ands	r3, r2
 8001ac2:	61bb      	str	r3, [r7, #24]
      temp |= ((GPIO_Init->Mode & GPIO_MODE) << (position * 2U));
 8001ac4:	683b      	ldr	r3, [r7, #0]
 8001ac6:	685b      	ldr	r3, [r3, #4]
 8001ac8:	f003 0203 	and.w	r2, r3, #3
 8001acc:	69fb      	ldr	r3, [r7, #28]
 8001ace:	005b      	lsls	r3, r3, #1
 8001ad0:	fa02 f303 	lsl.w	r3, r2, r3
 8001ad4:	69ba      	ldr	r2, [r7, #24]
 8001ad6:	4313      	orrs	r3, r2
 8001ad8:	61bb      	str	r3, [r7, #24]
      GPIOx->MODER = temp;
 8001ada:	687b      	ldr	r3, [r7, #4]
 8001adc:	69ba      	ldr	r2, [r7, #24]
 8001ade:	601a      	str	r2, [r3, #0]

      /*--------------------- EXTI Mode Configuration ------------------------*/
      /* Configure the External Interrupt or event for the current IO */
      if((GPIO_Init->Mode & EXTI_MODE) != 0x00U)
 8001ae0:	683b      	ldr	r3, [r7, #0]
 8001ae2:	685b      	ldr	r3, [r3, #4]
 8001ae4:	f403 3340 	and.w	r3, r3, #196608	; 0x30000
 8001ae8:	2b00      	cmp	r3, #0
 8001aea:	f000 80a2 	beq.w	8001c32 <HAL_GPIO_Init+0x2ca>
      {
        /* Enable SYSCFG Clock */
        __HAL_RCC_SYSCFG_CLK_ENABLE();
 8001aee:	2300      	movs	r3, #0
 8001af0:	60fb      	str	r3, [r7, #12]
 8001af2:	4b57      	ldr	r3, [pc, #348]	; (8001c50 <HAL_GPIO_Init+0x2e8>)
 8001af4:	6c5b      	ldr	r3, [r3, #68]	; 0x44
 8001af6:	4a56      	ldr	r2, [pc, #344]	; (8001c50 <HAL_GPIO_Init+0x2e8>)
 8001af8:	f443 4380 	orr.w	r3, r3, #16384	; 0x4000
 8001afc:	6453      	str	r3, [r2, #68]	; 0x44
 8001afe:	4b54      	ldr	r3, [pc, #336]	; (8001c50 <HAL_GPIO_Init+0x2e8>)
 8001b00:	6c5b      	ldr	r3, [r3, #68]	; 0x44
 8001b02:	f403 4380 	and.w	r3, r3, #16384	; 0x4000
 8001b06:	60fb      	str	r3, [r7, #12]
 8001b08:	68fb      	ldr	r3, [r7, #12]

        temp = SYSCFG->EXTICR[position >> 2U];
 8001b0a:	4a52      	ldr	r2, [pc, #328]	; (8001c54 <HAL_GPIO_Init+0x2ec>)
 8001b0c:	69fb      	ldr	r3, [r7, #28]
 8001b0e:	089b      	lsrs	r3, r3, #2
 8001b10:	3302      	adds	r3, #2
 8001b12:	f852 3023 	ldr.w	r3, [r2, r3, lsl #2]
 8001b16:	61bb      	str	r3, [r7, #24]
        temp &= ~(0x0FU << (4U * (position & 0x03U)));
 8001b18:	69fb      	ldr	r3, [r7, #28]
 8001b1a:	f003 0303 	and.w	r3, r3, #3
 8001b1e:	009b      	lsls	r3, r3, #2
 8001b20:	220f      	movs	r2, #15
 8001b22:	fa02 f303 	lsl.w	r3, r2, r3
 8001b26:	43db      	mvns	r3, r3
 8001b28:	69ba      	ldr	r2, [r7, #24]
 8001b2a:	4013      	ands	r3, r2
 8001b2c:	61bb      	str	r3, [r7, #24]
        temp |= ((uint32_t)(GPIO_GET_INDEX(GPIOx)) << (4U * (position & 0x03U)));
 8001b2e:	687b      	ldr	r3, [r7, #4]
 8001b30:	4a49      	ldr	r2, [pc, #292]	; (8001c58 <HAL_GPIO_Init+0x2f0>)
 8001b32:	4293      	cmp	r3, r2
 8001b34:	d019      	beq.n	8001b6a <HAL_GPIO_Init+0x202>
 8001b36:	687b      	ldr	r3, [r7, #4]
 8001b38:	4a48      	ldr	r2, [pc, #288]	; (8001c5c <HAL_GPIO_Init+0x2f4>)
 8001b3a:	4293      	cmp	r3, r2
 8001b3c:	d013      	beq.n	8001b66 <HAL_GPIO_Init+0x1fe>
 8001b3e:	687b      	ldr	r3, [r7, #4]
 8001b40:	4a47      	ldr	r2, [pc, #284]	; (8001c60 <HAL_GPIO_Init+0x2f8>)
 8001b42:	4293      	cmp	r3, r2
 8001b44:	d00d      	beq.n	8001b62 <HAL_GPIO_Init+0x1fa>
 8001b46:	687b      	ldr	r3, [r7, #4]
 8001b48:	4a46      	ldr	r2, [pc, #280]	; (8001c64 <HAL_GPIO_Init+0x2fc>)
 8001b4a:	4293      	cmp	r3, r2
 8001b4c:	d007      	beq.n	8001b5e <HAL_GPIO_Init+0x1f6>
 8001b4e:	687b      	ldr	r3, [r7, #4]
 8001b50:	4a45      	ldr	r2, [pc, #276]	; (8001c68 <HAL_GPIO_Init+0x300>)
 8001b52:	4293      	cmp	r3, r2
 8001b54:	d101      	bne.n	8001b5a <HAL_GPIO_Init+0x1f2>
 8001b56:	2304      	movs	r3, #4
 8001b58:	e008      	b.n	8001b6c <HAL_GPIO_Init+0x204>
 8001b5a:	2307      	movs	r3, #7
 8001b5c:	e006      	b.n	8001b6c <HAL_GPIO_Init+0x204>
 8001b5e:	2303      	movs	r3, #3
 8001b60:	e004      	b.n	8001b6c <HAL_GPIO_Init+0x204>
 8001b62:	2302      	movs	r3, #2
 8001b64:	e002      	b.n	8001b6c <HAL_GPIO_Init+0x204>
 8001b66:	2301      	movs	r3, #1
 8001b68:	e000      	b.n	8001b6c <HAL_GPIO_Init+0x204>
 8001b6a:	2300      	movs	r3, #0
 8001b6c:	69fa      	ldr	r2, [r7, #28]
 8001b6e:	f002 0203 	and.w	r2, r2, #3
 8001b72:	0092      	lsls	r2, r2, #2
 8001b74:	4093      	lsls	r3, r2
 8001b76:	69ba      	ldr	r2, [r7, #24]
 8001b78:	4313      	orrs	r3, r2
 8001b7a:	61bb      	str	r3, [r7, #24]
        SYSCFG->EXTICR[position >> 2U] = temp;
 8001b7c:	4935      	ldr	r1, [pc, #212]	; (8001c54 <HAL_GPIO_Init+0x2ec>)
 8001b7e:	69fb      	ldr	r3, [r7, #28]
 8001b80:	089b      	lsrs	r3, r3, #2
 8001b82:	3302      	adds	r3, #2
 8001b84:	69ba      	ldr	r2, [r7, #24]
 8001b86:	f841 2023 	str.w	r2, [r1, r3, lsl #2]

        /* Clear Rising Falling edge configuration */
        temp = EXTI->RTSR;
 8001b8a:	4b38      	ldr	r3, [pc, #224]	; (8001c6c <HAL_GPIO_Init+0x304>)
 8001b8c:	689b      	ldr	r3, [r3, #8]
 8001b8e:	61bb      	str	r3, [r7, #24]
        temp &= ~((uint32_t)iocurrent);
 8001b90:	693b      	ldr	r3, [r7, #16]
 8001b92:	43db      	mvns	r3, r3
 8001b94:	69ba      	ldr	r2, [r7, #24]
 8001b96:	4013      	ands	r3, r2
 8001b98:	61bb      	str	r3, [r7, #24]
        if((GPIO_Init->Mode & TRIGGER_RISING) != 0x00U)
 8001b9a:	683b      	ldr	r3, [r7, #0]
 8001b9c:	685b      	ldr	r3, [r3, #4]
 8001b9e:	f403 1380 	and.w	r3, r3, #1048576	; 0x100000
 8001ba2:	2b00      	cmp	r3, #0
 8001ba4:	d003      	beq.n	8001bae <HAL_GPIO_Init+0x246>
        {
          temp |= iocurrent;
 8001ba6:	69ba      	ldr	r2, [r7, #24]
 8001ba8:	693b      	ldr	r3, [r7, #16]
 8001baa:	4313      	orrs	r3, r2
 8001bac:	61bb      	str	r3, [r7, #24]
        }
        EXTI->RTSR = temp;
 8001bae:	4a2f      	ldr	r2, [pc, #188]	; (8001c6c <HAL_GPIO_Init+0x304>)
 8001bb0:	69bb      	ldr	r3, [r7, #24]
 8001bb2:	6093      	str	r3, [r2, #8]

        temp = EXTI->FTSR;
 8001bb4:	4b2d      	ldr	r3, [pc, #180]	; (8001c6c <HAL_GPIO_Init+0x304>)
 8001bb6:	68db      	ldr	r3, [r3, #12]
 8001bb8:	61bb      	str	r3, [r7, #24]
        temp &= ~((uint32_t)iocurrent);
 8001bba:	693b      	ldr	r3, [r7, #16]
 8001bbc:	43db      	mvns	r3, r3
 8001bbe:	69ba      	ldr	r2, [r7, #24]
 8001bc0:	4013      	ands	r3, r2
 8001bc2:	61bb      	str	r3, [r7, #24]
        if((GPIO_Init->Mode & TRIGGER_FALLING) != 0x00U)
 8001bc4:	683b      	ldr	r3, [r7, #0]
 8001bc6:	685b      	ldr	r3, [r3, #4]
 8001bc8:	f403 1300 	and.w	r3, r3, #2097152	; 0x200000
 8001bcc:	2b00      	cmp	r3, #0
 8001bce:	d003      	beq.n	8001bd8 <HAL_GPIO_Init+0x270>
        {
          temp |= iocurrent;
 8001bd0:	69ba      	ldr	r2, [r7, #24]
 8001bd2:	693b      	ldr	r3, [r7, #16]
 8001bd4:	4313      	orrs	r3, r2
 8001bd6:	61bb      	str	r3, [r7, #24]
        }
        EXTI->FTSR = temp;
 8001bd8:	4a24      	ldr	r2, [pc, #144]	; (8001c6c <HAL_GPIO_Init+0x304>)
 8001bda:	69bb      	ldr	r3, [r7, #24]
 8001bdc:	60d3      	str	r3, [r2, #12]

        temp = EXTI->EMR;
 8001bde:	4b23      	ldr	r3, [pc, #140]	; (8001c6c <HAL_GPIO_Init+0x304>)
 8001be0:	685b      	ldr	r3, [r3, #4]
 8001be2:	61bb      	str	r3, [r7, #24]
        temp &= ~((uint32_t)iocurrent);
 8001be4:	693b      	ldr	r3, [r7, #16]
 8001be6:	43db      	mvns	r3, r3
 8001be8:	69ba      	ldr	r2, [r7, #24]
 8001bea:	4013      	ands	r3, r2
 8001bec:	61bb      	str	r3, [r7, #24]
        if((GPIO_Init->Mode & EXTI_EVT) != 0x00U)
 8001bee:	683b      	ldr	r3, [r7, #0]
 8001bf0:	685b      	ldr	r3, [r3, #4]
 8001bf2:	f403 3300 	and.w	r3, r3, #131072	; 0x20000
 8001bf6:	2b00      	cmp	r3, #0
 8001bf8:	d003      	beq.n	8001c02 <HAL_GPIO_Init+0x29a>
        {
          temp |= iocurrent;
 8001bfa:	69ba      	ldr	r2, [r7, #24]
 8001bfc:	693b      	ldr	r3, [r7, #16]
 8001bfe:	4313      	orrs	r3, r2
 8001c00:	61bb      	str	r3, [r7, #24]
        }
        EXTI->EMR = temp;
 8001c02:	4a1a      	ldr	r2, [pc, #104]	; (8001c6c <HAL_GPIO_Init+0x304>)
 8001c04:	69bb      	ldr	r3, [r7, #24]
 8001c06:	6053      	str	r3, [r2, #4]

        /* Clear EXTI line configuration */
        temp = EXTI->IMR;
 8001c08:	4b18      	ldr	r3, [pc, #96]	; (8001c6c <HAL_GPIO_Init+0x304>)
 8001c0a:	681b      	ldr	r3, [r3, #0]
 8001c0c:	61bb      	str	r3, [r7, #24]
        temp &= ~((uint32_t)iocurrent);
 8001c0e:	693b      	ldr	r3, [r7, #16]
 8001c10:	43db      	mvns	r3, r3
 8001c12:	69ba      	ldr	r2, [r7, #24]
 8001c14:	4013      	ands	r3, r2
 8001c16:	61bb      	str	r3, [r7, #24]
        if((GPIO_Init->Mode & EXTI_IT) != 0x00U)
 8001c18:	683b      	ldr	r3, [r7, #0]
 8001c1a:	685b      	ldr	r3, [r3, #4]
 8001c1c:	f403 3380 	and.w	r3, r3, #65536	; 0x10000
 8001c20:	2b00      	cmp	r3, #0
 8001c22:	d003      	beq.n	8001c2c <HAL_GPIO_Init+0x2c4>
        {
          temp |= iocurrent;
 8001c24:	69ba      	ldr	r2, [r7, #24]
 8001c26:	693b      	ldr	r3, [r7, #16]
 8001c28:	4313      	orrs	r3, r2
 8001c2a:	61bb      	str	r3, [r7, #24]
        }
        EXTI->IMR = temp;
 8001c2c:	4a0f      	ldr	r2, [pc, #60]	; (8001c6c <HAL_GPIO_Init+0x304>)
 8001c2e:	69bb      	ldr	r3, [r7, #24]
 8001c30:	6013      	str	r3, [r2, #0]
  for(position = 0U; position < GPIO_NUMBER; position++)
 8001c32:	69fb      	ldr	r3, [r7, #28]
 8001c34:	3301      	adds	r3, #1
 8001c36:	61fb      	str	r3, [r7, #28]
 8001c38:	69fb      	ldr	r3, [r7, #28]
 8001c3a:	2b0f      	cmp	r3, #15
 8001c3c:	f67f aea2 	bls.w	8001984 <HAL_GPIO_Init+0x1c>
      }
    }
  }
}
 8001c40:	bf00      	nop
 8001c42:	bf00      	nop
 8001c44:	3724      	adds	r7, #36	; 0x24
 8001c46:	46bd      	mov	sp, r7
 8001c48:	f85d 7b04 	ldr.w	r7, [sp], #4
 8001c4c:	4770      	bx	lr
 8001c4e:	bf00      	nop
 8001c50:	40023800 	.word	0x40023800
 8001c54:	40013800 	.word	0x40013800
 8001c58:	40020000 	.word	0x40020000
 8001c5c:	40020400 	.word	0x40020400
 8001c60:	40020800 	.word	0x40020800
 8001c64:	40020c00 	.word	0x40020c00
 8001c68:	40021000 	.word	0x40021000
 8001c6c:	40013c00 	.word	0x40013c00

08001c70 <HAL_GPIO_WritePin>:
  *            @arg GPIO_PIN_RESET: to clear the port pin
  *            @arg GPIO_PIN_SET: to set the port pin
  * @retval None
  */
void HAL_GPIO_WritePin(GPIO_TypeDef* GPIOx, uint16_t GPIO_Pin, GPIO_PinState PinState)
{
 8001c70:	b480      	push	{r7}
 8001c72:	b083      	sub	sp, #12
 8001c74:	af00      	add	r7, sp, #0
 8001c76:	6078      	str	r0, [r7, #4]
 8001c78:	460b      	mov	r3, r1
 8001c7a:	807b      	strh	r3, [r7, #2]
 8001c7c:	4613      	mov	r3, r2
 8001c7e:	707b      	strb	r3, [r7, #1]
  /* Check the parameters */
  assert_param(IS_GPIO_PIN(GPIO_Pin));
  assert_param(IS_GPIO_PIN_ACTION(PinState));

  if(PinState != GPIO_PIN_RESET)
 8001c80:	787b      	ldrb	r3, [r7, #1]
 8001c82:	2b00      	cmp	r3, #0
 8001c84:	d003      	beq.n	8001c8e <HAL_GPIO_WritePin+0x1e>
  {
    GPIOx->BSRR = GPIO_Pin;
 8001c86:	887a      	ldrh	r2, [r7, #2]
 8001c88:	687b      	ldr	r3, [r7, #4]
 8001c8a:	619a      	str	r2, [r3, #24]
  }
  else
  {
    GPIOx->BSRR = (uint32_t)GPIO_Pin << 16U;
  }
}
 8001c8c:	e003      	b.n	8001c96 <HAL_GPIO_WritePin+0x26>
    GPIOx->BSRR = (uint32_t)GPIO_Pin << 16U;
 8001c8e:	887b      	ldrh	r3, [r7, #2]
 8001c90:	041a      	lsls	r2, r3, #16
 8001c92:	687b      	ldr	r3, [r7, #4]
 8001c94:	619a      	str	r2, [r3, #24]
}
 8001c96:	bf00      	nop
 8001c98:	370c      	adds	r7, #12
 8001c9a:	46bd      	mov	sp, r7
 8001c9c:	f85d 7b04 	ldr.w	r7, [sp], #4
 8001ca0:	4770      	bx	lr
	...

08001ca4 <HAL_RCC_OscConfig>:
  *         supported by this API. User should request a transition to HSE Off
  *         first and then HSE On or HSE Bypass.
  * @retval HAL status
  */
__weak HAL_StatusTypeDef HAL_RCC_OscConfig(RCC_OscInitTypeDef  *RCC_OscInitStruct)
{
 8001ca4:	b580      	push	{r7, lr}
 8001ca6:	b086      	sub	sp, #24
 8001ca8:	af00      	add	r7, sp, #0
 8001caa:	6078      	str	r0, [r7, #4]
  uint32_t tickstart, pll_config;

  /* Check Null pointer */
  if(RCC_OscInitStruct == NULL)
 8001cac:	687b      	ldr	r3, [r7, #4]
 8001cae:	2b00      	cmp	r3, #0
 8001cb0:	d101      	bne.n	8001cb6 <HAL_RCC_OscConfig+0x12>
  {
    return HAL_ERROR;
 8001cb2:	2301      	movs	r3, #1
 8001cb4:	e267      	b.n	8002186 <HAL_RCC_OscConfig+0x4e2>
  }

  /* Check the parameters */
  assert_param(IS_RCC_OSCILLATORTYPE(RCC_OscInitStruct->OscillatorType));
  /*------------------------------- HSE Configuration ------------------------*/
  if(((RCC_OscInitStruct->OscillatorType) & RCC_OSCILLATORTYPE_HSE) == RCC_OSCILLATORTYPE_HSE)
 8001cb6:	687b      	ldr	r3, [r7, #4]
 8001cb8:	681b      	ldr	r3, [r3, #0]
 8001cba:	f003 0301 	and.w	r3, r3, #1
 8001cbe:	2b00      	cmp	r3, #0
 8001cc0:	d075      	beq.n	8001dae <HAL_RCC_OscConfig+0x10a>
  {
    /* Check the parameters */
    assert_param(IS_RCC_HSE(RCC_OscInitStruct->HSEState));
    /* When the HSE is used as system clock or clock source for PLL in these cases HSE will not disabled */
    if((__HAL_RCC_GET_SYSCLK_SOURCE() == RCC_CFGR_SWS_HSE) ||\
 8001cc2:	4b88      	ldr	r3, [pc, #544]	; (8001ee4 <HAL_RCC_OscConfig+0x240>)
 8001cc4:	689b      	ldr	r3, [r3, #8]
 8001cc6:	f003 030c 	and.w	r3, r3, #12
 8001cca:	2b04      	cmp	r3, #4
 8001ccc:	d00c      	beq.n	8001ce8 <HAL_RCC_OscConfig+0x44>
      ((__HAL_RCC_GET_SYSCLK_SOURCE() == RCC_CFGR_SWS_PLL) && ((RCC->PLLCFGR & RCC_PLLCFGR_PLLSRC) == RCC_PLLCFGR_PLLSRC_HSE)))
 8001cce:	4b85      	ldr	r3, [pc, #532]	; (8001ee4 <HAL_RCC_OscConfig+0x240>)
 8001cd0:	689b      	ldr	r3, [r3, #8]
 8001cd2:	f003 030c 	and.w	r3, r3, #12
    if((__HAL_RCC_GET_SYSCLK_SOURCE() == RCC_CFGR_SWS_HSE) ||\
 8001cd6:	2b08      	cmp	r3, #8
 8001cd8:	d112      	bne.n	8001d00 <HAL_RCC_OscConfig+0x5c>
      ((__HAL_RCC_GET_SYSCLK_SOURCE() == RCC_CFGR_SWS_PLL) && ((RCC->PLLCFGR & RCC_PLLCFGR_PLLSRC) == RCC_PLLCFGR_PLLSRC_HSE)))
 8001cda:	4b82      	ldr	r3, [pc, #520]	; (8001ee4 <HAL_RCC_OscConfig+0x240>)
 8001cdc:	685b      	ldr	r3, [r3, #4]
 8001cde:	f403 0380 	and.w	r3, r3, #4194304	; 0x400000
 8001ce2:	f5b3 0f80 	cmp.w	r3, #4194304	; 0x400000
 8001ce6:	d10b      	bne.n	8001d00 <HAL_RCC_OscConfig+0x5c>
    {
      if((__HAL_RCC_GET_FLAG(RCC_FLAG_HSERDY) != RESET) && (RCC_OscInitStruct->HSEState == RCC_HSE_OFF))
 8001ce8:	4b7e      	ldr	r3, [pc, #504]	; (8001ee4 <HAL_RCC_OscConfig+0x240>)
 8001cea:	681b      	ldr	r3, [r3, #0]
 8001cec:	f403 3300 	and.w	r3, r3, #131072	; 0x20000
 8001cf0:	2b00      	cmp	r3, #0
 8001cf2:	d05b      	beq.n	8001dac <HAL_RCC_OscConfig+0x108>
 8001cf4:	687b      	ldr	r3, [r7, #4]
 8001cf6:	685b      	ldr	r3, [r3, #4]
 8001cf8:	2b00      	cmp	r3, #0
 8001cfa:	d157      	bne.n	8001dac <HAL_RCC_OscConfig+0x108>
      {
        return HAL_ERROR;
 8001cfc:	2301      	movs	r3, #1
 8001cfe:	e242      	b.n	8002186 <HAL_RCC_OscConfig+0x4e2>
      }
    }
    else
    {
      /* Set the new HSE configuration ---------------------------------------*/
      __HAL_RCC_HSE_CONFIG(RCC_OscInitStruct->HSEState);
 8001d00:	687b      	ldr	r3, [r7, #4]
 8001d02:	685b      	ldr	r3, [r3, #4]
 8001d04:	f5b3 3f80 	cmp.w	r3, #65536	; 0x10000
 8001d08:	d106      	bne.n	8001d18 <HAL_RCC_OscConfig+0x74>
 8001d0a:	4b76      	ldr	r3, [pc, #472]	; (8001ee4 <HAL_RCC_OscConfig+0x240>)
 8001d0c:	681b      	ldr	r3, [r3, #0]
 8001d0e:	4a75      	ldr	r2, [pc, #468]	; (8001ee4 <HAL_RCC_OscConfig+0x240>)
 8001d10:	f443 3380 	orr.w	r3, r3, #65536	; 0x10000
 8001d14:	6013      	str	r3, [r2, #0]
 8001d16:	e01d      	b.n	8001d54 <HAL_RCC_OscConfig+0xb0>
 8001d18:	687b      	ldr	r3, [r7, #4]
 8001d1a:	685b      	ldr	r3, [r3, #4]
 8001d1c:	f5b3 2fa0 	cmp.w	r3, #327680	; 0x50000
 8001d20:	d10c      	bne.n	8001d3c <HAL_RCC_OscConfig+0x98>
 8001d22:	4b70      	ldr	r3, [pc, #448]	; (8001ee4 <HAL_RCC_OscConfig+0x240>)
 8001d24:	681b      	ldr	r3, [r3, #0]
 8001d26:	4a6f      	ldr	r2, [pc, #444]	; (8001ee4 <HAL_RCC_OscConfig+0x240>)
 8001d28:	f443 2380 	orr.w	r3, r3, #262144	; 0x40000
 8001d2c:	6013      	str	r3, [r2, #0]
 8001d2e:	4b6d      	ldr	r3, [pc, #436]	; (8001ee4 <HAL_RCC_OscConfig+0x240>)
 8001d30:	681b      	ldr	r3, [r3, #0]
 8001d32:	4a6c      	ldr	r2, [pc, #432]	; (8001ee4 <HAL_RCC_OscConfig+0x240>)
 8001d34:	f443 3380 	orr.w	r3, r3, #65536	; 0x10000
 8001d38:	6013      	str	r3, [r2, #0]
 8001d3a:	e00b      	b.n	8001d54 <HAL_RCC_OscConfig+0xb0>
 8001d3c:	4b69      	ldr	r3, [pc, #420]	; (8001ee4 <HAL_RCC_OscConfig+0x240>)
 8001d3e:	681b      	ldr	r3, [r3, #0]
 8001d40:	4a68      	ldr	r2, [pc, #416]	; (8001ee4 <HAL_RCC_OscConfig+0x240>)
 8001d42:	f423 3380 	bic.w	r3, r3, #65536	; 0x10000
 8001d46:	6013      	str	r3, [r2, #0]
 8001d48:	4b66      	ldr	r3, [pc, #408]	; (8001ee4 <HAL_RCC_OscConfig+0x240>)
 8001d4a:	681b      	ldr	r3, [r3, #0]
 8001d4c:	4a65      	ldr	r2, [pc, #404]	; (8001ee4 <HAL_RCC_OscConfig+0x240>)
 8001d4e:	f423 2380 	bic.w	r3, r3, #262144	; 0x40000
 8001d52:	6013      	str	r3, [r2, #0]

      /* Check the HSE State */
      if((RCC_OscInitStruct->HSEState) != RCC_HSE_OFF)
 8001d54:	687b      	ldr	r3, [r7, #4]
 8001d56:	685b      	ldr	r3, [r3, #4]
 8001d58:	2b00      	cmp	r3, #0
 8001d5a:	d013      	beq.n	8001d84 <HAL_RCC_OscConfig+0xe0>
      {
        /* Get Start Tick */
        tickstart = HAL_GetTick();
 8001d5c:	f7ff fc30 	bl	80015c0 <HAL_GetTick>
 8001d60:	6138      	str	r0, [r7, #16]

        /* Wait till HSE is ready */
        while(__HAL_RCC_GET_FLAG(RCC_FLAG_HSERDY) == RESET)
 8001d62:	e008      	b.n	8001d76 <HAL_RCC_OscConfig+0xd2>
        {
          if((HAL_GetTick() - tickstart ) > HSE_TIMEOUT_VALUE)
 8001d64:	f7ff fc2c 	bl	80015c0 <HAL_GetTick>
 8001d68:	4602      	mov	r2, r0
 8001d6a:	693b      	ldr	r3, [r7, #16]
 8001d6c:	1ad3      	subs	r3, r2, r3
 8001d6e:	2b64      	cmp	r3, #100	; 0x64
 8001d70:	d901      	bls.n	8001d76 <HAL_RCC_OscConfig+0xd2>
          {
            return HAL_TIMEOUT;
 8001d72:	2303      	movs	r3, #3
 8001d74:	e207      	b.n	8002186 <HAL_RCC_OscConfig+0x4e2>
        while(__HAL_RCC_GET_FLAG(RCC_FLAG_HSERDY) == RESET)
 8001d76:	4b5b      	ldr	r3, [pc, #364]	; (8001ee4 <HAL_RCC_OscConfig+0x240>)
 8001d78:	681b      	ldr	r3, [r3, #0]
 8001d7a:	f403 3300 	and.w	r3, r3, #131072	; 0x20000
 8001d7e:	2b00      	cmp	r3, #0
 8001d80:	d0f0      	beq.n	8001d64 <HAL_RCC_OscConfig+0xc0>
 8001d82:	e014      	b.n	8001dae <HAL_RCC_OscConfig+0x10a>
        }
      }
      else
      {
        /* Get Start Tick */
        tickstart = HAL_GetTick();
 8001d84:	f7ff fc1c 	bl	80015c0 <HAL_GetTick>
 8001d88:	6138      	str	r0, [r7, #16]

        /* Wait till HSE is bypassed or disabled */
        while(__HAL_RCC_GET_FLAG(RCC_FLAG_HSERDY) != RESET)
 8001d8a:	e008      	b.n	8001d9e <HAL_RCC_OscConfig+0xfa>
        {
          if((HAL_GetTick() - tickstart ) > HSE_TIMEOUT_VALUE)
 8001d8c:	f7ff fc18 	bl	80015c0 <HAL_GetTick>
 8001d90:	4602      	mov	r2, r0
 8001d92:	693b      	ldr	r3, [r7, #16]
 8001d94:	1ad3      	subs	r3, r2, r3
 8001d96:	2b64      	cmp	r3, #100	; 0x64
 8001d98:	d901      	bls.n	8001d9e <HAL_RCC_OscConfig+0xfa>
          {
            return HAL_TIMEOUT;
 8001d9a:	2303      	movs	r3, #3
 8001d9c:	e1f3      	b.n	8002186 <HAL_RCC_OscConfig+0x4e2>
        while(__HAL_RCC_GET_FLAG(RCC_FLAG_HSERDY) != RESET)
 8001d9e:	4b51      	ldr	r3, [pc, #324]	; (8001ee4 <HAL_RCC_OscConfig+0x240>)
 8001da0:	681b      	ldr	r3, [r3, #0]
 8001da2:	f403 3300 	and.w	r3, r3, #131072	; 0x20000
 8001da6:	2b00      	cmp	r3, #0
 8001da8:	d1f0      	bne.n	8001d8c <HAL_RCC_OscConfig+0xe8>
 8001daa:	e000      	b.n	8001dae <HAL_RCC_OscConfig+0x10a>
      if((__HAL_RCC_GET_FLAG(RCC_FLAG_HSERDY) != RESET) && (RCC_OscInitStruct->HSEState == RCC_HSE_OFF))
 8001dac:	bf00      	nop
        }
      }
    }
  }
  /*----------------------------- HSI Configuration --------------------------*/
  if(((RCC_OscInitStruct->OscillatorType) & RCC_OSCILLATORTYPE_HSI) == RCC_OSCILLATORTYPE_HSI)
 8001dae:	687b      	ldr	r3, [r7, #4]
 8001db0:	681b      	ldr	r3, [r3, #0]
 8001db2:	f003 0302 	and.w	r3, r3, #2
 8001db6:	2b00      	cmp	r3, #0
 8001db8:	d063      	beq.n	8001e82 <HAL_RCC_OscConfig+0x1de>
    /* Check the parameters */
    assert_param(IS_RCC_HSI(RCC_OscInitStruct->HSIState));
    assert_param(IS_RCC_CALIBRATION_VALUE(RCC_OscInitStruct->HSICalibrationValue));

    /* Check if HSI is used as system clock or as PLL source when PLL is selected as system clock */
    if((__HAL_RCC_GET_SYSCLK_SOURCE() == RCC_CFGR_SWS_HSI) ||\
 8001dba:	4b4a      	ldr	r3, [pc, #296]	; (8001ee4 <HAL_RCC_OscConfig+0x240>)
 8001dbc:	689b      	ldr	r3, [r3, #8]
 8001dbe:	f003 030c 	and.w	r3, r3, #12
 8001dc2:	2b00      	cmp	r3, #0
 8001dc4:	d00b      	beq.n	8001dde <HAL_RCC_OscConfig+0x13a>
      ((__HAL_RCC_GET_SYSCLK_SOURCE() == RCC_CFGR_SWS_PLL) && ((RCC->PLLCFGR & RCC_PLLCFGR_PLLSRC) == RCC_PLLCFGR_PLLSRC_HSI)))
 8001dc6:	4b47      	ldr	r3, [pc, #284]	; (8001ee4 <HAL_RCC_OscConfig+0x240>)
 8001dc8:	689b      	ldr	r3, [r3, #8]
 8001dca:	f003 030c 	and.w	r3, r3, #12
    if((__HAL_RCC_GET_SYSCLK_SOURCE() == RCC_CFGR_SWS_HSI) ||\
 8001dce:	2b08      	cmp	r3, #8
 8001dd0:	d11c      	bne.n	8001e0c <HAL_RCC_OscConfig+0x168>
      ((__HAL_RCC_GET_SYSCLK_SOURCE() == RCC_CFGR_SWS_PLL) && ((RCC->PLLCFGR & RCC_PLLCFGR_PLLSRC) == RCC_PLLCFGR_PLLSRC_HSI)))
 8001dd2:	4b44      	ldr	r3, [pc, #272]	; (8001ee4 <HAL_RCC_OscConfig+0x240>)
 8001dd4:	685b      	ldr	r3, [r3, #4]
 8001dd6:	f403 0380 	and.w	r3, r3, #4194304	; 0x400000
 8001dda:	2b00      	cmp	r3, #0
 8001ddc:	d116      	bne.n	8001e0c <HAL_RCC_OscConfig+0x168>
    {
      /* When HSI is used as system clock it will not disabled */
      if((__HAL_RCC_GET_FLAG(RCC_FLAG_HSIRDY) != RESET) && (RCC_OscInitStruct->HSIState != RCC_HSI_ON))
 8001dde:	4b41      	ldr	r3, [pc, #260]	; (8001ee4 <HAL_RCC_OscConfig+0x240>)
 8001de0:	681b      	ldr	r3, [r3, #0]
 8001de2:	f003 0302 	and.w	r3, r3, #2
 8001de6:	2b00      	cmp	r3, #0
 8001de8:	d005      	beq.n	8001df6 <HAL_RCC_OscConfig+0x152>
 8001dea:	687b      	ldr	r3, [r7, #4]
 8001dec:	68db      	ldr	r3, [r3, #12]
 8001dee:	2b01      	cmp	r3, #1
 8001df0:	d001      	beq.n	8001df6 <HAL_RCC_OscConfig+0x152>
      {
        return HAL_ERROR;
 8001df2:	2301      	movs	r3, #1
 8001df4:	e1c7      	b.n	8002186 <HAL_RCC_OscConfig+0x4e2>
      }
      /* Otherwise, just the calibration is allowed */
      else
      {
        /* Adjusts the Internal High Speed oscillator (HSI) calibration value.*/
        __HAL_RCC_HSI_CALIBRATIONVALUE_ADJUST(RCC_OscInitStruct->HSICalibrationValue);
 8001df6:	4b3b      	ldr	r3, [pc, #236]	; (8001ee4 <HAL_RCC_OscConfig+0x240>)
 8001df8:	681b      	ldr	r3, [r3, #0]
 8001dfa:	f023 02f8 	bic.w	r2, r3, #248	; 0xf8
 8001dfe:	687b      	ldr	r3, [r7, #4]
 8001e00:	691b      	ldr	r3, [r3, #16]
 8001e02:	00db      	lsls	r3, r3, #3
 8001e04:	4937      	ldr	r1, [pc, #220]	; (8001ee4 <HAL_RCC_OscConfig+0x240>)
 8001e06:	4313      	orrs	r3, r2
 8001e08:	600b      	str	r3, [r1, #0]
      if((__HAL_RCC_GET_FLAG(RCC_FLAG_HSIRDY) != RESET) && (RCC_OscInitStruct->HSIState != RCC_HSI_ON))
 8001e0a:	e03a      	b.n	8001e82 <HAL_RCC_OscConfig+0x1de>
      }
    }
    else
    {
      /* Check the HSI State */
      if((RCC_OscInitStruct->HSIState)!= RCC_HSI_OFF)
 8001e0c:	687b      	ldr	r3, [r7, #4]
 8001e0e:	68db      	ldr	r3, [r3, #12]
 8001e10:	2b00      	cmp	r3, #0
 8001e12:	d020      	beq.n	8001e56 <HAL_RCC_OscConfig+0x1b2>
      {
        /* Enable the Internal High Speed oscillator (HSI). */
        __HAL_RCC_HSI_ENABLE();
 8001e14:	4b34      	ldr	r3, [pc, #208]	; (8001ee8 <HAL_RCC_OscConfig+0x244>)
 8001e16:	2201      	movs	r2, #1
 8001e18:	601a      	str	r2, [r3, #0]

        /* Get Start Tick*/
        tickstart = HAL_GetTick();
 8001e1a:	f7ff fbd1 	bl	80015c0 <HAL_GetTick>
 8001e1e:	6138      	str	r0, [r7, #16]

        /* Wait till HSI is ready */
        while(__HAL_RCC_GET_FLAG(RCC_FLAG_HSIRDY) == RESET)
 8001e20:	e008      	b.n	8001e34 <HAL_RCC_OscConfig+0x190>
        {
          if((HAL_GetTick() - tickstart ) > HSI_TIMEOUT_VALUE)
 8001e22:	f7ff fbcd 	bl	80015c0 <HAL_GetTick>
 8001e26:	4602      	mov	r2, r0
 8001e28:	693b      	ldr	r3, [r7, #16]
 8001e2a:	1ad3      	subs	r3, r2, r3
 8001e2c:	2b02      	cmp	r3, #2
 8001e2e:	d901      	bls.n	8001e34 <HAL_RCC_OscConfig+0x190>
          {
            return HAL_TIMEOUT;
 8001e30:	2303      	movs	r3, #3
 8001e32:	e1a8      	b.n	8002186 <HAL_RCC_OscConfig+0x4e2>
        while(__HAL_RCC_GET_FLAG(RCC_FLAG_HSIRDY) == RESET)
 8001e34:	4b2b      	ldr	r3, [pc, #172]	; (8001ee4 <HAL_RCC_OscConfig+0x240>)
 8001e36:	681b      	ldr	r3, [r3, #0]
 8001e38:	f003 0302 	and.w	r3, r3, #2
 8001e3c:	2b00      	cmp	r3, #0
 8001e3e:	d0f0      	beq.n	8001e22 <HAL_RCC_OscConfig+0x17e>
          }
        }

        /* Adjusts the Internal High Speed oscillator (HSI) calibration value. */
        __HAL_RCC_HSI_CALIBRATIONVALUE_ADJUST(RCC_OscInitStruct->HSICalibrationValue);
 8001e40:	4b28      	ldr	r3, [pc, #160]	; (8001ee4 <HAL_RCC_OscConfig+0x240>)
 8001e42:	681b      	ldr	r3, [r3, #0]
 8001e44:	f023 02f8 	bic.w	r2, r3, #248	; 0xf8
 8001e48:	687b      	ldr	r3, [r7, #4]
 8001e4a:	691b      	ldr	r3, [r3, #16]
 8001e4c:	00db      	lsls	r3, r3, #3
 8001e4e:	4925      	ldr	r1, [pc, #148]	; (8001ee4 <HAL_RCC_OscConfig+0x240>)
 8001e50:	4313      	orrs	r3, r2
 8001e52:	600b      	str	r3, [r1, #0]
 8001e54:	e015      	b.n	8001e82 <HAL_RCC_OscConfig+0x1de>
      }
      else
      {
        /* Disable the Internal High Speed oscillator (HSI). */
        __HAL_RCC_HSI_DISABLE();
 8001e56:	4b24      	ldr	r3, [pc, #144]	; (8001ee8 <HAL_RCC_OscConfig+0x244>)
 8001e58:	2200      	movs	r2, #0
 8001e5a:	601a      	str	r2, [r3, #0]

        /* Get Start Tick*/
        tickstart = HAL_GetTick();
 8001e5c:	f7ff fbb0 	bl	80015c0 <HAL_GetTick>
 8001e60:	6138      	str	r0, [r7, #16]

        /* Wait till HSI is ready */
        while(__HAL_RCC_GET_FLAG(RCC_FLAG_HSIRDY) != RESET)
 8001e62:	e008      	b.n	8001e76 <HAL_RCC_OscConfig+0x1d2>
        {
          if((HAL_GetTick() - tickstart ) > HSI_TIMEOUT_VALUE)
 8001e64:	f7ff fbac 	bl	80015c0 <HAL_GetTick>
 8001e68:	4602      	mov	r2, r0
 8001e6a:	693b      	ldr	r3, [r7, #16]
 8001e6c:	1ad3      	subs	r3, r2, r3
 8001e6e:	2b02      	cmp	r3, #2
 8001e70:	d901      	bls.n	8001e76 <HAL_RCC_OscConfig+0x1d2>
          {
            return HAL_TIMEOUT;
 8001e72:	2303      	movs	r3, #3
 8001e74:	e187      	b.n	8002186 <HAL_RCC_OscConfig+0x4e2>
        while(__HAL_RCC_GET_FLAG(RCC_FLAG_HSIRDY) != RESET)
 8001e76:	4b1b      	ldr	r3, [pc, #108]	; (8001ee4 <HAL_RCC_OscConfig+0x240>)
 8001e78:	681b      	ldr	r3, [r3, #0]
 8001e7a:	f003 0302 	and.w	r3, r3, #2
 8001e7e:	2b00      	cmp	r3, #0
 8001e80:	d1f0      	bne.n	8001e64 <HAL_RCC_OscConfig+0x1c0>
        }
      }
    }
  }
  /*------------------------------ LSI Configuration -------------------------*/
  if(((RCC_OscInitStruct->OscillatorType) & RCC_OSCILLATORTYPE_LSI) == RCC_OSCILLATORTYPE_LSI)
 8001e82:	687b      	ldr	r3, [r7, #4]
 8001e84:	681b      	ldr	r3, [r3, #0]
 8001e86:	f003 0308 	and.w	r3, r3, #8
 8001e8a:	2b00      	cmp	r3, #0
 8001e8c:	d036      	beq.n	8001efc <HAL_RCC_OscConfig+0x258>
  {
    /* Check the parameters */
    assert_param(IS_RCC_LSI(RCC_OscInitStruct->LSIState));

    /* Check the LSI State */
    if((RCC_OscInitStruct->LSIState)!= RCC_LSI_OFF)
 8001e8e:	687b      	ldr	r3, [r7, #4]
 8001e90:	695b      	ldr	r3, [r3, #20]
 8001e92:	2b00      	cmp	r3, #0
 8001e94:	d016      	beq.n	8001ec4 <HAL_RCC_OscConfig+0x220>
    {
      /* Enable the Internal Low Speed oscillator (LSI). */
      __HAL_RCC_LSI_ENABLE();
 8001e96:	4b15      	ldr	r3, [pc, #84]	; (8001eec <HAL_RCC_OscConfig+0x248>)
 8001e98:	2201      	movs	r2, #1
 8001e9a:	601a      	str	r2, [r3, #0]

      /* Get Start Tick*/
      tickstart = HAL_GetTick();
 8001e9c:	f7ff fb90 	bl	80015c0 <HAL_GetTick>
 8001ea0:	6138      	str	r0, [r7, #16]

      /* Wait till LSI is ready */
      while(__HAL_RCC_GET_FLAG(RCC_FLAG_LSIRDY) == RESET)
 8001ea2:	e008      	b.n	8001eb6 <HAL_RCC_OscConfig+0x212>
      {
        if((HAL_GetTick() - tickstart ) > LSI_TIMEOUT_VALUE)
 8001ea4:	f7ff fb8c 	bl	80015c0 <HAL_GetTick>
 8001ea8:	4602      	mov	r2, r0
 8001eaa:	693b      	ldr	r3, [r7, #16]
 8001eac:	1ad3      	subs	r3, r2, r3
 8001eae:	2b02      	cmp	r3, #2
 8001eb0:	d901      	bls.n	8001eb6 <HAL_RCC_OscConfig+0x212>
        {
          return HAL_TIMEOUT;
 8001eb2:	2303      	movs	r3, #3
 8001eb4:	e167      	b.n	8002186 <HAL_RCC_OscConfig+0x4e2>
      while(__HAL_RCC_GET_FLAG(RCC_FLAG_LSIRDY) == RESET)
 8001eb6:	4b0b      	ldr	r3, [pc, #44]	; (8001ee4 <HAL_RCC_OscConfig+0x240>)
 8001eb8:	6f5b      	ldr	r3, [r3, #116]	; 0x74
 8001eba:	f003 0302 	and.w	r3, r3, #2
 8001ebe:	2b00      	cmp	r3, #0
 8001ec0:	d0f0      	beq.n	8001ea4 <HAL_RCC_OscConfig+0x200>
 8001ec2:	e01b      	b.n	8001efc <HAL_RCC_OscConfig+0x258>
      }
    }
    else
    {
      /* Disable the Internal Low Speed oscillator (LSI). */
      __HAL_RCC_LSI_DISABLE();
 8001ec4:	4b09      	ldr	r3, [pc, #36]	; (8001eec <HAL_RCC_OscConfig+0x248>)
 8001ec6:	2200      	movs	r2, #0
 8001ec8:	601a      	str	r2, [r3, #0]

      /* Get Start Tick */
      tickstart = HAL_GetTick();
 8001eca:	f7ff fb79 	bl	80015c0 <HAL_GetTick>
 8001ece:	6138      	str	r0, [r7, #16]

      /* Wait till LSI is ready */
      while(__HAL_RCC_GET_FLAG(RCC_FLAG_LSIRDY) != RESET)
 8001ed0:	e00e      	b.n	8001ef0 <HAL_RCC_OscConfig+0x24c>
      {
        if((HAL_GetTick() - tickstart ) > LSI_TIMEOUT_VALUE)
 8001ed2:	f7ff fb75 	bl	80015c0 <HAL_GetTick>
 8001ed6:	4602      	mov	r2, r0
 8001ed8:	693b      	ldr	r3, [r7, #16]
 8001eda:	1ad3      	subs	r3, r2, r3
 8001edc:	2b02      	cmp	r3, #2
 8001ede:	d907      	bls.n	8001ef0 <HAL_RCC_OscConfig+0x24c>
        {
          return HAL_TIMEOUT;
 8001ee0:	2303      	movs	r3, #3
 8001ee2:	e150      	b.n	8002186 <HAL_RCC_OscConfig+0x4e2>
 8001ee4:	40023800 	.word	0x40023800
 8001ee8:	42470000 	.word	0x42470000
 8001eec:	42470e80 	.word	0x42470e80
      while(__HAL_RCC_GET_FLAG(RCC_FLAG_LSIRDY) != RESET)
 8001ef0:	4b88      	ldr	r3, [pc, #544]	; (8002114 <HAL_RCC_OscConfig+0x470>)
 8001ef2:	6f5b      	ldr	r3, [r3, #116]	; 0x74
 8001ef4:	f003 0302 	and.w	r3, r3, #2
 8001ef8:	2b00      	cmp	r3, #0
 8001efa:	d1ea      	bne.n	8001ed2 <HAL_RCC_OscConfig+0x22e>
        }
      }
    }
  }
  /*------------------------------ LSE Configuration -------------------------*/
  if(((RCC_OscInitStruct->OscillatorType) & RCC_OSCILLATORTYPE_LSE) == RCC_OSCILLATORTYPE_LSE)
 8001efc:	687b      	ldr	r3, [r7, #4]
 8001efe:	681b      	ldr	r3, [r3, #0]
 8001f00:	f003 0304 	and.w	r3, r3, #4
 8001f04:	2b00      	cmp	r3, #0
 8001f06:	f000 8097 	beq.w	8002038 <HAL_RCC_OscConfig+0x394>
  {
    FlagStatus       pwrclkchanged = RESET;
 8001f0a:	2300      	movs	r3, #0
 8001f0c:	75fb      	strb	r3, [r7, #23]
    /* Check the parameters */
    assert_param(IS_RCC_LSE(RCC_OscInitStruct->LSEState));

    /* Update LSE configuration in Backup Domain control register    */
    /* Requires to enable write access to Backup Domain of necessary */
    if(__HAL_RCC_PWR_IS_CLK_DISABLED())
 8001f0e:	4b81      	ldr	r3, [pc, #516]	; (8002114 <HAL_RCC_OscConfig+0x470>)
 8001f10:	6c1b      	ldr	r3, [r3, #64]	; 0x40
 8001f12:	f003 5380 	and.w	r3, r3, #268435456	; 0x10000000
 8001f16:	2b00      	cmp	r3, #0
 8001f18:	d10f      	bne.n	8001f3a <HAL_RCC_OscConfig+0x296>
    {
      __HAL_RCC_PWR_CLK_ENABLE();
 8001f1a:	2300      	movs	r3, #0
 8001f1c:	60bb      	str	r3, [r7, #8]
 8001f1e:	4b7d      	ldr	r3, [pc, #500]	; (8002114 <HAL_RCC_OscConfig+0x470>)
 8001f20:	6c1b      	ldr	r3, [r3, #64]	; 0x40
 8001f22:	4a7c      	ldr	r2, [pc, #496]	; (8002114 <HAL_RCC_OscConfig+0x470>)
 8001f24:	f043 5380 	orr.w	r3, r3, #268435456	; 0x10000000
 8001f28:	6413      	str	r3, [r2, #64]	; 0x40
 8001f2a:	4b7a      	ldr	r3, [pc, #488]	; (8002114 <HAL_RCC_OscConfig+0x470>)
 8001f2c:	6c1b      	ldr	r3, [r3, #64]	; 0x40
 8001f2e:	f003 5380 	and.w	r3, r3, #268435456	; 0x10000000
 8001f32:	60bb      	str	r3, [r7, #8]
 8001f34:	68bb      	ldr	r3, [r7, #8]
      pwrclkchanged = SET;
 8001f36:	2301      	movs	r3, #1
 8001f38:	75fb      	strb	r3, [r7, #23]
    }

    if(HAL_IS_BIT_CLR(PWR->CR, PWR_CR_DBP))
 8001f3a:	4b77      	ldr	r3, [pc, #476]	; (8002118 <HAL_RCC_OscConfig+0x474>)
 8001f3c:	681b      	ldr	r3, [r3, #0]
 8001f3e:	f403 7380 	and.w	r3, r3, #256	; 0x100
 8001f42:	2b00      	cmp	r3, #0
 8001f44:	d118      	bne.n	8001f78 <HAL_RCC_OscConfig+0x2d4>
    {
      /* Enable write access to Backup domain */
      SET_BIT(PWR->CR, PWR_CR_DBP);
 8001f46:	4b74      	ldr	r3, [pc, #464]	; (8002118 <HAL_RCC_OscConfig+0x474>)
 8001f48:	681b      	ldr	r3, [r3, #0]
 8001f4a:	4a73      	ldr	r2, [pc, #460]	; (8002118 <HAL_RCC_OscConfig+0x474>)
 8001f4c:	f443 7380 	orr.w	r3, r3, #256	; 0x100
 8001f50:	6013      	str	r3, [r2, #0]

      /* Wait for Backup domain Write protection disable */
      tickstart = HAL_GetTick();
 8001f52:	f7ff fb35 	bl	80015c0 <HAL_GetTick>
 8001f56:	6138      	str	r0, [r7, #16]

      while(HAL_IS_BIT_CLR(PWR->CR, PWR_CR_DBP))
 8001f58:	e008      	b.n	8001f6c <HAL_RCC_OscConfig+0x2c8>
      {
        if((HAL_GetTick() - tickstart) > RCC_DBP_TIMEOUT_VALUE)
 8001f5a:	f7ff fb31 	bl	80015c0 <HAL_GetTick>
 8001f5e:	4602      	mov	r2, r0
 8001f60:	693b      	ldr	r3, [r7, #16]
 8001f62:	1ad3      	subs	r3, r2, r3
 8001f64:	2b02      	cmp	r3, #2
 8001f66:	d901      	bls.n	8001f6c <HAL_RCC_OscConfig+0x2c8>
        {
          return HAL_TIMEOUT;
 8001f68:	2303      	movs	r3, #3
 8001f6a:	e10c      	b.n	8002186 <HAL_RCC_OscConfig+0x4e2>
      while(HAL_IS_BIT_CLR(PWR->CR, PWR_CR_DBP))
 8001f6c:	4b6a      	ldr	r3, [pc, #424]	; (8002118 <HAL_RCC_OscConfig+0x474>)
 8001f6e:	681b      	ldr	r3, [r3, #0]
 8001f70:	f403 7380 	and.w	r3, r3, #256	; 0x100
 8001f74:	2b00      	cmp	r3, #0
 8001f76:	d0f0      	beq.n	8001f5a <HAL_RCC_OscConfig+0x2b6>
        }
      }
    }

    /* Set the new LSE configuration -----------------------------------------*/
    __HAL_RCC_LSE_CONFIG(RCC_OscInitStruct->LSEState);
 8001f78:	687b      	ldr	r3, [r7, #4]
 8001f7a:	689b      	ldr	r3, [r3, #8]
 8001f7c:	2b01      	cmp	r3, #1
 8001f7e:	d106      	bne.n	8001f8e <HAL_RCC_OscConfig+0x2ea>
 8001f80:	4b64      	ldr	r3, [pc, #400]	; (8002114 <HAL_RCC_OscConfig+0x470>)
 8001f82:	6f1b      	ldr	r3, [r3, #112]	; 0x70
 8001f84:	4a63      	ldr	r2, [pc, #396]	; (8002114 <HAL_RCC_OscConfig+0x470>)
 8001f86:	f043 0301 	orr.w	r3, r3, #1
 8001f8a:	6713      	str	r3, [r2, #112]	; 0x70
 8001f8c:	e01c      	b.n	8001fc8 <HAL_RCC_OscConfig+0x324>
 8001f8e:	687b      	ldr	r3, [r7, #4]
 8001f90:	689b      	ldr	r3, [r3, #8]
 8001f92:	2b05      	cmp	r3, #5
 8001f94:	d10c      	bne.n	8001fb0 <HAL_RCC_OscConfig+0x30c>
 8001f96:	4b5f      	ldr	r3, [pc, #380]	; (8002114 <HAL_RCC_OscConfig+0x470>)
 8001f98:	6f1b      	ldr	r3, [r3, #112]	; 0x70
 8001f9a:	4a5e      	ldr	r2, [pc, #376]	; (8002114 <HAL_RCC_OscConfig+0x470>)
 8001f9c:	f043 0304 	orr.w	r3, r3, #4
 8001fa0:	6713      	str	r3, [r2, #112]	; 0x70
 8001fa2:	4b5c      	ldr	r3, [pc, #368]	; (8002114 <HAL_RCC_OscConfig+0x470>)
 8001fa4:	6f1b      	ldr	r3, [r3, #112]	; 0x70
 8001fa6:	4a5b      	ldr	r2, [pc, #364]	; (8002114 <HAL_RCC_OscConfig+0x470>)
 8001fa8:	f043 0301 	orr.w	r3, r3, #1
 8001fac:	6713      	str	r3, [r2, #112]	; 0x70
 8001fae:	e00b      	b.n	8001fc8 <HAL_RCC_OscConfig+0x324>
 8001fb0:	4b58      	ldr	r3, [pc, #352]	; (8002114 <HAL_RCC_OscConfig+0x470>)
 8001fb2:	6f1b      	ldr	r3, [r3, #112]	; 0x70
 8001fb4:	4a57      	ldr	r2, [pc, #348]	; (8002114 <HAL_RCC_OscConfig+0x470>)
 8001fb6:	f023 0301 	bic.w	r3, r3, #1
 8001fba:	6713      	str	r3, [r2, #112]	; 0x70
 8001fbc:	4b55      	ldr	r3, [pc, #340]	; (8002114 <HAL_RCC_OscConfig+0x470>)
 8001fbe:	6f1b      	ldr	r3, [r3, #112]	; 0x70
 8001fc0:	4a54      	ldr	r2, [pc, #336]	; (8002114 <HAL_RCC_OscConfig+0x470>)
 8001fc2:	f023 0304 	bic.w	r3, r3, #4
 8001fc6:	6713      	str	r3, [r2, #112]	; 0x70
    /* Check the LSE State */
    if((RCC_OscInitStruct->LSEState) != RCC_LSE_OFF)
 8001fc8:	687b      	ldr	r3, [r7, #4]
 8001fca:	689b      	ldr	r3, [r3, #8]
 8001fcc:	2b00      	cmp	r3, #0
 8001fce:	d015      	beq.n	8001ffc <HAL_RCC_OscConfig+0x358>
    {
      /* Get Start Tick*/
      tickstart = HAL_GetTick();
 8001fd0:	f7ff faf6 	bl	80015c0 <HAL_GetTick>
 8001fd4:	6138      	str	r0, [r7, #16]

      /* Wait till LSE is ready */
      while(__HAL_RCC_GET_FLAG(RCC_FLAG_LSERDY) == RESET)
 8001fd6:	e00a      	b.n	8001fee <HAL_RCC_OscConfig+0x34a>
      {
        if((HAL_GetTick() - tickstart ) > RCC_LSE_TIMEOUT_VALUE)
 8001fd8:	f7ff faf2 	bl	80015c0 <HAL_GetTick>
 8001fdc:	4602      	mov	r2, r0
 8001fde:	693b      	ldr	r3, [r7, #16]
 8001fe0:	1ad3      	subs	r3, r2, r3
 8001fe2:	f241 3288 	movw	r2, #5000	; 0x1388
 8001fe6:	4293      	cmp	r3, r2
 8001fe8:	d901      	bls.n	8001fee <HAL_RCC_OscConfig+0x34a>
        {
          return HAL_TIMEOUT;
 8001fea:	2303      	movs	r3, #3
 8001fec:	e0cb      	b.n	8002186 <HAL_RCC_OscConfig+0x4e2>
      while(__HAL_RCC_GET_FLAG(RCC_FLAG_LSERDY) == RESET)
 8001fee:	4b49      	ldr	r3, [pc, #292]	; (8002114 <HAL_RCC_OscConfig+0x470>)
 8001ff0:	6f1b      	ldr	r3, [r3, #112]	; 0x70
 8001ff2:	f003 0302 	and.w	r3, r3, #2
 8001ff6:	2b00      	cmp	r3, #0
 8001ff8:	d0ee      	beq.n	8001fd8 <HAL_RCC_OscConfig+0x334>
 8001ffa:	e014      	b.n	8002026 <HAL_RCC_OscConfig+0x382>
      }
    }
    else
    {
      /* Get Start Tick */
      tickstart = HAL_GetTick();
 8001ffc:	f7ff fae0 	bl	80015c0 <HAL_GetTick>
 8002000:	6138      	str	r0, [r7, #16]

      /* Wait till LSE is ready */
      while(__HAL_RCC_GET_FLAG(RCC_FLAG_LSERDY) != RESET)
 8002002:	e00a      	b.n	800201a <HAL_RCC_OscConfig+0x376>
      {
        if((HAL_GetTick() - tickstart ) > RCC_LSE_TIMEOUT_VALUE)
 8002004:	f7ff fadc 	bl	80015c0 <HAL_GetTick>
 8002008:	4602      	mov	r2, r0
 800200a:	693b      	ldr	r3, [r7, #16]
 800200c:	1ad3      	subs	r3, r2, r3
 800200e:	f241 3288 	movw	r2, #5000	; 0x1388
 8002012:	4293      	cmp	r3, r2
 8002014:	d901      	bls.n	800201a <HAL_RCC_OscConfig+0x376>
        {
          return HAL_TIMEOUT;
 8002016:	2303      	movs	r3, #3
 8002018:	e0b5      	b.n	8002186 <HAL_RCC_OscConfig+0x4e2>
      while(__HAL_RCC_GET_FLAG(RCC_FLAG_LSERDY) != RESET)
 800201a:	4b3e      	ldr	r3, [pc, #248]	; (8002114 <HAL_RCC_OscConfig+0x470>)
 800201c:	6f1b      	ldr	r3, [r3, #112]	; 0x70
 800201e:	f003 0302 	and.w	r3, r3, #2
 8002022:	2b00      	cmp	r3, #0
 8002024:	d1ee      	bne.n	8002004 <HAL_RCC_OscConfig+0x360>
        }
      }
    }

    /* Restore clock configuration if changed */
    if(pwrclkchanged == SET)
 8002026:	7dfb      	ldrb	r3, [r7, #23]
 8002028:	2b01      	cmp	r3, #1
 800202a:	d105      	bne.n	8002038 <HAL_RCC_OscConfig+0x394>
    {
      __HAL_RCC_PWR_CLK_DISABLE();
 800202c:	4b39      	ldr	r3, [pc, #228]	; (8002114 <HAL_RCC_OscConfig+0x470>)
 800202e:	6c1b      	ldr	r3, [r3, #64]	; 0x40
 8002030:	4a38      	ldr	r2, [pc, #224]	; (8002114 <HAL_RCC_OscConfig+0x470>)
 8002032:	f023 5380 	bic.w	r3, r3, #268435456	; 0x10000000
 8002036:	6413      	str	r3, [r2, #64]	; 0x40
    }
  }
  /*-------------------------------- PLL Configuration -----------------------*/
  /* Check the parameters */
  assert_param(IS_RCC_PLL(RCC_OscInitStruct->PLL.PLLState));
  if ((RCC_OscInitStruct->PLL.PLLState) != RCC_PLL_NONE)
 8002038:	687b      	ldr	r3, [r7, #4]
 800203a:	699b      	ldr	r3, [r3, #24]
 800203c:	2b00      	cmp	r3, #0
 800203e:	f000 80a1 	beq.w	8002184 <HAL_RCC_OscConfig+0x4e0>
  {
    /* Check if the PLL is used as system clock or not */
    if(__HAL_RCC_GET_SYSCLK_SOURCE() != RCC_CFGR_SWS_PLL)
 8002042:	4b34      	ldr	r3, [pc, #208]	; (8002114 <HAL_RCC_OscConfig+0x470>)
 8002044:	689b      	ldr	r3, [r3, #8]
 8002046:	f003 030c 	and.w	r3, r3, #12
 800204a:	2b08      	cmp	r3, #8
 800204c:	d05c      	beq.n	8002108 <HAL_RCC_OscConfig+0x464>
    {
      if((RCC_OscInitStruct->PLL.PLLState) == RCC_PLL_ON)
 800204e:	687b      	ldr	r3, [r7, #4]
 8002050:	699b      	ldr	r3, [r3, #24]
 8002052:	2b02      	cmp	r3, #2
 8002054:	d141      	bne.n	80020da <HAL_RCC_OscConfig+0x436>
        assert_param(IS_RCC_PLLN_VALUE(RCC_OscInitStruct->PLL.PLLN));
        assert_param(IS_RCC_PLLP_VALUE(RCC_OscInitStruct->PLL.PLLP));
        assert_param(IS_RCC_PLLQ_VALUE(RCC_OscInitStruct->PLL.PLLQ));

        /* Disable the main PLL. */
        __HAL_RCC_PLL_DISABLE();
 8002056:	4b31      	ldr	r3, [pc, #196]	; (800211c <HAL_RCC_OscConfig+0x478>)
 8002058:	2200      	movs	r2, #0
 800205a:	601a      	str	r2, [r3, #0]

        /* Get Start Tick */
        tickstart = HAL_GetTick();
 800205c:	f7ff fab0 	bl	80015c0 <HAL_GetTick>
 8002060:	6138      	str	r0, [r7, #16]

        /* Wait till PLL is ready */
        while(__HAL_RCC_GET_FLAG(RCC_FLAG_PLLRDY) != RESET)
 8002062:	e008      	b.n	8002076 <HAL_RCC_OscConfig+0x3d2>
        {
          if((HAL_GetTick() - tickstart ) > PLL_TIMEOUT_VALUE)
 8002064:	f7ff faac 	bl	80015c0 <HAL_GetTick>
 8002068:	4602      	mov	r2, r0
 800206a:	693b      	ldr	r3, [r7, #16]
 800206c:	1ad3      	subs	r3, r2, r3
 800206e:	2b02      	cmp	r3, #2
 8002070:	d901      	bls.n	8002076 <HAL_RCC_OscConfig+0x3d2>
          {
            return HAL_TIMEOUT;
 8002072:	2303      	movs	r3, #3
 8002074:	e087      	b.n	8002186 <HAL_RCC_OscConfig+0x4e2>
        while(__HAL_RCC_GET_FLAG(RCC_FLAG_PLLRDY) != RESET)
 8002076:	4b27      	ldr	r3, [pc, #156]	; (8002114 <HAL_RCC_OscConfig+0x470>)
 8002078:	681b      	ldr	r3, [r3, #0]
 800207a:	f003 7300 	and.w	r3, r3, #33554432	; 0x2000000
 800207e:	2b00      	cmp	r3, #0
 8002080:	d1f0      	bne.n	8002064 <HAL_RCC_OscConfig+0x3c0>
          }
        }

        /* Configure the main PLL clock source, multiplication and division factors. */
        WRITE_REG(RCC->PLLCFGR, (RCC_OscInitStruct->PLL.PLLSource                                            | \
 8002082:	687b      	ldr	r3, [r7, #4]
 8002084:	69da      	ldr	r2, [r3, #28]
 8002086:	687b      	ldr	r3, [r7, #4]
 8002088:	6a1b      	ldr	r3, [r3, #32]
 800208a:	431a      	orrs	r2, r3
 800208c:	687b      	ldr	r3, [r7, #4]
 800208e:	6a5b      	ldr	r3, [r3, #36]	; 0x24
 8002090:	019b      	lsls	r3, r3, #6
 8002092:	431a      	orrs	r2, r3
 8002094:	687b      	ldr	r3, [r7, #4]
 8002096:	6a9b      	ldr	r3, [r3, #40]	; 0x28
 8002098:	085b      	lsrs	r3, r3, #1
 800209a:	3b01      	subs	r3, #1
 800209c:	041b      	lsls	r3, r3, #16
 800209e:	431a      	orrs	r2, r3
 80020a0:	687b      	ldr	r3, [r7, #4]
 80020a2:	6adb      	ldr	r3, [r3, #44]	; 0x2c
 80020a4:	061b      	lsls	r3, r3, #24
 80020a6:	491b      	ldr	r1, [pc, #108]	; (8002114 <HAL_RCC_OscConfig+0x470>)
 80020a8:	4313      	orrs	r3, r2
 80020aa:	604b      	str	r3, [r1, #4]
                                 RCC_OscInitStruct->PLL.PLLM                                                 | \
                                 (RCC_OscInitStruct->PLL.PLLN << RCC_PLLCFGR_PLLN_Pos)             | \
                                 (((RCC_OscInitStruct->PLL.PLLP >> 1U) - 1U) << RCC_PLLCFGR_PLLP_Pos) | \
                                 (RCC_OscInitStruct->PLL.PLLQ << RCC_PLLCFGR_PLLQ_Pos)));
        /* Enable the main PLL. */
        __HAL_RCC_PLL_ENABLE();
 80020ac:	4b1b      	ldr	r3, [pc, #108]	; (800211c <HAL_RCC_OscConfig+0x478>)
 80020ae:	2201      	movs	r2, #1
 80020b0:	601a      	str	r2, [r3, #0]

        /* Get Start Tick */
        tickstart = HAL_GetTick();
 80020b2:	f7ff fa85 	bl	80015c0 <HAL_GetTick>
 80020b6:	6138      	str	r0, [r7, #16]

        /* Wait till PLL is ready */
        while(__HAL_RCC_GET_FLAG(RCC_FLAG_PLLRDY) == RESET)
 80020b8:	e008      	b.n	80020cc <HAL_RCC_OscConfig+0x428>
        {
          if((HAL_GetTick() - tickstart ) > PLL_TIMEOUT_VALUE)
 80020ba:	f7ff fa81 	bl	80015c0 <HAL_GetTick>
 80020be:	4602      	mov	r2, r0
 80020c0:	693b      	ldr	r3, [r7, #16]
 80020c2:	1ad3      	subs	r3, r2, r3
 80020c4:	2b02      	cmp	r3, #2
 80020c6:	d901      	bls.n	80020cc <HAL_RCC_OscConfig+0x428>
          {
            return HAL_TIMEOUT;
 80020c8:	2303      	movs	r3, #3
 80020ca:	e05c      	b.n	8002186 <HAL_RCC_OscConfig+0x4e2>
        while(__HAL_RCC_GET_FLAG(RCC_FLAG_PLLRDY) == RESET)
 80020cc:	4b11      	ldr	r3, [pc, #68]	; (8002114 <HAL_RCC_OscConfig+0x470>)
 80020ce:	681b      	ldr	r3, [r3, #0]
 80020d0:	f003 7300 	and.w	r3, r3, #33554432	; 0x2000000
 80020d4:	2b00      	cmp	r3, #0
 80020d6:	d0f0      	beq.n	80020ba <HAL_RCC_OscConfig+0x416>
 80020d8:	e054      	b.n	8002184 <HAL_RCC_OscConfig+0x4e0>
        }
      }
      else
      {
        /* Disable the main PLL. */
        __HAL_RCC_PLL_DISABLE();
 80020da:	4b10      	ldr	r3, [pc, #64]	; (800211c <HAL_RCC_OscConfig+0x478>)
 80020dc:	2200      	movs	r2, #0
 80020de:	601a      	str	r2, [r3, #0]

        /* Get Start Tick */
        tickstart = HAL_GetTick();
 80020e0:	f7ff fa6e 	bl	80015c0 <HAL_GetTick>
 80020e4:	6138      	str	r0, [r7, #16]

        /* Wait till PLL is ready */
        while(__HAL_RCC_GET_FLAG(RCC_FLAG_PLLRDY) != RESET)
 80020e6:	e008      	b.n	80020fa <HAL_RCC_OscConfig+0x456>
        {
          if((HAL_GetTick() - tickstart ) > PLL_TIMEOUT_VALUE)
 80020e8:	f7ff fa6a 	bl	80015c0 <HAL_GetTick>
 80020ec:	4602      	mov	r2, r0
 80020ee:	693b      	ldr	r3, [r7, #16]
 80020f0:	1ad3      	subs	r3, r2, r3
 80020f2:	2b02      	cmp	r3, #2
 80020f4:	d901      	bls.n	80020fa <HAL_RCC_OscConfig+0x456>
          {
            return HAL_TIMEOUT;
 80020f6:	2303      	movs	r3, #3
 80020f8:	e045      	b.n	8002186 <HAL_RCC_OscConfig+0x4e2>
        while(__HAL_RCC_GET_FLAG(RCC_FLAG_PLLRDY) != RESET)
 80020fa:	4b06      	ldr	r3, [pc, #24]	; (8002114 <HAL_RCC_OscConfig+0x470>)
 80020fc:	681b      	ldr	r3, [r3, #0]
 80020fe:	f003 7300 	and.w	r3, r3, #33554432	; 0x2000000
 8002102:	2b00      	cmp	r3, #0
 8002104:	d1f0      	bne.n	80020e8 <HAL_RCC_OscConfig+0x444>
 8002106:	e03d      	b.n	8002184 <HAL_RCC_OscConfig+0x4e0>
      }
    }
    else
    {
      /* Check if there is a request to disable the PLL used as System clock source */
      if((RCC_OscInitStruct->PLL.PLLState) == RCC_PLL_OFF)
 8002108:	687b      	ldr	r3, [r7, #4]
 800210a:	699b      	ldr	r3, [r3, #24]
 800210c:	2b01      	cmp	r3, #1
 800210e:	d107      	bne.n	8002120 <HAL_RCC_OscConfig+0x47c>
      {
        return HAL_ERROR;
 8002110:	2301      	movs	r3, #1
 8002112:	e038      	b.n	8002186 <HAL_RCC_OscConfig+0x4e2>
 8002114:	40023800 	.word	0x40023800
 8002118:	40007000 	.word	0x40007000
 800211c:	42470060 	.word	0x42470060
      }
      else
      {
        /* Do not return HAL_ERROR if request repeats the current configuration */
        pll_config = RCC->PLLCFGR;
 8002120:	4b1b      	ldr	r3, [pc, #108]	; (8002190 <HAL_RCC_OscConfig+0x4ec>)
 8002122:	685b      	ldr	r3, [r3, #4]
 8002124:	60fb      	str	r3, [r7, #12]
            (READ_BIT(pll_config, RCC_PLLCFGR_PLLN) != (RCC_OscInitStruct->PLL.PLLN) << RCC_PLLCFGR_PLLN_Pos) ||
            (READ_BIT(pll_config, RCC_PLLCFGR_PLLP) != (((RCC_OscInitStruct->PLL.PLLP >> 1U) - 1U)) << RCC_PLLCFGR_PLLP_Pos) ||
            (READ_BIT(pll_config, RCC_PLLCFGR_PLLQ) != (RCC_OscInitStruct->PLL.PLLQ << RCC_PLLCFGR_PLLQ_Pos)) ||
            (READ_BIT(pll_config, RCC_PLLCFGR_PLLR) != (RCC_OscInitStruct->PLL.PLLR << RCC_PLLCFGR_PLLR_Pos)))
#else
        if (((RCC_OscInitStruct->PLL.PLLState) == RCC_PLL_OFF) ||
 8002126:	687b      	ldr	r3, [r7, #4]
 8002128:	699b      	ldr	r3, [r3, #24]
 800212a:	2b01      	cmp	r3, #1
 800212c:	d028      	beq.n	8002180 <HAL_RCC_OscConfig+0x4dc>
            (READ_BIT(pll_config, RCC_PLLCFGR_PLLSRC) != RCC_OscInitStruct->PLL.PLLSource) ||
 800212e:	68fb      	ldr	r3, [r7, #12]
 8002130:	f403 0280 	and.w	r2, r3, #4194304	; 0x400000
 8002134:	687b      	ldr	r3, [r7, #4]
 8002136:	69db      	ldr	r3, [r3, #28]
        if (((RCC_OscInitStruct->PLL.PLLState) == RCC_PLL_OFF) ||
 8002138:	429a      	cmp	r2, r3
 800213a:	d121      	bne.n	8002180 <HAL_RCC_OscConfig+0x4dc>
            (READ_BIT(pll_config, RCC_PLLCFGR_PLLM) != (RCC_OscInitStruct->PLL.PLLM) << RCC_PLLCFGR_PLLM_Pos) ||
 800213c:	68fb      	ldr	r3, [r7, #12]
 800213e:	f003 023f 	and.w	r2, r3, #63	; 0x3f
 8002142:	687b      	ldr	r3, [r7, #4]
 8002144:	6a1b      	ldr	r3, [r3, #32]
            (READ_BIT(pll_config, RCC_PLLCFGR_PLLSRC) != RCC_OscInitStruct->PLL.PLLSource) ||
 8002146:	429a      	cmp	r2, r3
 8002148:	d11a      	bne.n	8002180 <HAL_RCC_OscConfig+0x4dc>
            (READ_BIT(pll_config, RCC_PLLCFGR_PLLN) != (RCC_OscInitStruct->PLL.PLLN) << RCC_PLLCFGR_PLLN_Pos) ||
 800214a:	68fa      	ldr	r2, [r7, #12]
 800214c:	f647 73c0 	movw	r3, #32704	; 0x7fc0
 8002150:	4013      	ands	r3, r2
 8002152:	687a      	ldr	r2, [r7, #4]
 8002154:	6a52      	ldr	r2, [r2, #36]	; 0x24
 8002156:	0192      	lsls	r2, r2, #6
            (READ_BIT(pll_config, RCC_PLLCFGR_PLLM) != (RCC_OscInitStruct->PLL.PLLM) << RCC_PLLCFGR_PLLM_Pos) ||
 8002158:	4293      	cmp	r3, r2
 800215a:	d111      	bne.n	8002180 <HAL_RCC_OscConfig+0x4dc>
            (READ_BIT(pll_config, RCC_PLLCFGR_PLLP) != (((RCC_OscInitStruct->PLL.PLLP >> 1U) - 1U)) << RCC_PLLCFGR_PLLP_Pos) ||
 800215c:	68fb      	ldr	r3, [r7, #12]
 800215e:	f403 3240 	and.w	r2, r3, #196608	; 0x30000
 8002162:	687b      	ldr	r3, [r7, #4]
 8002164:	6a9b      	ldr	r3, [r3, #40]	; 0x28
 8002166:	085b      	lsrs	r3, r3, #1
 8002168:	3b01      	subs	r3, #1
 800216a:	041b      	lsls	r3, r3, #16
            (READ_BIT(pll_config, RCC_PLLCFGR_PLLN) != (RCC_OscInitStruct->PLL.PLLN) << RCC_PLLCFGR_PLLN_Pos) ||
 800216c:	429a      	cmp	r2, r3
 800216e:	d107      	bne.n	8002180 <HAL_RCC_OscConfig+0x4dc>
            (READ_BIT(pll_config, RCC_PLLCFGR_PLLQ) != (RCC_OscInitStruct->PLL.PLLQ << RCC_PLLCFGR_PLLQ_Pos)))
 8002170:	68fb      	ldr	r3, [r7, #12]
 8002172:	f003 6270 	and.w	r2, r3, #251658240	; 0xf000000
 8002176:	687b      	ldr	r3, [r7, #4]
 8002178:	6adb      	ldr	r3, [r3, #44]	; 0x2c
 800217a:	061b      	lsls	r3, r3, #24
            (READ_BIT(pll_config, RCC_PLLCFGR_PLLP) != (((RCC_OscInitStruct->PLL.PLLP >> 1U) - 1U)) << RCC_PLLCFGR_PLLP_Pos) ||
 800217c:	429a      	cmp	r2, r3
 800217e:	d001      	beq.n	8002184 <HAL_RCC_OscConfig+0x4e0>
#endif
        {
          return HAL_ERROR;
 8002180:	2301      	movs	r3, #1
 8002182:	e000      	b.n	8002186 <HAL_RCC_OscConfig+0x4e2>
        }
      }
    }
  }
  return HAL_OK;
 8002184:	2300      	movs	r3, #0
}
 8002186:	4618      	mov	r0, r3
 8002188:	3718      	adds	r7, #24
 800218a:	46bd      	mov	sp, r7
 800218c:	bd80      	pop	{r7, pc}
 800218e:	bf00      	nop
 8002190:	40023800 	.word	0x40023800

08002194 <HAL_RCC_ClockConfig>:
  *         HPRE[3:0] bits to ensure that HCLK not exceed the maximum allowed frequency
  *         (for more details refer to section above "Initialization/de-initialization functions")
  * @retval None
  */
HAL_StatusTypeDef HAL_RCC_ClockConfig(RCC_ClkInitTypeDef  *RCC_ClkInitStruct, uint32_t FLatency)
{
 8002194:	b580      	push	{r7, lr}
 8002196:	b084      	sub	sp, #16
 8002198:	af00      	add	r7, sp, #0
 800219a:	6078      	str	r0, [r7, #4]
 800219c:	6039      	str	r1, [r7, #0]
  uint32_t tickstart;

  /* Check Null pointer */
  if(RCC_ClkInitStruct == NULL)
 800219e:	687b      	ldr	r3, [r7, #4]
 80021a0:	2b00      	cmp	r3, #0
 80021a2:	d101      	bne.n	80021a8 <HAL_RCC_ClockConfig+0x14>
  {
    return HAL_ERROR;
 80021a4:	2301      	movs	r3, #1
 80021a6:	e0cc      	b.n	8002342 <HAL_RCC_ClockConfig+0x1ae>
  /* To correctly read data from FLASH memory, the number of wait states (LATENCY)
    must be correctly programmed according to the frequency of the CPU clock
    (HCLK) and the supply voltage of the device. */

  /* Increasing the number of wait states because of higher CPU frequency */
  if(FLatency > __HAL_FLASH_GET_LATENCY())
 80021a8:	4b68      	ldr	r3, [pc, #416]	; (800234c <HAL_RCC_ClockConfig+0x1b8>)
 80021aa:	681b      	ldr	r3, [r3, #0]
 80021ac:	f003 0307 	and.w	r3, r3, #7
 80021b0:	683a      	ldr	r2, [r7, #0]
 80021b2:	429a      	cmp	r2, r3
 80021b4:	d90c      	bls.n	80021d0 <HAL_RCC_ClockConfig+0x3c>
  {
    /* Program the new number of wait states to the LATENCY bits in the FLASH_ACR register */
    __HAL_FLASH_SET_LATENCY(FLatency);
 80021b6:	4b65      	ldr	r3, [pc, #404]	; (800234c <HAL_RCC_ClockConfig+0x1b8>)
 80021b8:	683a      	ldr	r2, [r7, #0]
 80021ba:	b2d2      	uxtb	r2, r2
 80021bc:	701a      	strb	r2, [r3, #0]

    /* Check that the new number of wait states is taken into account to access the Flash
    memory by reading the FLASH_ACR register */
    if(__HAL_FLASH_GET_LATENCY() != FLatency)
 80021be:	4b63      	ldr	r3, [pc, #396]	; (800234c <HAL_RCC_ClockConfig+0x1b8>)
 80021c0:	681b      	ldr	r3, [r3, #0]
 80021c2:	f003 0307 	and.w	r3, r3, #7
 80021c6:	683a      	ldr	r2, [r7, #0]
 80021c8:	429a      	cmp	r2, r3
 80021ca:	d001      	beq.n	80021d0 <HAL_RCC_ClockConfig+0x3c>
    {
      return HAL_ERROR;
 80021cc:	2301      	movs	r3, #1
 80021ce:	e0b8      	b.n	8002342 <HAL_RCC_ClockConfig+0x1ae>
    }
  }

  /*-------------------------- HCLK Configuration --------------------------*/
  if(((RCC_ClkInitStruct->ClockType) & RCC_CLOCKTYPE_HCLK) == RCC_CLOCKTYPE_HCLK)
 80021d0:	687b      	ldr	r3, [r7, #4]
 80021d2:	681b      	ldr	r3, [r3, #0]
 80021d4:	f003 0302 	and.w	r3, r3, #2
 80021d8:	2b00      	cmp	r3, #0
 80021da:	d020      	beq.n	800221e <HAL_RCC_ClockConfig+0x8a>
  {
    /* Set the highest APBx dividers in order to ensure that we do not go through
       a non-spec phase whatever we decrease or increase HCLK. */
    if(((RCC_ClkInitStruct->ClockType) & RCC_CLOCKTYPE_PCLK1) == RCC_CLOCKTYPE_PCLK1)
 80021dc:	687b      	ldr	r3, [r7, #4]
 80021de:	681b      	ldr	r3, [r3, #0]
 80021e0:	f003 0304 	and.w	r3, r3, #4
 80021e4:	2b00      	cmp	r3, #0
 80021e6:	d005      	beq.n	80021f4 <HAL_RCC_ClockConfig+0x60>
    {
      MODIFY_REG(RCC->CFGR, RCC_CFGR_PPRE1, RCC_HCLK_DIV16);
 80021e8:	4b59      	ldr	r3, [pc, #356]	; (8002350 <HAL_RCC_ClockConfig+0x1bc>)
 80021ea:	689b      	ldr	r3, [r3, #8]
 80021ec:	4a58      	ldr	r2, [pc, #352]	; (8002350 <HAL_RCC_ClockConfig+0x1bc>)
 80021ee:	f443 53e0 	orr.w	r3, r3, #7168	; 0x1c00
 80021f2:	6093      	str	r3, [r2, #8]
    }

    if(((RCC_ClkInitStruct->ClockType) & RCC_CLOCKTYPE_PCLK2) == RCC_CLOCKTYPE_PCLK2)
 80021f4:	687b      	ldr	r3, [r7, #4]
 80021f6:	681b      	ldr	r3, [r3, #0]
 80021f8:	f003 0308 	and.w	r3, r3, #8
 80021fc:	2b00      	cmp	r3, #0
 80021fe:	d005      	beq.n	800220c <HAL_RCC_ClockConfig+0x78>
    {
      MODIFY_REG(RCC->CFGR, RCC_CFGR_PPRE2, (RCC_HCLK_DIV16 << 3));
 8002200:	4b53      	ldr	r3, [pc, #332]	; (8002350 <HAL_RCC_ClockConfig+0x1bc>)
 8002202:	689b      	ldr	r3, [r3, #8]
 8002204:	4a52      	ldr	r2, [pc, #328]	; (8002350 <HAL_RCC_ClockConfig+0x1bc>)
 8002206:	f443 4360 	orr.w	r3, r3, #57344	; 0xe000
 800220a:	6093      	str	r3, [r2, #8]
    }

    assert_param(IS_RCC_HCLK(RCC_ClkInitStruct->AHBCLKDivider));
    MODIFY_REG(RCC->CFGR, RCC_CFGR_HPRE, RCC_ClkInitStruct->AHBCLKDivider);
 800220c:	4b50      	ldr	r3, [pc, #320]	; (8002350 <HAL_RCC_ClockConfig+0x1bc>)
 800220e:	689b      	ldr	r3, [r3, #8]
 8002210:	f023 02f0 	bic.w	r2, r3, #240	; 0xf0
 8002214:	687b      	ldr	r3, [r7, #4]
 8002216:	689b      	ldr	r3, [r3, #8]
 8002218:	494d      	ldr	r1, [pc, #308]	; (8002350 <HAL_RCC_ClockConfig+0x1bc>)
 800221a:	4313      	orrs	r3, r2
 800221c:	608b      	str	r3, [r1, #8]
  }

  /*------------------------- SYSCLK Configuration ---------------------------*/
  if(((RCC_ClkInitStruct->ClockType) & RCC_CLOCKTYPE_SYSCLK) == RCC_CLOCKTYPE_SYSCLK)
 800221e:	687b      	ldr	r3, [r7, #4]
 8002220:	681b      	ldr	r3, [r3, #0]
 8002222:	f003 0301 	and.w	r3, r3, #1
 8002226:	2b00      	cmp	r3, #0
 8002228:	d044      	beq.n	80022b4 <HAL_RCC_ClockConfig+0x120>
  {
    assert_param(IS_RCC_SYSCLKSOURCE(RCC_ClkInitStruct->SYSCLKSource));

    /* HSE is selected as System Clock Source */
    if(RCC_ClkInitStruct->SYSCLKSource == RCC_SYSCLKSOURCE_HSE)
 800222a:	687b      	ldr	r3, [r7, #4]
 800222c:	685b      	ldr	r3, [r3, #4]
 800222e:	2b01      	cmp	r3, #1
 8002230:	d107      	bne.n	8002242 <HAL_RCC_ClockConfig+0xae>
    {
      /* Check the HSE ready flag */
      if(__HAL_RCC_GET_FLAG(RCC_FLAG_HSERDY) == RESET)
 8002232:	4b47      	ldr	r3, [pc, #284]	; (8002350 <HAL_RCC_ClockConfig+0x1bc>)
 8002234:	681b      	ldr	r3, [r3, #0]
 8002236:	f403 3300 	and.w	r3, r3, #131072	; 0x20000
 800223a:	2b00      	cmp	r3, #0
 800223c:	d119      	bne.n	8002272 <HAL_RCC_ClockConfig+0xde>
      {
        return HAL_ERROR;
 800223e:	2301      	movs	r3, #1
 8002240:	e07f      	b.n	8002342 <HAL_RCC_ClockConfig+0x1ae>
      }
    }
    /* PLL is selected as System Clock Source */
    else if((RCC_ClkInitStruct->SYSCLKSource == RCC_SYSCLKSOURCE_PLLCLK)   ||
 8002242:	687b      	ldr	r3, [r7, #4]
 8002244:	685b      	ldr	r3, [r3, #4]
 8002246:	2b02      	cmp	r3, #2
 8002248:	d003      	beq.n	8002252 <HAL_RCC_ClockConfig+0xbe>
            (RCC_ClkInitStruct->SYSCLKSource == RCC_SYSCLKSOURCE_PLLRCLK))
 800224a:	687b      	ldr	r3, [r7, #4]
 800224c:	685b      	ldr	r3, [r3, #4]
    else if((RCC_ClkInitStruct->SYSCLKSource == RCC_SYSCLKSOURCE_PLLCLK)   ||
 800224e:	2b03      	cmp	r3, #3
 8002250:	d107      	bne.n	8002262 <HAL_RCC_ClockConfig+0xce>
    {
      /* Check the PLL ready flag */
      if(__HAL_RCC_GET_FLAG(RCC_FLAG_PLLRDY) == RESET)
 8002252:	4b3f      	ldr	r3, [pc, #252]	; (8002350 <HAL_RCC_ClockConfig+0x1bc>)
 8002254:	681b      	ldr	r3, [r3, #0]
 8002256:	f003 7300 	and.w	r3, r3, #33554432	; 0x2000000
 800225a:	2b00      	cmp	r3, #0
 800225c:	d109      	bne.n	8002272 <HAL_RCC_ClockConfig+0xde>
      {
        return HAL_ERROR;
 800225e:	2301      	movs	r3, #1
 8002260:	e06f      	b.n	8002342 <HAL_RCC_ClockConfig+0x1ae>
    }
    /* HSI is selected as System Clock Source */
    else
    {
      /* Check the HSI ready flag */
      if(__HAL_RCC_GET_FLAG(RCC_FLAG_HSIRDY) == RESET)
 8002262:	4b3b      	ldr	r3, [pc, #236]	; (8002350 <HAL_RCC_ClockConfig+0x1bc>)
 8002264:	681b      	ldr	r3, [r3, #0]
 8002266:	f003 0302 	and.w	r3, r3, #2
 800226a:	2b00      	cmp	r3, #0
 800226c:	d101      	bne.n	8002272 <HAL_RCC_ClockConfig+0xde>
      {
        return HAL_ERROR;
 800226e:	2301      	movs	r3, #1
 8002270:	e067      	b.n	8002342 <HAL_RCC_ClockConfig+0x1ae>
      }
    }

    __HAL_RCC_SYSCLK_CONFIG(RCC_ClkInitStruct->SYSCLKSource);
 8002272:	4b37      	ldr	r3, [pc, #220]	; (8002350 <HAL_RCC_ClockConfig+0x1bc>)
 8002274:	689b      	ldr	r3, [r3, #8]
 8002276:	f023 0203 	bic.w	r2, r3, #3
 800227a:	687b      	ldr	r3, [r7, #4]
 800227c:	685b      	ldr	r3, [r3, #4]
 800227e:	4934      	ldr	r1, [pc, #208]	; (8002350 <HAL_RCC_ClockConfig+0x1bc>)
 8002280:	4313      	orrs	r3, r2
 8002282:	608b      	str	r3, [r1, #8]

    /* Get Start Tick */
    tickstart = HAL_GetTick();
 8002284:	f7ff f99c 	bl	80015c0 <HAL_GetTick>
 8002288:	60f8      	str	r0, [r7, #12]

    while (__HAL_RCC_GET_SYSCLK_SOURCE() != (RCC_ClkInitStruct->SYSCLKSource << RCC_CFGR_SWS_Pos))
 800228a:	e00a      	b.n	80022a2 <HAL_RCC_ClockConfig+0x10e>
    {
      if ((HAL_GetTick() - tickstart) > CLOCKSWITCH_TIMEOUT_VALUE)
 800228c:	f7ff f998 	bl	80015c0 <HAL_GetTick>
 8002290:	4602      	mov	r2, r0
 8002292:	68fb      	ldr	r3, [r7, #12]
 8002294:	1ad3      	subs	r3, r2, r3
 8002296:	f241 3288 	movw	r2, #5000	; 0x1388
 800229a:	4293      	cmp	r3, r2
 800229c:	d901      	bls.n	80022a2 <HAL_RCC_ClockConfig+0x10e>
      {
        return HAL_TIMEOUT;
 800229e:	2303      	movs	r3, #3
 80022a0:	e04f      	b.n	8002342 <HAL_RCC_ClockConfig+0x1ae>
    while (__HAL_RCC_GET_SYSCLK_SOURCE() != (RCC_ClkInitStruct->SYSCLKSource << RCC_CFGR_SWS_Pos))
 80022a2:	4b2b      	ldr	r3, [pc, #172]	; (8002350 <HAL_RCC_ClockConfig+0x1bc>)
 80022a4:	689b      	ldr	r3, [r3, #8]
 80022a6:	f003 020c 	and.w	r2, r3, #12
 80022aa:	687b      	ldr	r3, [r7, #4]
 80022ac:	685b      	ldr	r3, [r3, #4]
 80022ae:	009b      	lsls	r3, r3, #2
 80022b0:	429a      	cmp	r2, r3
 80022b2:	d1eb      	bne.n	800228c <HAL_RCC_ClockConfig+0xf8>
      }
    }
  }

  /* Decreasing the number of wait states because of lower CPU frequency */
  if(FLatency < __HAL_FLASH_GET_LATENCY())
 80022b4:	4b25      	ldr	r3, [pc, #148]	; (800234c <HAL_RCC_ClockConfig+0x1b8>)
 80022b6:	681b      	ldr	r3, [r3, #0]
 80022b8:	f003 0307 	and.w	r3, r3, #7
 80022bc:	683a      	ldr	r2, [r7, #0]
 80022be:	429a      	cmp	r2, r3
 80022c0:	d20c      	bcs.n	80022dc <HAL_RCC_ClockConfig+0x148>
  {
     /* Program the new number of wait states to the LATENCY bits in the FLASH_ACR register */
    __HAL_FLASH_SET_LATENCY(FLatency);
 80022c2:	4b22      	ldr	r3, [pc, #136]	; (800234c <HAL_RCC_ClockConfig+0x1b8>)
 80022c4:	683a      	ldr	r2, [r7, #0]
 80022c6:	b2d2      	uxtb	r2, r2
 80022c8:	701a      	strb	r2, [r3, #0]

    /* Check that the new number of wait states is taken into account to access the Flash
    memory by reading the FLASH_ACR register */
    if(__HAL_FLASH_GET_LATENCY() != FLatency)
 80022ca:	4b20      	ldr	r3, [pc, #128]	; (800234c <HAL_RCC_ClockConfig+0x1b8>)
 80022cc:	681b      	ldr	r3, [r3, #0]
 80022ce:	f003 0307 	and.w	r3, r3, #7
 80022d2:	683a      	ldr	r2, [r7, #0]
 80022d4:	429a      	cmp	r2, r3
 80022d6:	d001      	beq.n	80022dc <HAL_RCC_ClockConfig+0x148>
    {
      return HAL_ERROR;
 80022d8:	2301      	movs	r3, #1
 80022da:	e032      	b.n	8002342 <HAL_RCC_ClockConfig+0x1ae>
    }
  }

  /*-------------------------- PCLK1 Configuration ---------------------------*/
  if(((RCC_ClkInitStruct->ClockType) & RCC_CLOCKTYPE_PCLK1) == RCC_CLOCKTYPE_PCLK1)
 80022dc:	687b      	ldr	r3, [r7, #4]
 80022de:	681b      	ldr	r3, [r3, #0]
 80022e0:	f003 0304 	and.w	r3, r3, #4
 80022e4:	2b00      	cmp	r3, #0
 80022e6:	d008      	beq.n	80022fa <HAL_RCC_ClockConfig+0x166>
  {
    assert_param(IS_RCC_PCLK(RCC_ClkInitStruct->APB1CLKDivider));
    MODIFY_REG(RCC->CFGR, RCC_CFGR_PPRE1, RCC_ClkInitStruct->APB1CLKDivider);
 80022e8:	4b19      	ldr	r3, [pc, #100]	; (8002350 <HAL_RCC_ClockConfig+0x1bc>)
 80022ea:	689b      	ldr	r3, [r3, #8]
 80022ec:	f423 52e0 	bic.w	r2, r3, #7168	; 0x1c00
 80022f0:	687b      	ldr	r3, [r7, #4]
 80022f2:	68db      	ldr	r3, [r3, #12]
 80022f4:	4916      	ldr	r1, [pc, #88]	; (8002350 <HAL_RCC_ClockConfig+0x1bc>)
 80022f6:	4313      	orrs	r3, r2
 80022f8:	608b      	str	r3, [r1, #8]
  }

  /*-------------------------- PCLK2 Configuration ---------------------------*/
  if(((RCC_ClkInitStruct->ClockType) & RCC_CLOCKTYPE_PCLK2) == RCC_CLOCKTYPE_PCLK2)
 80022fa:	687b      	ldr	r3, [r7, #4]
 80022fc:	681b      	ldr	r3, [r3, #0]
 80022fe:	f003 0308 	and.w	r3, r3, #8
 8002302:	2b00      	cmp	r3, #0
 8002304:	d009      	beq.n	800231a <HAL_RCC_ClockConfig+0x186>
  {
    assert_param(IS_RCC_PCLK(RCC_ClkInitStruct->APB2CLKDivider));
    MODIFY_REG(RCC->CFGR, RCC_CFGR_PPRE2, ((RCC_ClkInitStruct->APB2CLKDivider) << 3U));
 8002306:	4b12      	ldr	r3, [pc, #72]	; (8002350 <HAL_RCC_ClockConfig+0x1bc>)
 8002308:	689b      	ldr	r3, [r3, #8]
 800230a:	f423 4260 	bic.w	r2, r3, #57344	; 0xe000
 800230e:	687b      	ldr	r3, [r7, #4]
 8002310:	691b      	ldr	r3, [r3, #16]
 8002312:	00db      	lsls	r3, r3, #3
 8002314:	490e      	ldr	r1, [pc, #56]	; (8002350 <HAL_RCC_ClockConfig+0x1bc>)
 8002316:	4313      	orrs	r3, r2
 8002318:	608b      	str	r3, [r1, #8]
  }

  /* Update the SystemCoreClock global variable */
  SystemCoreClock = HAL_RCC_GetSysClockFreq() >> AHBPrescTable[(RCC->CFGR & RCC_CFGR_HPRE)>> RCC_CFGR_HPRE_Pos];
 800231a:	f000 f821 	bl	8002360 <HAL_RCC_GetSysClockFreq>
 800231e:	4602      	mov	r2, r0
 8002320:	4b0b      	ldr	r3, [pc, #44]	; (8002350 <HAL_RCC_ClockConfig+0x1bc>)
 8002322:	689b      	ldr	r3, [r3, #8]
 8002324:	091b      	lsrs	r3, r3, #4
 8002326:	f003 030f 	and.w	r3, r3, #15
 800232a:	490a      	ldr	r1, [pc, #40]	; (8002354 <HAL_RCC_ClockConfig+0x1c0>)
 800232c:	5ccb      	ldrb	r3, [r1, r3]
 800232e:	fa22 f303 	lsr.w	r3, r2, r3
 8002332:	4a09      	ldr	r2, [pc, #36]	; (8002358 <HAL_RCC_ClockConfig+0x1c4>)
 8002334:	6013      	str	r3, [r2, #0]

  /* Configure the source of time base considering new system clocks settings */
  HAL_InitTick (uwTickPrio);
 8002336:	4b09      	ldr	r3, [pc, #36]	; (800235c <HAL_RCC_ClockConfig+0x1c8>)
 8002338:	681b      	ldr	r3, [r3, #0]
 800233a:	4618      	mov	r0, r3
 800233c:	f7ff f8fc 	bl	8001538 <HAL_InitTick>

  return HAL_OK;
 8002340:	2300      	movs	r3, #0
}
 8002342:	4618      	mov	r0, r3
 8002344:	3710      	adds	r7, #16
 8002346:	46bd      	mov	sp, r7
 8002348:	bd80      	pop	{r7, pc}
 800234a:	bf00      	nop
 800234c:	40023c00 	.word	0x40023c00
 8002350:	40023800 	.word	0x40023800
 8002354:	0800382c 	.word	0x0800382c
 8002358:	2000007c 	.word	0x2000007c
 800235c:	20000080 	.word	0x20000080

08002360 <HAL_RCC_GetSysClockFreq>:
  *
  *
  * @retval SYSCLK frequency
  */
__weak uint32_t HAL_RCC_GetSysClockFreq(void)
{
 8002360:	e92d 4fb0 	stmdb	sp!, {r4, r5, r7, r8, r9, sl, fp, lr}
 8002364:	b094      	sub	sp, #80	; 0x50
 8002366:	af00      	add	r7, sp, #0
  uint32_t pllm = 0U, pllvco = 0U, pllp = 0U;
 8002368:	2300      	movs	r3, #0
 800236a:	647b      	str	r3, [r7, #68]	; 0x44
 800236c:	2300      	movs	r3, #0
 800236e:	64fb      	str	r3, [r7, #76]	; 0x4c
 8002370:	2300      	movs	r3, #0
 8002372:	643b      	str	r3, [r7, #64]	; 0x40
  uint32_t sysclockfreq = 0U;
 8002374:	2300      	movs	r3, #0
 8002376:	64bb      	str	r3, [r7, #72]	; 0x48

  /* Get SYSCLK source -------------------------------------------------------*/
  switch (RCC->CFGR & RCC_CFGR_SWS)
 8002378:	4b79      	ldr	r3, [pc, #484]	; (8002560 <HAL_RCC_GetSysClockFreq+0x200>)
 800237a:	689b      	ldr	r3, [r3, #8]
 800237c:	f003 030c 	and.w	r3, r3, #12
 8002380:	2b08      	cmp	r3, #8
 8002382:	d00d      	beq.n	80023a0 <HAL_RCC_GetSysClockFreq+0x40>
 8002384:	2b08      	cmp	r3, #8
 8002386:	f200 80e1 	bhi.w	800254c <HAL_RCC_GetSysClockFreq+0x1ec>
 800238a:	2b00      	cmp	r3, #0
 800238c:	d002      	beq.n	8002394 <HAL_RCC_GetSysClockFreq+0x34>
 800238e:	2b04      	cmp	r3, #4
 8002390:	d003      	beq.n	800239a <HAL_RCC_GetSysClockFreq+0x3a>
 8002392:	e0db      	b.n	800254c <HAL_RCC_GetSysClockFreq+0x1ec>
  {
    case RCC_CFGR_SWS_HSI:  /* HSI used as system clock source */
    {
      sysclockfreq = HSI_VALUE;
 8002394:	4b73      	ldr	r3, [pc, #460]	; (8002564 <HAL_RCC_GetSysClockFreq+0x204>)
 8002396:	64bb      	str	r3, [r7, #72]	; 0x48
       break;
 8002398:	e0db      	b.n	8002552 <HAL_RCC_GetSysClockFreq+0x1f2>
    }
    case RCC_CFGR_SWS_HSE:  /* HSE used as system clock  source */
    {
      sysclockfreq = HSE_VALUE;
 800239a:	4b73      	ldr	r3, [pc, #460]	; (8002568 <HAL_RCC_GetSysClockFreq+0x208>)
 800239c:	64bb      	str	r3, [r7, #72]	; 0x48
      break;
 800239e:	e0d8      	b.n	8002552 <HAL_RCC_GetSysClockFreq+0x1f2>
    }
    case RCC_CFGR_SWS_PLL:  /* PLL used as system clock  source */
    {
      /* PLL_VCO = (HSE_VALUE or HSI_VALUE / PLLM) * PLLN
      SYSCLK = PLL_VCO / PLLP */
      pllm = RCC->PLLCFGR & RCC_PLLCFGR_PLLM;
 80023a0:	4b6f      	ldr	r3, [pc, #444]	; (8002560 <HAL_RCC_GetSysClockFreq+0x200>)
 80023a2:	685b      	ldr	r3, [r3, #4]
 80023a4:	f003 033f 	and.w	r3, r3, #63	; 0x3f
 80023a8:	647b      	str	r3, [r7, #68]	; 0x44
      if(__HAL_RCC_GET_PLL_OSCSOURCE() != RCC_PLLSOURCE_HSI)
 80023aa:	4b6d      	ldr	r3, [pc, #436]	; (8002560 <HAL_RCC_GetSysClockFreq+0x200>)
 80023ac:	685b      	ldr	r3, [r3, #4]
 80023ae:	f403 0380 	and.w	r3, r3, #4194304	; 0x400000
 80023b2:	2b00      	cmp	r3, #0
 80023b4:	d063      	beq.n	800247e <HAL_RCC_GetSysClockFreq+0x11e>
      {
        /* HSE used as PLL clock source */
        pllvco = (uint32_t) ((((uint64_t) HSE_VALUE * ((uint64_t) ((RCC->PLLCFGR & RCC_PLLCFGR_PLLN) >> RCC_PLLCFGR_PLLN_Pos)))) / (uint64_t)pllm);
 80023b6:	4b6a      	ldr	r3, [pc, #424]	; (8002560 <HAL_RCC_GetSysClockFreq+0x200>)
 80023b8:	685b      	ldr	r3, [r3, #4]
 80023ba:	099b      	lsrs	r3, r3, #6
 80023bc:	2200      	movs	r2, #0
 80023be:	63bb      	str	r3, [r7, #56]	; 0x38
 80023c0:	63fa      	str	r2, [r7, #60]	; 0x3c
 80023c2:	6bbb      	ldr	r3, [r7, #56]	; 0x38
 80023c4:	f3c3 0308 	ubfx	r3, r3, #0, #9
 80023c8:	633b      	str	r3, [r7, #48]	; 0x30
 80023ca:	2300      	movs	r3, #0
 80023cc:	637b      	str	r3, [r7, #52]	; 0x34
 80023ce:	e9d7 450c 	ldrd	r4, r5, [r7, #48]	; 0x30
 80023d2:	4622      	mov	r2, r4
 80023d4:	462b      	mov	r3, r5
 80023d6:	f04f 0000 	mov.w	r0, #0
 80023da:	f04f 0100 	mov.w	r1, #0
 80023de:	0159      	lsls	r1, r3, #5
 80023e0:	ea41 61d2 	orr.w	r1, r1, r2, lsr #27
 80023e4:	0150      	lsls	r0, r2, #5
 80023e6:	4602      	mov	r2, r0
 80023e8:	460b      	mov	r3, r1
 80023ea:	4621      	mov	r1, r4
 80023ec:	1a51      	subs	r1, r2, r1
 80023ee:	6139      	str	r1, [r7, #16]
 80023f0:	4629      	mov	r1, r5
 80023f2:	eb63 0301 	sbc.w	r3, r3, r1
 80023f6:	617b      	str	r3, [r7, #20]
 80023f8:	f04f 0200 	mov.w	r2, #0
 80023fc:	f04f 0300 	mov.w	r3, #0
 8002400:	e9d7 ab04 	ldrd	sl, fp, [r7, #16]
 8002404:	4659      	mov	r1, fp
 8002406:	018b      	lsls	r3, r1, #6
 8002408:	4651      	mov	r1, sl
 800240a:	ea43 6391 	orr.w	r3, r3, r1, lsr #26
 800240e:	4651      	mov	r1, sl
 8002410:	018a      	lsls	r2, r1, #6
 8002412:	4651      	mov	r1, sl
 8002414:	ebb2 0801 	subs.w	r8, r2, r1
 8002418:	4659      	mov	r1, fp
 800241a:	eb63 0901 	sbc.w	r9, r3, r1
 800241e:	f04f 0200 	mov.w	r2, #0
 8002422:	f04f 0300 	mov.w	r3, #0
 8002426:	ea4f 03c9 	mov.w	r3, r9, lsl #3
 800242a:	ea43 7358 	orr.w	r3, r3, r8, lsr #29
 800242e:	ea4f 02c8 	mov.w	r2, r8, lsl #3
 8002432:	4690      	mov	r8, r2
 8002434:	4699      	mov	r9, r3
 8002436:	4623      	mov	r3, r4
 8002438:	eb18 0303 	adds.w	r3, r8, r3
 800243c:	60bb      	str	r3, [r7, #8]
 800243e:	462b      	mov	r3, r5
 8002440:	eb49 0303 	adc.w	r3, r9, r3
 8002444:	60fb      	str	r3, [r7, #12]
 8002446:	f04f 0200 	mov.w	r2, #0
 800244a:	f04f 0300 	mov.w	r3, #0
 800244e:	e9d7 4502 	ldrd	r4, r5, [r7, #8]
 8002452:	4629      	mov	r1, r5
 8002454:	024b      	lsls	r3, r1, #9
 8002456:	4621      	mov	r1, r4
 8002458:	ea43 53d1 	orr.w	r3, r3, r1, lsr #23
 800245c:	4621      	mov	r1, r4
 800245e:	024a      	lsls	r2, r1, #9
 8002460:	4610      	mov	r0, r2
 8002462:	4619      	mov	r1, r3
 8002464:	6c7b      	ldr	r3, [r7, #68]	; 0x44
 8002466:	2200      	movs	r2, #0
 8002468:	62bb      	str	r3, [r7, #40]	; 0x28
 800246a:	62fa      	str	r2, [r7, #44]	; 0x2c
 800246c:	e9d7 230a 	ldrd	r2, r3, [r7, #40]	; 0x28
 8002470:	f7fe f86e 	bl	8000550 <__aeabi_uldivmod>
 8002474:	4602      	mov	r2, r0
 8002476:	460b      	mov	r3, r1
 8002478:	4613      	mov	r3, r2
 800247a:	64fb      	str	r3, [r7, #76]	; 0x4c
 800247c:	e058      	b.n	8002530 <HAL_RCC_GetSysClockFreq+0x1d0>
      }
      else
      {
        /* HSI used as PLL clock source */
        pllvco = (uint32_t) ((((uint64_t) HSI_VALUE * ((uint64_t) ((RCC->PLLCFGR & RCC_PLLCFGR_PLLN) >> RCC_PLLCFGR_PLLN_Pos)))) / (uint64_t)pllm);
 800247e:	4b38      	ldr	r3, [pc, #224]	; (8002560 <HAL_RCC_GetSysClockFreq+0x200>)
 8002480:	685b      	ldr	r3, [r3, #4]
 8002482:	099b      	lsrs	r3, r3, #6
 8002484:	2200      	movs	r2, #0
 8002486:	4618      	mov	r0, r3
 8002488:	4611      	mov	r1, r2
 800248a:	f3c0 0308 	ubfx	r3, r0, #0, #9
 800248e:	623b      	str	r3, [r7, #32]
 8002490:	2300      	movs	r3, #0
 8002492:	627b      	str	r3, [r7, #36]	; 0x24
 8002494:	e9d7 8908 	ldrd	r8, r9, [r7, #32]
 8002498:	4642      	mov	r2, r8
 800249a:	464b      	mov	r3, r9
 800249c:	f04f 0000 	mov.w	r0, #0
 80024a0:	f04f 0100 	mov.w	r1, #0
 80024a4:	0159      	lsls	r1, r3, #5
 80024a6:	ea41 61d2 	orr.w	r1, r1, r2, lsr #27
 80024aa:	0150      	lsls	r0, r2, #5
 80024ac:	4602      	mov	r2, r0
 80024ae:	460b      	mov	r3, r1
 80024b0:	4641      	mov	r1, r8
 80024b2:	ebb2 0a01 	subs.w	sl, r2, r1
 80024b6:	4649      	mov	r1, r9
 80024b8:	eb63 0b01 	sbc.w	fp, r3, r1
 80024bc:	f04f 0200 	mov.w	r2, #0
 80024c0:	f04f 0300 	mov.w	r3, #0
 80024c4:	ea4f 138b 	mov.w	r3, fp, lsl #6
 80024c8:	ea43 639a 	orr.w	r3, r3, sl, lsr #26
 80024cc:	ea4f 128a 	mov.w	r2, sl, lsl #6
 80024d0:	ebb2 040a 	subs.w	r4, r2, sl
 80024d4:	eb63 050b 	sbc.w	r5, r3, fp
 80024d8:	f04f 0200 	mov.w	r2, #0
 80024dc:	f04f 0300 	mov.w	r3, #0
 80024e0:	00eb      	lsls	r3, r5, #3
 80024e2:	ea43 7354 	orr.w	r3, r3, r4, lsr #29
 80024e6:	00e2      	lsls	r2, r4, #3
 80024e8:	4614      	mov	r4, r2
 80024ea:	461d      	mov	r5, r3
 80024ec:	4643      	mov	r3, r8
 80024ee:	18e3      	adds	r3, r4, r3
 80024f0:	603b      	str	r3, [r7, #0]
 80024f2:	464b      	mov	r3, r9
 80024f4:	eb45 0303 	adc.w	r3, r5, r3
 80024f8:	607b      	str	r3, [r7, #4]
 80024fa:	f04f 0200 	mov.w	r2, #0
 80024fe:	f04f 0300 	mov.w	r3, #0
 8002502:	e9d7 4500 	ldrd	r4, r5, [r7]
 8002506:	4629      	mov	r1, r5
 8002508:	028b      	lsls	r3, r1, #10
 800250a:	4621      	mov	r1, r4
 800250c:	ea43 5391 	orr.w	r3, r3, r1, lsr #22
 8002510:	4621      	mov	r1, r4
 8002512:	028a      	lsls	r2, r1, #10
 8002514:	4610      	mov	r0, r2
 8002516:	4619      	mov	r1, r3
 8002518:	6c7b      	ldr	r3, [r7, #68]	; 0x44
 800251a:	2200      	movs	r2, #0
 800251c:	61bb      	str	r3, [r7, #24]
 800251e:	61fa      	str	r2, [r7, #28]
 8002520:	e9d7 2306 	ldrd	r2, r3, [r7, #24]
 8002524:	f7fe f814 	bl	8000550 <__aeabi_uldivmod>
 8002528:	4602      	mov	r2, r0
 800252a:	460b      	mov	r3, r1
 800252c:	4613      	mov	r3, r2
 800252e:	64fb      	str	r3, [r7, #76]	; 0x4c
      }
      pllp = ((((RCC->PLLCFGR & RCC_PLLCFGR_PLLP) >> RCC_PLLCFGR_PLLP_Pos) + 1U) *2U);
 8002530:	4b0b      	ldr	r3, [pc, #44]	; (8002560 <HAL_RCC_GetSysClockFreq+0x200>)
 8002532:	685b      	ldr	r3, [r3, #4]
 8002534:	0c1b      	lsrs	r3, r3, #16
 8002536:	f003 0303 	and.w	r3, r3, #3
 800253a:	3301      	adds	r3, #1
 800253c:	005b      	lsls	r3, r3, #1
 800253e:	643b      	str	r3, [r7, #64]	; 0x40

      sysclockfreq = pllvco/pllp;
 8002540:	6cfa      	ldr	r2, [r7, #76]	; 0x4c
 8002542:	6c3b      	ldr	r3, [r7, #64]	; 0x40
 8002544:	fbb2 f3f3 	udiv	r3, r2, r3
 8002548:	64bb      	str	r3, [r7, #72]	; 0x48
      break;
 800254a:	e002      	b.n	8002552 <HAL_RCC_GetSysClockFreq+0x1f2>
    }
    default:
    {
      sysclockfreq = HSI_VALUE;
 800254c:	4b05      	ldr	r3, [pc, #20]	; (8002564 <HAL_RCC_GetSysClockFreq+0x204>)
 800254e:	64bb      	str	r3, [r7, #72]	; 0x48
      break;
 8002550:	bf00      	nop
    }
  }
  return sysclockfreq;
 8002552:	6cbb      	ldr	r3, [r7, #72]	; 0x48
}
 8002554:	4618      	mov	r0, r3
 8002556:	3750      	adds	r7, #80	; 0x50
 8002558:	46bd      	mov	sp, r7
 800255a:	e8bd 8fb0 	ldmia.w	sp!, {r4, r5, r7, r8, r9, sl, fp, pc}
 800255e:	bf00      	nop
 8002560:	40023800 	.word	0x40023800
 8002564:	00f42400 	.word	0x00f42400
 8002568:	007a1200 	.word	0x007a1200

0800256c <HAL_RCC_GetHCLKFreq>:
  * @note   The SystemCoreClock CMSIS variable is used to store System Clock Frequency
  *         and updated within this function
  * @retval HCLK frequency
  */
uint32_t HAL_RCC_GetHCLKFreq(void)
{
 800256c:	b480      	push	{r7}
 800256e:	af00      	add	r7, sp, #0
  return SystemCoreClock;
 8002570:	4b03      	ldr	r3, [pc, #12]	; (8002580 <HAL_RCC_GetHCLKFreq+0x14>)
 8002572:	681b      	ldr	r3, [r3, #0]
}
 8002574:	4618      	mov	r0, r3
 8002576:	46bd      	mov	sp, r7
 8002578:	f85d 7b04 	ldr.w	r7, [sp], #4
 800257c:	4770      	bx	lr
 800257e:	bf00      	nop
 8002580:	2000007c 	.word	0x2000007c

08002584 <HAL_RCC_GetPCLK1Freq>:
  * @note   Each time PCLK1 changes, this function must be called to update the
  *         right PCLK1 value. Otherwise, any configuration based on this function will be incorrect.
  * @retval PCLK1 frequency
  */
uint32_t HAL_RCC_GetPCLK1Freq(void)
{
 8002584:	b580      	push	{r7, lr}
 8002586:	af00      	add	r7, sp, #0
  /* Get HCLK source and Compute PCLK1 frequency ---------------------------*/
  return (HAL_RCC_GetHCLKFreq() >> APBPrescTable[(RCC->CFGR & RCC_CFGR_PPRE1)>> RCC_CFGR_PPRE1_Pos]);
 8002588:	f7ff fff0 	bl	800256c <HAL_RCC_GetHCLKFreq>
 800258c:	4602      	mov	r2, r0
 800258e:	4b05      	ldr	r3, [pc, #20]	; (80025a4 <HAL_RCC_GetPCLK1Freq+0x20>)
 8002590:	689b      	ldr	r3, [r3, #8]
 8002592:	0a9b      	lsrs	r3, r3, #10
 8002594:	f003 0307 	and.w	r3, r3, #7
 8002598:	4903      	ldr	r1, [pc, #12]	; (80025a8 <HAL_RCC_GetPCLK1Freq+0x24>)
 800259a:	5ccb      	ldrb	r3, [r1, r3]
 800259c:	fa22 f303 	lsr.w	r3, r2, r3
}
 80025a0:	4618      	mov	r0, r3
 80025a2:	bd80      	pop	{r7, pc}
 80025a4:	40023800 	.word	0x40023800
 80025a8:	0800383c 	.word	0x0800383c

080025ac <HAL_RCC_GetPCLK2Freq>:
  * @note   Each time PCLK2 changes, this function must be called to update the
  *         right PCLK2 value. Otherwise, any configuration based on this function will be incorrect.
  * @retval PCLK2 frequency
  */
uint32_t HAL_RCC_GetPCLK2Freq(void)
{
 80025ac:	b580      	push	{r7, lr}
 80025ae:	af00      	add	r7, sp, #0
  /* Get HCLK source and Compute PCLK2 frequency ---------------------------*/
  return (HAL_RCC_GetHCLKFreq()>> APBPrescTable[(RCC->CFGR & RCC_CFGR_PPRE2)>> RCC_CFGR_PPRE2_Pos]);
 80025b0:	f7ff ffdc 	bl	800256c <HAL_RCC_GetHCLKFreq>
 80025b4:	4602      	mov	r2, r0
 80025b6:	4b05      	ldr	r3, [pc, #20]	; (80025cc <HAL_RCC_GetPCLK2Freq+0x20>)
 80025b8:	689b      	ldr	r3, [r3, #8]
 80025ba:	0b5b      	lsrs	r3, r3, #13
 80025bc:	f003 0307 	and.w	r3, r3, #7
 80025c0:	4903      	ldr	r1, [pc, #12]	; (80025d0 <HAL_RCC_GetPCLK2Freq+0x24>)
 80025c2:	5ccb      	ldrb	r3, [r1, r3]
 80025c4:	fa22 f303 	lsr.w	r3, r2, r3
}
 80025c8:	4618      	mov	r0, r3
 80025ca:	bd80      	pop	{r7, pc}
 80025cc:	40023800 	.word	0x40023800
 80025d0:	0800383c 	.word	0x0800383c

080025d4 <HAL_UART_Init>:
  * @param  huart  Pointer to a UART_HandleTypeDef structure that contains
  *                the configuration information for the specified UART module.
  * @retval HAL status
  */
HAL_StatusTypeDef HAL_UART_Init(UART_HandleTypeDef *huart)
{
 80025d4:	b580      	push	{r7, lr}
 80025d6:	b082      	sub	sp, #8
 80025d8:	af00      	add	r7, sp, #0
 80025da:	6078      	str	r0, [r7, #4]
  /* Check the UART handle allocation */
  if (huart == NULL)
 80025dc:	687b      	ldr	r3, [r7, #4]
 80025de:	2b00      	cmp	r3, #0
 80025e0:	d101      	bne.n	80025e6 <HAL_UART_Init+0x12>
  {
    return HAL_ERROR;
 80025e2:	2301      	movs	r3, #1
 80025e4:	e03f      	b.n	8002666 <HAL_UART_Init+0x92>
    assert_param(IS_UART_INSTANCE(huart->Instance));
  }
  assert_param(IS_UART_WORD_LENGTH(huart->Init.WordLength));
  assert_param(IS_UART_OVERSAMPLING(huart->Init.OverSampling));

  if (huart->gState == HAL_UART_STATE_RESET)
 80025e6:	687b      	ldr	r3, [r7, #4]
 80025e8:	f893 303d 	ldrb.w	r3, [r3, #61]	; 0x3d
 80025ec:	b2db      	uxtb	r3, r3
 80025ee:	2b00      	cmp	r3, #0
 80025f0:	d106      	bne.n	8002600 <HAL_UART_Init+0x2c>
  {
    /* Allocate lock resource and initialize it */
    huart->Lock = HAL_UNLOCKED;
 80025f2:	687b      	ldr	r3, [r7, #4]
 80025f4:	2200      	movs	r2, #0
 80025f6:	f883 203c 	strb.w	r2, [r3, #60]	; 0x3c

    /* Init the low level hardware */
    huart->MspInitCallback(huart);
#else
    /* Init the low level hardware : GPIO, CLOCK */
    HAL_UART_MspInit(huart);
 80025fa:	6878      	ldr	r0, [r7, #4]
 80025fc:	f7fe feba 	bl	8001374 <HAL_UART_MspInit>
#endif /* (USE_HAL_UART_REGISTER_CALLBACKS) */
  }

  huart->gState = HAL_UART_STATE_BUSY;
 8002600:	687b      	ldr	r3, [r7, #4]
 8002602:	2224      	movs	r2, #36	; 0x24
 8002604:	f883 203d 	strb.w	r2, [r3, #61]	; 0x3d

  /* Disable the peripheral */
  __HAL_UART_DISABLE(huart);
 8002608:	687b      	ldr	r3, [r7, #4]
 800260a:	681b      	ldr	r3, [r3, #0]
 800260c:	68da      	ldr	r2, [r3, #12]
 800260e:	687b      	ldr	r3, [r7, #4]
 8002610:	681b      	ldr	r3, [r3, #0]
 8002612:	f422 5200 	bic.w	r2, r2, #8192	; 0x2000
 8002616:	60da      	str	r2, [r3, #12]

  /* Set the UART Communication parameters */
  UART_SetConfig(huart);
 8002618:	6878      	ldr	r0, [r7, #4]
 800261a:	f000 fddf 	bl	80031dc <UART_SetConfig>

  /* In asynchronous mode, the following bits must be kept cleared:
     - LINEN and CLKEN bits in the USART_CR2 register,
     - SCEN, HDSEL and IREN  bits in the USART_CR3 register.*/
  CLEAR_BIT(huart->Instance->CR2, (USART_CR2_LINEN | USART_CR2_CLKEN));
 800261e:	687b      	ldr	r3, [r7, #4]
 8002620:	681b      	ldr	r3, [r3, #0]
 8002622:	691a      	ldr	r2, [r3, #16]
 8002624:	687b      	ldr	r3, [r7, #4]
 8002626:	681b      	ldr	r3, [r3, #0]
 8002628:	f422 4290 	bic.w	r2, r2, #18432	; 0x4800
 800262c:	611a      	str	r2, [r3, #16]
  CLEAR_BIT(huart->Instance->CR3, (USART_CR3_SCEN | USART_CR3_HDSEL | USART_CR3_IREN));
 800262e:	687b      	ldr	r3, [r7, #4]
 8002630:	681b      	ldr	r3, [r3, #0]
 8002632:	695a      	ldr	r2, [r3, #20]
 8002634:	687b      	ldr	r3, [r7, #4]
 8002636:	681b      	ldr	r3, [r3, #0]
 8002638:	f022 022a 	bic.w	r2, r2, #42	; 0x2a
 800263c:	615a      	str	r2, [r3, #20]

  /* Enable the peripheral */
  __HAL_UART_ENABLE(huart);
 800263e:	687b      	ldr	r3, [r7, #4]
 8002640:	681b      	ldr	r3, [r3, #0]
 8002642:	68da      	ldr	r2, [r3, #12]
 8002644:	687b      	ldr	r3, [r7, #4]
 8002646:	681b      	ldr	r3, [r3, #0]
 8002648:	f442 5200 	orr.w	r2, r2, #8192	; 0x2000
 800264c:	60da      	str	r2, [r3, #12]

  /* Initialize the UART state */
  huart->ErrorCode = HAL_UART_ERROR_NONE;
 800264e:	687b      	ldr	r3, [r7, #4]
 8002650:	2200      	movs	r2, #0
 8002652:	641a      	str	r2, [r3, #64]	; 0x40
  huart->gState = HAL_UART_STATE_READY;
 8002654:	687b      	ldr	r3, [r7, #4]
 8002656:	2220      	movs	r2, #32
 8002658:	f883 203d 	strb.w	r2, [r3, #61]	; 0x3d
  huart->RxState = HAL_UART_STATE_READY;
 800265c:	687b      	ldr	r3, [r7, #4]
 800265e:	2220      	movs	r2, #32
 8002660:	f883 203e 	strb.w	r2, [r3, #62]	; 0x3e

  return HAL_OK;
 8002664:	2300      	movs	r3, #0
}
 8002666:	4618      	mov	r0, r3
 8002668:	3708      	adds	r7, #8
 800266a:	46bd      	mov	sp, r7
 800266c:	bd80      	pop	{r7, pc}

0800266e <HAL_UART_Transmit>:
  * @param  Size  Amount of data elements (u8 or u16) to be sent
  * @param  Timeout Timeout duration
  * @retval HAL status
  */
HAL_StatusTypeDef HAL_UART_Transmit(UART_HandleTypeDef *huart, const uint8_t *pData, uint16_t Size, uint32_t Timeout)
{
 800266e:	b580      	push	{r7, lr}
 8002670:	b08a      	sub	sp, #40	; 0x28
 8002672:	af02      	add	r7, sp, #8
 8002674:	60f8      	str	r0, [r7, #12]
 8002676:	60b9      	str	r1, [r7, #8]
 8002678:	603b      	str	r3, [r7, #0]
 800267a:	4613      	mov	r3, r2
 800267c:	80fb      	strh	r3, [r7, #6]
  const uint8_t  *pdata8bits;
  const uint16_t *pdata16bits;
  uint32_t tickstart = 0U;
 800267e:	2300      	movs	r3, #0
 8002680:	617b      	str	r3, [r7, #20]

  /* Check that a Tx process is not already ongoing */
  if (huart->gState == HAL_UART_STATE_READY)
 8002682:	68fb      	ldr	r3, [r7, #12]
 8002684:	f893 303d 	ldrb.w	r3, [r3, #61]	; 0x3d
 8002688:	b2db      	uxtb	r3, r3
 800268a:	2b20      	cmp	r3, #32
 800268c:	d17c      	bne.n	8002788 <HAL_UART_Transmit+0x11a>
  {
    if ((pData == NULL) || (Size == 0U))
 800268e:	68bb      	ldr	r3, [r7, #8]
 8002690:	2b00      	cmp	r3, #0
 8002692:	d002      	beq.n	800269a <HAL_UART_Transmit+0x2c>
 8002694:	88fb      	ldrh	r3, [r7, #6]
 8002696:	2b00      	cmp	r3, #0
 8002698:	d101      	bne.n	800269e <HAL_UART_Transmit+0x30>
    {
      return  HAL_ERROR;
 800269a:	2301      	movs	r3, #1
 800269c:	e075      	b.n	800278a <HAL_UART_Transmit+0x11c>
    }

    /* Process Locked */
    __HAL_LOCK(huart);
 800269e:	68fb      	ldr	r3, [r7, #12]
 80026a0:	f893 303c 	ldrb.w	r3, [r3, #60]	; 0x3c
 80026a4:	2b01      	cmp	r3, #1
 80026a6:	d101      	bne.n	80026ac <HAL_UART_Transmit+0x3e>
 80026a8:	2302      	movs	r3, #2
 80026aa:	e06e      	b.n	800278a <HAL_UART_Transmit+0x11c>
 80026ac:	68fb      	ldr	r3, [r7, #12]
 80026ae:	2201      	movs	r2, #1
 80026b0:	f883 203c 	strb.w	r2, [r3, #60]	; 0x3c

    huart->ErrorCode = HAL_UART_ERROR_NONE;
 80026b4:	68fb      	ldr	r3, [r7, #12]
 80026b6:	2200      	movs	r2, #0
 80026b8:	641a      	str	r2, [r3, #64]	; 0x40
    huart->gState = HAL_UART_STATE_BUSY_TX;
 80026ba:	68fb      	ldr	r3, [r7, #12]
 80026bc:	2221      	movs	r2, #33	; 0x21
 80026be:	f883 203d 	strb.w	r2, [r3, #61]	; 0x3d

    /* Init tickstart for timeout management */
    tickstart = HAL_GetTick();
 80026c2:	f7fe ff7d 	bl	80015c0 <HAL_GetTick>
 80026c6:	6178      	str	r0, [r7, #20]

    huart->TxXferSize = Size;
 80026c8:	68fb      	ldr	r3, [r7, #12]
 80026ca:	88fa      	ldrh	r2, [r7, #6]
 80026cc:	849a      	strh	r2, [r3, #36]	; 0x24
    huart->TxXferCount = Size;
 80026ce:	68fb      	ldr	r3, [r7, #12]
 80026d0:	88fa      	ldrh	r2, [r7, #6]
 80026d2:	84da      	strh	r2, [r3, #38]	; 0x26

    /* In case of 9bits/No Parity transfer, pData needs to be handled as a uint16_t pointer */
    if ((huart->Init.WordLength == UART_WORDLENGTH_9B) && (huart->Init.Parity == UART_PARITY_NONE))
 80026d4:	68fb      	ldr	r3, [r7, #12]
 80026d6:	689b      	ldr	r3, [r3, #8]
 80026d8:	f5b3 5f80 	cmp.w	r3, #4096	; 0x1000
 80026dc:	d108      	bne.n	80026f0 <HAL_UART_Transmit+0x82>
 80026de:	68fb      	ldr	r3, [r7, #12]
 80026e0:	691b      	ldr	r3, [r3, #16]
 80026e2:	2b00      	cmp	r3, #0
 80026e4:	d104      	bne.n	80026f0 <HAL_UART_Transmit+0x82>
    {
      pdata8bits  = NULL;
 80026e6:	2300      	movs	r3, #0
 80026e8:	61fb      	str	r3, [r7, #28]
      pdata16bits = (const uint16_t *) pData;
 80026ea:	68bb      	ldr	r3, [r7, #8]
 80026ec:	61bb      	str	r3, [r7, #24]
 80026ee:	e003      	b.n	80026f8 <HAL_UART_Transmit+0x8a>
    }
    else
    {
      pdata8bits  = pData;
 80026f0:	68bb      	ldr	r3, [r7, #8]
 80026f2:	61fb      	str	r3, [r7, #28]
      pdata16bits = NULL;
 80026f4:	2300      	movs	r3, #0
 80026f6:	61bb      	str	r3, [r7, #24]
    }

    /* Process Unlocked */
    __HAL_UNLOCK(huart);
 80026f8:	68fb      	ldr	r3, [r7, #12]
 80026fa:	2200      	movs	r2, #0
 80026fc:	f883 203c 	strb.w	r2, [r3, #60]	; 0x3c

    while (huart->TxXferCount > 0U)
 8002700:	e02a      	b.n	8002758 <HAL_UART_Transmit+0xea>
    {
      if (UART_WaitOnFlagUntilTimeout(huart, UART_FLAG_TXE, RESET, tickstart, Timeout) != HAL_OK)
 8002702:	683b      	ldr	r3, [r7, #0]
 8002704:	9300      	str	r3, [sp, #0]
 8002706:	697b      	ldr	r3, [r7, #20]
 8002708:	2200      	movs	r2, #0
 800270a:	2180      	movs	r1, #128	; 0x80
 800270c:	68f8      	ldr	r0, [r7, #12]
 800270e:	f000 fb1f 	bl	8002d50 <UART_WaitOnFlagUntilTimeout>
 8002712:	4603      	mov	r3, r0
 8002714:	2b00      	cmp	r3, #0
 8002716:	d001      	beq.n	800271c <HAL_UART_Transmit+0xae>
      {
        return HAL_TIMEOUT;
 8002718:	2303      	movs	r3, #3
 800271a:	e036      	b.n	800278a <HAL_UART_Transmit+0x11c>
      }
      if (pdata8bits == NULL)
 800271c:	69fb      	ldr	r3, [r7, #28]
 800271e:	2b00      	cmp	r3, #0
 8002720:	d10b      	bne.n	800273a <HAL_UART_Transmit+0xcc>
      {
        huart->Instance->DR = (uint16_t)(*pdata16bits & 0x01FFU);
 8002722:	69bb      	ldr	r3, [r7, #24]
 8002724:	881b      	ldrh	r3, [r3, #0]
 8002726:	461a      	mov	r2, r3
 8002728:	68fb      	ldr	r3, [r7, #12]
 800272a:	681b      	ldr	r3, [r3, #0]
 800272c:	f3c2 0208 	ubfx	r2, r2, #0, #9
 8002730:	605a      	str	r2, [r3, #4]
        pdata16bits++;
 8002732:	69bb      	ldr	r3, [r7, #24]
 8002734:	3302      	adds	r3, #2
 8002736:	61bb      	str	r3, [r7, #24]
 8002738:	e007      	b.n	800274a <HAL_UART_Transmit+0xdc>
      }
      else
      {
        huart->Instance->DR = (uint8_t)(*pdata8bits & 0xFFU);
 800273a:	69fb      	ldr	r3, [r7, #28]
 800273c:	781a      	ldrb	r2, [r3, #0]
 800273e:	68fb      	ldr	r3, [r7, #12]
 8002740:	681b      	ldr	r3, [r3, #0]
 8002742:	605a      	str	r2, [r3, #4]
        pdata8bits++;
 8002744:	69fb      	ldr	r3, [r7, #28]
 8002746:	3301      	adds	r3, #1
 8002748:	61fb      	str	r3, [r7, #28]
      }
      huart->TxXferCount--;
 800274a:	68fb      	ldr	r3, [r7, #12]
 800274c:	8cdb      	ldrh	r3, [r3, #38]	; 0x26
 800274e:	b29b      	uxth	r3, r3
 8002750:	3b01      	subs	r3, #1
 8002752:	b29a      	uxth	r2, r3
 8002754:	68fb      	ldr	r3, [r7, #12]
 8002756:	84da      	strh	r2, [r3, #38]	; 0x26
    while (huart->TxXferCount > 0U)
 8002758:	68fb      	ldr	r3, [r7, #12]
 800275a:	8cdb      	ldrh	r3, [r3, #38]	; 0x26
 800275c:	b29b      	uxth	r3, r3
 800275e:	2b00      	cmp	r3, #0
 8002760:	d1cf      	bne.n	8002702 <HAL_UART_Transmit+0x94>
    }

    if (UART_WaitOnFlagUntilTimeout(huart, UART_FLAG_TC, RESET, tickstart, Timeout) != HAL_OK)
 8002762:	683b      	ldr	r3, [r7, #0]
 8002764:	9300      	str	r3, [sp, #0]
 8002766:	697b      	ldr	r3, [r7, #20]
 8002768:	2200      	movs	r2, #0
 800276a:	2140      	movs	r1, #64	; 0x40
 800276c:	68f8      	ldr	r0, [r7, #12]
 800276e:	f000 faef 	bl	8002d50 <UART_WaitOnFlagUntilTimeout>
 8002772:	4603      	mov	r3, r0
 8002774:	2b00      	cmp	r3, #0
 8002776:	d001      	beq.n	800277c <HAL_UART_Transmit+0x10e>
    {
      return HAL_TIMEOUT;
 8002778:	2303      	movs	r3, #3
 800277a:	e006      	b.n	800278a <HAL_UART_Transmit+0x11c>
    }

    /* At end of Tx process, restore huart->gState to Ready */
    huart->gState = HAL_UART_STATE_READY;
 800277c:	68fb      	ldr	r3, [r7, #12]
 800277e:	2220      	movs	r2, #32
 8002780:	f883 203d 	strb.w	r2, [r3, #61]	; 0x3d

    return HAL_OK;
 8002784:	2300      	movs	r3, #0
 8002786:	e000      	b.n	800278a <HAL_UART_Transmit+0x11c>
  }
  else
  {
    return HAL_BUSY;
 8002788:	2302      	movs	r3, #2
  }
}
 800278a:	4618      	mov	r0, r3
 800278c:	3720      	adds	r7, #32
 800278e:	46bd      	mov	sp, r7
 8002790:	bd80      	pop	{r7, pc}

08002792 <HAL_UART_Receive_IT>:
  * @param  pData Pointer to data buffer (u8 or u16 data elements).
  * @param  Size  Amount of data elements (u8 or u16) to be received.
  * @retval HAL status
  */
HAL_StatusTypeDef HAL_UART_Receive_IT(UART_HandleTypeDef *huart, uint8_t *pData, uint16_t Size)
{
 8002792:	b580      	push	{r7, lr}
 8002794:	b084      	sub	sp, #16
 8002796:	af00      	add	r7, sp, #0
 8002798:	60f8      	str	r0, [r7, #12]
 800279a:	60b9      	str	r1, [r7, #8]
 800279c:	4613      	mov	r3, r2
 800279e:	80fb      	strh	r3, [r7, #6]
  /* Check that a Rx process is not already ongoing */
  if (huart->RxState == HAL_UART_STATE_READY)
 80027a0:	68fb      	ldr	r3, [r7, #12]
 80027a2:	f893 303e 	ldrb.w	r3, [r3, #62]	; 0x3e
 80027a6:	b2db      	uxtb	r3, r3
 80027a8:	2b20      	cmp	r3, #32
 80027aa:	d11d      	bne.n	80027e8 <HAL_UART_Receive_IT+0x56>
  {
    if ((pData == NULL) || (Size == 0U))
 80027ac:	68bb      	ldr	r3, [r7, #8]
 80027ae:	2b00      	cmp	r3, #0
 80027b0:	d002      	beq.n	80027b8 <HAL_UART_Receive_IT+0x26>
 80027b2:	88fb      	ldrh	r3, [r7, #6]
 80027b4:	2b00      	cmp	r3, #0
 80027b6:	d101      	bne.n	80027bc <HAL_UART_Receive_IT+0x2a>
    {
      return HAL_ERROR;
 80027b8:	2301      	movs	r3, #1
 80027ba:	e016      	b.n	80027ea <HAL_UART_Receive_IT+0x58>
    }

    /* Process Locked */
    __HAL_LOCK(huart);
 80027bc:	68fb      	ldr	r3, [r7, #12]
 80027be:	f893 303c 	ldrb.w	r3, [r3, #60]	; 0x3c
 80027c2:	2b01      	cmp	r3, #1
 80027c4:	d101      	bne.n	80027ca <HAL_UART_Receive_IT+0x38>
 80027c6:	2302      	movs	r3, #2
 80027c8:	e00f      	b.n	80027ea <HAL_UART_Receive_IT+0x58>
 80027ca:	68fb      	ldr	r3, [r7, #12]
 80027cc:	2201      	movs	r2, #1
 80027ce:	f883 203c 	strb.w	r2, [r3, #60]	; 0x3c

    /* Set Reception type to Standard reception */
    huart->ReceptionType = HAL_UART_RECEPTION_STANDARD;
 80027d2:	68fb      	ldr	r3, [r7, #12]
 80027d4:	2200      	movs	r2, #0
 80027d6:	631a      	str	r2, [r3, #48]	; 0x30

    return (UART_Start_Receive_IT(huart, pData, Size));
 80027d8:	88fb      	ldrh	r3, [r7, #6]
 80027da:	461a      	mov	r2, r3
 80027dc:	68b9      	ldr	r1, [r7, #8]
 80027de:	68f8      	ldr	r0, [r7, #12]
 80027e0:	f000 fb24 	bl	8002e2c <UART_Start_Receive_IT>
 80027e4:	4603      	mov	r3, r0
 80027e6:	e000      	b.n	80027ea <HAL_UART_Receive_IT+0x58>
  }
  else
  {
    return HAL_BUSY;
 80027e8:	2302      	movs	r3, #2
  }
}
 80027ea:	4618      	mov	r0, r3
 80027ec:	3710      	adds	r7, #16
 80027ee:	46bd      	mov	sp, r7
 80027f0:	bd80      	pop	{r7, pc}
	...

080027f4 <HAL_UART_IRQHandler>:
  * @param  huart  Pointer to a UART_HandleTypeDef structure that contains
  *                the configuration information for the specified UART module.
  * @retval None
  */
void HAL_UART_IRQHandler(UART_HandleTypeDef *huart)
{
 80027f4:	b580      	push	{r7, lr}
 80027f6:	b0ba      	sub	sp, #232	; 0xe8
 80027f8:	af00      	add	r7, sp, #0
 80027fa:	6078      	str	r0, [r7, #4]
  uint32_t isrflags   = READ_REG(huart->Instance->SR);
 80027fc:	687b      	ldr	r3, [r7, #4]
 80027fe:	681b      	ldr	r3, [r3, #0]
 8002800:	681b      	ldr	r3, [r3, #0]
 8002802:	f8c7 30e4 	str.w	r3, [r7, #228]	; 0xe4
  uint32_t cr1its     = READ_REG(huart->Instance->CR1);
 8002806:	687b      	ldr	r3, [r7, #4]
 8002808:	681b      	ldr	r3, [r3, #0]
 800280a:	68db      	ldr	r3, [r3, #12]
 800280c:	f8c7 30e0 	str.w	r3, [r7, #224]	; 0xe0
  uint32_t cr3its     = READ_REG(huart->Instance->CR3);
 8002810:	687b      	ldr	r3, [r7, #4]
 8002812:	681b      	ldr	r3, [r3, #0]
 8002814:	695b      	ldr	r3, [r3, #20]
 8002816:	f8c7 30dc 	str.w	r3, [r7, #220]	; 0xdc
  uint32_t errorflags = 0x00U;
 800281a:	2300      	movs	r3, #0
 800281c:	f8c7 30d8 	str.w	r3, [r7, #216]	; 0xd8
  uint32_t dmarequest = 0x00U;
 8002820:	2300      	movs	r3, #0
 8002822:	f8c7 30d4 	str.w	r3, [r7, #212]	; 0xd4

  /* If no error occurs */
  errorflags = (isrflags & (uint32_t)(USART_SR_PE | USART_SR_FE | USART_SR_ORE | USART_SR_NE));
 8002826:	f8d7 30e4 	ldr.w	r3, [r7, #228]	; 0xe4
 800282a:	f003 030f 	and.w	r3, r3, #15
 800282e:	f8c7 30d8 	str.w	r3, [r7, #216]	; 0xd8
  if (errorflags == RESET)
 8002832:	f8d7 30d8 	ldr.w	r3, [r7, #216]	; 0xd8
 8002836:	2b00      	cmp	r3, #0
 8002838:	d10f      	bne.n	800285a <HAL_UART_IRQHandler+0x66>
  {
    /* UART in mode Receiver -------------------------------------------------*/
    if (((isrflags & USART_SR_RXNE) != RESET) && ((cr1its & USART_CR1_RXNEIE) != RESET))
 800283a:	f8d7 30e4 	ldr.w	r3, [r7, #228]	; 0xe4
 800283e:	f003 0320 	and.w	r3, r3, #32
 8002842:	2b00      	cmp	r3, #0
 8002844:	d009      	beq.n	800285a <HAL_UART_IRQHandler+0x66>
 8002846:	f8d7 30e0 	ldr.w	r3, [r7, #224]	; 0xe0
 800284a:	f003 0320 	and.w	r3, r3, #32
 800284e:	2b00      	cmp	r3, #0
 8002850:	d003      	beq.n	800285a <HAL_UART_IRQHandler+0x66>
    {
      UART_Receive_IT(huart);
 8002852:	6878      	ldr	r0, [r7, #4]
 8002854:	f000 fc07 	bl	8003066 <UART_Receive_IT>
      return;
 8002858:	e256      	b.n	8002d08 <HAL_UART_IRQHandler+0x514>
    }
  }

  /* If some errors occur */
  if ((errorflags != RESET) && (((cr3its & USART_CR3_EIE) != RESET)
 800285a:	f8d7 30d8 	ldr.w	r3, [r7, #216]	; 0xd8
 800285e:	2b00      	cmp	r3, #0
 8002860:	f000 80de 	beq.w	8002a20 <HAL_UART_IRQHandler+0x22c>
 8002864:	f8d7 30dc 	ldr.w	r3, [r7, #220]	; 0xdc
 8002868:	f003 0301 	and.w	r3, r3, #1
 800286c:	2b00      	cmp	r3, #0
 800286e:	d106      	bne.n	800287e <HAL_UART_IRQHandler+0x8a>
                                || ((cr1its & (USART_CR1_RXNEIE | USART_CR1_PEIE)) != RESET)))
 8002870:	f8d7 30e0 	ldr.w	r3, [r7, #224]	; 0xe0
 8002874:	f403 7390 	and.w	r3, r3, #288	; 0x120
 8002878:	2b00      	cmp	r3, #0
 800287a:	f000 80d1 	beq.w	8002a20 <HAL_UART_IRQHandler+0x22c>
  {
    /* UART parity error interrupt occurred ----------------------------------*/
    if (((isrflags & USART_SR_PE) != RESET) && ((cr1its & USART_CR1_PEIE) != RESET))
 800287e:	f8d7 30e4 	ldr.w	r3, [r7, #228]	; 0xe4
 8002882:	f003 0301 	and.w	r3, r3, #1
 8002886:	2b00      	cmp	r3, #0
 8002888:	d00b      	beq.n	80028a2 <HAL_UART_IRQHandler+0xae>
 800288a:	f8d7 30e0 	ldr.w	r3, [r7, #224]	; 0xe0
 800288e:	f403 7380 	and.w	r3, r3, #256	; 0x100
 8002892:	2b00      	cmp	r3, #0
 8002894:	d005      	beq.n	80028a2 <HAL_UART_IRQHandler+0xae>
    {
      huart->ErrorCode |= HAL_UART_ERROR_PE;
 8002896:	687b      	ldr	r3, [r7, #4]
 8002898:	6c1b      	ldr	r3, [r3, #64]	; 0x40
 800289a:	f043 0201 	orr.w	r2, r3, #1
 800289e:	687b      	ldr	r3, [r7, #4]
 80028a0:	641a      	str	r2, [r3, #64]	; 0x40
    }

    /* UART noise error interrupt occurred -----------------------------------*/
    if (((isrflags & USART_SR_NE) != RESET) && ((cr3its & USART_CR3_EIE) != RESET))
 80028a2:	f8d7 30e4 	ldr.w	r3, [r7, #228]	; 0xe4
 80028a6:	f003 0304 	and.w	r3, r3, #4
 80028aa:	2b00      	cmp	r3, #0
 80028ac:	d00b      	beq.n	80028c6 <HAL_UART_IRQHandler+0xd2>
 80028ae:	f8d7 30dc 	ldr.w	r3, [r7, #220]	; 0xdc
 80028b2:	f003 0301 	and.w	r3, r3, #1
 80028b6:	2b00      	cmp	r3, #0
 80028b8:	d005      	beq.n	80028c6 <HAL_UART_IRQHandler+0xd2>
    {
      huart->ErrorCode |= HAL_UART_ERROR_NE;
 80028ba:	687b      	ldr	r3, [r7, #4]
 80028bc:	6c1b      	ldr	r3, [r3, #64]	; 0x40
 80028be:	f043 0202 	orr.w	r2, r3, #2
 80028c2:	687b      	ldr	r3, [r7, #4]
 80028c4:	641a      	str	r2, [r3, #64]	; 0x40
    }

    /* UART frame error interrupt occurred -----------------------------------*/
    if (((isrflags & USART_SR_FE) != RESET) && ((cr3its & USART_CR3_EIE) != RESET))
 80028c6:	f8d7 30e4 	ldr.w	r3, [r7, #228]	; 0xe4
 80028ca:	f003 0302 	and.w	r3, r3, #2
 80028ce:	2b00      	cmp	r3, #0
 80028d0:	d00b      	beq.n	80028ea <HAL_UART_IRQHandler+0xf6>
 80028d2:	f8d7 30dc 	ldr.w	r3, [r7, #220]	; 0xdc
 80028d6:	f003 0301 	and.w	r3, r3, #1
 80028da:	2b00      	cmp	r3, #0
 80028dc:	d005      	beq.n	80028ea <HAL_UART_IRQHandler+0xf6>
    {
      huart->ErrorCode |= HAL_UART_ERROR_FE;
 80028de:	687b      	ldr	r3, [r7, #4]
 80028e0:	6c1b      	ldr	r3, [r3, #64]	; 0x40
 80028e2:	f043 0204 	orr.w	r2, r3, #4
 80028e6:	687b      	ldr	r3, [r7, #4]
 80028e8:	641a      	str	r2, [r3, #64]	; 0x40
    }

    /* UART Over-Run interrupt occurred --------------------------------------*/
    if (((isrflags & USART_SR_ORE) != RESET) && (((cr1its & USART_CR1_RXNEIE) != RESET)
 80028ea:	f8d7 30e4 	ldr.w	r3, [r7, #228]	; 0xe4
 80028ee:	f003 0308 	and.w	r3, r3, #8
 80028f2:	2b00      	cmp	r3, #0
 80028f4:	d011      	beq.n	800291a <HAL_UART_IRQHandler+0x126>
 80028f6:	f8d7 30e0 	ldr.w	r3, [r7, #224]	; 0xe0
 80028fa:	f003 0320 	and.w	r3, r3, #32
 80028fe:	2b00      	cmp	r3, #0
 8002900:	d105      	bne.n	800290e <HAL_UART_IRQHandler+0x11a>
                                                 || ((cr3its & USART_CR3_EIE) != RESET)))
 8002902:	f8d7 30dc 	ldr.w	r3, [r7, #220]	; 0xdc
 8002906:	f003 0301 	and.w	r3, r3, #1
 800290a:	2b00      	cmp	r3, #0
 800290c:	d005      	beq.n	800291a <HAL_UART_IRQHandler+0x126>
    {
      huart->ErrorCode |= HAL_UART_ERROR_ORE;
 800290e:	687b      	ldr	r3, [r7, #4]
 8002910:	6c1b      	ldr	r3, [r3, #64]	; 0x40
 8002912:	f043 0208 	orr.w	r2, r3, #8
 8002916:	687b      	ldr	r3, [r7, #4]
 8002918:	641a      	str	r2, [r3, #64]	; 0x40
    }

    /* Call UART Error Call back function if need be --------------------------*/
    if (huart->ErrorCode != HAL_UART_ERROR_NONE)
 800291a:	687b      	ldr	r3, [r7, #4]
 800291c:	6c1b      	ldr	r3, [r3, #64]	; 0x40
 800291e:	2b00      	cmp	r3, #0
 8002920:	f000 81ed 	beq.w	8002cfe <HAL_UART_IRQHandler+0x50a>
    {
      /* UART in mode Receiver -----------------------------------------------*/
      if (((isrflags & USART_SR_RXNE) != RESET) && ((cr1its & USART_CR1_RXNEIE) != RESET))
 8002924:	f8d7 30e4 	ldr.w	r3, [r7, #228]	; 0xe4
 8002928:	f003 0320 	and.w	r3, r3, #32
 800292c:	2b00      	cmp	r3, #0
 800292e:	d008      	beq.n	8002942 <HAL_UART_IRQHandler+0x14e>
 8002930:	f8d7 30e0 	ldr.w	r3, [r7, #224]	; 0xe0
 8002934:	f003 0320 	and.w	r3, r3, #32
 8002938:	2b00      	cmp	r3, #0
 800293a:	d002      	beq.n	8002942 <HAL_UART_IRQHandler+0x14e>
      {
        UART_Receive_IT(huart);
 800293c:	6878      	ldr	r0, [r7, #4]
 800293e:	f000 fb92 	bl	8003066 <UART_Receive_IT>
      }

      /* If Overrun error occurs, or if any error occurs in DMA mode reception,
         consider error as blocking */
      dmarequest = HAL_IS_BIT_SET(huart->Instance->CR3, USART_CR3_DMAR);
 8002942:	687b      	ldr	r3, [r7, #4]
 8002944:	681b      	ldr	r3, [r3, #0]
 8002946:	695b      	ldr	r3, [r3, #20]
 8002948:	f003 0340 	and.w	r3, r3, #64	; 0x40
 800294c:	2b40      	cmp	r3, #64	; 0x40
 800294e:	bf0c      	ite	eq
 8002950:	2301      	moveq	r3, #1
 8002952:	2300      	movne	r3, #0
 8002954:	b2db      	uxtb	r3, r3
 8002956:	f8c7 30d4 	str.w	r3, [r7, #212]	; 0xd4
      if (((huart->ErrorCode & HAL_UART_ERROR_ORE) != RESET) || dmarequest)
 800295a:	687b      	ldr	r3, [r7, #4]
 800295c:	6c1b      	ldr	r3, [r3, #64]	; 0x40
 800295e:	f003 0308 	and.w	r3, r3, #8
 8002962:	2b00      	cmp	r3, #0
 8002964:	d103      	bne.n	800296e <HAL_UART_IRQHandler+0x17a>
 8002966:	f8d7 30d4 	ldr.w	r3, [r7, #212]	; 0xd4
 800296a:	2b00      	cmp	r3, #0
 800296c:	d04f      	beq.n	8002a0e <HAL_UART_IRQHandler+0x21a>
      {
        /* Blocking error : transfer is aborted
           Set the UART state ready to be able to start again the process,
           Disable Rx Interrupts, and disable Rx DMA request, if ongoing */
        UART_EndRxTransfer(huart);
 800296e:	6878      	ldr	r0, [r7, #4]
 8002970:	f000 fa9a 	bl	8002ea8 <UART_EndRxTransfer>

        /* Disable the UART DMA Rx request if enabled */
        if (HAL_IS_BIT_SET(huart->Instance->CR3, USART_CR3_DMAR))
 8002974:	687b      	ldr	r3, [r7, #4]
 8002976:	681b      	ldr	r3, [r3, #0]
 8002978:	695b      	ldr	r3, [r3, #20]
 800297a:	f003 0340 	and.w	r3, r3, #64	; 0x40
 800297e:	2b40      	cmp	r3, #64	; 0x40
 8002980:	d141      	bne.n	8002a06 <HAL_UART_IRQHandler+0x212>
        {
          ATOMIC_CLEAR_BIT(huart->Instance->CR3, USART_CR3_DMAR);
 8002982:	687b      	ldr	r3, [r7, #4]
 8002984:	681b      	ldr	r3, [r3, #0]
 8002986:	3314      	adds	r3, #20
 8002988:	f8c7 309c 	str.w	r3, [r7, #156]	; 0x9c
 */
__STATIC_FORCEINLINE uint32_t __LDREXW(volatile uint32_t *addr)
{
    uint32_t result;

   __ASM volatile ("ldrex %0, %1" : "=r" (result) : "Q" (*addr) );
 800298c:	f8d7 309c 	ldr.w	r3, [r7, #156]	; 0x9c
 8002990:	e853 3f00 	ldrex	r3, [r3]
 8002994:	f8c7 3098 	str.w	r3, [r7, #152]	; 0x98
   return(result);
 8002998:	f8d7 3098 	ldr.w	r3, [r7, #152]	; 0x98
 800299c:	f023 0340 	bic.w	r3, r3, #64	; 0x40
 80029a0:	f8c7 30d0 	str.w	r3, [r7, #208]	; 0xd0
 80029a4:	687b      	ldr	r3, [r7, #4]
 80029a6:	681b      	ldr	r3, [r3, #0]
 80029a8:	3314      	adds	r3, #20
 80029aa:	f8d7 20d0 	ldr.w	r2, [r7, #208]	; 0xd0
 80029ae:	f8c7 20a8 	str.w	r2, [r7, #168]	; 0xa8
 80029b2:	f8c7 30a4 	str.w	r3, [r7, #164]	; 0xa4
 */
__STATIC_FORCEINLINE uint32_t __STREXW(uint32_t value, volatile uint32_t *addr)
{
   uint32_t result;

   __ASM volatile ("strex %0, %2, %1" : "=&r" (result), "=Q" (*addr) : "r" (value) );
 80029b6:	f8d7 10a4 	ldr.w	r1, [r7, #164]	; 0xa4
 80029ba:	f8d7 20a8 	ldr.w	r2, [r7, #168]	; 0xa8
 80029be:	e841 2300 	strex	r3, r2, [r1]
 80029c2:	f8c7 30a0 	str.w	r3, [r7, #160]	; 0xa0
   return(result);
 80029c6:	f8d7 30a0 	ldr.w	r3, [r7, #160]	; 0xa0
 80029ca:	2b00      	cmp	r3, #0
 80029cc:	d1d9      	bne.n	8002982 <HAL_UART_IRQHandler+0x18e>

          /* Abort the UART DMA Rx stream */
          if (huart->hdmarx != NULL)
 80029ce:	687b      	ldr	r3, [r7, #4]
 80029d0:	6b9b      	ldr	r3, [r3, #56]	; 0x38
 80029d2:	2b00      	cmp	r3, #0
 80029d4:	d013      	beq.n	80029fe <HAL_UART_IRQHandler+0x20a>
          {
            /* Set the UART DMA Abort callback :
               will lead to call HAL_UART_ErrorCallback() at end of DMA abort procedure */
            huart->hdmarx->XferAbortCallback = UART_DMAAbortOnError;
 80029d6:	687b      	ldr	r3, [r7, #4]
 80029d8:	6b9b      	ldr	r3, [r3, #56]	; 0x38
 80029da:	4a7d      	ldr	r2, [pc, #500]	; (8002bd0 <HAL_UART_IRQHandler+0x3dc>)
 80029dc:	651a      	str	r2, [r3, #80]	; 0x50
            if (HAL_DMA_Abort_IT(huart->hdmarx) != HAL_OK)
 80029de:	687b      	ldr	r3, [r7, #4]
 80029e0:	6b9b      	ldr	r3, [r3, #56]	; 0x38
 80029e2:	4618      	mov	r0, r3
 80029e4:	f7fe ff9d 	bl	8001922 <HAL_DMA_Abort_IT>
 80029e8:	4603      	mov	r3, r0
 80029ea:	2b00      	cmp	r3, #0
 80029ec:	d016      	beq.n	8002a1c <HAL_UART_IRQHandler+0x228>
            {
              /* Call Directly XferAbortCallback function in case of error */
              huart->hdmarx->XferAbortCallback(huart->hdmarx);
 80029ee:	687b      	ldr	r3, [r7, #4]
 80029f0:	6b9b      	ldr	r3, [r3, #56]	; 0x38
 80029f2:	6d1b      	ldr	r3, [r3, #80]	; 0x50
 80029f4:	687a      	ldr	r2, [r7, #4]
 80029f6:	6b92      	ldr	r2, [r2, #56]	; 0x38
 80029f8:	4610      	mov	r0, r2
 80029fa:	4798      	blx	r3
        if (HAL_IS_BIT_SET(huart->Instance->CR3, USART_CR3_DMAR))
 80029fc:	e00e      	b.n	8002a1c <HAL_UART_IRQHandler+0x228>
#if (USE_HAL_UART_REGISTER_CALLBACKS == 1)
            /*Call registered error callback*/
            huart->ErrorCallback(huart);
#else
            /*Call legacy weak error callback*/
            HAL_UART_ErrorCallback(huart);
 80029fe:	6878      	ldr	r0, [r7, #4]
 8002a00:	f000 f990 	bl	8002d24 <HAL_UART_ErrorCallback>
        if (HAL_IS_BIT_SET(huart->Instance->CR3, USART_CR3_DMAR))
 8002a04:	e00a      	b.n	8002a1c <HAL_UART_IRQHandler+0x228>
#if (USE_HAL_UART_REGISTER_CALLBACKS == 1)
          /*Call registered error callback*/
          huart->ErrorCallback(huart);
#else
          /*Call legacy weak error callback*/
          HAL_UART_ErrorCallback(huart);
 8002a06:	6878      	ldr	r0, [r7, #4]
 8002a08:	f000 f98c 	bl	8002d24 <HAL_UART_ErrorCallback>
        if (HAL_IS_BIT_SET(huart->Instance->CR3, USART_CR3_DMAR))
 8002a0c:	e006      	b.n	8002a1c <HAL_UART_IRQHandler+0x228>
#if (USE_HAL_UART_REGISTER_CALLBACKS == 1)
        /*Call registered error callback*/
        huart->ErrorCallback(huart);
#else
        /*Call legacy weak error callback*/
        HAL_UART_ErrorCallback(huart);
 8002a0e:	6878      	ldr	r0, [r7, #4]
 8002a10:	f000 f988 	bl	8002d24 <HAL_UART_ErrorCallback>
#endif /* USE_HAL_UART_REGISTER_CALLBACKS */

        huart->ErrorCode = HAL_UART_ERROR_NONE;
 8002a14:	687b      	ldr	r3, [r7, #4]
 8002a16:	2200      	movs	r2, #0
 8002a18:	641a      	str	r2, [r3, #64]	; 0x40
      }
    }
    return;
 8002a1a:	e170      	b.n	8002cfe <HAL_UART_IRQHandler+0x50a>
        if (HAL_IS_BIT_SET(huart->Instance->CR3, USART_CR3_DMAR))
 8002a1c:	bf00      	nop
    return;
 8002a1e:	e16e      	b.n	8002cfe <HAL_UART_IRQHandler+0x50a>
  } /* End if some error occurs */

  /* Check current reception Mode :
     If Reception till IDLE event has been selected : */
  if ((huart->ReceptionType == HAL_UART_RECEPTION_TOIDLE)
 8002a20:	687b      	ldr	r3, [r7, #4]
 8002a22:	6b1b      	ldr	r3, [r3, #48]	; 0x30
 8002a24:	2b01      	cmp	r3, #1
 8002a26:	f040 814a 	bne.w	8002cbe <HAL_UART_IRQHandler+0x4ca>
      && ((isrflags & USART_SR_IDLE) != 0U)
 8002a2a:	f8d7 30e4 	ldr.w	r3, [r7, #228]	; 0xe4
 8002a2e:	f003 0310 	and.w	r3, r3, #16
 8002a32:	2b00      	cmp	r3, #0
 8002a34:	f000 8143 	beq.w	8002cbe <HAL_UART_IRQHandler+0x4ca>
      && ((cr1its & USART_SR_IDLE) != 0U))
 8002a38:	f8d7 30e0 	ldr.w	r3, [r7, #224]	; 0xe0
 8002a3c:	f003 0310 	and.w	r3, r3, #16
 8002a40:	2b00      	cmp	r3, #0
 8002a42:	f000 813c 	beq.w	8002cbe <HAL_UART_IRQHandler+0x4ca>
  {
    __HAL_UART_CLEAR_IDLEFLAG(huart);
 8002a46:	2300      	movs	r3, #0
 8002a48:	60bb      	str	r3, [r7, #8]
 8002a4a:	687b      	ldr	r3, [r7, #4]
 8002a4c:	681b      	ldr	r3, [r3, #0]
 8002a4e:	681b      	ldr	r3, [r3, #0]
 8002a50:	60bb      	str	r3, [r7, #8]
 8002a52:	687b      	ldr	r3, [r7, #4]
 8002a54:	681b      	ldr	r3, [r3, #0]
 8002a56:	685b      	ldr	r3, [r3, #4]
 8002a58:	60bb      	str	r3, [r7, #8]
 8002a5a:	68bb      	ldr	r3, [r7, #8]

    /* Check if DMA mode is enabled in UART */
    if (HAL_IS_BIT_SET(huart->Instance->CR3, USART_CR3_DMAR))
 8002a5c:	687b      	ldr	r3, [r7, #4]
 8002a5e:	681b      	ldr	r3, [r3, #0]
 8002a60:	695b      	ldr	r3, [r3, #20]
 8002a62:	f003 0340 	and.w	r3, r3, #64	; 0x40
 8002a66:	2b40      	cmp	r3, #64	; 0x40
 8002a68:	f040 80b4 	bne.w	8002bd4 <HAL_UART_IRQHandler+0x3e0>
    {
      /* DMA mode enabled */
      /* Check received length : If all expected data are received, do nothing,
         (DMA cplt callback will be called).
         Otherwise, if at least one data has already been received, IDLE event is to be notified to user */
      uint16_t nb_remaining_rx_data = (uint16_t) __HAL_DMA_GET_COUNTER(huart->hdmarx);
 8002a6c:	687b      	ldr	r3, [r7, #4]
 8002a6e:	6b9b      	ldr	r3, [r3, #56]	; 0x38
 8002a70:	681b      	ldr	r3, [r3, #0]
 8002a72:	685b      	ldr	r3, [r3, #4]
 8002a74:	f8a7 30be 	strh.w	r3, [r7, #190]	; 0xbe
      if ((nb_remaining_rx_data > 0U)
 8002a78:	f8b7 30be 	ldrh.w	r3, [r7, #190]	; 0xbe
 8002a7c:	2b00      	cmp	r3, #0
 8002a7e:	f000 8140 	beq.w	8002d02 <HAL_UART_IRQHandler+0x50e>
          && (nb_remaining_rx_data < huart->RxXferSize))
 8002a82:	687b      	ldr	r3, [r7, #4]
 8002a84:	8d9b      	ldrh	r3, [r3, #44]	; 0x2c
 8002a86:	f8b7 20be 	ldrh.w	r2, [r7, #190]	; 0xbe
 8002a8a:	429a      	cmp	r2, r3
 8002a8c:	f080 8139 	bcs.w	8002d02 <HAL_UART_IRQHandler+0x50e>
      {
        /* Reception is not complete */
        huart->RxXferCount = nb_remaining_rx_data;
 8002a90:	687b      	ldr	r3, [r7, #4]
 8002a92:	f8b7 20be 	ldrh.w	r2, [r7, #190]	; 0xbe
 8002a96:	85da      	strh	r2, [r3, #46]	; 0x2e

        /* In Normal mode, end DMA xfer and HAL UART Rx process*/
        if (huart->hdmarx->Init.Mode != DMA_CIRCULAR)
 8002a98:	687b      	ldr	r3, [r7, #4]
 8002a9a:	6b9b      	ldr	r3, [r3, #56]	; 0x38
 8002a9c:	69db      	ldr	r3, [r3, #28]
 8002a9e:	f5b3 7f80 	cmp.w	r3, #256	; 0x100
 8002aa2:	f000 8088 	beq.w	8002bb6 <HAL_UART_IRQHandler+0x3c2>
        {
          /* Disable PE and ERR (Frame error, noise error, overrun error) interrupts */
          ATOMIC_CLEAR_BIT(huart->Instance->CR1, USART_CR1_PEIE);
 8002aa6:	687b      	ldr	r3, [r7, #4]
 8002aa8:	681b      	ldr	r3, [r3, #0]
 8002aaa:	330c      	adds	r3, #12
 8002aac:	f8c7 3088 	str.w	r3, [r7, #136]	; 0x88
   __ASM volatile ("ldrex %0, %1" : "=r" (result) : "Q" (*addr) );
 8002ab0:	f8d7 3088 	ldr.w	r3, [r7, #136]	; 0x88
 8002ab4:	e853 3f00 	ldrex	r3, [r3]
 8002ab8:	f8c7 3084 	str.w	r3, [r7, #132]	; 0x84
   return(result);
 8002abc:	f8d7 3084 	ldr.w	r3, [r7, #132]	; 0x84
 8002ac0:	f423 7380 	bic.w	r3, r3, #256	; 0x100
 8002ac4:	f8c7 30b8 	str.w	r3, [r7, #184]	; 0xb8
 8002ac8:	687b      	ldr	r3, [r7, #4]
 8002aca:	681b      	ldr	r3, [r3, #0]
 8002acc:	330c      	adds	r3, #12
 8002ace:	f8d7 20b8 	ldr.w	r2, [r7, #184]	; 0xb8
 8002ad2:	f8c7 2094 	str.w	r2, [r7, #148]	; 0x94
 8002ad6:	f8c7 3090 	str.w	r3, [r7, #144]	; 0x90
   __ASM volatile ("strex %0, %2, %1" : "=&r" (result), "=Q" (*addr) : "r" (value) );
 8002ada:	f8d7 1090 	ldr.w	r1, [r7, #144]	; 0x90
 8002ade:	f8d7 2094 	ldr.w	r2, [r7, #148]	; 0x94
 8002ae2:	e841 2300 	strex	r3, r2, [r1]
 8002ae6:	f8c7 308c 	str.w	r3, [r7, #140]	; 0x8c
   return(result);
 8002aea:	f8d7 308c 	ldr.w	r3, [r7, #140]	; 0x8c
 8002aee:	2b00      	cmp	r3, #0
 8002af0:	d1d9      	bne.n	8002aa6 <HAL_UART_IRQHandler+0x2b2>
          ATOMIC_CLEAR_BIT(huart->Instance->CR3, USART_CR3_EIE);
 8002af2:	687b      	ldr	r3, [r7, #4]
 8002af4:	681b      	ldr	r3, [r3, #0]
 8002af6:	3314      	adds	r3, #20
 8002af8:	677b      	str	r3, [r7, #116]	; 0x74
   __ASM volatile ("ldrex %0, %1" : "=r" (result) : "Q" (*addr) );
 8002afa:	6f7b      	ldr	r3, [r7, #116]	; 0x74
 8002afc:	e853 3f00 	ldrex	r3, [r3]
 8002b00:	673b      	str	r3, [r7, #112]	; 0x70
   return(result);
 8002b02:	6f3b      	ldr	r3, [r7, #112]	; 0x70
 8002b04:	f023 0301 	bic.w	r3, r3, #1
 8002b08:	f8c7 30b4 	str.w	r3, [r7, #180]	; 0xb4
 8002b0c:	687b      	ldr	r3, [r7, #4]
 8002b0e:	681b      	ldr	r3, [r3, #0]
 8002b10:	3314      	adds	r3, #20
 8002b12:	f8d7 20b4 	ldr.w	r2, [r7, #180]	; 0xb4
 8002b16:	f8c7 2080 	str.w	r2, [r7, #128]	; 0x80
 8002b1a:	67fb      	str	r3, [r7, #124]	; 0x7c
   __ASM volatile ("strex %0, %2, %1" : "=&r" (result), "=Q" (*addr) : "r" (value) );
 8002b1c:	6ff9      	ldr	r1, [r7, #124]	; 0x7c
 8002b1e:	f8d7 2080 	ldr.w	r2, [r7, #128]	; 0x80
 8002b22:	e841 2300 	strex	r3, r2, [r1]
 8002b26:	67bb      	str	r3, [r7, #120]	; 0x78
   return(result);
 8002b28:	6fbb      	ldr	r3, [r7, #120]	; 0x78
 8002b2a:	2b00      	cmp	r3, #0
 8002b2c:	d1e1      	bne.n	8002af2 <HAL_UART_IRQHandler+0x2fe>

          /* Disable the DMA transfer for the receiver request by resetting the DMAR bit
             in the UART CR3 register */
          ATOMIC_CLEAR_BIT(huart->Instance->CR3, USART_CR3_DMAR);
 8002b2e:	687b      	ldr	r3, [r7, #4]
 8002b30:	681b      	ldr	r3, [r3, #0]
 8002b32:	3314      	adds	r3, #20
 8002b34:	663b      	str	r3, [r7, #96]	; 0x60
   __ASM volatile ("ldrex %0, %1" : "=r" (result) : "Q" (*addr) );
 8002b36:	6e3b      	ldr	r3, [r7, #96]	; 0x60
 8002b38:	e853 3f00 	ldrex	r3, [r3]
 8002b3c:	65fb      	str	r3, [r7, #92]	; 0x5c
   return(result);
 8002b3e:	6dfb      	ldr	r3, [r7, #92]	; 0x5c
 8002b40:	f023 0340 	bic.w	r3, r3, #64	; 0x40
 8002b44:	f8c7 30b0 	str.w	r3, [r7, #176]	; 0xb0
 8002b48:	687b      	ldr	r3, [r7, #4]
 8002b4a:	681b      	ldr	r3, [r3, #0]
 8002b4c:	3314      	adds	r3, #20
 8002b4e:	f8d7 20b0 	ldr.w	r2, [r7, #176]	; 0xb0
 8002b52:	66fa      	str	r2, [r7, #108]	; 0x6c
 8002b54:	66bb      	str	r3, [r7, #104]	; 0x68
   __ASM volatile ("strex %0, %2, %1" : "=&r" (result), "=Q" (*addr) : "r" (value) );
 8002b56:	6eb9      	ldr	r1, [r7, #104]	; 0x68
 8002b58:	6efa      	ldr	r2, [r7, #108]	; 0x6c
 8002b5a:	e841 2300 	strex	r3, r2, [r1]
 8002b5e:	667b      	str	r3, [r7, #100]	; 0x64
   return(result);
 8002b60:	6e7b      	ldr	r3, [r7, #100]	; 0x64
 8002b62:	2b00      	cmp	r3, #0
 8002b64:	d1e3      	bne.n	8002b2e <HAL_UART_IRQHandler+0x33a>

          /* At end of Rx process, restore huart->RxState to Ready */
          huart->RxState = HAL_UART_STATE_READY;
 8002b66:	687b      	ldr	r3, [r7, #4]
 8002b68:	2220      	movs	r2, #32
 8002b6a:	f883 203e 	strb.w	r2, [r3, #62]	; 0x3e
          huart->ReceptionType = HAL_UART_RECEPTION_STANDARD;
 8002b6e:	687b      	ldr	r3, [r7, #4]
 8002b70:	2200      	movs	r2, #0
 8002b72:	631a      	str	r2, [r3, #48]	; 0x30

          ATOMIC_CLEAR_BIT(huart->Instance->CR1, USART_CR1_IDLEIE);
 8002b74:	687b      	ldr	r3, [r7, #4]
 8002b76:	681b      	ldr	r3, [r3, #0]
 8002b78:	330c      	adds	r3, #12
 8002b7a:	64fb      	str	r3, [r7, #76]	; 0x4c
   __ASM volatile ("ldrex %0, %1" : "=r" (result) : "Q" (*addr) );
 8002b7c:	6cfb      	ldr	r3, [r7, #76]	; 0x4c
 8002b7e:	e853 3f00 	ldrex	r3, [r3]
 8002b82:	64bb      	str	r3, [r7, #72]	; 0x48
   return(result);
 8002b84:	6cbb      	ldr	r3, [r7, #72]	; 0x48
 8002b86:	f023 0310 	bic.w	r3, r3, #16
 8002b8a:	f8c7 30ac 	str.w	r3, [r7, #172]	; 0xac
 8002b8e:	687b      	ldr	r3, [r7, #4]
 8002b90:	681b      	ldr	r3, [r3, #0]
 8002b92:	330c      	adds	r3, #12
 8002b94:	f8d7 20ac 	ldr.w	r2, [r7, #172]	; 0xac
 8002b98:	65ba      	str	r2, [r7, #88]	; 0x58
 8002b9a:	657b      	str	r3, [r7, #84]	; 0x54
   __ASM volatile ("strex %0, %2, %1" : "=&r" (result), "=Q" (*addr) : "r" (value) );
 8002b9c:	6d79      	ldr	r1, [r7, #84]	; 0x54
 8002b9e:	6dba      	ldr	r2, [r7, #88]	; 0x58
 8002ba0:	e841 2300 	strex	r3, r2, [r1]
 8002ba4:	653b      	str	r3, [r7, #80]	; 0x50
   return(result);
 8002ba6:	6d3b      	ldr	r3, [r7, #80]	; 0x50
 8002ba8:	2b00      	cmp	r3, #0
 8002baa:	d1e3      	bne.n	8002b74 <HAL_UART_IRQHandler+0x380>

          /* Last bytes received, so no need as the abort is immediate */
          (void)HAL_DMA_Abort(huart->hdmarx);
 8002bac:	687b      	ldr	r3, [r7, #4]
 8002bae:	6b9b      	ldr	r3, [r3, #56]	; 0x38
 8002bb0:	4618      	mov	r0, r3
 8002bb2:	f7fe fe46 	bl	8001842 <HAL_DMA_Abort>
#if (USE_HAL_UART_REGISTER_CALLBACKS == 1)
        /*Call registered Rx Event callback*/
        huart->RxEventCallback(huart, (huart->RxXferSize - huart->RxXferCount));
#else
        /*Call legacy weak Rx Event callback*/
        HAL_UARTEx_RxEventCallback(huart, (huart->RxXferSize - huart->RxXferCount));
 8002bb6:	687b      	ldr	r3, [r7, #4]
 8002bb8:	8d9a      	ldrh	r2, [r3, #44]	; 0x2c
 8002bba:	687b      	ldr	r3, [r7, #4]
 8002bbc:	8ddb      	ldrh	r3, [r3, #46]	; 0x2e
 8002bbe:	b29b      	uxth	r3, r3
 8002bc0:	1ad3      	subs	r3, r2, r3
 8002bc2:	b29b      	uxth	r3, r3
 8002bc4:	4619      	mov	r1, r3
 8002bc6:	6878      	ldr	r0, [r7, #4]
 8002bc8:	f000 f8b6 	bl	8002d38 <HAL_UARTEx_RxEventCallback>
#endif /* USE_HAL_UART_REGISTER_CALLBACKS */
      }
      return;
 8002bcc:	e099      	b.n	8002d02 <HAL_UART_IRQHandler+0x50e>
 8002bce:	bf00      	nop
 8002bd0:	08002f6f 	.word	0x08002f6f
    else
    {
      /* DMA mode not enabled */
      /* Check received length : If all expected data are received, do nothing.
         Otherwise, if at least one data has already been received, IDLE event is to be notified to user */
      uint16_t nb_rx_data = huart->RxXferSize - huart->RxXferCount;
 8002bd4:	687b      	ldr	r3, [r7, #4]
 8002bd6:	8d9a      	ldrh	r2, [r3, #44]	; 0x2c
 8002bd8:	687b      	ldr	r3, [r7, #4]
 8002bda:	8ddb      	ldrh	r3, [r3, #46]	; 0x2e
 8002bdc:	b29b      	uxth	r3, r3
 8002bde:	1ad3      	subs	r3, r2, r3
 8002be0:	f8a7 30ce 	strh.w	r3, [r7, #206]	; 0xce
      if ((huart->RxXferCount > 0U)
 8002be4:	687b      	ldr	r3, [r7, #4]
 8002be6:	8ddb      	ldrh	r3, [r3, #46]	; 0x2e
 8002be8:	b29b      	uxth	r3, r3
 8002bea:	2b00      	cmp	r3, #0
 8002bec:	f000 808b 	beq.w	8002d06 <HAL_UART_IRQHandler+0x512>
          && (nb_rx_data > 0U))
 8002bf0:	f8b7 30ce 	ldrh.w	r3, [r7, #206]	; 0xce
 8002bf4:	2b00      	cmp	r3, #0
 8002bf6:	f000 8086 	beq.w	8002d06 <HAL_UART_IRQHandler+0x512>
      {
        /* Disable the UART Parity Error Interrupt and RXNE interrupts */
        ATOMIC_CLEAR_BIT(huart->Instance->CR1, (USART_CR1_RXNEIE | USART_CR1_PEIE));
 8002bfa:	687b      	ldr	r3, [r7, #4]
 8002bfc:	681b      	ldr	r3, [r3, #0]
 8002bfe:	330c      	adds	r3, #12
 8002c00:	63bb      	str	r3, [r7, #56]	; 0x38
   __ASM volatile ("ldrex %0, %1" : "=r" (result) : "Q" (*addr) );
 8002c02:	6bbb      	ldr	r3, [r7, #56]	; 0x38
 8002c04:	e853 3f00 	ldrex	r3, [r3]
 8002c08:	637b      	str	r3, [r7, #52]	; 0x34
   return(result);
 8002c0a:	6b7b      	ldr	r3, [r7, #52]	; 0x34
 8002c0c:	f423 7390 	bic.w	r3, r3, #288	; 0x120
 8002c10:	f8c7 30c8 	str.w	r3, [r7, #200]	; 0xc8
 8002c14:	687b      	ldr	r3, [r7, #4]
 8002c16:	681b      	ldr	r3, [r3, #0]
 8002c18:	330c      	adds	r3, #12
 8002c1a:	f8d7 20c8 	ldr.w	r2, [r7, #200]	; 0xc8
 8002c1e:	647a      	str	r2, [r7, #68]	; 0x44
 8002c20:	643b      	str	r3, [r7, #64]	; 0x40
   __ASM volatile ("strex %0, %2, %1" : "=&r" (result), "=Q" (*addr) : "r" (value) );
 8002c22:	6c39      	ldr	r1, [r7, #64]	; 0x40
 8002c24:	6c7a      	ldr	r2, [r7, #68]	; 0x44
 8002c26:	e841 2300 	strex	r3, r2, [r1]
 8002c2a:	63fb      	str	r3, [r7, #60]	; 0x3c
   return(result);
 8002c2c:	6bfb      	ldr	r3, [r7, #60]	; 0x3c
 8002c2e:	2b00      	cmp	r3, #0
 8002c30:	d1e3      	bne.n	8002bfa <HAL_UART_IRQHandler+0x406>

        /* Disable the UART Error Interrupt: (Frame error, noise error, overrun error) */
        ATOMIC_CLEAR_BIT(huart->Instance->CR3, USART_CR3_EIE);
 8002c32:	687b      	ldr	r3, [r7, #4]
 8002c34:	681b      	ldr	r3, [r3, #0]
 8002c36:	3314      	adds	r3, #20
 8002c38:	627b      	str	r3, [r7, #36]	; 0x24
   __ASM volatile ("ldrex %0, %1" : "=r" (result) : "Q" (*addr) );
 8002c3a:	6a7b      	ldr	r3, [r7, #36]	; 0x24
 8002c3c:	e853 3f00 	ldrex	r3, [r3]
 8002c40:	623b      	str	r3, [r7, #32]
   return(result);
 8002c42:	6a3b      	ldr	r3, [r7, #32]
 8002c44:	f023 0301 	bic.w	r3, r3, #1
 8002c48:	f8c7 30c4 	str.w	r3, [r7, #196]	; 0xc4
 8002c4c:	687b      	ldr	r3, [r7, #4]
 8002c4e:	681b      	ldr	r3, [r3, #0]
 8002c50:	3314      	adds	r3, #20
 8002c52:	f8d7 20c4 	ldr.w	r2, [r7, #196]	; 0xc4
 8002c56:	633a      	str	r2, [r7, #48]	; 0x30
 8002c58:	62fb      	str	r3, [r7, #44]	; 0x2c
   __ASM volatile ("strex %0, %2, %1" : "=&r" (result), "=Q" (*addr) : "r" (value) );
 8002c5a:	6af9      	ldr	r1, [r7, #44]	; 0x2c
 8002c5c:	6b3a      	ldr	r2, [r7, #48]	; 0x30
 8002c5e:	e841 2300 	strex	r3, r2, [r1]
 8002c62:	62bb      	str	r3, [r7, #40]	; 0x28
   return(result);
 8002c64:	6abb      	ldr	r3, [r7, #40]	; 0x28
 8002c66:	2b00      	cmp	r3, #0
 8002c68:	d1e3      	bne.n	8002c32 <HAL_UART_IRQHandler+0x43e>

        /* Rx process is completed, restore huart->RxState to Ready */
        huart->RxState = HAL_UART_STATE_READY;
 8002c6a:	687b      	ldr	r3, [r7, #4]
 8002c6c:	2220      	movs	r2, #32
 8002c6e:	f883 203e 	strb.w	r2, [r3, #62]	; 0x3e
        huart->ReceptionType = HAL_UART_RECEPTION_STANDARD;
 8002c72:	687b      	ldr	r3, [r7, #4]
 8002c74:	2200      	movs	r2, #0
 8002c76:	631a      	str	r2, [r3, #48]	; 0x30

        ATOMIC_CLEAR_BIT(huart->Instance->CR1, USART_CR1_IDLEIE);
 8002c78:	687b      	ldr	r3, [r7, #4]
 8002c7a:	681b      	ldr	r3, [r3, #0]
 8002c7c:	330c      	adds	r3, #12
 8002c7e:	613b      	str	r3, [r7, #16]
   __ASM volatile ("ldrex %0, %1" : "=r" (result) : "Q" (*addr) );
 8002c80:	693b      	ldr	r3, [r7, #16]
 8002c82:	e853 3f00 	ldrex	r3, [r3]
 8002c86:	60fb      	str	r3, [r7, #12]
   return(result);
 8002c88:	68fb      	ldr	r3, [r7, #12]
 8002c8a:	f023 0310 	bic.w	r3, r3, #16
 8002c8e:	f8c7 30c0 	str.w	r3, [r7, #192]	; 0xc0
 8002c92:	687b      	ldr	r3, [r7, #4]
 8002c94:	681b      	ldr	r3, [r3, #0]
 8002c96:	330c      	adds	r3, #12
 8002c98:	f8d7 20c0 	ldr.w	r2, [r7, #192]	; 0xc0
 8002c9c:	61fa      	str	r2, [r7, #28]
 8002c9e:	61bb      	str	r3, [r7, #24]
   __ASM volatile ("strex %0, %2, %1" : "=&r" (result), "=Q" (*addr) : "r" (value) );
 8002ca0:	69b9      	ldr	r1, [r7, #24]
 8002ca2:	69fa      	ldr	r2, [r7, #28]
 8002ca4:	e841 2300 	strex	r3, r2, [r1]
 8002ca8:	617b      	str	r3, [r7, #20]
   return(result);
 8002caa:	697b      	ldr	r3, [r7, #20]
 8002cac:	2b00      	cmp	r3, #0
 8002cae:	d1e3      	bne.n	8002c78 <HAL_UART_IRQHandler+0x484>
#if (USE_HAL_UART_REGISTER_CALLBACKS == 1)
        /*Call registered Rx complete callback*/
        huart->RxEventCallback(huart, nb_rx_data);
#else
        /*Call legacy weak Rx Event callback*/
        HAL_UARTEx_RxEventCallback(huart, nb_rx_data);
 8002cb0:	f8b7 30ce 	ldrh.w	r3, [r7, #206]	; 0xce
 8002cb4:	4619      	mov	r1, r3
 8002cb6:	6878      	ldr	r0, [r7, #4]
 8002cb8:	f000 f83e 	bl	8002d38 <HAL_UARTEx_RxEventCallback>
#endif /* USE_HAL_UART_REGISTER_CALLBACKS */
      }
      return;
 8002cbc:	e023      	b.n	8002d06 <HAL_UART_IRQHandler+0x512>
    }
  }

  /* UART in mode Transmitter ------------------------------------------------*/
  if (((isrflags & USART_SR_TXE) != RESET) && ((cr1its & USART_CR1_TXEIE) != RESET))
 8002cbe:	f8d7 30e4 	ldr.w	r3, [r7, #228]	; 0xe4
 8002cc2:	f003 0380 	and.w	r3, r3, #128	; 0x80
 8002cc6:	2b00      	cmp	r3, #0
 8002cc8:	d009      	beq.n	8002cde <HAL_UART_IRQHandler+0x4ea>
 8002cca:	f8d7 30e0 	ldr.w	r3, [r7, #224]	; 0xe0
 8002cce:	f003 0380 	and.w	r3, r3, #128	; 0x80
 8002cd2:	2b00      	cmp	r3, #0
 8002cd4:	d003      	beq.n	8002cde <HAL_UART_IRQHandler+0x4ea>
  {
    UART_Transmit_IT(huart);
 8002cd6:	6878      	ldr	r0, [r7, #4]
 8002cd8:	f000 f95d 	bl	8002f96 <UART_Transmit_IT>
    return;
 8002cdc:	e014      	b.n	8002d08 <HAL_UART_IRQHandler+0x514>
  }

  /* UART in mode Transmitter end --------------------------------------------*/
  if (((isrflags & USART_SR_TC) != RESET) && ((cr1its & USART_CR1_TCIE) != RESET))
 8002cde:	f8d7 30e4 	ldr.w	r3, [r7, #228]	; 0xe4
 8002ce2:	f003 0340 	and.w	r3, r3, #64	; 0x40
 8002ce6:	2b00      	cmp	r3, #0
 8002ce8:	d00e      	beq.n	8002d08 <HAL_UART_IRQHandler+0x514>
 8002cea:	f8d7 30e0 	ldr.w	r3, [r7, #224]	; 0xe0
 8002cee:	f003 0340 	and.w	r3, r3, #64	; 0x40
 8002cf2:	2b00      	cmp	r3, #0
 8002cf4:	d008      	beq.n	8002d08 <HAL_UART_IRQHandler+0x514>
  {
    UART_EndTransmit_IT(huart);
 8002cf6:	6878      	ldr	r0, [r7, #4]
 8002cf8:	f000 f99d 	bl	8003036 <UART_EndTransmit_IT>
    return;
 8002cfc:	e004      	b.n	8002d08 <HAL_UART_IRQHandler+0x514>
    return;
 8002cfe:	bf00      	nop
 8002d00:	e002      	b.n	8002d08 <HAL_UART_IRQHandler+0x514>
      return;
 8002d02:	bf00      	nop
 8002d04:	e000      	b.n	8002d08 <HAL_UART_IRQHandler+0x514>
      return;
 8002d06:	bf00      	nop
  }
}
 8002d08:	37e8      	adds	r7, #232	; 0xe8
 8002d0a:	46bd      	mov	sp, r7
 8002d0c:	bd80      	pop	{r7, pc}
 8002d0e:	bf00      	nop

08002d10 <HAL_UART_TxCpltCallback>:
  * @param  huart  Pointer to a UART_HandleTypeDef structure that contains
  *                the configuration information for the specified UART module.
  * @retval None
  */
__weak void HAL_UART_TxCpltCallback(UART_HandleTypeDef *huart)
{
 8002d10:	b480      	push	{r7}
 8002d12:	b083      	sub	sp, #12
 8002d14:	af00      	add	r7, sp, #0
 8002d16:	6078      	str	r0, [r7, #4]
  /* Prevent unused argument(s) compilation warning */
  UNUSED(huart);
  /* NOTE: This function should not be modified, when the callback is needed,
           the HAL_UART_TxCpltCallback could be implemented in the user file
   */
}
 8002d18:	bf00      	nop
 8002d1a:	370c      	adds	r7, #12
 8002d1c:	46bd      	mov	sp, r7
 8002d1e:	f85d 7b04 	ldr.w	r7, [sp], #4
 8002d22:	4770      	bx	lr

08002d24 <HAL_UART_ErrorCallback>:
  * @param  huart  Pointer to a UART_HandleTypeDef structure that contains
  *                the configuration information for the specified UART module.
  * @retval None
  */
__weak void HAL_UART_ErrorCallback(UART_HandleTypeDef *huart)
{
 8002d24:	b480      	push	{r7}
 8002d26:	b083      	sub	sp, #12
 8002d28:	af00      	add	r7, sp, #0
 8002d2a:	6078      	str	r0, [r7, #4]
  /* Prevent unused argument(s) compilation warning */
  UNUSED(huart);
  /* NOTE: This function should not be modified, when the callback is needed,
           the HAL_UART_ErrorCallback could be implemented in the user file
   */
}
 8002d2c:	bf00      	nop
 8002d2e:	370c      	adds	r7, #12
 8002d30:	46bd      	mov	sp, r7
 8002d32:	f85d 7b04 	ldr.w	r7, [sp], #4
 8002d36:	4770      	bx	lr

08002d38 <HAL_UARTEx_RxEventCallback>:
  * @param  Size  Number of data available in application reception buffer (indicates a position in
  *               reception buffer until which, data are available)
  * @retval None
  */
__weak void HAL_UARTEx_RxEventCallback(UART_HandleTypeDef *huart, uint16_t Size)
{
 8002d38:	b480      	push	{r7}
 8002d3a:	b083      	sub	sp, #12
 8002d3c:	af00      	add	r7, sp, #0
 8002d3e:	6078      	str	r0, [r7, #4]
 8002d40:	460b      	mov	r3, r1
 8002d42:	807b      	strh	r3, [r7, #2]
  UNUSED(Size);

  /* NOTE : This function should not be modified, when the callback is needed,
            the HAL_UARTEx_RxEventCallback can be implemented in the user file.
   */
}
 8002d44:	bf00      	nop
 8002d46:	370c      	adds	r7, #12
 8002d48:	46bd      	mov	sp, r7
 8002d4a:	f85d 7b04 	ldr.w	r7, [sp], #4
 8002d4e:	4770      	bx	lr

08002d50 <UART_WaitOnFlagUntilTimeout>:
  * @param  Timeout Timeout duration
  * @retval HAL status
  */
static HAL_StatusTypeDef UART_WaitOnFlagUntilTimeout(UART_HandleTypeDef *huart, uint32_t Flag, FlagStatus Status,
                                                     uint32_t Tickstart, uint32_t Timeout)
{
 8002d50:	b580      	push	{r7, lr}
 8002d52:	b090      	sub	sp, #64	; 0x40
 8002d54:	af00      	add	r7, sp, #0
 8002d56:	60f8      	str	r0, [r7, #12]
 8002d58:	60b9      	str	r1, [r7, #8]
 8002d5a:	603b      	str	r3, [r7, #0]
 8002d5c:	4613      	mov	r3, r2
 8002d5e:	71fb      	strb	r3, [r7, #7]
  /* Wait until flag is set */
  while ((__HAL_UART_GET_FLAG(huart, Flag) ? SET : RESET) == Status)
 8002d60:	e050      	b.n	8002e04 <UART_WaitOnFlagUntilTimeout+0xb4>
  {
    /* Check for the Timeout */
    if (Timeout != HAL_MAX_DELAY)
 8002d62:	6cbb      	ldr	r3, [r7, #72]	; 0x48
 8002d64:	f1b3 3fff 	cmp.w	r3, #4294967295
 8002d68:	d04c      	beq.n	8002e04 <UART_WaitOnFlagUntilTimeout+0xb4>
    {
      if ((Timeout == 0U) || ((HAL_GetTick() - Tickstart) > Timeout))
 8002d6a:	6cbb      	ldr	r3, [r7, #72]	; 0x48
 8002d6c:	2b00      	cmp	r3, #0
 8002d6e:	d007      	beq.n	8002d80 <UART_WaitOnFlagUntilTimeout+0x30>
 8002d70:	f7fe fc26 	bl	80015c0 <HAL_GetTick>
 8002d74:	4602      	mov	r2, r0
 8002d76:	683b      	ldr	r3, [r7, #0]
 8002d78:	1ad3      	subs	r3, r2, r3
 8002d7a:	6cba      	ldr	r2, [r7, #72]	; 0x48
 8002d7c:	429a      	cmp	r2, r3
 8002d7e:	d241      	bcs.n	8002e04 <UART_WaitOnFlagUntilTimeout+0xb4>
      {
        /* Disable TXE, RXNE, PE and ERR (Frame error, noise error, overrun error) interrupts for the interrupt process */
        ATOMIC_CLEAR_BIT(huart->Instance->CR1, (USART_CR1_RXNEIE | USART_CR1_PEIE | USART_CR1_TXEIE));
 8002d80:	68fb      	ldr	r3, [r7, #12]
 8002d82:	681b      	ldr	r3, [r3, #0]
 8002d84:	330c      	adds	r3, #12
 8002d86:	62bb      	str	r3, [r7, #40]	; 0x28
   __ASM volatile ("ldrex %0, %1" : "=r" (result) : "Q" (*addr) );
 8002d88:	6abb      	ldr	r3, [r7, #40]	; 0x28
 8002d8a:	e853 3f00 	ldrex	r3, [r3]
 8002d8e:	627b      	str	r3, [r7, #36]	; 0x24
   return(result);
 8002d90:	6a7b      	ldr	r3, [r7, #36]	; 0x24
 8002d92:	f423 73d0 	bic.w	r3, r3, #416	; 0x1a0
 8002d96:	63fb      	str	r3, [r7, #60]	; 0x3c
 8002d98:	68fb      	ldr	r3, [r7, #12]
 8002d9a:	681b      	ldr	r3, [r3, #0]
 8002d9c:	330c      	adds	r3, #12
 8002d9e:	6bfa      	ldr	r2, [r7, #60]	; 0x3c
 8002da0:	637a      	str	r2, [r7, #52]	; 0x34
 8002da2:	633b      	str	r3, [r7, #48]	; 0x30
   __ASM volatile ("strex %0, %2, %1" : "=&r" (result), "=Q" (*addr) : "r" (value) );
 8002da4:	6b39      	ldr	r1, [r7, #48]	; 0x30
 8002da6:	6b7a      	ldr	r2, [r7, #52]	; 0x34
 8002da8:	e841 2300 	strex	r3, r2, [r1]
 8002dac:	62fb      	str	r3, [r7, #44]	; 0x2c
   return(result);
 8002dae:	6afb      	ldr	r3, [r7, #44]	; 0x2c
 8002db0:	2b00      	cmp	r3, #0
 8002db2:	d1e5      	bne.n	8002d80 <UART_WaitOnFlagUntilTimeout+0x30>
        ATOMIC_CLEAR_BIT(huart->Instance->CR3, USART_CR3_EIE);
 8002db4:	68fb      	ldr	r3, [r7, #12]
 8002db6:	681b      	ldr	r3, [r3, #0]
 8002db8:	3314      	adds	r3, #20
 8002dba:	617b      	str	r3, [r7, #20]
   __ASM volatile ("ldrex %0, %1" : "=r" (result) : "Q" (*addr) );
 8002dbc:	697b      	ldr	r3, [r7, #20]
 8002dbe:	e853 3f00 	ldrex	r3, [r3]
 8002dc2:	613b      	str	r3, [r7, #16]
   return(result);
 8002dc4:	693b      	ldr	r3, [r7, #16]
 8002dc6:	f023 0301 	bic.w	r3, r3, #1
 8002dca:	63bb      	str	r3, [r7, #56]	; 0x38
 8002dcc:	68fb      	ldr	r3, [r7, #12]
 8002dce:	681b      	ldr	r3, [r3, #0]
 8002dd0:	3314      	adds	r3, #20
 8002dd2:	6bba      	ldr	r2, [r7, #56]	; 0x38
 8002dd4:	623a      	str	r2, [r7, #32]
 8002dd6:	61fb      	str	r3, [r7, #28]
   __ASM volatile ("strex %0, %2, %1" : "=&r" (result), "=Q" (*addr) : "r" (value) );
 8002dd8:	69f9      	ldr	r1, [r7, #28]
 8002dda:	6a3a      	ldr	r2, [r7, #32]
 8002ddc:	e841 2300 	strex	r3, r2, [r1]
 8002de0:	61bb      	str	r3, [r7, #24]
   return(result);
 8002de2:	69bb      	ldr	r3, [r7, #24]
 8002de4:	2b00      	cmp	r3, #0
 8002de6:	d1e5      	bne.n	8002db4 <UART_WaitOnFlagUntilTimeout+0x64>

        huart->gState  = HAL_UART_STATE_READY;
 8002de8:	68fb      	ldr	r3, [r7, #12]
 8002dea:	2220      	movs	r2, #32
 8002dec:	f883 203d 	strb.w	r2, [r3, #61]	; 0x3d
        huart->RxState = HAL_UART_STATE_READY;
 8002df0:	68fb      	ldr	r3, [r7, #12]
 8002df2:	2220      	movs	r2, #32
 8002df4:	f883 203e 	strb.w	r2, [r3, #62]	; 0x3e

        /* Process Unlocked */
        __HAL_UNLOCK(huart);
 8002df8:	68fb      	ldr	r3, [r7, #12]
 8002dfa:	2200      	movs	r2, #0
 8002dfc:	f883 203c 	strb.w	r2, [r3, #60]	; 0x3c

        return HAL_TIMEOUT;
 8002e00:	2303      	movs	r3, #3
 8002e02:	e00f      	b.n	8002e24 <UART_WaitOnFlagUntilTimeout+0xd4>
  while ((__HAL_UART_GET_FLAG(huart, Flag) ? SET : RESET) == Status)
 8002e04:	68fb      	ldr	r3, [r7, #12]
 8002e06:	681b      	ldr	r3, [r3, #0]
 8002e08:	681a      	ldr	r2, [r3, #0]
 8002e0a:	68bb      	ldr	r3, [r7, #8]
 8002e0c:	4013      	ands	r3, r2
 8002e0e:	68ba      	ldr	r2, [r7, #8]
 8002e10:	429a      	cmp	r2, r3
 8002e12:	bf0c      	ite	eq
 8002e14:	2301      	moveq	r3, #1
 8002e16:	2300      	movne	r3, #0
 8002e18:	b2db      	uxtb	r3, r3
 8002e1a:	461a      	mov	r2, r3
 8002e1c:	79fb      	ldrb	r3, [r7, #7]
 8002e1e:	429a      	cmp	r2, r3
 8002e20:	d09f      	beq.n	8002d62 <UART_WaitOnFlagUntilTimeout+0x12>
      }
    }
  }
  return HAL_OK;
 8002e22:	2300      	movs	r3, #0
}
 8002e24:	4618      	mov	r0, r3
 8002e26:	3740      	adds	r7, #64	; 0x40
 8002e28:	46bd      	mov	sp, r7
 8002e2a:	bd80      	pop	{r7, pc}

08002e2c <UART_Start_Receive_IT>:
  * @param  pData Pointer to data buffer (u8 or u16 data elements).
  * @param  Size  Amount of data elements (u8 or u16) to be received.
  * @retval HAL status
  */
HAL_StatusTypeDef UART_Start_Receive_IT(UART_HandleTypeDef *huart, uint8_t *pData, uint16_t Size)
{
 8002e2c:	b480      	push	{r7}
 8002e2e:	b085      	sub	sp, #20
 8002e30:	af00      	add	r7, sp, #0
 8002e32:	60f8      	str	r0, [r7, #12]
 8002e34:	60b9      	str	r1, [r7, #8]
 8002e36:	4613      	mov	r3, r2
 8002e38:	80fb      	strh	r3, [r7, #6]
  huart->pRxBuffPtr = pData;
 8002e3a:	68fb      	ldr	r3, [r7, #12]
 8002e3c:	68ba      	ldr	r2, [r7, #8]
 8002e3e:	629a      	str	r2, [r3, #40]	; 0x28
  huart->RxXferSize = Size;
 8002e40:	68fb      	ldr	r3, [r7, #12]
 8002e42:	88fa      	ldrh	r2, [r7, #6]
 8002e44:	859a      	strh	r2, [r3, #44]	; 0x2c
  huart->RxXferCount = Size;
 8002e46:	68fb      	ldr	r3, [r7, #12]
 8002e48:	88fa      	ldrh	r2, [r7, #6]
 8002e4a:	85da      	strh	r2, [r3, #46]	; 0x2e

  huart->ErrorCode = HAL_UART_ERROR_NONE;
 8002e4c:	68fb      	ldr	r3, [r7, #12]
 8002e4e:	2200      	movs	r2, #0
 8002e50:	641a      	str	r2, [r3, #64]	; 0x40
  huart->RxState = HAL_UART_STATE_BUSY_RX;
 8002e52:	68fb      	ldr	r3, [r7, #12]
 8002e54:	2222      	movs	r2, #34	; 0x22
 8002e56:	f883 203e 	strb.w	r2, [r3, #62]	; 0x3e

  /* Process Unlocked */
  __HAL_UNLOCK(huart);
 8002e5a:	68fb      	ldr	r3, [r7, #12]
 8002e5c:	2200      	movs	r2, #0
 8002e5e:	f883 203c 	strb.w	r2, [r3, #60]	; 0x3c

  if (huart->Init.Parity != UART_PARITY_NONE)
 8002e62:	68fb      	ldr	r3, [r7, #12]
 8002e64:	691b      	ldr	r3, [r3, #16]
 8002e66:	2b00      	cmp	r3, #0
 8002e68:	d007      	beq.n	8002e7a <UART_Start_Receive_IT+0x4e>
  {
    /* Enable the UART Parity Error Interrupt */
    __HAL_UART_ENABLE_IT(huart, UART_IT_PE);
 8002e6a:	68fb      	ldr	r3, [r7, #12]
 8002e6c:	681b      	ldr	r3, [r3, #0]
 8002e6e:	68da      	ldr	r2, [r3, #12]
 8002e70:	68fb      	ldr	r3, [r7, #12]
 8002e72:	681b      	ldr	r3, [r3, #0]
 8002e74:	f442 7280 	orr.w	r2, r2, #256	; 0x100
 8002e78:	60da      	str	r2, [r3, #12]
  }

  /* Enable the UART Error Interrupt: (Frame error, noise error, overrun error) */
  __HAL_UART_ENABLE_IT(huart, UART_IT_ERR);
 8002e7a:	68fb      	ldr	r3, [r7, #12]
 8002e7c:	681b      	ldr	r3, [r3, #0]
 8002e7e:	695a      	ldr	r2, [r3, #20]
 8002e80:	68fb      	ldr	r3, [r7, #12]
 8002e82:	681b      	ldr	r3, [r3, #0]
 8002e84:	f042 0201 	orr.w	r2, r2, #1
 8002e88:	615a      	str	r2, [r3, #20]

  /* Enable the UART Data Register not empty Interrupt */
  __HAL_UART_ENABLE_IT(huart, UART_IT_RXNE);
 8002e8a:	68fb      	ldr	r3, [r7, #12]
 8002e8c:	681b      	ldr	r3, [r3, #0]
 8002e8e:	68da      	ldr	r2, [r3, #12]
 8002e90:	68fb      	ldr	r3, [r7, #12]
 8002e92:	681b      	ldr	r3, [r3, #0]
 8002e94:	f042 0220 	orr.w	r2, r2, #32
 8002e98:	60da      	str	r2, [r3, #12]

  return HAL_OK;
 8002e9a:	2300      	movs	r3, #0
}
 8002e9c:	4618      	mov	r0, r3
 8002e9e:	3714      	adds	r7, #20
 8002ea0:	46bd      	mov	sp, r7
 8002ea2:	f85d 7b04 	ldr.w	r7, [sp], #4
 8002ea6:	4770      	bx	lr

08002ea8 <UART_EndRxTransfer>:
  * @brief  End ongoing Rx transfer on UART peripheral (following error detection or Reception completion).
  * @param  huart UART handle.
  * @retval None
  */
static void UART_EndRxTransfer(UART_HandleTypeDef *huart)
{
 8002ea8:	b480      	push	{r7}
 8002eaa:	b095      	sub	sp, #84	; 0x54
 8002eac:	af00      	add	r7, sp, #0
 8002eae:	6078      	str	r0, [r7, #4]
  /* Disable RXNE, PE and ERR (Frame error, noise error, overrun error) interrupts */
  ATOMIC_CLEAR_BIT(huart->Instance->CR1, (USART_CR1_RXNEIE | USART_CR1_PEIE));
 8002eb0:	687b      	ldr	r3, [r7, #4]
 8002eb2:	681b      	ldr	r3, [r3, #0]
 8002eb4:	330c      	adds	r3, #12
 8002eb6:	637b      	str	r3, [r7, #52]	; 0x34
   __ASM volatile ("ldrex %0, %1" : "=r" (result) : "Q" (*addr) );
 8002eb8:	6b7b      	ldr	r3, [r7, #52]	; 0x34
 8002eba:	e853 3f00 	ldrex	r3, [r3]
 8002ebe:	633b      	str	r3, [r7, #48]	; 0x30
   return(result);
 8002ec0:	6b3b      	ldr	r3, [r7, #48]	; 0x30
 8002ec2:	f423 7390 	bic.w	r3, r3, #288	; 0x120
 8002ec6:	64fb      	str	r3, [r7, #76]	; 0x4c
 8002ec8:	687b      	ldr	r3, [r7, #4]
 8002eca:	681b      	ldr	r3, [r3, #0]
 8002ecc:	330c      	adds	r3, #12
 8002ece:	6cfa      	ldr	r2, [r7, #76]	; 0x4c
 8002ed0:	643a      	str	r2, [r7, #64]	; 0x40
 8002ed2:	63fb      	str	r3, [r7, #60]	; 0x3c
   __ASM volatile ("strex %0, %2, %1" : "=&r" (result), "=Q" (*addr) : "r" (value) );
 8002ed4:	6bf9      	ldr	r1, [r7, #60]	; 0x3c
 8002ed6:	6c3a      	ldr	r2, [r7, #64]	; 0x40
 8002ed8:	e841 2300 	strex	r3, r2, [r1]
 8002edc:	63bb      	str	r3, [r7, #56]	; 0x38
   return(result);
 8002ede:	6bbb      	ldr	r3, [r7, #56]	; 0x38
 8002ee0:	2b00      	cmp	r3, #0
 8002ee2:	d1e5      	bne.n	8002eb0 <UART_EndRxTransfer+0x8>
  ATOMIC_CLEAR_BIT(huart->Instance->CR3, USART_CR3_EIE);
 8002ee4:	687b      	ldr	r3, [r7, #4]
 8002ee6:	681b      	ldr	r3, [r3, #0]
 8002ee8:	3314      	adds	r3, #20
 8002eea:	623b      	str	r3, [r7, #32]
   __ASM volatile ("ldrex %0, %1" : "=r" (result) : "Q" (*addr) );
 8002eec:	6a3b      	ldr	r3, [r7, #32]
 8002eee:	e853 3f00 	ldrex	r3, [r3]
 8002ef2:	61fb      	str	r3, [r7, #28]
   return(result);
 8002ef4:	69fb      	ldr	r3, [r7, #28]
 8002ef6:	f023 0301 	bic.w	r3, r3, #1
 8002efa:	64bb      	str	r3, [r7, #72]	; 0x48
 8002efc:	687b      	ldr	r3, [r7, #4]
 8002efe:	681b      	ldr	r3, [r3, #0]
 8002f00:	3314      	adds	r3, #20
 8002f02:	6cba      	ldr	r2, [r7, #72]	; 0x48
 8002f04:	62fa      	str	r2, [r7, #44]	; 0x2c
 8002f06:	62bb      	str	r3, [r7, #40]	; 0x28
   __ASM volatile ("strex %0, %2, %1" : "=&r" (result), "=Q" (*addr) : "r" (value) );
 8002f08:	6ab9      	ldr	r1, [r7, #40]	; 0x28
 8002f0a:	6afa      	ldr	r2, [r7, #44]	; 0x2c
 8002f0c:	e841 2300 	strex	r3, r2, [r1]
 8002f10:	627b      	str	r3, [r7, #36]	; 0x24
   return(result);
 8002f12:	6a7b      	ldr	r3, [r7, #36]	; 0x24
 8002f14:	2b00      	cmp	r3, #0
 8002f16:	d1e5      	bne.n	8002ee4 <UART_EndRxTransfer+0x3c>

  /* In case of reception waiting for IDLE event, disable also the IDLE IE interrupt source */
  if (huart->ReceptionType == HAL_UART_RECEPTION_TOIDLE)
 8002f18:	687b      	ldr	r3, [r7, #4]
 8002f1a:	6b1b      	ldr	r3, [r3, #48]	; 0x30
 8002f1c:	2b01      	cmp	r3, #1
 8002f1e:	d119      	bne.n	8002f54 <UART_EndRxTransfer+0xac>
  {
    ATOMIC_CLEAR_BIT(huart->Instance->CR1, USART_CR1_IDLEIE);
 8002f20:	687b      	ldr	r3, [r7, #4]
 8002f22:	681b      	ldr	r3, [r3, #0]
 8002f24:	330c      	adds	r3, #12
 8002f26:	60fb      	str	r3, [r7, #12]
   __ASM volatile ("ldrex %0, %1" : "=r" (result) : "Q" (*addr) );
 8002f28:	68fb      	ldr	r3, [r7, #12]
 8002f2a:	e853 3f00 	ldrex	r3, [r3]
 8002f2e:	60bb      	str	r3, [r7, #8]
   return(result);
 8002f30:	68bb      	ldr	r3, [r7, #8]
 8002f32:	f023 0310 	bic.w	r3, r3, #16
 8002f36:	647b      	str	r3, [r7, #68]	; 0x44
 8002f38:	687b      	ldr	r3, [r7, #4]
 8002f3a:	681b      	ldr	r3, [r3, #0]
 8002f3c:	330c      	adds	r3, #12
 8002f3e:	6c7a      	ldr	r2, [r7, #68]	; 0x44
 8002f40:	61ba      	str	r2, [r7, #24]
 8002f42:	617b      	str	r3, [r7, #20]
   __ASM volatile ("strex %0, %2, %1" : "=&r" (result), "=Q" (*addr) : "r" (value) );
 8002f44:	6979      	ldr	r1, [r7, #20]
 8002f46:	69ba      	ldr	r2, [r7, #24]
 8002f48:	e841 2300 	strex	r3, r2, [r1]
 8002f4c:	613b      	str	r3, [r7, #16]
   return(result);
 8002f4e:	693b      	ldr	r3, [r7, #16]
 8002f50:	2b00      	cmp	r3, #0
 8002f52:	d1e5      	bne.n	8002f20 <UART_EndRxTransfer+0x78>
  }

  /* At end of Rx process, restore huart->RxState to Ready */
  huart->RxState = HAL_UART_STATE_READY;
 8002f54:	687b      	ldr	r3, [r7, #4]
 8002f56:	2220      	movs	r2, #32
 8002f58:	f883 203e 	strb.w	r2, [r3, #62]	; 0x3e
  huart->ReceptionType = HAL_UART_RECEPTION_STANDARD;
 8002f5c:	687b      	ldr	r3, [r7, #4]
 8002f5e:	2200      	movs	r2, #0
 8002f60:	631a      	str	r2, [r3, #48]	; 0x30
}
 8002f62:	bf00      	nop
 8002f64:	3754      	adds	r7, #84	; 0x54
 8002f66:	46bd      	mov	sp, r7
 8002f68:	f85d 7b04 	ldr.w	r7, [sp], #4
 8002f6c:	4770      	bx	lr

08002f6e <UART_DMAAbortOnError>:
  * @param  hdma  Pointer to a DMA_HandleTypeDef structure that contains
  *               the configuration information for the specified DMA module.
  * @retval None
  */
static void UART_DMAAbortOnError(DMA_HandleTypeDef *hdma)
{
 8002f6e:	b580      	push	{r7, lr}
 8002f70:	b084      	sub	sp, #16
 8002f72:	af00      	add	r7, sp, #0
 8002f74:	6078      	str	r0, [r7, #4]
  UART_HandleTypeDef *huart = (UART_HandleTypeDef *)((DMA_HandleTypeDef *)hdma)->Parent;
 8002f76:	687b      	ldr	r3, [r7, #4]
 8002f78:	6b9b      	ldr	r3, [r3, #56]	; 0x38
 8002f7a:	60fb      	str	r3, [r7, #12]
  huart->RxXferCount = 0x00U;
 8002f7c:	68fb      	ldr	r3, [r7, #12]
 8002f7e:	2200      	movs	r2, #0
 8002f80:	85da      	strh	r2, [r3, #46]	; 0x2e
  huart->TxXferCount = 0x00U;
 8002f82:	68fb      	ldr	r3, [r7, #12]
 8002f84:	2200      	movs	r2, #0
 8002f86:	84da      	strh	r2, [r3, #38]	; 0x26
#if (USE_HAL_UART_REGISTER_CALLBACKS == 1)
  /*Call registered error callback*/
  huart->ErrorCallback(huart);
#else
  /*Call legacy weak error callback*/
  HAL_UART_ErrorCallback(huart);
 8002f88:	68f8      	ldr	r0, [r7, #12]
 8002f8a:	f7ff fecb 	bl	8002d24 <HAL_UART_ErrorCallback>
#endif /* USE_HAL_UART_REGISTER_CALLBACKS */
}
 8002f8e:	bf00      	nop
 8002f90:	3710      	adds	r7, #16
 8002f92:	46bd      	mov	sp, r7
 8002f94:	bd80      	pop	{r7, pc}

08002f96 <UART_Transmit_IT>:
  * @param  huart  Pointer to a UART_HandleTypeDef structure that contains
  *                the configuration information for the specified UART module.
  * @retval HAL status
  */
static HAL_StatusTypeDef UART_Transmit_IT(UART_HandleTypeDef *huart)
{
 8002f96:	b480      	push	{r7}
 8002f98:	b085      	sub	sp, #20
 8002f9a:	af00      	add	r7, sp, #0
 8002f9c:	6078      	str	r0, [r7, #4]
  const uint16_t *tmp;

  /* Check that a Tx process is ongoing */
  if (huart->gState == HAL_UART_STATE_BUSY_TX)
 8002f9e:	687b      	ldr	r3, [r7, #4]
 8002fa0:	f893 303d 	ldrb.w	r3, [r3, #61]	; 0x3d
 8002fa4:	b2db      	uxtb	r3, r3
 8002fa6:	2b21      	cmp	r3, #33	; 0x21
 8002fa8:	d13e      	bne.n	8003028 <UART_Transmit_IT+0x92>
  {
    if ((huart->Init.WordLength == UART_WORDLENGTH_9B) && (huart->Init.Parity == UART_PARITY_NONE))
 8002faa:	687b      	ldr	r3, [r7, #4]
 8002fac:	689b      	ldr	r3, [r3, #8]
 8002fae:	f5b3 5f80 	cmp.w	r3, #4096	; 0x1000
 8002fb2:	d114      	bne.n	8002fde <UART_Transmit_IT+0x48>
 8002fb4:	687b      	ldr	r3, [r7, #4]
 8002fb6:	691b      	ldr	r3, [r3, #16]
 8002fb8:	2b00      	cmp	r3, #0
 8002fba:	d110      	bne.n	8002fde <UART_Transmit_IT+0x48>
    {
      tmp = (const uint16_t *) huart->pTxBuffPtr;
 8002fbc:	687b      	ldr	r3, [r7, #4]
 8002fbe:	6a1b      	ldr	r3, [r3, #32]
 8002fc0:	60fb      	str	r3, [r7, #12]
      huart->Instance->DR = (uint16_t)(*tmp & (uint16_t)0x01FF);
 8002fc2:	68fb      	ldr	r3, [r7, #12]
 8002fc4:	881b      	ldrh	r3, [r3, #0]
 8002fc6:	461a      	mov	r2, r3
 8002fc8:	687b      	ldr	r3, [r7, #4]
 8002fca:	681b      	ldr	r3, [r3, #0]
 8002fcc:	f3c2 0208 	ubfx	r2, r2, #0, #9
 8002fd0:	605a      	str	r2, [r3, #4]
      huart->pTxBuffPtr += 2U;
 8002fd2:	687b      	ldr	r3, [r7, #4]
 8002fd4:	6a1b      	ldr	r3, [r3, #32]
 8002fd6:	1c9a      	adds	r2, r3, #2
 8002fd8:	687b      	ldr	r3, [r7, #4]
 8002fda:	621a      	str	r2, [r3, #32]
 8002fdc:	e008      	b.n	8002ff0 <UART_Transmit_IT+0x5a>
    }
    else
    {
      huart->Instance->DR = (uint8_t)(*huart->pTxBuffPtr++ & (uint8_t)0x00FF);
 8002fde:	687b      	ldr	r3, [r7, #4]
 8002fe0:	6a1b      	ldr	r3, [r3, #32]
 8002fe2:	1c59      	adds	r1, r3, #1
 8002fe4:	687a      	ldr	r2, [r7, #4]
 8002fe6:	6211      	str	r1, [r2, #32]
 8002fe8:	781a      	ldrb	r2, [r3, #0]
 8002fea:	687b      	ldr	r3, [r7, #4]
 8002fec:	681b      	ldr	r3, [r3, #0]
 8002fee:	605a      	str	r2, [r3, #4]
    }

    if (--huart->TxXferCount == 0U)
 8002ff0:	687b      	ldr	r3, [r7, #4]
 8002ff2:	8cdb      	ldrh	r3, [r3, #38]	; 0x26
 8002ff4:	b29b      	uxth	r3, r3
 8002ff6:	3b01      	subs	r3, #1
 8002ff8:	b29b      	uxth	r3, r3
 8002ffa:	687a      	ldr	r2, [r7, #4]
 8002ffc:	4619      	mov	r1, r3
 8002ffe:	84d1      	strh	r1, [r2, #38]	; 0x26
 8003000:	2b00      	cmp	r3, #0
 8003002:	d10f      	bne.n	8003024 <UART_Transmit_IT+0x8e>
    {
      /* Disable the UART Transmit Data Register Empty Interrupt */
      __HAL_UART_DISABLE_IT(huart, UART_IT_TXE);
 8003004:	687b      	ldr	r3, [r7, #4]
 8003006:	681b      	ldr	r3, [r3, #0]
 8003008:	68da      	ldr	r2, [r3, #12]
 800300a:	687b      	ldr	r3, [r7, #4]
 800300c:	681b      	ldr	r3, [r3, #0]
 800300e:	f022 0280 	bic.w	r2, r2, #128	; 0x80
 8003012:	60da      	str	r2, [r3, #12]

      /* Enable the UART Transmit Complete Interrupt */
      __HAL_UART_ENABLE_IT(huart, UART_IT_TC);
 8003014:	687b      	ldr	r3, [r7, #4]
 8003016:	681b      	ldr	r3, [r3, #0]
 8003018:	68da      	ldr	r2, [r3, #12]
 800301a:	687b      	ldr	r3, [r7, #4]
 800301c:	681b      	ldr	r3, [r3, #0]
 800301e:	f042 0240 	orr.w	r2, r2, #64	; 0x40
 8003022:	60da      	str	r2, [r3, #12]
    }
    return HAL_OK;
 8003024:	2300      	movs	r3, #0
 8003026:	e000      	b.n	800302a <UART_Transmit_IT+0x94>
  }
  else
  {
    return HAL_BUSY;
 8003028:	2302      	movs	r3, #2
  }
}
 800302a:	4618      	mov	r0, r3
 800302c:	3714      	adds	r7, #20
 800302e:	46bd      	mov	sp, r7
 8003030:	f85d 7b04 	ldr.w	r7, [sp], #4
 8003034:	4770      	bx	lr

08003036 <UART_EndTransmit_IT>:
  * @param  huart  Pointer to a UART_HandleTypeDef structure that contains
  *                the configuration information for the specified UART module.
  * @retval HAL status
  */
static HAL_StatusTypeDef UART_EndTransmit_IT(UART_HandleTypeDef *huart)
{
 8003036:	b580      	push	{r7, lr}
 8003038:	b082      	sub	sp, #8
 800303a:	af00      	add	r7, sp, #0
 800303c:	6078      	str	r0, [r7, #4]
  /* Disable the UART Transmit Complete Interrupt */
  __HAL_UART_DISABLE_IT(huart, UART_IT_TC);
 800303e:	687b      	ldr	r3, [r7, #4]
 8003040:	681b      	ldr	r3, [r3, #0]
 8003042:	68da      	ldr	r2, [r3, #12]
 8003044:	687b      	ldr	r3, [r7, #4]
 8003046:	681b      	ldr	r3, [r3, #0]
 8003048:	f022 0240 	bic.w	r2, r2, #64	; 0x40
 800304c:	60da      	str	r2, [r3, #12]

  /* Tx process is ended, restore huart->gState to Ready */
  huart->gState = HAL_UART_STATE_READY;
 800304e:	687b      	ldr	r3, [r7, #4]
 8003050:	2220      	movs	r2, #32
 8003052:	f883 203d 	strb.w	r2, [r3, #61]	; 0x3d
#if (USE_HAL_UART_REGISTER_CALLBACKS == 1)
  /*Call registered Tx complete callback*/
  huart->TxCpltCallback(huart);
#else
  /*Call legacy weak Tx complete callback*/
  HAL_UART_TxCpltCallback(huart);
 8003056:	6878      	ldr	r0, [r7, #4]
 8003058:	f7ff fe5a 	bl	8002d10 <HAL_UART_TxCpltCallback>
#endif /* USE_HAL_UART_REGISTER_CALLBACKS */

  return HAL_OK;
 800305c:	2300      	movs	r3, #0
}
 800305e:	4618      	mov	r0, r3
 8003060:	3708      	adds	r7, #8
 8003062:	46bd      	mov	sp, r7
 8003064:	bd80      	pop	{r7, pc}

08003066 <UART_Receive_IT>:
  * @param  huart  Pointer to a UART_HandleTypeDef structure that contains
  *                the configuration information for the specified UART module.
  * @retval HAL status
  */
static HAL_StatusTypeDef UART_Receive_IT(UART_HandleTypeDef *huart)
{
 8003066:	b580      	push	{r7, lr}
 8003068:	b08c      	sub	sp, #48	; 0x30
 800306a:	af00      	add	r7, sp, #0
 800306c:	6078      	str	r0, [r7, #4]
  uint8_t  *pdata8bits;
  uint16_t *pdata16bits;

  /* Check that a Rx process is ongoing */
  if (huart->RxState == HAL_UART_STATE_BUSY_RX)
 800306e:	687b      	ldr	r3, [r7, #4]
 8003070:	f893 303e 	ldrb.w	r3, [r3, #62]	; 0x3e
 8003074:	b2db      	uxtb	r3, r3
 8003076:	2b22      	cmp	r3, #34	; 0x22
 8003078:	f040 80ab 	bne.w	80031d2 <UART_Receive_IT+0x16c>
  {
    if ((huart->Init.WordLength == UART_WORDLENGTH_9B) && (huart->Init.Parity == UART_PARITY_NONE))
 800307c:	687b      	ldr	r3, [r7, #4]
 800307e:	689b      	ldr	r3, [r3, #8]
 8003080:	f5b3 5f80 	cmp.w	r3, #4096	; 0x1000
 8003084:	d117      	bne.n	80030b6 <UART_Receive_IT+0x50>
 8003086:	687b      	ldr	r3, [r7, #4]
 8003088:	691b      	ldr	r3, [r3, #16]
 800308a:	2b00      	cmp	r3, #0
 800308c:	d113      	bne.n	80030b6 <UART_Receive_IT+0x50>
    {
      pdata8bits  = NULL;
 800308e:	2300      	movs	r3, #0
 8003090:	62fb      	str	r3, [r7, #44]	; 0x2c
      pdata16bits = (uint16_t *) huart->pRxBuffPtr;
 8003092:	687b      	ldr	r3, [r7, #4]
 8003094:	6a9b      	ldr	r3, [r3, #40]	; 0x28
 8003096:	62bb      	str	r3, [r7, #40]	; 0x28
      *pdata16bits = (uint16_t)(huart->Instance->DR & (uint16_t)0x01FF);
 8003098:	687b      	ldr	r3, [r7, #4]
 800309a:	681b      	ldr	r3, [r3, #0]
 800309c:	685b      	ldr	r3, [r3, #4]
 800309e:	b29b      	uxth	r3, r3
 80030a0:	f3c3 0308 	ubfx	r3, r3, #0, #9
 80030a4:	b29a      	uxth	r2, r3
 80030a6:	6abb      	ldr	r3, [r7, #40]	; 0x28
 80030a8:	801a      	strh	r2, [r3, #0]
      huart->pRxBuffPtr += 2U;
 80030aa:	687b      	ldr	r3, [r7, #4]
 80030ac:	6a9b      	ldr	r3, [r3, #40]	; 0x28
 80030ae:	1c9a      	adds	r2, r3, #2
 80030b0:	687b      	ldr	r3, [r7, #4]
 80030b2:	629a      	str	r2, [r3, #40]	; 0x28
 80030b4:	e026      	b.n	8003104 <UART_Receive_IT+0x9e>
    }
    else
    {
      pdata8bits = (uint8_t *) huart->pRxBuffPtr;
 80030b6:	687b      	ldr	r3, [r7, #4]
 80030b8:	6a9b      	ldr	r3, [r3, #40]	; 0x28
 80030ba:	62fb      	str	r3, [r7, #44]	; 0x2c
      pdata16bits  = NULL;
 80030bc:	2300      	movs	r3, #0
 80030be:	62bb      	str	r3, [r7, #40]	; 0x28

      if ((huart->Init.WordLength == UART_WORDLENGTH_9B) || ((huart->Init.WordLength == UART_WORDLENGTH_8B) && (huart->Init.Parity == UART_PARITY_NONE)))
 80030c0:	687b      	ldr	r3, [r7, #4]
 80030c2:	689b      	ldr	r3, [r3, #8]
 80030c4:	f5b3 5f80 	cmp.w	r3, #4096	; 0x1000
 80030c8:	d007      	beq.n	80030da <UART_Receive_IT+0x74>
 80030ca:	687b      	ldr	r3, [r7, #4]
 80030cc:	689b      	ldr	r3, [r3, #8]
 80030ce:	2b00      	cmp	r3, #0
 80030d0:	d10a      	bne.n	80030e8 <UART_Receive_IT+0x82>
 80030d2:	687b      	ldr	r3, [r7, #4]
 80030d4:	691b      	ldr	r3, [r3, #16]
 80030d6:	2b00      	cmp	r3, #0
 80030d8:	d106      	bne.n	80030e8 <UART_Receive_IT+0x82>
      {
        *pdata8bits = (uint8_t)(huart->Instance->DR & (uint8_t)0x00FF);
 80030da:	687b      	ldr	r3, [r7, #4]
 80030dc:	681b      	ldr	r3, [r3, #0]
 80030de:	685b      	ldr	r3, [r3, #4]
 80030e0:	b2da      	uxtb	r2, r3
 80030e2:	6afb      	ldr	r3, [r7, #44]	; 0x2c
 80030e4:	701a      	strb	r2, [r3, #0]
 80030e6:	e008      	b.n	80030fa <UART_Receive_IT+0x94>
      }
      else
      {
        *pdata8bits = (uint8_t)(huart->Instance->DR & (uint8_t)0x007F);
 80030e8:	687b      	ldr	r3, [r7, #4]
 80030ea:	681b      	ldr	r3, [r3, #0]
 80030ec:	685b      	ldr	r3, [r3, #4]
 80030ee:	b2db      	uxtb	r3, r3
 80030f0:	f003 037f 	and.w	r3, r3, #127	; 0x7f
 80030f4:	b2da      	uxtb	r2, r3
 80030f6:	6afb      	ldr	r3, [r7, #44]	; 0x2c
 80030f8:	701a      	strb	r2, [r3, #0]
      }
      huart->pRxBuffPtr += 1U;
 80030fa:	687b      	ldr	r3, [r7, #4]
 80030fc:	6a9b      	ldr	r3, [r3, #40]	; 0x28
 80030fe:	1c5a      	adds	r2, r3, #1
 8003100:	687b      	ldr	r3, [r7, #4]
 8003102:	629a      	str	r2, [r3, #40]	; 0x28
    }

    if (--huart->RxXferCount == 0U)
 8003104:	687b      	ldr	r3, [r7, #4]
 8003106:	8ddb      	ldrh	r3, [r3, #46]	; 0x2e
 8003108:	b29b      	uxth	r3, r3
 800310a:	3b01      	subs	r3, #1
 800310c:	b29b      	uxth	r3, r3
 800310e:	687a      	ldr	r2, [r7, #4]
 8003110:	4619      	mov	r1, r3
 8003112:	85d1      	strh	r1, [r2, #46]	; 0x2e
 8003114:	2b00      	cmp	r3, #0
 8003116:	d15a      	bne.n	80031ce <UART_Receive_IT+0x168>
    {
      /* Disable the UART Data Register not empty Interrupt */
      __HAL_UART_DISABLE_IT(huart, UART_IT_RXNE);
 8003118:	687b      	ldr	r3, [r7, #4]
 800311a:	681b      	ldr	r3, [r3, #0]
 800311c:	68da      	ldr	r2, [r3, #12]
 800311e:	687b      	ldr	r3, [r7, #4]
 8003120:	681b      	ldr	r3, [r3, #0]
 8003122:	f022 0220 	bic.w	r2, r2, #32
 8003126:	60da      	str	r2, [r3, #12]

      /* Disable the UART Parity Error Interrupt */
      __HAL_UART_DISABLE_IT(huart, UART_IT_PE);
 8003128:	687b      	ldr	r3, [r7, #4]
 800312a:	681b      	ldr	r3, [r3, #0]
 800312c:	68da      	ldr	r2, [r3, #12]
 800312e:	687b      	ldr	r3, [r7, #4]
 8003130:	681b      	ldr	r3, [r3, #0]
 8003132:	f422 7280 	bic.w	r2, r2, #256	; 0x100
 8003136:	60da      	str	r2, [r3, #12]

      /* Disable the UART Error Interrupt: (Frame error, noise error, overrun error) */
      __HAL_UART_DISABLE_IT(huart, UART_IT_ERR);
 8003138:	687b      	ldr	r3, [r7, #4]
 800313a:	681b      	ldr	r3, [r3, #0]
 800313c:	695a      	ldr	r2, [r3, #20]
 800313e:	687b      	ldr	r3, [r7, #4]
 8003140:	681b      	ldr	r3, [r3, #0]
 8003142:	f022 0201 	bic.w	r2, r2, #1
 8003146:	615a      	str	r2, [r3, #20]

      /* Rx process is completed, restore huart->RxState to Ready */
      huart->RxState = HAL_UART_STATE_READY;
 8003148:	687b      	ldr	r3, [r7, #4]
 800314a:	2220      	movs	r2, #32
 800314c:	f883 203e 	strb.w	r2, [r3, #62]	; 0x3e

      /* Check current reception Mode :
         If Reception till IDLE event has been selected : */
      if (huart->ReceptionType == HAL_UART_RECEPTION_TOIDLE)
 8003150:	687b      	ldr	r3, [r7, #4]
 8003152:	6b1b      	ldr	r3, [r3, #48]	; 0x30
 8003154:	2b01      	cmp	r3, #1
 8003156:	d135      	bne.n	80031c4 <UART_Receive_IT+0x15e>
      {
        /* Set reception type to Standard */
        huart->ReceptionType = HAL_UART_RECEPTION_STANDARD;
 8003158:	687b      	ldr	r3, [r7, #4]
 800315a:	2200      	movs	r2, #0
 800315c:	631a      	str	r2, [r3, #48]	; 0x30

        /* Disable IDLE interrupt */
        ATOMIC_CLEAR_BIT(huart->Instance->CR1, USART_CR1_IDLEIE);
 800315e:	687b      	ldr	r3, [r7, #4]
 8003160:	681b      	ldr	r3, [r3, #0]
 8003162:	330c      	adds	r3, #12
 8003164:	617b      	str	r3, [r7, #20]
   __ASM volatile ("ldrex %0, %1" : "=r" (result) : "Q" (*addr) );
 8003166:	697b      	ldr	r3, [r7, #20]
 8003168:	e853 3f00 	ldrex	r3, [r3]
 800316c:	613b      	str	r3, [r7, #16]
   return(result);
 800316e:	693b      	ldr	r3, [r7, #16]
 8003170:	f023 0310 	bic.w	r3, r3, #16
 8003174:	627b      	str	r3, [r7, #36]	; 0x24
 8003176:	687b      	ldr	r3, [r7, #4]
 8003178:	681b      	ldr	r3, [r3, #0]
 800317a:	330c      	adds	r3, #12
 800317c:	6a7a      	ldr	r2, [r7, #36]	; 0x24
 800317e:	623a      	str	r2, [r7, #32]
 8003180:	61fb      	str	r3, [r7, #28]
   __ASM volatile ("strex %0, %2, %1" : "=&r" (result), "=Q" (*addr) : "r" (value) );
 8003182:	69f9      	ldr	r1, [r7, #28]
 8003184:	6a3a      	ldr	r2, [r7, #32]
 8003186:	e841 2300 	strex	r3, r2, [r1]
 800318a:	61bb      	str	r3, [r7, #24]
   return(result);
 800318c:	69bb      	ldr	r3, [r7, #24]
 800318e:	2b00      	cmp	r3, #0
 8003190:	d1e5      	bne.n	800315e <UART_Receive_IT+0xf8>

        /* Check if IDLE flag is set */
        if (__HAL_UART_GET_FLAG(huart, UART_FLAG_IDLE))
 8003192:	687b      	ldr	r3, [r7, #4]
 8003194:	681b      	ldr	r3, [r3, #0]
 8003196:	681b      	ldr	r3, [r3, #0]
 8003198:	f003 0310 	and.w	r3, r3, #16
 800319c:	2b10      	cmp	r3, #16
 800319e:	d10a      	bne.n	80031b6 <UART_Receive_IT+0x150>
        {
          /* Clear IDLE flag in ISR */
          __HAL_UART_CLEAR_IDLEFLAG(huart);
 80031a0:	2300      	movs	r3, #0
 80031a2:	60fb      	str	r3, [r7, #12]
 80031a4:	687b      	ldr	r3, [r7, #4]
 80031a6:	681b      	ldr	r3, [r3, #0]
 80031a8:	681b      	ldr	r3, [r3, #0]
 80031aa:	60fb      	str	r3, [r7, #12]
 80031ac:	687b      	ldr	r3, [r7, #4]
 80031ae:	681b      	ldr	r3, [r3, #0]
 80031b0:	685b      	ldr	r3, [r3, #4]
 80031b2:	60fb      	str	r3, [r7, #12]
 80031b4:	68fb      	ldr	r3, [r7, #12]
#if (USE_HAL_UART_REGISTER_CALLBACKS == 1)
        /*Call registered Rx Event callback*/
        huart->RxEventCallback(huart, huart->RxXferSize);
#else
        /*Call legacy weak Rx Event callback*/
        HAL_UARTEx_RxEventCallback(huart, huart->RxXferSize);
 80031b6:	687b      	ldr	r3, [r7, #4]
 80031b8:	8d9b      	ldrh	r3, [r3, #44]	; 0x2c
 80031ba:	4619      	mov	r1, r3
 80031bc:	6878      	ldr	r0, [r7, #4]
 80031be:	f7ff fdbb 	bl	8002d38 <HAL_UARTEx_RxEventCallback>
 80031c2:	e002      	b.n	80031ca <UART_Receive_IT+0x164>
#if (USE_HAL_UART_REGISTER_CALLBACKS == 1)
        /*Call registered Rx complete callback*/
        huart->RxCpltCallback(huart);
#else
        /*Call legacy weak Rx complete callback*/
        HAL_UART_RxCpltCallback(huart);
 80031c4:	6878      	ldr	r0, [r7, #4]
 80031c6:	f7fd feb9 	bl	8000f3c <HAL_UART_RxCpltCallback>
#endif /* USE_HAL_UART_REGISTER_CALLBACKS */
      }

      return HAL_OK;
 80031ca:	2300      	movs	r3, #0
 80031cc:	e002      	b.n	80031d4 <UART_Receive_IT+0x16e>
    }
    return HAL_OK;
 80031ce:	2300      	movs	r3, #0
 80031d0:	e000      	b.n	80031d4 <UART_Receive_IT+0x16e>
  }
  else
  {
    return HAL_BUSY;
 80031d2:	2302      	movs	r3, #2
  }
}
 80031d4:	4618      	mov	r0, r3
 80031d6:	3730      	adds	r7, #48	; 0x30
 80031d8:	46bd      	mov	sp, r7
 80031da:	bd80      	pop	{r7, pc}

080031dc <UART_SetConfig>:
  * @param  huart  Pointer to a UART_HandleTypeDef structure that contains
  *                the configuration information for the specified UART module.
  * @retval None
  */
static void UART_SetConfig(UART_HandleTypeDef *huart)
{
 80031dc:	e92d 4fb0 	stmdb	sp!, {r4, r5, r7, r8, r9, sl, fp, lr}
 80031e0:	b0c0      	sub	sp, #256	; 0x100
 80031e2:	af00      	add	r7, sp, #0
 80031e4:	f8c7 00f4 	str.w	r0, [r7, #244]	; 0xf4
  assert_param(IS_UART_MODE(huart->Init.Mode));

  /*-------------------------- USART CR2 Configuration -----------------------*/
  /* Configure the UART Stop Bits: Set STOP[13:12] bits
     according to huart->Init.StopBits value */
  MODIFY_REG(huart->Instance->CR2, USART_CR2_STOP, huart->Init.StopBits);
 80031e8:	f8d7 30f4 	ldr.w	r3, [r7, #244]	; 0xf4
 80031ec:	681b      	ldr	r3, [r3, #0]
 80031ee:	691b      	ldr	r3, [r3, #16]
 80031f0:	f423 5040 	bic.w	r0, r3, #12288	; 0x3000
 80031f4:	f8d7 30f4 	ldr.w	r3, [r7, #244]	; 0xf4
 80031f8:	68d9      	ldr	r1, [r3, #12]
 80031fa:	f8d7 30f4 	ldr.w	r3, [r7, #244]	; 0xf4
 80031fe:	681a      	ldr	r2, [r3, #0]
 8003200:	ea40 0301 	orr.w	r3, r0, r1
 8003204:	6113      	str	r3, [r2, #16]
     Set the M bits according to huart->Init.WordLength value
     Set PCE and PS bits according to huart->Init.Parity value
     Set TE and RE bits according to huart->Init.Mode value
     Set OVER8 bit according to huart->Init.OverSampling value */

  tmpreg = (uint32_t)huart->Init.WordLength | huart->Init.Parity | huart->Init.Mode | huart->Init.OverSampling;
 8003206:	f8d7 30f4 	ldr.w	r3, [r7, #244]	; 0xf4
 800320a:	689a      	ldr	r2, [r3, #8]
 800320c:	f8d7 30f4 	ldr.w	r3, [r7, #244]	; 0xf4
 8003210:	691b      	ldr	r3, [r3, #16]
 8003212:	431a      	orrs	r2, r3
 8003214:	f8d7 30f4 	ldr.w	r3, [r7, #244]	; 0xf4
 8003218:	695b      	ldr	r3, [r3, #20]
 800321a:	431a      	orrs	r2, r3
 800321c:	f8d7 30f4 	ldr.w	r3, [r7, #244]	; 0xf4
 8003220:	69db      	ldr	r3, [r3, #28]
 8003222:	4313      	orrs	r3, r2
 8003224:	f8c7 30f8 	str.w	r3, [r7, #248]	; 0xf8
  MODIFY_REG(huart->Instance->CR1,
 8003228:	f8d7 30f4 	ldr.w	r3, [r7, #244]	; 0xf4
 800322c:	681b      	ldr	r3, [r3, #0]
 800322e:	68db      	ldr	r3, [r3, #12]
 8003230:	f423 4116 	bic.w	r1, r3, #38400	; 0x9600
 8003234:	f021 010c 	bic.w	r1, r1, #12
 8003238:	f8d7 30f4 	ldr.w	r3, [r7, #244]	; 0xf4
 800323c:	681a      	ldr	r2, [r3, #0]
 800323e:	f8d7 30f8 	ldr.w	r3, [r7, #248]	; 0xf8
 8003242:	430b      	orrs	r3, r1
 8003244:	60d3      	str	r3, [r2, #12]
             (uint32_t)(USART_CR1_M | USART_CR1_PCE | USART_CR1_PS | USART_CR1_TE | USART_CR1_RE | USART_CR1_OVER8),
             tmpreg);

  /*-------------------------- USART CR3 Configuration -----------------------*/
  /* Configure the UART HFC: Set CTSE and RTSE bits according to huart->Init.HwFlowCtl value */
  MODIFY_REG(huart->Instance->CR3, (USART_CR3_RTSE | USART_CR3_CTSE), huart->Init.HwFlowCtl);
 8003246:	f8d7 30f4 	ldr.w	r3, [r7, #244]	; 0xf4
 800324a:	681b      	ldr	r3, [r3, #0]
 800324c:	695b      	ldr	r3, [r3, #20]
 800324e:	f423 7040 	bic.w	r0, r3, #768	; 0x300
 8003252:	f8d7 30f4 	ldr.w	r3, [r7, #244]	; 0xf4
 8003256:	6999      	ldr	r1, [r3, #24]
 8003258:	f8d7 30f4 	ldr.w	r3, [r7, #244]	; 0xf4
 800325c:	681a      	ldr	r2, [r3, #0]
 800325e:	ea40 0301 	orr.w	r3, r0, r1
 8003262:	6153      	str	r3, [r2, #20]
    if ((huart->Instance == USART1) || (huart->Instance == USART6) || (huart->Instance == UART9) || (huart->Instance == UART10))
    {
      pclk = HAL_RCC_GetPCLK2Freq();
    }
#elif defined(USART6)
    if ((huart->Instance == USART1) || (huart->Instance == USART6))
 8003264:	f8d7 30f4 	ldr.w	r3, [r7, #244]	; 0xf4
 8003268:	681a      	ldr	r2, [r3, #0]
 800326a:	4b8f      	ldr	r3, [pc, #572]	; (80034a8 <UART_SetConfig+0x2cc>)
 800326c:	429a      	cmp	r2, r3
 800326e:	d005      	beq.n	800327c <UART_SetConfig+0xa0>
 8003270:	f8d7 30f4 	ldr.w	r3, [r7, #244]	; 0xf4
 8003274:	681a      	ldr	r2, [r3, #0]
 8003276:	4b8d      	ldr	r3, [pc, #564]	; (80034ac <UART_SetConfig+0x2d0>)
 8003278:	429a      	cmp	r2, r3
 800327a:	d104      	bne.n	8003286 <UART_SetConfig+0xaa>
    {
      pclk = HAL_RCC_GetPCLK2Freq();
 800327c:	f7ff f996 	bl	80025ac <HAL_RCC_GetPCLK2Freq>
 8003280:	f8c7 00fc 	str.w	r0, [r7, #252]	; 0xfc
 8003284:	e003      	b.n	800328e <UART_SetConfig+0xb2>
      pclk = HAL_RCC_GetPCLK2Freq();
    }
#endif /* USART6 */
    else
    {
      pclk = HAL_RCC_GetPCLK1Freq();
 8003286:	f7ff f97d 	bl	8002584 <HAL_RCC_GetPCLK1Freq>
 800328a:	f8c7 00fc 	str.w	r0, [r7, #252]	; 0xfc
    }
  /*-------------------------- USART BRR Configuration ---------------------*/
  if (huart->Init.OverSampling == UART_OVERSAMPLING_8)
 800328e:	f8d7 30f4 	ldr.w	r3, [r7, #244]	; 0xf4
 8003292:	69db      	ldr	r3, [r3, #28]
 8003294:	f5b3 4f00 	cmp.w	r3, #32768	; 0x8000
 8003298:	f040 810c 	bne.w	80034b4 <UART_SetConfig+0x2d8>
  {
    huart->Instance->BRR = UART_BRR_SAMPLING8(pclk, huart->Init.BaudRate);
 800329c:	f8d7 30fc 	ldr.w	r3, [r7, #252]	; 0xfc
 80032a0:	2200      	movs	r2, #0
 80032a2:	f8c7 30e8 	str.w	r3, [r7, #232]	; 0xe8
 80032a6:	f8c7 20ec 	str.w	r2, [r7, #236]	; 0xec
 80032aa:	e9d7 453a 	ldrd	r4, r5, [r7, #232]	; 0xe8
 80032ae:	4622      	mov	r2, r4
 80032b0:	462b      	mov	r3, r5
 80032b2:	1891      	adds	r1, r2, r2
 80032b4:	65b9      	str	r1, [r7, #88]	; 0x58
 80032b6:	415b      	adcs	r3, r3
 80032b8:	65fb      	str	r3, [r7, #92]	; 0x5c
 80032ba:	e9d7 2316 	ldrd	r2, r3, [r7, #88]	; 0x58
 80032be:	4621      	mov	r1, r4
 80032c0:	eb12 0801 	adds.w	r8, r2, r1
 80032c4:	4629      	mov	r1, r5
 80032c6:	eb43 0901 	adc.w	r9, r3, r1
 80032ca:	f04f 0200 	mov.w	r2, #0
 80032ce:	f04f 0300 	mov.w	r3, #0
 80032d2:	ea4f 03c9 	mov.w	r3, r9, lsl #3
 80032d6:	ea43 7358 	orr.w	r3, r3, r8, lsr #29
 80032da:	ea4f 02c8 	mov.w	r2, r8, lsl #3
 80032de:	4690      	mov	r8, r2
 80032e0:	4699      	mov	r9, r3
 80032e2:	4623      	mov	r3, r4
 80032e4:	eb18 0303 	adds.w	r3, r8, r3
 80032e8:	f8c7 30e0 	str.w	r3, [r7, #224]	; 0xe0
 80032ec:	462b      	mov	r3, r5
 80032ee:	eb49 0303 	adc.w	r3, r9, r3
 80032f2:	f8c7 30e4 	str.w	r3, [r7, #228]	; 0xe4
 80032f6:	f8d7 30f4 	ldr.w	r3, [r7, #244]	; 0xf4
 80032fa:	685b      	ldr	r3, [r3, #4]
 80032fc:	2200      	movs	r2, #0
 80032fe:	f8c7 30d8 	str.w	r3, [r7, #216]	; 0xd8
 8003302:	f8c7 20dc 	str.w	r2, [r7, #220]	; 0xdc
 8003306:	e9d7 1236 	ldrd	r1, r2, [r7, #216]	; 0xd8
 800330a:	460b      	mov	r3, r1
 800330c:	18db      	adds	r3, r3, r3
 800330e:	653b      	str	r3, [r7, #80]	; 0x50
 8003310:	4613      	mov	r3, r2
 8003312:	eb42 0303 	adc.w	r3, r2, r3
 8003316:	657b      	str	r3, [r7, #84]	; 0x54
 8003318:	e9d7 2314 	ldrd	r2, r3, [r7, #80]	; 0x50
 800331c:	e9d7 0138 	ldrd	r0, r1, [r7, #224]	; 0xe0
 8003320:	f7fd f916 	bl	8000550 <__aeabi_uldivmod>
 8003324:	4602      	mov	r2, r0
 8003326:	460b      	mov	r3, r1
 8003328:	4b61      	ldr	r3, [pc, #388]	; (80034b0 <UART_SetConfig+0x2d4>)
 800332a:	fba3 2302 	umull	r2, r3, r3, r2
 800332e:	095b      	lsrs	r3, r3, #5
 8003330:	011c      	lsls	r4, r3, #4
 8003332:	f8d7 30fc 	ldr.w	r3, [r7, #252]	; 0xfc
 8003336:	2200      	movs	r2, #0
 8003338:	f8c7 30d0 	str.w	r3, [r7, #208]	; 0xd0
 800333c:	f8c7 20d4 	str.w	r2, [r7, #212]	; 0xd4
 8003340:	e9d7 8934 	ldrd	r8, r9, [r7, #208]	; 0xd0
 8003344:	4642      	mov	r2, r8
 8003346:	464b      	mov	r3, r9
 8003348:	1891      	adds	r1, r2, r2
 800334a:	64b9      	str	r1, [r7, #72]	; 0x48
 800334c:	415b      	adcs	r3, r3
 800334e:	64fb      	str	r3, [r7, #76]	; 0x4c
 8003350:	e9d7 2312 	ldrd	r2, r3, [r7, #72]	; 0x48
 8003354:	4641      	mov	r1, r8
 8003356:	eb12 0a01 	adds.w	sl, r2, r1
 800335a:	4649      	mov	r1, r9
 800335c:	eb43 0b01 	adc.w	fp, r3, r1
 8003360:	f04f 0200 	mov.w	r2, #0
 8003364:	f04f 0300 	mov.w	r3, #0
 8003368:	ea4f 03cb 	mov.w	r3, fp, lsl #3
 800336c:	ea43 735a 	orr.w	r3, r3, sl, lsr #29
 8003370:	ea4f 02ca 	mov.w	r2, sl, lsl #3
 8003374:	4692      	mov	sl, r2
 8003376:	469b      	mov	fp, r3
 8003378:	4643      	mov	r3, r8
 800337a:	eb1a 0303 	adds.w	r3, sl, r3
 800337e:	f8c7 30c8 	str.w	r3, [r7, #200]	; 0xc8
 8003382:	464b      	mov	r3, r9
 8003384:	eb4b 0303 	adc.w	r3, fp, r3
 8003388:	f8c7 30cc 	str.w	r3, [r7, #204]	; 0xcc
 800338c:	f8d7 30f4 	ldr.w	r3, [r7, #244]	; 0xf4
 8003390:	685b      	ldr	r3, [r3, #4]
 8003392:	2200      	movs	r2, #0
 8003394:	f8c7 30c0 	str.w	r3, [r7, #192]	; 0xc0
 8003398:	f8c7 20c4 	str.w	r2, [r7, #196]	; 0xc4
 800339c:	e9d7 1230 	ldrd	r1, r2, [r7, #192]	; 0xc0
 80033a0:	460b      	mov	r3, r1
 80033a2:	18db      	adds	r3, r3, r3
 80033a4:	643b      	str	r3, [r7, #64]	; 0x40
 80033a6:	4613      	mov	r3, r2
 80033a8:	eb42 0303 	adc.w	r3, r2, r3
 80033ac:	647b      	str	r3, [r7, #68]	; 0x44
 80033ae:	e9d7 2310 	ldrd	r2, r3, [r7, #64]	; 0x40
 80033b2:	e9d7 0132 	ldrd	r0, r1, [r7, #200]	; 0xc8
 80033b6:	f7fd f8cb 	bl	8000550 <__aeabi_uldivmod>
 80033ba:	4602      	mov	r2, r0
 80033bc:	460b      	mov	r3, r1
 80033be:	4611      	mov	r1, r2
 80033c0:	4b3b      	ldr	r3, [pc, #236]	; (80034b0 <UART_SetConfig+0x2d4>)
 80033c2:	fba3 2301 	umull	r2, r3, r3, r1
 80033c6:	095b      	lsrs	r3, r3, #5
 80033c8:	2264      	movs	r2, #100	; 0x64
 80033ca:	fb02 f303 	mul.w	r3, r2, r3
 80033ce:	1acb      	subs	r3, r1, r3
 80033d0:	00db      	lsls	r3, r3, #3
 80033d2:	f103 0232 	add.w	r2, r3, #50	; 0x32
 80033d6:	4b36      	ldr	r3, [pc, #216]	; (80034b0 <UART_SetConfig+0x2d4>)
 80033d8:	fba3 2302 	umull	r2, r3, r3, r2
 80033dc:	095b      	lsrs	r3, r3, #5
 80033de:	005b      	lsls	r3, r3, #1
 80033e0:	f403 73f8 	and.w	r3, r3, #496	; 0x1f0
 80033e4:	441c      	add	r4, r3
 80033e6:	f8d7 30fc 	ldr.w	r3, [r7, #252]	; 0xfc
 80033ea:	2200      	movs	r2, #0
 80033ec:	f8c7 30b8 	str.w	r3, [r7, #184]	; 0xb8
 80033f0:	f8c7 20bc 	str.w	r2, [r7, #188]	; 0xbc
 80033f4:	e9d7 892e 	ldrd	r8, r9, [r7, #184]	; 0xb8
 80033f8:	4642      	mov	r2, r8
 80033fa:	464b      	mov	r3, r9
 80033fc:	1891      	adds	r1, r2, r2
 80033fe:	63b9      	str	r1, [r7, #56]	; 0x38
 8003400:	415b      	adcs	r3, r3
 8003402:	63fb      	str	r3, [r7, #60]	; 0x3c
 8003404:	e9d7 230e 	ldrd	r2, r3, [r7, #56]	; 0x38
 8003408:	4641      	mov	r1, r8
 800340a:	1851      	adds	r1, r2, r1
 800340c:	6339      	str	r1, [r7, #48]	; 0x30
 800340e:	4649      	mov	r1, r9
 8003410:	414b      	adcs	r3, r1
 8003412:	637b      	str	r3, [r7, #52]	; 0x34
 8003414:	f04f 0200 	mov.w	r2, #0
 8003418:	f04f 0300 	mov.w	r3, #0
 800341c:	e9d7 ab0c 	ldrd	sl, fp, [r7, #48]	; 0x30
 8003420:	4659      	mov	r1, fp
 8003422:	00cb      	lsls	r3, r1, #3
 8003424:	4651      	mov	r1, sl
 8003426:	ea43 7351 	orr.w	r3, r3, r1, lsr #29
 800342a:	4651      	mov	r1, sl
 800342c:	00ca      	lsls	r2, r1, #3
 800342e:	4610      	mov	r0, r2
 8003430:	4619      	mov	r1, r3
 8003432:	4603      	mov	r3, r0
 8003434:	4642      	mov	r2, r8
 8003436:	189b      	adds	r3, r3, r2
 8003438:	f8c7 30b0 	str.w	r3, [r7, #176]	; 0xb0
 800343c:	464b      	mov	r3, r9
 800343e:	460a      	mov	r2, r1
 8003440:	eb42 0303 	adc.w	r3, r2, r3
 8003444:	f8c7 30b4 	str.w	r3, [r7, #180]	; 0xb4
 8003448:	f8d7 30f4 	ldr.w	r3, [r7, #244]	; 0xf4
 800344c:	685b      	ldr	r3, [r3, #4]
 800344e:	2200      	movs	r2, #0
 8003450:	f8c7 30a8 	str.w	r3, [r7, #168]	; 0xa8
 8003454:	f8c7 20ac 	str.w	r2, [r7, #172]	; 0xac
 8003458:	e9d7 122a 	ldrd	r1, r2, [r7, #168]	; 0xa8
 800345c:	460b      	mov	r3, r1
 800345e:	18db      	adds	r3, r3, r3
 8003460:	62bb      	str	r3, [r7, #40]	; 0x28
 8003462:	4613      	mov	r3, r2
 8003464:	eb42 0303 	adc.w	r3, r2, r3
 8003468:	62fb      	str	r3, [r7, #44]	; 0x2c
 800346a:	e9d7 230a 	ldrd	r2, r3, [r7, #40]	; 0x28
 800346e:	e9d7 012c 	ldrd	r0, r1, [r7, #176]	; 0xb0
 8003472:	f7fd f86d 	bl	8000550 <__aeabi_uldivmod>
 8003476:	4602      	mov	r2, r0
 8003478:	460b      	mov	r3, r1
 800347a:	4b0d      	ldr	r3, [pc, #52]	; (80034b0 <UART_SetConfig+0x2d4>)
 800347c:	fba3 1302 	umull	r1, r3, r3, r2
 8003480:	095b      	lsrs	r3, r3, #5
 8003482:	2164      	movs	r1, #100	; 0x64
 8003484:	fb01 f303 	mul.w	r3, r1, r3
 8003488:	1ad3      	subs	r3, r2, r3
 800348a:	00db      	lsls	r3, r3, #3
 800348c:	3332      	adds	r3, #50	; 0x32
 800348e:	4a08      	ldr	r2, [pc, #32]	; (80034b0 <UART_SetConfig+0x2d4>)
 8003490:	fba2 2303 	umull	r2, r3, r2, r3
 8003494:	095b      	lsrs	r3, r3, #5
 8003496:	f003 0207 	and.w	r2, r3, #7
 800349a:	f8d7 30f4 	ldr.w	r3, [r7, #244]	; 0xf4
 800349e:	681b      	ldr	r3, [r3, #0]
 80034a0:	4422      	add	r2, r4
 80034a2:	609a      	str	r2, [r3, #8]
  }
  else
  {
    huart->Instance->BRR = UART_BRR_SAMPLING16(pclk, huart->Init.BaudRate);
  }
}
 80034a4:	e106      	b.n	80036b4 <UART_SetConfig+0x4d8>
 80034a6:	bf00      	nop
 80034a8:	40011000 	.word	0x40011000
 80034ac:	40011400 	.word	0x40011400
 80034b0:	51eb851f 	.word	0x51eb851f
    huart->Instance->BRR = UART_BRR_SAMPLING16(pclk, huart->Init.BaudRate);
 80034b4:	f8d7 30fc 	ldr.w	r3, [r7, #252]	; 0xfc
 80034b8:	2200      	movs	r2, #0
 80034ba:	f8c7 30a0 	str.w	r3, [r7, #160]	; 0xa0
 80034be:	f8c7 20a4 	str.w	r2, [r7, #164]	; 0xa4
 80034c2:	e9d7 8928 	ldrd	r8, r9, [r7, #160]	; 0xa0
 80034c6:	4642      	mov	r2, r8
 80034c8:	464b      	mov	r3, r9
 80034ca:	1891      	adds	r1, r2, r2
 80034cc:	6239      	str	r1, [r7, #32]
 80034ce:	415b      	adcs	r3, r3
 80034d0:	627b      	str	r3, [r7, #36]	; 0x24
 80034d2:	e9d7 2308 	ldrd	r2, r3, [r7, #32]
 80034d6:	4641      	mov	r1, r8
 80034d8:	1854      	adds	r4, r2, r1
 80034da:	4649      	mov	r1, r9
 80034dc:	eb43 0501 	adc.w	r5, r3, r1
 80034e0:	f04f 0200 	mov.w	r2, #0
 80034e4:	f04f 0300 	mov.w	r3, #0
 80034e8:	00eb      	lsls	r3, r5, #3
 80034ea:	ea43 7354 	orr.w	r3, r3, r4, lsr #29
 80034ee:	00e2      	lsls	r2, r4, #3
 80034f0:	4614      	mov	r4, r2
 80034f2:	461d      	mov	r5, r3
 80034f4:	4643      	mov	r3, r8
 80034f6:	18e3      	adds	r3, r4, r3
 80034f8:	f8c7 3098 	str.w	r3, [r7, #152]	; 0x98
 80034fc:	464b      	mov	r3, r9
 80034fe:	eb45 0303 	adc.w	r3, r5, r3
 8003502:	f8c7 309c 	str.w	r3, [r7, #156]	; 0x9c
 8003506:	f8d7 30f4 	ldr.w	r3, [r7, #244]	; 0xf4
 800350a:	685b      	ldr	r3, [r3, #4]
 800350c:	2200      	movs	r2, #0
 800350e:	f8c7 3090 	str.w	r3, [r7, #144]	; 0x90
 8003512:	f8c7 2094 	str.w	r2, [r7, #148]	; 0x94
 8003516:	f04f 0200 	mov.w	r2, #0
 800351a:	f04f 0300 	mov.w	r3, #0
 800351e:	e9d7 4524 	ldrd	r4, r5, [r7, #144]	; 0x90
 8003522:	4629      	mov	r1, r5
 8003524:	008b      	lsls	r3, r1, #2
 8003526:	4621      	mov	r1, r4
 8003528:	ea43 7391 	orr.w	r3, r3, r1, lsr #30
 800352c:	4621      	mov	r1, r4
 800352e:	008a      	lsls	r2, r1, #2
 8003530:	e9d7 0126 	ldrd	r0, r1, [r7, #152]	; 0x98
 8003534:	f7fd f80c 	bl	8000550 <__aeabi_uldivmod>
 8003538:	4602      	mov	r2, r0
 800353a:	460b      	mov	r3, r1
 800353c:	4b60      	ldr	r3, [pc, #384]	; (80036c0 <UART_SetConfig+0x4e4>)
 800353e:	fba3 2302 	umull	r2, r3, r3, r2
 8003542:	095b      	lsrs	r3, r3, #5
 8003544:	011c      	lsls	r4, r3, #4
 8003546:	f8d7 30fc 	ldr.w	r3, [r7, #252]	; 0xfc
 800354a:	2200      	movs	r2, #0
 800354c:	f8c7 3088 	str.w	r3, [r7, #136]	; 0x88
 8003550:	f8c7 208c 	str.w	r2, [r7, #140]	; 0x8c
 8003554:	e9d7 8922 	ldrd	r8, r9, [r7, #136]	; 0x88
 8003558:	4642      	mov	r2, r8
 800355a:	464b      	mov	r3, r9
 800355c:	1891      	adds	r1, r2, r2
 800355e:	61b9      	str	r1, [r7, #24]
 8003560:	415b      	adcs	r3, r3
 8003562:	61fb      	str	r3, [r7, #28]
 8003564:	e9d7 2306 	ldrd	r2, r3, [r7, #24]
 8003568:	4641      	mov	r1, r8
 800356a:	1851      	adds	r1, r2, r1
 800356c:	6139      	str	r1, [r7, #16]
 800356e:	4649      	mov	r1, r9
 8003570:	414b      	adcs	r3, r1
 8003572:	617b      	str	r3, [r7, #20]
 8003574:	f04f 0200 	mov.w	r2, #0
 8003578:	f04f 0300 	mov.w	r3, #0
 800357c:	e9d7 ab04 	ldrd	sl, fp, [r7, #16]
 8003580:	4659      	mov	r1, fp
 8003582:	00cb      	lsls	r3, r1, #3
 8003584:	4651      	mov	r1, sl
 8003586:	ea43 7351 	orr.w	r3, r3, r1, lsr #29
 800358a:	4651      	mov	r1, sl
 800358c:	00ca      	lsls	r2, r1, #3
 800358e:	4610      	mov	r0, r2
 8003590:	4619      	mov	r1, r3
 8003592:	4603      	mov	r3, r0
 8003594:	4642      	mov	r2, r8
 8003596:	189b      	adds	r3, r3, r2
 8003598:	f8c7 3080 	str.w	r3, [r7, #128]	; 0x80
 800359c:	464b      	mov	r3, r9
 800359e:	460a      	mov	r2, r1
 80035a0:	eb42 0303 	adc.w	r3, r2, r3
 80035a4:	f8c7 3084 	str.w	r3, [r7, #132]	; 0x84
 80035a8:	f8d7 30f4 	ldr.w	r3, [r7, #244]	; 0xf4
 80035ac:	685b      	ldr	r3, [r3, #4]
 80035ae:	2200      	movs	r2, #0
 80035b0:	67bb      	str	r3, [r7, #120]	; 0x78
 80035b2:	67fa      	str	r2, [r7, #124]	; 0x7c
 80035b4:	f04f 0200 	mov.w	r2, #0
 80035b8:	f04f 0300 	mov.w	r3, #0
 80035bc:	e9d7 891e 	ldrd	r8, r9, [r7, #120]	; 0x78
 80035c0:	4649      	mov	r1, r9
 80035c2:	008b      	lsls	r3, r1, #2
 80035c4:	4641      	mov	r1, r8
 80035c6:	ea43 7391 	orr.w	r3, r3, r1, lsr #30
 80035ca:	4641      	mov	r1, r8
 80035cc:	008a      	lsls	r2, r1, #2
 80035ce:	e9d7 0120 	ldrd	r0, r1, [r7, #128]	; 0x80
 80035d2:	f7fc ffbd 	bl	8000550 <__aeabi_uldivmod>
 80035d6:	4602      	mov	r2, r0
 80035d8:	460b      	mov	r3, r1
 80035da:	4611      	mov	r1, r2
 80035dc:	4b38      	ldr	r3, [pc, #224]	; (80036c0 <UART_SetConfig+0x4e4>)
 80035de:	fba3 2301 	umull	r2, r3, r3, r1
 80035e2:	095b      	lsrs	r3, r3, #5
 80035e4:	2264      	movs	r2, #100	; 0x64
 80035e6:	fb02 f303 	mul.w	r3, r2, r3
 80035ea:	1acb      	subs	r3, r1, r3
 80035ec:	011b      	lsls	r3, r3, #4
 80035ee:	3332      	adds	r3, #50	; 0x32
 80035f0:	4a33      	ldr	r2, [pc, #204]	; (80036c0 <UART_SetConfig+0x4e4>)
 80035f2:	fba2 2303 	umull	r2, r3, r2, r3
 80035f6:	095b      	lsrs	r3, r3, #5
 80035f8:	f003 03f0 	and.w	r3, r3, #240	; 0xf0
 80035fc:	441c      	add	r4, r3
 80035fe:	f8d7 30fc 	ldr.w	r3, [r7, #252]	; 0xfc
 8003602:	2200      	movs	r2, #0
 8003604:	673b      	str	r3, [r7, #112]	; 0x70
 8003606:	677a      	str	r2, [r7, #116]	; 0x74
 8003608:	e9d7 891c 	ldrd	r8, r9, [r7, #112]	; 0x70
 800360c:	4642      	mov	r2, r8
 800360e:	464b      	mov	r3, r9
 8003610:	1891      	adds	r1, r2, r2
 8003612:	60b9      	str	r1, [r7, #8]
 8003614:	415b      	adcs	r3, r3
 8003616:	60fb      	str	r3, [r7, #12]
 8003618:	e9d7 2302 	ldrd	r2, r3, [r7, #8]
 800361c:	4641      	mov	r1, r8
 800361e:	1851      	adds	r1, r2, r1
 8003620:	6039      	str	r1, [r7, #0]
 8003622:	4649      	mov	r1, r9
 8003624:	414b      	adcs	r3, r1
 8003626:	607b      	str	r3, [r7, #4]
 8003628:	f04f 0200 	mov.w	r2, #0
 800362c:	f04f 0300 	mov.w	r3, #0
 8003630:	e9d7 ab00 	ldrd	sl, fp, [r7]
 8003634:	4659      	mov	r1, fp
 8003636:	00cb      	lsls	r3, r1, #3
 8003638:	4651      	mov	r1, sl
 800363a:	ea43 7351 	orr.w	r3, r3, r1, lsr #29
 800363e:	4651      	mov	r1, sl
 8003640:	00ca      	lsls	r2, r1, #3
 8003642:	4610      	mov	r0, r2
 8003644:	4619      	mov	r1, r3
 8003646:	4603      	mov	r3, r0
 8003648:	4642      	mov	r2, r8
 800364a:	189b      	adds	r3, r3, r2
 800364c:	66bb      	str	r3, [r7, #104]	; 0x68
 800364e:	464b      	mov	r3, r9
 8003650:	460a      	mov	r2, r1
 8003652:	eb42 0303 	adc.w	r3, r2, r3
 8003656:	66fb      	str	r3, [r7, #108]	; 0x6c
 8003658:	f8d7 30f4 	ldr.w	r3, [r7, #244]	; 0xf4
 800365c:	685b      	ldr	r3, [r3, #4]
 800365e:	2200      	movs	r2, #0
 8003660:	663b      	str	r3, [r7, #96]	; 0x60
 8003662:	667a      	str	r2, [r7, #100]	; 0x64
 8003664:	f04f 0200 	mov.w	r2, #0
 8003668:	f04f 0300 	mov.w	r3, #0
 800366c:	e9d7 8918 	ldrd	r8, r9, [r7, #96]	; 0x60
 8003670:	4649      	mov	r1, r9
 8003672:	008b      	lsls	r3, r1, #2
 8003674:	4641      	mov	r1, r8
 8003676:	ea43 7391 	orr.w	r3, r3, r1, lsr #30
 800367a:	4641      	mov	r1, r8
 800367c:	008a      	lsls	r2, r1, #2
 800367e:	e9d7 011a 	ldrd	r0, r1, [r7, #104]	; 0x68
 8003682:	f7fc ff65 	bl	8000550 <__aeabi_uldivmod>
 8003686:	4602      	mov	r2, r0
 8003688:	460b      	mov	r3, r1
 800368a:	4b0d      	ldr	r3, [pc, #52]	; (80036c0 <UART_SetConfig+0x4e4>)
 800368c:	fba3 1302 	umull	r1, r3, r3, r2
 8003690:	095b      	lsrs	r3, r3, #5
 8003692:	2164      	movs	r1, #100	; 0x64
 8003694:	fb01 f303 	mul.w	r3, r1, r3
 8003698:	1ad3      	subs	r3, r2, r3
 800369a:	011b      	lsls	r3, r3, #4
 800369c:	3332      	adds	r3, #50	; 0x32
 800369e:	4a08      	ldr	r2, [pc, #32]	; (80036c0 <UART_SetConfig+0x4e4>)
 80036a0:	fba2 2303 	umull	r2, r3, r2, r3
 80036a4:	095b      	lsrs	r3, r3, #5
 80036a6:	f003 020f 	and.w	r2, r3, #15
 80036aa:	f8d7 30f4 	ldr.w	r3, [r7, #244]	; 0xf4
 80036ae:	681b      	ldr	r3, [r3, #0]
 80036b0:	4422      	add	r2, r4
 80036b2:	609a      	str	r2, [r3, #8]
}
 80036b4:	bf00      	nop
 80036b6:	f507 7780 	add.w	r7, r7, #256	; 0x100
 80036ba:	46bd      	mov	sp, r7
 80036bc:	e8bd 8fb0 	ldmia.w	sp!, {r4, r5, r7, r8, r9, sl, fp, pc}
 80036c0:	51eb851f 	.word	0x51eb851f

080036c4 <memset>:
 80036c4:	4402      	add	r2, r0
 80036c6:	4603      	mov	r3, r0
 80036c8:	4293      	cmp	r3, r2
 80036ca:	d100      	bne.n	80036ce <memset+0xa>
 80036cc:	4770      	bx	lr
 80036ce:	f803 1b01 	strb.w	r1, [r3], #1
 80036d2:	e7f9      	b.n	80036c8 <memset+0x4>

080036d4 <__libc_init_array>:
 80036d4:	b570      	push	{r4, r5, r6, lr}
 80036d6:	4d0d      	ldr	r5, [pc, #52]	; (800370c <__libc_init_array+0x38>)
 80036d8:	4c0d      	ldr	r4, [pc, #52]	; (8003710 <__libc_init_array+0x3c>)
 80036da:	1b64      	subs	r4, r4, r5
 80036dc:	10a4      	asrs	r4, r4, #2
 80036de:	2600      	movs	r6, #0
 80036e0:	42a6      	cmp	r6, r4
 80036e2:	d109      	bne.n	80036f8 <__libc_init_array+0x24>
 80036e4:	4d0b      	ldr	r5, [pc, #44]	; (8003714 <__libc_init_array+0x40>)
 80036e6:	4c0c      	ldr	r4, [pc, #48]	; (8003718 <__libc_init_array+0x44>)
 80036e8:	f000 f818 	bl	800371c <_init>
 80036ec:	1b64      	subs	r4, r4, r5
 80036ee:	10a4      	asrs	r4, r4, #2
 80036f0:	2600      	movs	r6, #0
 80036f2:	42a6      	cmp	r6, r4
 80036f4:	d105      	bne.n	8003702 <__libc_init_array+0x2e>
 80036f6:	bd70      	pop	{r4, r5, r6, pc}
 80036f8:	f855 3b04 	ldr.w	r3, [r5], #4
 80036fc:	4798      	blx	r3
 80036fe:	3601      	adds	r6, #1
 8003700:	e7ee      	b.n	80036e0 <__libc_init_array+0xc>
 8003702:	f855 3b04 	ldr.w	r3, [r5], #4
 8003706:	4798      	blx	r3
 8003708:	3601      	adds	r6, #1
 800370a:	e7f2      	b.n	80036f2 <__libc_init_array+0x1e>
 800370c:	0800384c 	.word	0x0800384c
 8003710:	0800384c 	.word	0x0800384c
 8003714:	0800384c 	.word	0x0800384c
 8003718:	08003850 	.word	0x08003850

0800371c <_init>:
 800371c:	b5f8      	push	{r3, r4, r5, r6, r7, lr}
 800371e:	bf00      	nop
 8003720:	bcf8      	pop	{r3, r4, r5, r6, r7}
 8003722:	bc08      	pop	{r3}
 8003724:	469e      	mov	lr, r3
 8003726:	4770      	bx	lr

08003728 <_fini>:
 8003728:	b5f8      	push	{r3, r4, r5, r6, r7, lr}
 800372a:	bf00      	nop
 800372c:	bcf8      	pop	{r3, r4, r5, r6, r7}
 800372e:	bc08      	pop	{r3}
 8003730:	469e      	mov	lr, r3
 8003732:	4770      	bx	lr
