
APC1.elf:     file format elf32-littlearm

Sections:
Idx Name          Size      VMA       LMA       File off  Algn
  0 .isr_vector   00000198  08000000  08000000  00001000  2**0
                  CONTENTS, ALLOC, LOAD, READONLY, DATA
  1 .text         0000347c  08000198  08000198  00001198  2**2
                  CONTENTS, ALLOC, LOAD, READONLY, CODE
  2 .rodata       00000140  08003614  08003614  00004614  2**2
                  CONTENTS, ALLOC, LOAD, READONLY, DATA
  3 .ARM.extab    00000000  08003754  08003754  0000508c  2**0
                  CONTENTS
  4 .ARM          00000008  08003754  08003754  00004754  2**2
                  CONTENTS, ALLOC, LOAD, READONLY, DATA
  5 .preinit_array 00000000  0800375c  0800375c  0000508c  2**0
                  CONTENTS, ALLOC, LOAD, DATA
  6 .init_array   00000004  0800375c  0800375c  0000475c  2**2
                  CONTENTS, ALLOC, LOAD, DATA
  7 .fini_array   00000004  08003760  08003760  00004760  2**2
                  CONTENTS, ALLOC, LOAD, DATA
  8 .data         0000008c  20000000  08003764  00005000  2**2
                  CONTENTS, ALLOC, LOAD, DATA
  9 .bss          000002e4  20000090  080037f0  00005090  2**3
                  ALLOC
 10 ._user_heap_stack 00000604  20000374  080037f0  00005374  2**0
                  ALLOC
 11 .ARM.attributes 00000030  00000000  00000000  0000508c  2**0
                  CONTENTS, READONLY
 12 .debug_info   0000910a  00000000  00000000  000050bc  2**0
                  CONTENTS, READONLY, DEBUGGING, OCTETS
 13 .debug_abbrev 0000192c  00000000  00000000  0000e1c6  2**0
                  CONTENTS, READONLY, DEBUGGING, OCTETS
 14 .debug_aranges 000007c8  00000000  00000000  0000faf8  2**3
                  CONTENTS, READONLY, DEBUGGING, OCTETS
 15 .debug_rnglists 000005f2  00000000  00000000  000102c0  2**0
                  CONTENTS, READONLY, DEBUGGING, OCTETS
 16 .debug_macro  00015607  00000000  00000000  000108b2  2**0
                  CONTENTS, READONLY, DEBUGGING, OCTETS
 17 .debug_line   00009b20  00000000  00000000  00025eb9  2**0
                  CONTENTS, READONLY, DEBUGGING, OCTETS
 18 .debug_str    0008563d  00000000  00000000  0002f9d9  2**0
                  CONTENTS, READONLY, DEBUGGING, OCTETS
 19 .comment      00000043  00000000  00000000  000b5016  2**0
                  CONTENTS, READONLY
 20 .debug_frame  00001f7c  00000000  00000000  000b505c  2**2
                  CONTENTS, READONLY, DEBUGGING, OCTETS
 21 .debug_line_str 0000004f  00000000  00000000  000b6fd8  2**0
                  CONTENTS, READONLY, DEBUGGING, OCTETS

Disassembly of section .text:

08000198 <__do_global_dtors_aux>:
 8000198:	b510      	push	{r4, lr}
 800019a:	4c05      	ldr	r4, [pc, #20]	@ (80001b0 <__do_global_dtors_aux+0x18>)
 800019c:	7823      	ldrb	r3, [r4, #0]
 800019e:	b933      	cbnz	r3, 80001ae <__do_global_dtors_aux+0x16>
 80001a0:	4b04      	ldr	r3, [pc, #16]	@ (80001b4 <__do_global_dtors_aux+0x1c>)
 80001a2:	b113      	cbz	r3, 80001aa <__do_global_dtors_aux+0x12>
 80001a4:	4804      	ldr	r0, [pc, #16]	@ (80001b8 <__do_global_dtors_aux+0x20>)
 80001a6:	f3af 8000 	nop.w
 80001aa:	2301      	movs	r3, #1
 80001ac:	7023      	strb	r3, [r4, #0]
 80001ae:	bd10      	pop	{r4, pc}
 80001b0:	20000090 	.word	0x20000090
 80001b4:	00000000 	.word	0x00000000
 80001b8:	080035fc 	.word	0x080035fc

080001bc <frame_dummy>:
 80001bc:	b508      	push	{r3, lr}
 80001be:	4b03      	ldr	r3, [pc, #12]	@ (80001cc <frame_dummy+0x10>)
 80001c0:	b11b      	cbz	r3, 80001ca <frame_dummy+0xe>
 80001c2:	4903      	ldr	r1, [pc, #12]	@ (80001d0 <frame_dummy+0x14>)
 80001c4:	4803      	ldr	r0, [pc, #12]	@ (80001d4 <frame_dummy+0x18>)
 80001c6:	f3af 8000 	nop.w
 80001ca:	bd08      	pop	{r3, pc}
 80001cc:	00000000 	.word	0x00000000
 80001d0:	20000094 	.word	0x20000094
 80001d4:	080035fc 	.word	0x080035fc

080001d8 <strlen>:
 80001d8:	4603      	mov	r3, r0
 80001da:	f813 2b01 	ldrb.w	r2, [r3], #1
 80001de:	2a00      	cmp	r2, #0
 80001e0:	d1fb      	bne.n	80001da <strlen+0x2>
 80001e2:	1a18      	subs	r0, r3, r0
 80001e4:	3801      	subs	r0, #1
 80001e6:	4770      	bx	lr

080001e8 <__aeabi_drsub>:
 80001e8:	f081 4100 	eor.w	r1, r1, #2147483648	@ 0x80000000
 80001ec:	e002      	b.n	80001f4 <__adddf3>
 80001ee:	bf00      	nop

080001f0 <__aeabi_dsub>:
 80001f0:	f083 4300 	eor.w	r3, r3, #2147483648	@ 0x80000000

080001f4 <__adddf3>:
 80001f4:	b530      	push	{r4, r5, lr}
 80001f6:	ea4f 0441 	mov.w	r4, r1, lsl #1
 80001fa:	ea4f 0543 	mov.w	r5, r3, lsl #1
 80001fe:	ea94 0f05 	teq	r4, r5
 8000202:	bf08      	it	eq
 8000204:	ea90 0f02 	teqeq	r0, r2
 8000208:	bf1f      	itttt	ne
 800020a:	ea54 0c00 	orrsne.w	ip, r4, r0
 800020e:	ea55 0c02 	orrsne.w	ip, r5, r2
 8000212:	ea7f 5c64 	mvnsne.w	ip, r4, asr #21
 8000216:	ea7f 5c65 	mvnsne.w	ip, r5, asr #21
 800021a:	f000 80e2 	beq.w	80003e2 <__adddf3+0x1ee>
 800021e:	ea4f 5454 	mov.w	r4, r4, lsr #21
 8000222:	ebd4 5555 	rsbs	r5, r4, r5, lsr #21
 8000226:	bfb8      	it	lt
 8000228:	426d      	neglt	r5, r5
 800022a:	dd0c      	ble.n	8000246 <__adddf3+0x52>
 800022c:	442c      	add	r4, r5
 800022e:	ea80 0202 	eor.w	r2, r0, r2
 8000232:	ea81 0303 	eor.w	r3, r1, r3
 8000236:	ea82 0000 	eor.w	r0, r2, r0
 800023a:	ea83 0101 	eor.w	r1, r3, r1
 800023e:	ea80 0202 	eor.w	r2, r0, r2
 8000242:	ea81 0303 	eor.w	r3, r1, r3
 8000246:	2d36      	cmp	r5, #54	@ 0x36
 8000248:	bf88      	it	hi
 800024a:	bd30      	pophi	{r4, r5, pc}
 800024c:	f011 4f00 	tst.w	r1, #2147483648	@ 0x80000000
 8000250:	ea4f 3101 	mov.w	r1, r1, lsl #12
 8000254:	f44f 1c80 	mov.w	ip, #1048576	@ 0x100000
 8000258:	ea4c 3111 	orr.w	r1, ip, r1, lsr #12
 800025c:	d002      	beq.n	8000264 <__adddf3+0x70>
 800025e:	4240      	negs	r0, r0
 8000260:	eb61 0141 	sbc.w	r1, r1, r1, lsl #1
 8000264:	f013 4f00 	tst.w	r3, #2147483648	@ 0x80000000
 8000268:	ea4f 3303 	mov.w	r3, r3, lsl #12
 800026c:	ea4c 3313 	orr.w	r3, ip, r3, lsr #12
 8000270:	d002      	beq.n	8000278 <__adddf3+0x84>
 8000272:	4252      	negs	r2, r2
 8000274:	eb63 0343 	sbc.w	r3, r3, r3, lsl #1
 8000278:	ea94 0f05 	teq	r4, r5
 800027c:	f000 80a7 	beq.w	80003ce <__adddf3+0x1da>
 8000280:	f1a4 0401 	sub.w	r4, r4, #1
 8000284:	f1d5 0e20 	rsbs	lr, r5, #32
 8000288:	db0d      	blt.n	80002a6 <__adddf3+0xb2>
 800028a:	fa02 fc0e 	lsl.w	ip, r2, lr
 800028e:	fa22 f205 	lsr.w	r2, r2, r5
 8000292:	1880      	adds	r0, r0, r2
 8000294:	f141 0100 	adc.w	r1, r1, #0
 8000298:	fa03 f20e 	lsl.w	r2, r3, lr
 800029c:	1880      	adds	r0, r0, r2
 800029e:	fa43 f305 	asr.w	r3, r3, r5
 80002a2:	4159      	adcs	r1, r3
 80002a4:	e00e      	b.n	80002c4 <__adddf3+0xd0>
 80002a6:	f1a5 0520 	sub.w	r5, r5, #32
 80002aa:	f10e 0e20 	add.w	lr, lr, #32
 80002ae:	2a01      	cmp	r2, #1
 80002b0:	fa03 fc0e 	lsl.w	ip, r3, lr
 80002b4:	bf28      	it	cs
 80002b6:	f04c 0c02 	orrcs.w	ip, ip, #2
 80002ba:	fa43 f305 	asr.w	r3, r3, r5
 80002be:	18c0      	adds	r0, r0, r3
 80002c0:	eb51 71e3 	adcs.w	r1, r1, r3, asr #31
 80002c4:	f001 4500 	and.w	r5, r1, #2147483648	@ 0x80000000
 80002c8:	d507      	bpl.n	80002da <__adddf3+0xe6>
 80002ca:	f04f 0e00 	mov.w	lr, #0
 80002ce:	f1dc 0c00 	rsbs	ip, ip, #0
 80002d2:	eb7e 0000 	sbcs.w	r0, lr, r0
 80002d6:	eb6e 0101 	sbc.w	r1, lr, r1
 80002da:	f5b1 1f80 	cmp.w	r1, #1048576	@ 0x100000
 80002de:	d31b      	bcc.n	8000318 <__adddf3+0x124>
 80002e0:	f5b1 1f00 	cmp.w	r1, #2097152	@ 0x200000
 80002e4:	d30c      	bcc.n	8000300 <__adddf3+0x10c>
 80002e6:	0849      	lsrs	r1, r1, #1
 80002e8:	ea5f 0030 	movs.w	r0, r0, rrx
 80002ec:	ea4f 0c3c 	mov.w	ip, ip, rrx
 80002f0:	f104 0401 	add.w	r4, r4, #1
 80002f4:	ea4f 5244 	mov.w	r2, r4, lsl #21
 80002f8:	f512 0f80 	cmn.w	r2, #4194304	@ 0x400000
 80002fc:	f080 809a 	bcs.w	8000434 <__adddf3+0x240>
 8000300:	f1bc 4f00 	cmp.w	ip, #2147483648	@ 0x80000000
 8000304:	bf08      	it	eq
 8000306:	ea5f 0c50 	movseq.w	ip, r0, lsr #1
 800030a:	f150 0000 	adcs.w	r0, r0, #0
 800030e:	eb41 5104 	adc.w	r1, r1, r4, lsl #20
 8000312:	ea41 0105 	orr.w	r1, r1, r5
 8000316:	bd30      	pop	{r4, r5, pc}
 8000318:	ea5f 0c4c 	movs.w	ip, ip, lsl #1
 800031c:	4140      	adcs	r0, r0
 800031e:	eb41 0101 	adc.w	r1, r1, r1
 8000322:	3c01      	subs	r4, #1
 8000324:	bf28      	it	cs
 8000326:	f5b1 1f80 	cmpcs.w	r1, #1048576	@ 0x100000
 800032a:	d2e9      	bcs.n	8000300 <__adddf3+0x10c>
 800032c:	f091 0f00 	teq	r1, #0
 8000330:	bf04      	itt	eq
 8000332:	4601      	moveq	r1, r0
 8000334:	2000      	moveq	r0, #0
 8000336:	fab1 f381 	clz	r3, r1
 800033a:	bf08      	it	eq
 800033c:	3320      	addeq	r3, #32
 800033e:	f1a3 030b 	sub.w	r3, r3, #11
 8000342:	f1b3 0220 	subs.w	r2, r3, #32
 8000346:	da0c      	bge.n	8000362 <__adddf3+0x16e>
 8000348:	320c      	adds	r2, #12
 800034a:	dd08      	ble.n	800035e <__adddf3+0x16a>
 800034c:	f102 0c14 	add.w	ip, r2, #20
 8000350:	f1c2 020c 	rsb	r2, r2, #12
 8000354:	fa01 f00c 	lsl.w	r0, r1, ip
 8000358:	fa21 f102 	lsr.w	r1, r1, r2
 800035c:	e00c      	b.n	8000378 <__adddf3+0x184>
 800035e:	f102 0214 	add.w	r2, r2, #20
 8000362:	bfd8      	it	le
 8000364:	f1c2 0c20 	rsble	ip, r2, #32
 8000368:	fa01 f102 	lsl.w	r1, r1, r2
 800036c:	fa20 fc0c 	lsr.w	ip, r0, ip
 8000370:	bfdc      	itt	le
 8000372:	ea41 010c 	orrle.w	r1, r1, ip
 8000376:	4090      	lslle	r0, r2
 8000378:	1ae4      	subs	r4, r4, r3
 800037a:	bfa2      	ittt	ge
 800037c:	eb01 5104 	addge.w	r1, r1, r4, lsl #20
 8000380:	4329      	orrge	r1, r5
 8000382:	bd30      	popge	{r4, r5, pc}
 8000384:	ea6f 0404 	mvn.w	r4, r4
 8000388:	3c1f      	subs	r4, #31
 800038a:	da1c      	bge.n	80003c6 <__adddf3+0x1d2>
 800038c:	340c      	adds	r4, #12
 800038e:	dc0e      	bgt.n	80003ae <__adddf3+0x1ba>
 8000390:	f104 0414 	add.w	r4, r4, #20
 8000394:	f1c4 0220 	rsb	r2, r4, #32
 8000398:	fa20 f004 	lsr.w	r0, r0, r4
 800039c:	fa01 f302 	lsl.w	r3, r1, r2
 80003a0:	ea40 0003 	orr.w	r0, r0, r3
 80003a4:	fa21 f304 	lsr.w	r3, r1, r4
 80003a8:	ea45 0103 	orr.w	r1, r5, r3
 80003ac:	bd30      	pop	{r4, r5, pc}
 80003ae:	f1c4 040c 	rsb	r4, r4, #12
 80003b2:	f1c4 0220 	rsb	r2, r4, #32
 80003b6:	fa20 f002 	lsr.w	r0, r0, r2
 80003ba:	fa01 f304 	lsl.w	r3, r1, r4
 80003be:	ea40 0003 	orr.w	r0, r0, r3
 80003c2:	4629      	mov	r1, r5
 80003c4:	bd30      	pop	{r4, r5, pc}
 80003c6:	fa21 f004 	lsr.w	r0, r1, r4
 80003ca:	4629      	mov	r1, r5
 80003cc:	bd30      	pop	{r4, r5, pc}
 80003ce:	f094 0f00 	teq	r4, #0
 80003d2:	f483 1380 	eor.w	r3, r3, #1048576	@ 0x100000
 80003d6:	bf06      	itte	eq
 80003d8:	f481 1180 	eoreq.w	r1, r1, #1048576	@ 0x100000
 80003dc:	3401      	addeq	r4, #1
 80003de:	3d01      	subne	r5, #1
 80003e0:	e74e      	b.n	8000280 <__adddf3+0x8c>
 80003e2:	ea7f 5c64 	mvns.w	ip, r4, asr #21
 80003e6:	bf18      	it	ne
 80003e8:	ea7f 5c65 	mvnsne.w	ip, r5, asr #21
 80003ec:	d029      	beq.n	8000442 <__adddf3+0x24e>
 80003ee:	ea94 0f05 	teq	r4, r5
 80003f2:	bf08      	it	eq
 80003f4:	ea90 0f02 	teqeq	r0, r2
 80003f8:	d005      	beq.n	8000406 <__adddf3+0x212>
 80003fa:	ea54 0c00 	orrs.w	ip, r4, r0
 80003fe:	bf04      	itt	eq
 8000400:	4619      	moveq	r1, r3
 8000402:	4610      	moveq	r0, r2
 8000404:	bd30      	pop	{r4, r5, pc}
 8000406:	ea91 0f03 	teq	r1, r3
 800040a:	bf1e      	ittt	ne
 800040c:	2100      	movne	r1, #0
 800040e:	2000      	movne	r0, #0
 8000410:	bd30      	popne	{r4, r5, pc}
 8000412:	ea5f 5c54 	movs.w	ip, r4, lsr #21
 8000416:	d105      	bne.n	8000424 <__adddf3+0x230>
 8000418:	0040      	lsls	r0, r0, #1
 800041a:	4149      	adcs	r1, r1
 800041c:	bf28      	it	cs
 800041e:	f041 4100 	orrcs.w	r1, r1, #2147483648	@ 0x80000000
 8000422:	bd30      	pop	{r4, r5, pc}
 8000424:	f514 0480 	adds.w	r4, r4, #4194304	@ 0x400000
 8000428:	bf3c      	itt	cc
 800042a:	f501 1180 	addcc.w	r1, r1, #1048576	@ 0x100000
 800042e:	bd30      	popcc	{r4, r5, pc}
 8000430:	f001 4500 	and.w	r5, r1, #2147483648	@ 0x80000000
 8000434:	f045 41fe 	orr.w	r1, r5, #2130706432	@ 0x7f000000
 8000438:	f441 0170 	orr.w	r1, r1, #15728640	@ 0xf00000
 800043c:	f04f 0000 	mov.w	r0, #0
 8000440:	bd30      	pop	{r4, r5, pc}
 8000442:	ea7f 5c64 	mvns.w	ip, r4, asr #21
 8000446:	bf1a      	itte	ne
 8000448:	4619      	movne	r1, r3
 800044a:	4610      	movne	r0, r2
 800044c:	ea7f 5c65 	mvnseq.w	ip, r5, asr #21
 8000450:	bf1c      	itt	ne
 8000452:	460b      	movne	r3, r1
 8000454:	4602      	movne	r2, r0
 8000456:	ea50 3401 	orrs.w	r4, r0, r1, lsl #12
 800045a:	bf06      	itte	eq
 800045c:	ea52 3503 	orrseq.w	r5, r2, r3, lsl #12
 8000460:	ea91 0f03 	teqeq	r1, r3
 8000464:	f441 2100 	orrne.w	r1, r1, #524288	@ 0x80000
 8000468:	bd30      	pop	{r4, r5, pc}
 800046a:	bf00      	nop

0800046c <__aeabi_ui2d>:
 800046c:	f090 0f00 	teq	r0, #0
 8000470:	bf04      	itt	eq
 8000472:	2100      	moveq	r1, #0
 8000474:	4770      	bxeq	lr
 8000476:	b530      	push	{r4, r5, lr}
 8000478:	f44f 6480 	mov.w	r4, #1024	@ 0x400
 800047c:	f104 0432 	add.w	r4, r4, #50	@ 0x32
 8000480:	f04f 0500 	mov.w	r5, #0
 8000484:	f04f 0100 	mov.w	r1, #0
 8000488:	e750      	b.n	800032c <__adddf3+0x138>
 800048a:	bf00      	nop

0800048c <__aeabi_i2d>:
 800048c:	f090 0f00 	teq	r0, #0
 8000490:	bf04      	itt	eq
 8000492:	2100      	moveq	r1, #0
 8000494:	4770      	bxeq	lr
 8000496:	b530      	push	{r4, r5, lr}
 8000498:	f44f 6480 	mov.w	r4, #1024	@ 0x400
 800049c:	f104 0432 	add.w	r4, r4, #50	@ 0x32
 80004a0:	f010 4500 	ands.w	r5, r0, #2147483648	@ 0x80000000
 80004a4:	bf48      	it	mi
 80004a6:	4240      	negmi	r0, r0
 80004a8:	f04f 0100 	mov.w	r1, #0
 80004ac:	e73e      	b.n	800032c <__adddf3+0x138>
 80004ae:	bf00      	nop

080004b0 <__aeabi_f2d>:
 80004b0:	0042      	lsls	r2, r0, #1
 80004b2:	ea4f 01e2 	mov.w	r1, r2, asr #3
 80004b6:	ea4f 0131 	mov.w	r1, r1, rrx
 80004ba:	ea4f 7002 	mov.w	r0, r2, lsl #28
 80004be:	bf1f      	itttt	ne
 80004c0:	f012 437f 	andsne.w	r3, r2, #4278190080	@ 0xff000000
 80004c4:	f093 4f7f 	teqne	r3, #4278190080	@ 0xff000000
 80004c8:	f081 5160 	eorne.w	r1, r1, #939524096	@ 0x38000000
 80004cc:	4770      	bxne	lr
 80004ce:	f032 427f 	bics.w	r2, r2, #4278190080	@ 0xff000000
 80004d2:	bf08      	it	eq
 80004d4:	4770      	bxeq	lr
 80004d6:	f093 4f7f 	teq	r3, #4278190080	@ 0xff000000
 80004da:	bf04      	itt	eq
 80004dc:	f441 2100 	orreq.w	r1, r1, #524288	@ 0x80000
 80004e0:	4770      	bxeq	lr
 80004e2:	b530      	push	{r4, r5, lr}
 80004e4:	f44f 7460 	mov.w	r4, #896	@ 0x380
 80004e8:	f001 4500 	and.w	r5, r1, #2147483648	@ 0x80000000
 80004ec:	f021 4100 	bic.w	r1, r1, #2147483648	@ 0x80000000
 80004f0:	e71c      	b.n	800032c <__adddf3+0x138>
 80004f2:	bf00      	nop

080004f4 <__aeabi_ul2d>:
 80004f4:	ea50 0201 	orrs.w	r2, r0, r1
 80004f8:	bf08      	it	eq
 80004fa:	4770      	bxeq	lr
 80004fc:	b530      	push	{r4, r5, lr}
 80004fe:	f04f 0500 	mov.w	r5, #0
 8000502:	e00a      	b.n	800051a <__aeabi_l2d+0x16>

08000504 <__aeabi_l2d>:
 8000504:	ea50 0201 	orrs.w	r2, r0, r1
 8000508:	bf08      	it	eq
 800050a:	4770      	bxeq	lr
 800050c:	b530      	push	{r4, r5, lr}
 800050e:	f011 4500 	ands.w	r5, r1, #2147483648	@ 0x80000000
 8000512:	d502      	bpl.n	800051a <__aeabi_l2d+0x16>
 8000514:	4240      	negs	r0, r0
 8000516:	eb61 0141 	sbc.w	r1, r1, r1, lsl #1
 800051a:	f44f 6480 	mov.w	r4, #1024	@ 0x400
 800051e:	f104 0432 	add.w	r4, r4, #50	@ 0x32
 8000522:	ea5f 5c91 	movs.w	ip, r1, lsr #22
 8000526:	f43f aed8 	beq.w	80002da <__adddf3+0xe6>
 800052a:	f04f 0203 	mov.w	r2, #3
 800052e:	ea5f 0cdc 	movs.w	ip, ip, lsr #3
 8000532:	bf18      	it	ne
 8000534:	3203      	addne	r2, #3
 8000536:	ea5f 0cdc 	movs.w	ip, ip, lsr #3
 800053a:	bf18      	it	ne
 800053c:	3203      	addne	r2, #3
 800053e:	eb02 02dc 	add.w	r2, r2, ip, lsr #3
 8000542:	f1c2 0320 	rsb	r3, r2, #32
 8000546:	fa00 fc03 	lsl.w	ip, r0, r3
 800054a:	fa20 f002 	lsr.w	r0, r0, r2
 800054e:	fa01 fe03 	lsl.w	lr, r1, r3
 8000552:	ea40 000e 	orr.w	r0, r0, lr
 8000556:	fa21 f102 	lsr.w	r1, r1, r2
 800055a:	4414      	add	r4, r2
 800055c:	e6bd      	b.n	80002da <__adddf3+0xe6>
 800055e:	bf00      	nop

08000560 <__aeabi_uldivmod>:
 8000560:	b953      	cbnz	r3, 8000578 <__aeabi_uldivmod+0x18>
 8000562:	b94a      	cbnz	r2, 8000578 <__aeabi_uldivmod+0x18>
 8000564:	2900      	cmp	r1, #0
 8000566:	bf08      	it	eq
 8000568:	2800      	cmpeq	r0, #0
 800056a:	bf1c      	itt	ne
 800056c:	f04f 31ff 	movne.w	r1, #4294967295
 8000570:	f04f 30ff 	movne.w	r0, #4294967295
 8000574:	f000 b96a 	b.w	800084c <__aeabi_idiv0>
 8000578:	f1ad 0c08 	sub.w	ip, sp, #8
 800057c:	e96d ce04 	strd	ip, lr, [sp, #-16]!
 8000580:	f000 f806 	bl	8000590 <__udivmoddi4>
 8000584:	f8dd e004 	ldr.w	lr, [sp, #4]
 8000588:	e9dd 2302 	ldrd	r2, r3, [sp, #8]
 800058c:	b004      	add	sp, #16
 800058e:	4770      	bx	lr

08000590 <__udivmoddi4>:
 8000590:	e92d 47f0 	stmdb	sp!, {r4, r5, r6, r7, r8, r9, sl, lr}
 8000594:	9d08      	ldr	r5, [sp, #32]
 8000596:	460c      	mov	r4, r1
 8000598:	2b00      	cmp	r3, #0
 800059a:	d14e      	bne.n	800063a <__udivmoddi4+0xaa>
 800059c:	4694      	mov	ip, r2
 800059e:	458c      	cmp	ip, r1
 80005a0:	4686      	mov	lr, r0
 80005a2:	fab2 f282 	clz	r2, r2
 80005a6:	d962      	bls.n	800066e <__udivmoddi4+0xde>
 80005a8:	b14a      	cbz	r2, 80005be <__udivmoddi4+0x2e>
 80005aa:	f1c2 0320 	rsb	r3, r2, #32
 80005ae:	4091      	lsls	r1, r2
 80005b0:	fa20 f303 	lsr.w	r3, r0, r3
 80005b4:	fa0c fc02 	lsl.w	ip, ip, r2
 80005b8:	4319      	orrs	r1, r3
 80005ba:	fa00 fe02 	lsl.w	lr, r0, r2
 80005be:	ea4f 471c 	mov.w	r7, ip, lsr #16
 80005c2:	fa1f f68c 	uxth.w	r6, ip
 80005c6:	fbb1 f4f7 	udiv	r4, r1, r7
 80005ca:	ea4f 431e 	mov.w	r3, lr, lsr #16
 80005ce:	fb07 1114 	mls	r1, r7, r4, r1
 80005d2:	ea43 4301 	orr.w	r3, r3, r1, lsl #16
 80005d6:	fb04 f106 	mul.w	r1, r4, r6
 80005da:	4299      	cmp	r1, r3
 80005dc:	d90a      	bls.n	80005f4 <__udivmoddi4+0x64>
 80005de:	eb1c 0303 	adds.w	r3, ip, r3
 80005e2:	f104 30ff 	add.w	r0, r4, #4294967295
 80005e6:	f080 8112 	bcs.w	800080e <__udivmoddi4+0x27e>
 80005ea:	4299      	cmp	r1, r3
 80005ec:	f240 810f 	bls.w	800080e <__udivmoddi4+0x27e>
 80005f0:	3c02      	subs	r4, #2
 80005f2:	4463      	add	r3, ip
 80005f4:	1a59      	subs	r1, r3, r1
 80005f6:	fa1f f38e 	uxth.w	r3, lr
 80005fa:	fbb1 f0f7 	udiv	r0, r1, r7
 80005fe:	fb07 1110 	mls	r1, r7, r0, r1
 8000602:	ea43 4301 	orr.w	r3, r3, r1, lsl #16
 8000606:	fb00 f606 	mul.w	r6, r0, r6
 800060a:	429e      	cmp	r6, r3
 800060c:	d90a      	bls.n	8000624 <__udivmoddi4+0x94>
 800060e:	eb1c 0303 	adds.w	r3, ip, r3
 8000612:	f100 31ff 	add.w	r1, r0, #4294967295
 8000616:	f080 80fc 	bcs.w	8000812 <__udivmoddi4+0x282>
 800061a:	429e      	cmp	r6, r3
 800061c:	f240 80f9 	bls.w	8000812 <__udivmoddi4+0x282>
 8000620:	4463      	add	r3, ip
 8000622:	3802      	subs	r0, #2
 8000624:	1b9b      	subs	r3, r3, r6
 8000626:	ea40 4004 	orr.w	r0, r0, r4, lsl #16
 800062a:	2100      	movs	r1, #0
 800062c:	b11d      	cbz	r5, 8000636 <__udivmoddi4+0xa6>
 800062e:	40d3      	lsrs	r3, r2
 8000630:	2200      	movs	r2, #0
 8000632:	e9c5 3200 	strd	r3, r2, [r5]
 8000636:	e8bd 87f0 	ldmia.w	sp!, {r4, r5, r6, r7, r8, r9, sl, pc}
 800063a:	428b      	cmp	r3, r1
 800063c:	d905      	bls.n	800064a <__udivmoddi4+0xba>
 800063e:	b10d      	cbz	r5, 8000644 <__udivmoddi4+0xb4>
 8000640:	e9c5 0100 	strd	r0, r1, [r5]
 8000644:	2100      	movs	r1, #0
 8000646:	4608      	mov	r0, r1
 8000648:	e7f5      	b.n	8000636 <__udivmoddi4+0xa6>
 800064a:	fab3 f183 	clz	r1, r3
 800064e:	2900      	cmp	r1, #0
 8000650:	d146      	bne.n	80006e0 <__udivmoddi4+0x150>
 8000652:	42a3      	cmp	r3, r4
 8000654:	d302      	bcc.n	800065c <__udivmoddi4+0xcc>
 8000656:	4290      	cmp	r0, r2
 8000658:	f0c0 80f0 	bcc.w	800083c <__udivmoddi4+0x2ac>
 800065c:	1a86      	subs	r6, r0, r2
 800065e:	eb64 0303 	sbc.w	r3, r4, r3
 8000662:	2001      	movs	r0, #1
 8000664:	2d00      	cmp	r5, #0
 8000666:	d0e6      	beq.n	8000636 <__udivmoddi4+0xa6>
 8000668:	e9c5 6300 	strd	r6, r3, [r5]
 800066c:	e7e3      	b.n	8000636 <__udivmoddi4+0xa6>
 800066e:	2a00      	cmp	r2, #0
 8000670:	f040 8090 	bne.w	8000794 <__udivmoddi4+0x204>
 8000674:	eba1 040c 	sub.w	r4, r1, ip
 8000678:	ea4f 481c 	mov.w	r8, ip, lsr #16
 800067c:	fa1f f78c 	uxth.w	r7, ip
 8000680:	2101      	movs	r1, #1
 8000682:	fbb4 f6f8 	udiv	r6, r4, r8
 8000686:	ea4f 431e 	mov.w	r3, lr, lsr #16
 800068a:	fb08 4416 	mls	r4, r8, r6, r4
 800068e:	ea43 4304 	orr.w	r3, r3, r4, lsl #16
 8000692:	fb07 f006 	mul.w	r0, r7, r6
 8000696:	4298      	cmp	r0, r3
 8000698:	d908      	bls.n	80006ac <__udivmoddi4+0x11c>
 800069a:	eb1c 0303 	adds.w	r3, ip, r3
 800069e:	f106 34ff 	add.w	r4, r6, #4294967295
 80006a2:	d202      	bcs.n	80006aa <__udivmoddi4+0x11a>
 80006a4:	4298      	cmp	r0, r3
 80006a6:	f200 80cd 	bhi.w	8000844 <__udivmoddi4+0x2b4>
 80006aa:	4626      	mov	r6, r4
 80006ac:	1a1c      	subs	r4, r3, r0
 80006ae:	fa1f f38e 	uxth.w	r3, lr
 80006b2:	fbb4 f0f8 	udiv	r0, r4, r8
 80006b6:	fb08 4410 	mls	r4, r8, r0, r4
 80006ba:	ea43 4304 	orr.w	r3, r3, r4, lsl #16
 80006be:	fb00 f707 	mul.w	r7, r0, r7
 80006c2:	429f      	cmp	r7, r3
 80006c4:	d908      	bls.n	80006d8 <__udivmoddi4+0x148>
 80006c6:	eb1c 0303 	adds.w	r3, ip, r3
 80006ca:	f100 34ff 	add.w	r4, r0, #4294967295
 80006ce:	d202      	bcs.n	80006d6 <__udivmoddi4+0x146>
 80006d0:	429f      	cmp	r7, r3
 80006d2:	f200 80b0 	bhi.w	8000836 <__udivmoddi4+0x2a6>
 80006d6:	4620      	mov	r0, r4
 80006d8:	1bdb      	subs	r3, r3, r7
 80006da:	ea40 4006 	orr.w	r0, r0, r6, lsl #16
 80006de:	e7a5      	b.n	800062c <__udivmoddi4+0x9c>
 80006e0:	f1c1 0620 	rsb	r6, r1, #32
 80006e4:	408b      	lsls	r3, r1
 80006e6:	fa22 f706 	lsr.w	r7, r2, r6
 80006ea:	431f      	orrs	r7, r3
 80006ec:	fa20 fc06 	lsr.w	ip, r0, r6
 80006f0:	fa04 f301 	lsl.w	r3, r4, r1
 80006f4:	ea43 030c 	orr.w	r3, r3, ip
 80006f8:	40f4      	lsrs	r4, r6
 80006fa:	fa00 f801 	lsl.w	r8, r0, r1
 80006fe:	0c38      	lsrs	r0, r7, #16
 8000700:	ea4f 4913 	mov.w	r9, r3, lsr #16
 8000704:	fbb4 fef0 	udiv	lr, r4, r0
 8000708:	fa1f fc87 	uxth.w	ip, r7
 800070c:	fb00 441e 	mls	r4, r0, lr, r4
 8000710:	ea49 4404 	orr.w	r4, r9, r4, lsl #16
 8000714:	fb0e f90c 	mul.w	r9, lr, ip
 8000718:	45a1      	cmp	r9, r4
 800071a:	fa02 f201 	lsl.w	r2, r2, r1
 800071e:	d90a      	bls.n	8000736 <__udivmoddi4+0x1a6>
 8000720:	193c      	adds	r4, r7, r4
 8000722:	f10e 3aff 	add.w	sl, lr, #4294967295
 8000726:	f080 8084 	bcs.w	8000832 <__udivmoddi4+0x2a2>
 800072a:	45a1      	cmp	r9, r4
 800072c:	f240 8081 	bls.w	8000832 <__udivmoddi4+0x2a2>
 8000730:	f1ae 0e02 	sub.w	lr, lr, #2
 8000734:	443c      	add	r4, r7
 8000736:	eba4 0409 	sub.w	r4, r4, r9
 800073a:	fa1f f983 	uxth.w	r9, r3
 800073e:	fbb4 f3f0 	udiv	r3, r4, r0
 8000742:	fb00 4413 	mls	r4, r0, r3, r4
 8000746:	ea49 4404 	orr.w	r4, r9, r4, lsl #16
 800074a:	fb03 fc0c 	mul.w	ip, r3, ip
 800074e:	45a4      	cmp	ip, r4
 8000750:	d907      	bls.n	8000762 <__udivmoddi4+0x1d2>
 8000752:	193c      	adds	r4, r7, r4
 8000754:	f103 30ff 	add.w	r0, r3, #4294967295
 8000758:	d267      	bcs.n	800082a <__udivmoddi4+0x29a>
 800075a:	45a4      	cmp	ip, r4
 800075c:	d965      	bls.n	800082a <__udivmoddi4+0x29a>
 800075e:	3b02      	subs	r3, #2
 8000760:	443c      	add	r4, r7
 8000762:	ea43 400e 	orr.w	r0, r3, lr, lsl #16
 8000766:	fba0 9302 	umull	r9, r3, r0, r2
 800076a:	eba4 040c 	sub.w	r4, r4, ip
 800076e:	429c      	cmp	r4, r3
 8000770:	46ce      	mov	lr, r9
 8000772:	469c      	mov	ip, r3
 8000774:	d351      	bcc.n	800081a <__udivmoddi4+0x28a>
 8000776:	d04e      	beq.n	8000816 <__udivmoddi4+0x286>
 8000778:	b155      	cbz	r5, 8000790 <__udivmoddi4+0x200>
 800077a:	ebb8 030e 	subs.w	r3, r8, lr
 800077e:	eb64 040c 	sbc.w	r4, r4, ip
 8000782:	fa04 f606 	lsl.w	r6, r4, r6
 8000786:	40cb      	lsrs	r3, r1
 8000788:	431e      	orrs	r6, r3
 800078a:	40cc      	lsrs	r4, r1
 800078c:	e9c5 6400 	strd	r6, r4, [r5]
 8000790:	2100      	movs	r1, #0
 8000792:	e750      	b.n	8000636 <__udivmoddi4+0xa6>
 8000794:	f1c2 0320 	rsb	r3, r2, #32
 8000798:	fa20 f103 	lsr.w	r1, r0, r3
 800079c:	fa0c fc02 	lsl.w	ip, ip, r2
 80007a0:	fa24 f303 	lsr.w	r3, r4, r3
 80007a4:	4094      	lsls	r4, r2
 80007a6:	430c      	orrs	r4, r1
 80007a8:	ea4f 481c 	mov.w	r8, ip, lsr #16
 80007ac:	fa00 fe02 	lsl.w	lr, r0, r2
 80007b0:	fa1f f78c 	uxth.w	r7, ip
 80007b4:	fbb3 f0f8 	udiv	r0, r3, r8
 80007b8:	fb08 3110 	mls	r1, r8, r0, r3
 80007bc:	0c23      	lsrs	r3, r4, #16
 80007be:	ea43 4301 	orr.w	r3, r3, r1, lsl #16
 80007c2:	fb00 f107 	mul.w	r1, r0, r7
 80007c6:	4299      	cmp	r1, r3
 80007c8:	d908      	bls.n	80007dc <__udivmoddi4+0x24c>
 80007ca:	eb1c 0303 	adds.w	r3, ip, r3
 80007ce:	f100 36ff 	add.w	r6, r0, #4294967295
 80007d2:	d22c      	bcs.n	800082e <__udivmoddi4+0x29e>
 80007d4:	4299      	cmp	r1, r3
 80007d6:	d92a      	bls.n	800082e <__udivmoddi4+0x29e>
 80007d8:	3802      	subs	r0, #2
 80007da:	4463      	add	r3, ip
 80007dc:	1a5b      	subs	r3, r3, r1
 80007de:	b2a4      	uxth	r4, r4
 80007e0:	fbb3 f1f8 	udiv	r1, r3, r8
 80007e4:	fb08 3311 	mls	r3, r8, r1, r3
 80007e8:	ea44 4403 	orr.w	r4, r4, r3, lsl #16
 80007ec:	fb01 f307 	mul.w	r3, r1, r7
 80007f0:	42a3      	cmp	r3, r4
 80007f2:	d908      	bls.n	8000806 <__udivmoddi4+0x276>
 80007f4:	eb1c 0404 	adds.w	r4, ip, r4
 80007f8:	f101 36ff 	add.w	r6, r1, #4294967295
 80007fc:	d213      	bcs.n	8000826 <__udivmoddi4+0x296>
 80007fe:	42a3      	cmp	r3, r4
 8000800:	d911      	bls.n	8000826 <__udivmoddi4+0x296>
 8000802:	3902      	subs	r1, #2
 8000804:	4464      	add	r4, ip
 8000806:	1ae4      	subs	r4, r4, r3
 8000808:	ea41 4100 	orr.w	r1, r1, r0, lsl #16
 800080c:	e739      	b.n	8000682 <__udivmoddi4+0xf2>
 800080e:	4604      	mov	r4, r0
 8000810:	e6f0      	b.n	80005f4 <__udivmoddi4+0x64>
 8000812:	4608      	mov	r0, r1
 8000814:	e706      	b.n	8000624 <__udivmoddi4+0x94>
 8000816:	45c8      	cmp	r8, r9
 8000818:	d2ae      	bcs.n	8000778 <__udivmoddi4+0x1e8>
 800081a:	ebb9 0e02 	subs.w	lr, r9, r2
 800081e:	eb63 0c07 	sbc.w	ip, r3, r7
 8000822:	3801      	subs	r0, #1
 8000824:	e7a8      	b.n	8000778 <__udivmoddi4+0x1e8>
 8000826:	4631      	mov	r1, r6
 8000828:	e7ed      	b.n	8000806 <__udivmoddi4+0x276>
 800082a:	4603      	mov	r3, r0
 800082c:	e799      	b.n	8000762 <__udivmoddi4+0x1d2>
 800082e:	4630      	mov	r0, r6
 8000830:	e7d4      	b.n	80007dc <__udivmoddi4+0x24c>
 8000832:	46d6      	mov	lr, sl
 8000834:	e77f      	b.n	8000736 <__udivmoddi4+0x1a6>
 8000836:	4463      	add	r3, ip
 8000838:	3802      	subs	r0, #2
 800083a:	e74d      	b.n	80006d8 <__udivmoddi4+0x148>
 800083c:	4606      	mov	r6, r0
 800083e:	4623      	mov	r3, r4
 8000840:	4608      	mov	r0, r1
 8000842:	e70f      	b.n	8000664 <__udivmoddi4+0xd4>
 8000844:	3e02      	subs	r6, #2
 8000846:	4463      	add	r3, ip
 8000848:	e730      	b.n	80006ac <__udivmoddi4+0x11c>
 800084a:	bf00      	nop

0800084c <__aeabi_idiv0>:
 800084c:	4770      	bx	lr
 800084e:	bf00      	nop

08000850 <APC1_Init_Sensor>:
  * @brief  Initializes the APC1 sensor.
  * @param  huart Pointer to a UART_HandleTypeDef structure that contains
  *               the configuration information for the specified UART module.
  * @retval APC1 status
  */
enum APC1_Status APC1_Init_Sensor(UART_HandleTypeDef *huart) {
 8000850:	b480      	push	{r7}
 8000852:	b087      	sub	sp, #28
 8000854:	af00      	add	r7, sp, #0
 8000856:	6078      	str	r0, [r7, #4]

	if (huart == NULL) {
 8000858:	687b      	ldr	r3, [r7, #4]
 800085a:	2b00      	cmp	r3, #0
 800085c:	d101      	bne.n	8000862 <APC1_Init_Sensor+0x12>
		return APC1_ERROR_NULL_POINTER;
 800085e:	2382      	movs	r3, #130	@ 0x82
 8000860:	e00c      	b.n	800087c <APC1_Init_Sensor+0x2c>
	}

	dev_settings = (struct APC1_Device_Settings) {
 8000862:	4a09      	ldr	r2, [pc, #36]	@ (8000888 <APC1_Init_Sensor+0x38>)
 8000864:	687b      	ldr	r3, [r7, #4]
 8000866:	6013      	str	r3, [r2, #0]
 8000868:	4b07      	ldr	r3, [pc, #28]	@ (8000888 <APC1_Init_Sensor+0x38>)
 800086a:	2200      	movs	r2, #0
 800086c:	605a      	str	r2, [r3, #4]
 800086e:	4b06      	ldr	r3, [pc, #24]	@ (8000888 <APC1_Init_Sensor+0x38>)
 8000870:	2200      	movs	r2, #0
 8000872:	721a      	strb	r2, [r3, #8]
 8000874:	4b04      	ldr	r3, [pc, #16]	@ (8000888 <APC1_Init_Sensor+0x38>)
 8000876:	2200      	movs	r2, #0
 8000878:	725a      	strb	r2, [r3, #9]
			.mode = APC1_PASSIVE_MODE,
			.fw_vesion = 0,
			.received_response = 0
	};

	return APC1_OK;
 800087a:	2300      	movs	r3, #0

}
 800087c:	4618      	mov	r0, r3
 800087e:	371c      	adds	r7, #28
 8000880:	46bd      	mov	sp, r7
 8000882:	f85d 7b04 	ldr.w	r7, [sp], #4
 8000886:	4770      	bx	lr
 8000888:	200002ac 	.word	0x200002ac

0800088c <APC1_Send_Receive_Command>:
  *               the configuration information for the specified UART module.
  * @param  setting	Struct element describing the command and its parameters.
  * @param  get_response  Indicating to receive or ignore response of executed command.
  * @retval HAL status
  */
HAL_StatusTypeDef APC1_Send_Receive_Command(UART_HandleTypeDef *huart, struct APC1_Command_Settings setting, int get_response) {
 800088c:	b580      	push	{r7, lr}
 800088e:	b086      	sub	sp, #24
 8000890:	af00      	add	r7, sp, #0
 8000892:	60f8      	str	r0, [r7, #12]
 8000894:	4638      	mov	r0, r7
 8000896:	e880 000e 	stmia.w	r0, {r1, r2, r3}

	HAL_StatusTypeDef status;

	memset(buffer, 0, BUFFER_SIZE);
 800089a:	f44f 7280 	mov.w	r2, #256	@ 0x100
 800089e:	2100      	movs	r1, #0
 80008a0:	4812      	ldr	r0, [pc, #72]	@ (80008ec <APC1_Send_Receive_Command+0x60>)
 80008a2:	f002 fe6f 	bl	8003584 <memset>
	if (get_response && (status = HAL_UART_Receive_IT(huart, buffer, setting.response_size)) != HAL_OK) {
 80008a6:	6a3b      	ldr	r3, [r7, #32]
 80008a8:	2b00      	cmp	r3, #0
 80008aa:	d00c      	beq.n	80008c6 <APC1_Send_Receive_Command+0x3a>
 80008ac:	7abb      	ldrb	r3, [r7, #10]
 80008ae:	461a      	mov	r2, r3
 80008b0:	490e      	ldr	r1, [pc, #56]	@ (80008ec <APC1_Send_Receive_Command+0x60>)
 80008b2:	68f8      	ldr	r0, [r7, #12]
 80008b4:	f001 fecd 	bl	8002652 <HAL_UART_Receive_IT>
 80008b8:	4603      	mov	r3, r0
 80008ba:	75fb      	strb	r3, [r7, #23]
 80008bc:	7dfb      	ldrb	r3, [r7, #23]
 80008be:	2b00      	cmp	r3, #0
 80008c0:	d001      	beq.n	80008c6 <APC1_Send_Receive_Command+0x3a>
		return status;
 80008c2:	7dfb      	ldrb	r3, [r7, #23]
 80008c4:	e00e      	b.n	80008e4 <APC1_Send_Receive_Command+0x58>
	}
	if ((status = HAL_UART_Transmit(huart, setting.cmd, COMMAND_LENGHT, 2000)) != HAL_OK) {
 80008c6:	4639      	mov	r1, r7
 80008c8:	f44f 63fa 	mov.w	r3, #2000	@ 0x7d0
 80008cc:	2207      	movs	r2, #7
 80008ce:	68f8      	ldr	r0, [r7, #12]
 80008d0:	f001 fe2d 	bl	800252e <HAL_UART_Transmit>
 80008d4:	4603      	mov	r3, r0
 80008d6:	75fb      	strb	r3, [r7, #23]
 80008d8:	7dfb      	ldrb	r3, [r7, #23]
 80008da:	2b00      	cmp	r3, #0
 80008dc:	d001      	beq.n	80008e2 <APC1_Send_Receive_Command+0x56>
		return status;
 80008de:	7dfb      	ldrb	r3, [r7, #23]
 80008e0:	e000      	b.n	80008e4 <APC1_Send_Receive_Command+0x58>
	}

	return status;
 80008e2:	7dfb      	ldrb	r3, [r7, #23]

}
 80008e4:	4618      	mov	r0, r3
 80008e6:	3718      	adds	r7, #24
 80008e8:	46bd      	mov	sp, r7
 80008ea:	bd80      	pop	{r7, pc}
 80008ec:	200000ac 	.word	0x200000ac

080008f0 <APC1_Read_Mea_Data>:
/**
  * @brief  Receives and processes answer for measurement command.
  * @note	This function is to be called when user wishes to get latest measurement from sensor.
  * @retval APC1 status
  */
enum APC1_Status APC1_Read_Mea_Data(void) {
 80008f0:	b5b0      	push	{r4, r5, r7, lr}
 80008f2:	b082      	sub	sp, #8
 80008f4:	af02      	add	r7, sp, #8

	if (APC1_Send_Receive_Command(dev_settings.sensor_uart, command[APC1_CMD_READ_MEA_DATA], GET_RESPONSE) != HAL_OK) {
 80008f6:	4b16      	ldr	r3, [pc, #88]	@ (8000950 <APC1_Read_Mea_Data+0x60>)
 80008f8:	6818      	ldr	r0, [r3, #0]
 80008fa:	4b16      	ldr	r3, [pc, #88]	@ (8000954 <APC1_Read_Mea_Data+0x64>)
 80008fc:	2201      	movs	r2, #1
 80008fe:	9200      	str	r2, [sp, #0]
 8000900:	f8d3 200b 	ldr.w	r2, [r3, #11]
 8000904:	4615      	mov	r5, r2
 8000906:	f8d3 200f 	ldr.w	r2, [r3, #15]
 800090a:	4614      	mov	r4, r2
 800090c:	7cda      	ldrb	r2, [r3, #19]
 800090e:	7d19      	ldrb	r1, [r3, #20]
 8000910:	0209      	lsls	r1, r1, #8
 8000912:	430a      	orrs	r2, r1
 8000914:	7d5b      	ldrb	r3, [r3, #21]
 8000916:	041b      	lsls	r3, r3, #16
 8000918:	431a      	orrs	r2, r3
 800091a:	2300      	movs	r3, #0
 800091c:	f362 0317 	bfi	r3, r2, #0, #24
 8000920:	4629      	mov	r1, r5
 8000922:	4622      	mov	r2, r4
 8000924:	f7ff ffb2 	bl	800088c <APC1_Send_Receive_Command>
 8000928:	4603      	mov	r3, r0
 800092a:	2b00      	cmp	r3, #0
 800092c:	d001      	beq.n	8000932 <APC1_Read_Mea_Data+0x42>
		return APC1_ERROR_CMD;
 800092e:	2381      	movs	r3, #129	@ 0x81
 8000930:	e00a      	b.n	8000948 <APC1_Read_Mea_Data+0x58>
	}
	while (dev_settings.received_response == 0);
 8000932:	bf00      	nop
 8000934:	4b06      	ldr	r3, [pc, #24]	@ (8000950 <APC1_Read_Mea_Data+0x60>)
 8000936:	685b      	ldr	r3, [r3, #4]
 8000938:	2b00      	cmp	r3, #0
 800093a:	d0fb      	beq.n	8000934 <APC1_Read_Mea_Data+0x44>
	dev_settings.received_response = 0;
 800093c:	4b04      	ldr	r3, [pc, #16]	@ (8000950 <APC1_Read_Mea_Data+0x60>)
 800093e:	2200      	movs	r2, #0
 8000940:	605a      	str	r2, [r3, #4]

	return APC1_Process_Mea_Data();
 8000942:	f000 f809 	bl	8000958 <APC1_Process_Mea_Data>
 8000946:	4603      	mov	r3, r0

}
 8000948:	4618      	mov	r0, r3
 800094a:	46bd      	mov	sp, r7
 800094c:	bdb0      	pop	{r4, r5, r7, pc}
 800094e:	bf00      	nop
 8000950:	200002ac 	.word	0x200002ac
 8000954:	20000000 	.word	0x20000000

08000958 <APC1_Process_Mea_Data>:

/**
  * @brief  Processes measurements received from sensor before being sent to user.
  * @retval APC1 status
  */
enum APC1_Status APC1_Process_Mea_Data(void) {
 8000958:	b580      	push	{r7, lr}
 800095a:	b084      	sub	sp, #16
 800095c:	af00      	add	r7, sp, #0

	enum APC1_Status errorStat;

	if ((errorStat = APC1_Check_Checksum(SUM_OF_VALUES_MEA, CHECKSUM_LOW_OUTPUT_REGISTER, CHECKSUM_HIGH_OUTPUT_REGISTER)) != APC1_OK) {
 800095e:	223f      	movs	r2, #63	@ 0x3f
 8000960:	213e      	movs	r1, #62	@ 0x3e
 8000962:	203e      	movs	r0, #62	@ 0x3e
 8000964:	f000 f856 	bl	8000a14 <APC1_Check_Checksum>
 8000968:	4603      	mov	r3, r0
 800096a:	72fb      	strb	r3, [r7, #11]
 800096c:	7afb      	ldrb	r3, [r7, #11]
 800096e:	2b00      	cmp	r3, #0
 8000970:	d007      	beq.n	8000982 <APC1_Process_Mea_Data+0x2a>
		APC1_Error_Buffer_Append(error_buffer, 8);
 8000972:	4b23      	ldr	r3, [pc, #140]	@ (8000a00 <APC1_Process_Mea_Data+0xa8>)
 8000974:	6a1b      	ldr	r3, [r3, #32]
 8000976:	4619      	mov	r1, r3
 8000978:	4822      	ldr	r0, [pc, #136]	@ (8000a04 <APC1_Process_Mea_Data+0xac>)
 800097a:	f002 fe0b 	bl	8003594 <strcat>
		return errorStat;
 800097e:	7afb      	ldrb	r3, [r7, #11]
 8000980:	e039      	b.n	80009f6 <APC1_Process_Mea_Data+0x9e>
	}

	if (APC1_Check_For_Error()) {
 8000982:	f000 f879 	bl	8000a78 <APC1_Check_For_Error>
 8000986:	4603      	mov	r3, r0
 8000988:	2b00      	cmp	r3, #0
 800098a:	d001      	beq.n	8000990 <APC1_Process_Mea_Data+0x38>
		return APC1_ERROR_CMD; // it does not matter which error we return here, as the correct errors are reported in the error buffer
 800098c:	2381      	movs	r3, #129	@ 0x81
 800098e:	e032      	b.n	80009f6 <APC1_Process_Mea_Data+0x9e>
	}

	uint16_t index = 4, i = 0;
 8000990:	2304      	movs	r3, #4
 8000992:	81fb      	strh	r3, [r7, #14]
 8000994:	2300      	movs	r3, #0
 8000996:	81bb      	strh	r3, [r7, #12]
	uint16_t *struct_member = &processed_data.pm1_0;
 8000998:	4b1b      	ldr	r3, [pc, #108]	@ (8000a08 <APC1_Process_Mea_Data+0xb0>)
 800099a:	607b      	str	r3, [r7, #4]
	while (index < RS0_OUTPUT_REGISTER) {
 800099c:	e01c      	b.n	80009d8 <APC1_Process_Mea_Data+0x80>
		if (index == RESERVED_OUTPUT_REGISTER) { // skip reserved two bytes in output data at address 0x20
 800099e:	89fb      	ldrh	r3, [r7, #14]
 80009a0:	2b20      	cmp	r3, #32
 80009a2:	d102      	bne.n	80009aa <APC1_Process_Mea_Data+0x52>
			index += 2;
 80009a4:	89fb      	ldrh	r3, [r7, #14]
 80009a6:	3302      	adds	r3, #2
 80009a8:	81fb      	strh	r3, [r7, #14]
		}
		struct_member[i++] = APC1_Convert(buffer[index], buffer[index + 1]);
 80009aa:	89fb      	ldrh	r3, [r7, #14]
 80009ac:	4a17      	ldr	r2, [pc, #92]	@ (8000a0c <APC1_Process_Mea_Data+0xb4>)
 80009ae:	5cd3      	ldrb	r3, [r2, r3]
 80009b0:	021b      	lsls	r3, r3, #8
 80009b2:	b21a      	sxth	r2, r3
 80009b4:	89fb      	ldrh	r3, [r7, #14]
 80009b6:	3301      	adds	r3, #1
 80009b8:	4914      	ldr	r1, [pc, #80]	@ (8000a0c <APC1_Process_Mea_Data+0xb4>)
 80009ba:	5ccb      	ldrb	r3, [r1, r3]
 80009bc:	b21b      	sxth	r3, r3
 80009be:	4313      	orrs	r3, r2
 80009c0:	b219      	sxth	r1, r3
 80009c2:	89bb      	ldrh	r3, [r7, #12]
 80009c4:	1c5a      	adds	r2, r3, #1
 80009c6:	81ba      	strh	r2, [r7, #12]
 80009c8:	005b      	lsls	r3, r3, #1
 80009ca:	687a      	ldr	r2, [r7, #4]
 80009cc:	4413      	add	r3, r2
 80009ce:	b28a      	uxth	r2, r1
 80009d0:	801a      	strh	r2, [r3, #0]
		index += 2;
 80009d2:	89fb      	ldrh	r3, [r7, #14]
 80009d4:	3302      	adds	r3, #2
 80009d6:	81fb      	strh	r3, [r7, #14]
	while (index < RS0_OUTPUT_REGISTER) {
 80009d8:	89fb      	ldrh	r3, [r7, #14]
 80009da:	2b29      	cmp	r3, #41	@ 0x29
 80009dc:	d9df      	bls.n	800099e <APC1_Process_Mea_Data+0x46>
	}
	processed_data.aqi = buffer[AQI_OUTPUT_REGISTER];
 80009de:	4b0b      	ldr	r3, [pc, #44]	@ (8000a0c <APC1_Process_Mea_Data+0xb4>)
 80009e0:	f893 203a 	ldrb.w	r2, [r3, #58]	@ 0x3a
 80009e4:	4b08      	ldr	r3, [pc, #32]	@ (8000a08 <APC1_Process_Mea_Data+0xb0>)
 80009e6:	f883 2024 	strb.w	r2, [r3, #36]	@ 0x24
	dev_settings.fw_vesion = buffer[VERSION_OUTPUT_REGISTER];
 80009ea:	4b08      	ldr	r3, [pc, #32]	@ (8000a0c <APC1_Process_Mea_Data+0xb4>)
 80009ec:	f893 203c 	ldrb.w	r2, [r3, #60]	@ 0x3c
 80009f0:	4b07      	ldr	r3, [pc, #28]	@ (8000a10 <APC1_Process_Mea_Data+0xb8>)
 80009f2:	725a      	strb	r2, [r3, #9]

	return APC1_OK;
 80009f4:	2300      	movs	r3, #0

}
 80009f6:	4618      	mov	r0, r3
 80009f8:	3710      	adds	r7, #16
 80009fa:	46bd      	mov	sp, r7
 80009fc:	bd80      	pop	{r7, pc}
 80009fe:	bf00      	nop
 8000a00:	20000058 	.word	0x20000058
 8000a04:	200001ac 	.word	0x200001ac
 8000a08:	200002b8 	.word	0x200002b8
 8000a0c:	200000ac 	.word	0x200000ac
 8000a10:	200002ac 	.word	0x200002ac

08000a14 <APC1_Check_Checksum>:
  * @param	limit	Index of the last element + 1 which is to be used from the buffer.
  * @param	low		Lower index of the byte representing checksum in the buffer.
  * @param	high	Higher index of the byte representing checksum in the buffer.
  * @retval APC1 status
  */
enum APC1_Status APC1_Check_Checksum(int limit, int low, int high) {
 8000a14:	b480      	push	{r7}
 8000a16:	b087      	sub	sp, #28
 8000a18:	af00      	add	r7, sp, #0
 8000a1a:	60f8      	str	r0, [r7, #12]
 8000a1c:	60b9      	str	r1, [r7, #8]
 8000a1e:	607a      	str	r2, [r7, #4]

	int sum = 0;
 8000a20:	2300      	movs	r3, #0
 8000a22:	617b      	str	r3, [r7, #20]
	for (int i = 0; i<limit; i++) {
 8000a24:	2300      	movs	r3, #0
 8000a26:	613b      	str	r3, [r7, #16]
 8000a28:	e00a      	b.n	8000a40 <APC1_Check_Checksum+0x2c>
		sum += buffer[i];
 8000a2a:	4a12      	ldr	r2, [pc, #72]	@ (8000a74 <APC1_Check_Checksum+0x60>)
 8000a2c:	693b      	ldr	r3, [r7, #16]
 8000a2e:	4413      	add	r3, r2
 8000a30:	781b      	ldrb	r3, [r3, #0]
 8000a32:	461a      	mov	r2, r3
 8000a34:	697b      	ldr	r3, [r7, #20]
 8000a36:	4413      	add	r3, r2
 8000a38:	617b      	str	r3, [r7, #20]
	for (int i = 0; i<limit; i++) {
 8000a3a:	693b      	ldr	r3, [r7, #16]
 8000a3c:	3301      	adds	r3, #1
 8000a3e:	613b      	str	r3, [r7, #16]
 8000a40:	693a      	ldr	r2, [r7, #16]
 8000a42:	68fb      	ldr	r3, [r7, #12]
 8000a44:	429a      	cmp	r2, r3
 8000a46:	dbf0      	blt.n	8000a2a <APC1_Check_Checksum+0x16>
	}

	return (APC1_Convert(buffer[low], buffer[high])) == sum ? APC1_OK : APC1_ERROR_CRC;
 8000a48:	4a0a      	ldr	r2, [pc, #40]	@ (8000a74 <APC1_Check_Checksum+0x60>)
 8000a4a:	68bb      	ldr	r3, [r7, #8]
 8000a4c:	4413      	add	r3, r2
 8000a4e:	781b      	ldrb	r3, [r3, #0]
 8000a50:	021b      	lsls	r3, r3, #8
 8000a52:	4908      	ldr	r1, [pc, #32]	@ (8000a74 <APC1_Check_Checksum+0x60>)
 8000a54:	687a      	ldr	r2, [r7, #4]
 8000a56:	440a      	add	r2, r1
 8000a58:	7812      	ldrb	r2, [r2, #0]
 8000a5a:	4313      	orrs	r3, r2
 8000a5c:	697a      	ldr	r2, [r7, #20]
 8000a5e:	429a      	cmp	r2, r3
 8000a60:	d101      	bne.n	8000a66 <APC1_Check_Checksum+0x52>
 8000a62:	2300      	movs	r3, #0
 8000a64:	e000      	b.n	8000a68 <APC1_Check_Checksum+0x54>
 8000a66:	2380      	movs	r3, #128	@ 0x80

}
 8000a68:	4618      	mov	r0, r3
 8000a6a:	371c      	adds	r7, #28
 8000a6c:	46bd      	mov	sp, r7
 8000a6e:	f85d 7b04 	ldr.w	r7, [sp], #4
 8000a72:	4770      	bx	lr
 8000a74:	200000ac 	.word	0x200000ac

08000a78 <APC1_Check_For_Error>:
  * @note	Returns an integer where 0 indicated no error, 1 indicating one or more errors.
  * 		Registered errors and their descriptions are found in the error buffer. The end
  * 		of the error buffer is always terminated by a '\0' null terminator.
  * @retval int
  */
int APC1_Check_For_Error(void) {
 8000a78:	b580      	push	{r7, lr}
 8000a7a:	b082      	sub	sp, #8
 8000a7c:	af00      	add	r7, sp, #0

	error_buffer[0] = '\0';
 8000a7e:	4b26      	ldr	r3, [pc, #152]	@ (8000b18 <APC1_Check_For_Error+0xa0>)
 8000a80:	2200      	movs	r2, #0
 8000a82:	701a      	strb	r2, [r3, #0]
	uint8_t status = buffer[ERROR_OUTPUT_REGISTER];
 8000a84:	4b25      	ldr	r3, [pc, #148]	@ (8000b1c <APC1_Check_For_Error+0xa4>)
 8000a86:	f893 303d 	ldrb.w	r3, [r3, #61]	@ 0x3d
 8000a8a:	70fb      	strb	r3, [r7, #3]

	if (status == APC1_OK) {
 8000a8c:	78fb      	ldrb	r3, [r7, #3]
 8000a8e:	2b00      	cmp	r3, #0
 8000a90:	d10f      	bne.n	8000ab2 <APC1_Check_For_Error+0x3a>
		strcat(error_buffer, APC1_Status_Strings[0]);
 8000a92:	4b23      	ldr	r3, [pc, #140]	@ (8000b20 <APC1_Check_For_Error+0xa8>)
 8000a94:	681b      	ldr	r3, [r3, #0]
 8000a96:	4619      	mov	r1, r3
 8000a98:	481f      	ldr	r0, [pc, #124]	@ (8000b18 <APC1_Check_For_Error+0xa0>)
 8000a9a:	f002 fd7b 	bl	8003594 <strcat>
		error_buffer[strlen(error_buffer) - 1] = '\0';
 8000a9e:	481e      	ldr	r0, [pc, #120]	@ (8000b18 <APC1_Check_For_Error+0xa0>)
 8000aa0:	f7ff fb9a 	bl	80001d8 <strlen>
 8000aa4:	4603      	mov	r3, r0
 8000aa6:	3b01      	subs	r3, #1
 8000aa8:	4a1b      	ldr	r2, [pc, #108]	@ (8000b18 <APC1_Check_For_Error+0xa0>)
 8000aaa:	2100      	movs	r1, #0
 8000aac:	54d1      	strb	r1, [r2, r3]
		error_buffer[strlen(error_buffer) - 1] = '\0';

		return 1;
	}

	return 0;
 8000aae:	2300      	movs	r3, #0
 8000ab0:	e02e      	b.n	8000b10 <APC1_Check_For_Error+0x98>
		for (int i = 0; i<NUM_OF_ERRORS; i++) {
 8000ab2:	2300      	movs	r3, #0
 8000ab4:	607b      	str	r3, [r7, #4]
 8000ab6:	e01f      	b.n	8000af8 <APC1_Check_For_Error+0x80>
			if (status & APC1_Error_Masks[i]) {
 8000ab8:	4a1a      	ldr	r2, [pc, #104]	@ (8000b24 <APC1_Check_For_Error+0xac>)
 8000aba:	687b      	ldr	r3, [r7, #4]
 8000abc:	4413      	add	r3, r2
 8000abe:	781a      	ldrb	r2, [r3, #0]
 8000ac0:	78fb      	ldrb	r3, [r7, #3]
 8000ac2:	4013      	ands	r3, r2
 8000ac4:	b2db      	uxtb	r3, r3
 8000ac6:	2b00      	cmp	r3, #0
 8000ac8:	d013      	beq.n	8000af2 <APC1_Check_For_Error+0x7a>
				APC1_Error_Buffer_Append(error_buffer, i);
 8000aca:	4a15      	ldr	r2, [pc, #84]	@ (8000b20 <APC1_Check_For_Error+0xa8>)
 8000acc:	687b      	ldr	r3, [r7, #4]
 8000ace:	f852 3023 	ldr.w	r3, [r2, r3, lsl #2]
 8000ad2:	4619      	mov	r1, r3
 8000ad4:	4810      	ldr	r0, [pc, #64]	@ (8000b18 <APC1_Check_For_Error+0xa0>)
 8000ad6:	f002 fd5d 	bl	8003594 <strcat>
				strcat(error_buffer, ";");
 8000ada:	480f      	ldr	r0, [pc, #60]	@ (8000b18 <APC1_Check_For_Error+0xa0>)
 8000adc:	f7ff fb7c 	bl	80001d8 <strlen>
 8000ae0:	4603      	mov	r3, r0
 8000ae2:	461a      	mov	r2, r3
 8000ae4:	4b0c      	ldr	r3, [pc, #48]	@ (8000b18 <APC1_Check_For_Error+0xa0>)
 8000ae6:	4413      	add	r3, r2
 8000ae8:	490f      	ldr	r1, [pc, #60]	@ (8000b28 <APC1_Check_For_Error+0xb0>)
 8000aea:	461a      	mov	r2, r3
 8000aec:	460b      	mov	r3, r1
 8000aee:	881b      	ldrh	r3, [r3, #0]
 8000af0:	8013      	strh	r3, [r2, #0]
		for (int i = 0; i<NUM_OF_ERRORS; i++) {
 8000af2:	687b      	ldr	r3, [r7, #4]
 8000af4:	3301      	adds	r3, #1
 8000af6:	607b      	str	r3, [r7, #4]
 8000af8:	687b      	ldr	r3, [r7, #4]
 8000afa:	2b08      	cmp	r3, #8
 8000afc:	dddc      	ble.n	8000ab8 <APC1_Check_For_Error+0x40>
		error_buffer[strlen(error_buffer) - 1] = '\0';
 8000afe:	4806      	ldr	r0, [pc, #24]	@ (8000b18 <APC1_Check_For_Error+0xa0>)
 8000b00:	f7ff fb6a 	bl	80001d8 <strlen>
 8000b04:	4603      	mov	r3, r0
 8000b06:	3b01      	subs	r3, #1
 8000b08:	4a03      	ldr	r2, [pc, #12]	@ (8000b18 <APC1_Check_For_Error+0xa0>)
 8000b0a:	2100      	movs	r1, #0
 8000b0c:	54d1      	strb	r1, [r2, r3]
		return 1;
 8000b0e:	2301      	movs	r3, #1

}
 8000b10:	4618      	mov	r0, r3
 8000b12:	3708      	adds	r7, #8
 8000b14:	46bd      	mov	sp, r7
 8000b16:	bd80      	pop	{r7, pc}
 8000b18:	200001ac 	.word	0x200001ac
 8000b1c:	200000ac 	.word	0x200000ac
 8000b20:	20000058 	.word	0x20000058
 8000b24:	08003730 	.word	0x08003730
 8000b28:	08003714 	.word	0x08003714

08000b2c <APC1_Get_PM1_0>:

/**
  * @brief  Get PM1.0 mass concentration.
  * @retval unsigned 16 bit value
  */
uint16_t APC1_Get_PM1_0(void) {
 8000b2c:	b480      	push	{r7}
 8000b2e:	af00      	add	r7, sp, #0

	return processed_data.pm1_0;
 8000b30:	4b03      	ldr	r3, [pc, #12]	@ (8000b40 <APC1_Get_PM1_0+0x14>)
 8000b32:	881b      	ldrh	r3, [r3, #0]

}
 8000b34:	4618      	mov	r0, r3
 8000b36:	46bd      	mov	sp, r7
 8000b38:	f85d 7b04 	ldr.w	r7, [sp], #4
 8000b3c:	4770      	bx	lr
 8000b3e:	bf00      	nop
 8000b40:	200002b8 	.word	0x200002b8

08000b44 <APC1_Get_PM2_5>:

/**
  * @brief  Get PM2.5 mass concentration.
  * @retval unsigned 16 bit value
  */
uint16_t APC1_Get_PM2_5(void) {
 8000b44:	b480      	push	{r7}
 8000b46:	af00      	add	r7, sp, #0

	return processed_data.pm2_5;
 8000b48:	4b03      	ldr	r3, [pc, #12]	@ (8000b58 <APC1_Get_PM2_5+0x14>)
 8000b4a:	885b      	ldrh	r3, [r3, #2]

}
 8000b4c:	4618      	mov	r0, r3
 8000b4e:	46bd      	mov	sp, r7
 8000b50:	f85d 7b04 	ldr.w	r7, [sp], #4
 8000b54:	4770      	bx	lr
 8000b56:	bf00      	nop
 8000b58:	200002b8 	.word	0x200002b8

08000b5c <APC1_Get_PM10>:

/**
  * @brief  Get PM10 mass concentration.
  * @retval unsigned 16 bit value
  */
uint16_t APC1_Get_PM10(void) {
 8000b5c:	b480      	push	{r7}
 8000b5e:	af00      	add	r7, sp, #0

	return processed_data.pm10;
 8000b60:	4b03      	ldr	r3, [pc, #12]	@ (8000b70 <APC1_Get_PM10+0x14>)
 8000b62:	889b      	ldrh	r3, [r3, #4]

}
 8000b64:	4618      	mov	r0, r3
 8000b66:	46bd      	mov	sp, r7
 8000b68:	f85d 7b04 	ldr.w	r7, [sp], #4
 8000b6c:	4770      	bx	lr
 8000b6e:	bf00      	nop
 8000b70:	200002b8 	.word	0x200002b8

08000b74 <APC1_Get_PM1_0_air>:

/**
  * @brief  Get PM1.0 mass concentration in atmospheric environment.
  * @retval unsigned 16 bit value
  */
uint16_t APC1_Get_PM1_0_air(void) {
 8000b74:	b480      	push	{r7}
 8000b76:	af00      	add	r7, sp, #0

	return processed_data.pm1_0_air;
 8000b78:	4b03      	ldr	r3, [pc, #12]	@ (8000b88 <APC1_Get_PM1_0_air+0x14>)
 8000b7a:	88db      	ldrh	r3, [r3, #6]

}
 8000b7c:	4618      	mov	r0, r3
 8000b7e:	46bd      	mov	sp, r7
 8000b80:	f85d 7b04 	ldr.w	r7, [sp], #4
 8000b84:	4770      	bx	lr
 8000b86:	bf00      	nop
 8000b88:	200002b8 	.word	0x200002b8

08000b8c <APC1_Get_PM2_5_air>:

/**
  * @brief  Get PM2.5 mass concentration in atmospheric environment.
  * @retval unsigned 16 bit value
  */
uint16_t APC1_Get_PM2_5_air(void) {
 8000b8c:	b480      	push	{r7}
 8000b8e:	af00      	add	r7, sp, #0

	return processed_data.pm2_5_air;
 8000b90:	4b03      	ldr	r3, [pc, #12]	@ (8000ba0 <APC1_Get_PM2_5_air+0x14>)
 8000b92:	891b      	ldrh	r3, [r3, #8]

}
 8000b94:	4618      	mov	r0, r3
 8000b96:	46bd      	mov	sp, r7
 8000b98:	f85d 7b04 	ldr.w	r7, [sp], #4
 8000b9c:	4770      	bx	lr
 8000b9e:	bf00      	nop
 8000ba0:	200002b8 	.word	0x200002b8

08000ba4 <APC1_Get_PM10_air>:

/**
  * @brief  Get PM10 mass concentration in atmospheric environment.
  * @retval unsigned 16 bit value
  */
uint16_t APC1_Get_PM10_air(void) {
 8000ba4:	b480      	push	{r7}
 8000ba6:	af00      	add	r7, sp, #0

	return processed_data.pm10_air;
 8000ba8:	4b03      	ldr	r3, [pc, #12]	@ (8000bb8 <APC1_Get_PM10_air+0x14>)
 8000baa:	895b      	ldrh	r3, [r3, #10]

}
 8000bac:	4618      	mov	r0, r3
 8000bae:	46bd      	mov	sp, r7
 8000bb0:	f85d 7b04 	ldr.w	r7, [sp], #4
 8000bb4:	4770      	bx	lr
 8000bb6:	bf00      	nop
 8000bb8:	200002b8 	.word	0x200002b8

08000bbc <APC1_Get_Particles_GT_0_3>:

/**
  * @brief  Get number of particles with diameter > 0.3µm in 0.1L of air.
  * @retval unsigned 16 bit value
  */
uint16_t APC1_Get_Particles_GT_0_3(void) {
 8000bbc:	b480      	push	{r7}
 8000bbe:	af00      	add	r7, sp, #0

	return processed_data.particles_0_3;
 8000bc0:	4b03      	ldr	r3, [pc, #12]	@ (8000bd0 <APC1_Get_Particles_GT_0_3+0x14>)
 8000bc2:	899b      	ldrh	r3, [r3, #12]

}
 8000bc4:	4618      	mov	r0, r3
 8000bc6:	46bd      	mov	sp, r7
 8000bc8:	f85d 7b04 	ldr.w	r7, [sp], #4
 8000bcc:	4770      	bx	lr
 8000bce:	bf00      	nop
 8000bd0:	200002b8 	.word	0x200002b8

08000bd4 <APC1_Get_Particles_GT_0_5>:

/**
  * @brief  Get number of particles with diameter > 0.5µm in 0.1L of air.
  * @retval unsigned 16 bit value
  */
uint16_t APC1_Get_Particles_GT_0_5(void) {
 8000bd4:	b480      	push	{r7}
 8000bd6:	af00      	add	r7, sp, #0

	return processed_data.particles_0_5 - processed_data.particles_0_3;
 8000bd8:	4b05      	ldr	r3, [pc, #20]	@ (8000bf0 <APC1_Get_Particles_GT_0_5+0x1c>)
 8000bda:	89da      	ldrh	r2, [r3, #14]
 8000bdc:	4b04      	ldr	r3, [pc, #16]	@ (8000bf0 <APC1_Get_Particles_GT_0_5+0x1c>)
 8000bde:	899b      	ldrh	r3, [r3, #12]
 8000be0:	1ad3      	subs	r3, r2, r3
 8000be2:	b29b      	uxth	r3, r3

}
 8000be4:	4618      	mov	r0, r3
 8000be6:	46bd      	mov	sp, r7
 8000be8:	f85d 7b04 	ldr.w	r7, [sp], #4
 8000bec:	4770      	bx	lr
 8000bee:	bf00      	nop
 8000bf0:	200002b8 	.word	0x200002b8

08000bf4 <APC1_Get_Particles_GT_1_0>:

/**
  * @brief  Get number of particles with diameter > 1.0µm in 0.1L of air.
  * @retval unsigned 16 bit value
  */
uint16_t APC1_Get_Particles_GT_1_0(void) {
 8000bf4:	b480      	push	{r7}
 8000bf6:	af00      	add	r7, sp, #0

	return processed_data.particles_1_0 - processed_data.particles_0_3;
 8000bf8:	4b05      	ldr	r3, [pc, #20]	@ (8000c10 <APC1_Get_Particles_GT_1_0+0x1c>)
 8000bfa:	8a1a      	ldrh	r2, [r3, #16]
 8000bfc:	4b04      	ldr	r3, [pc, #16]	@ (8000c10 <APC1_Get_Particles_GT_1_0+0x1c>)
 8000bfe:	899b      	ldrh	r3, [r3, #12]
 8000c00:	1ad3      	subs	r3, r2, r3
 8000c02:	b29b      	uxth	r3, r3

}
 8000c04:	4618      	mov	r0, r3
 8000c06:	46bd      	mov	sp, r7
 8000c08:	f85d 7b04 	ldr.w	r7, [sp], #4
 8000c0c:	4770      	bx	lr
 8000c0e:	bf00      	nop
 8000c10:	200002b8 	.word	0x200002b8

08000c14 <APC1_Get_Particles_GT_2_5>:

/**
  * @brief  Get number of particles with diameter > 2.5µm in 0.1L of air.
  * @retval unsigned 16 bit value
  */
uint16_t APC1_Get_Particles_GT_2_5(void) {
 8000c14:	b480      	push	{r7}
 8000c16:	af00      	add	r7, sp, #0

	return processed_data.particles_2_5 - processed_data.particles_0_3;
 8000c18:	4b05      	ldr	r3, [pc, #20]	@ (8000c30 <APC1_Get_Particles_GT_2_5+0x1c>)
 8000c1a:	8a5a      	ldrh	r2, [r3, #18]
 8000c1c:	4b04      	ldr	r3, [pc, #16]	@ (8000c30 <APC1_Get_Particles_GT_2_5+0x1c>)
 8000c1e:	899b      	ldrh	r3, [r3, #12]
 8000c20:	1ad3      	subs	r3, r2, r3
 8000c22:	b29b      	uxth	r3, r3

}
 8000c24:	4618      	mov	r0, r3
 8000c26:	46bd      	mov	sp, r7
 8000c28:	f85d 7b04 	ldr.w	r7, [sp], #4
 8000c2c:	4770      	bx	lr
 8000c2e:	bf00      	nop
 8000c30:	200002b8 	.word	0x200002b8

08000c34 <APC1_Get_Particles_GT_5_0>:

/**
  * @brief  Get number of particles with diameter > 5.0µm in 0.1L of air.
  * @retval unsigned 16 bit value
  */
uint16_t APC1_Get_Particles_GT_5_0(void) {
 8000c34:	b480      	push	{r7}
 8000c36:	af00      	add	r7, sp, #0

	return processed_data.particles_5_0 - processed_data.particles_0_3;
 8000c38:	4b05      	ldr	r3, [pc, #20]	@ (8000c50 <APC1_Get_Particles_GT_5_0+0x1c>)
 8000c3a:	8a9a      	ldrh	r2, [r3, #20]
 8000c3c:	4b04      	ldr	r3, [pc, #16]	@ (8000c50 <APC1_Get_Particles_GT_5_0+0x1c>)
 8000c3e:	899b      	ldrh	r3, [r3, #12]
 8000c40:	1ad3      	subs	r3, r2, r3
 8000c42:	b29b      	uxth	r3, r3

}
 8000c44:	4618      	mov	r0, r3
 8000c46:	46bd      	mov	sp, r7
 8000c48:	f85d 7b04 	ldr.w	r7, [sp], #4
 8000c4c:	4770      	bx	lr
 8000c4e:	bf00      	nop
 8000c50:	200002b8 	.word	0x200002b8

08000c54 <APC1_Get_Particles_GT_10>:

/**
  * @brief  Get number of particles with diameter > 10µm in 0.1L of air.
  * @retval unsigned 16 bit value
  */
uint16_t APC1_Get_Particles_GT_10(void) {
 8000c54:	b480      	push	{r7}
 8000c56:	af00      	add	r7, sp, #0

	return processed_data.particles_10 - processed_data.particles_0_3;
 8000c58:	4b05      	ldr	r3, [pc, #20]	@ (8000c70 <APC1_Get_Particles_GT_10+0x1c>)
 8000c5a:	8ada      	ldrh	r2, [r3, #22]
 8000c5c:	4b04      	ldr	r3, [pc, #16]	@ (8000c70 <APC1_Get_Particles_GT_10+0x1c>)
 8000c5e:	899b      	ldrh	r3, [r3, #12]
 8000c60:	1ad3      	subs	r3, r2, r3
 8000c62:	b29b      	uxth	r3, r3

}
 8000c64:	4618      	mov	r0, r3
 8000c66:	46bd      	mov	sp, r7
 8000c68:	f85d 7b04 	ldr.w	r7, [sp], #4
 8000c6c:	4770      	bx	lr
 8000c6e:	bf00      	nop
 8000c70:	200002b8 	.word	0x200002b8

08000c74 <APC1_Get_TVOC>:

/**
  * @brief  Get TVOC output.
  * @retval unsigned 16 bit value
  */
uint16_t APC1_Get_TVOC(void) {
 8000c74:	b480      	push	{r7}
 8000c76:	af00      	add	r7, sp, #0

	return processed_data.TVOC;
 8000c78:	4b03      	ldr	r3, [pc, #12]	@ (8000c88 <APC1_Get_TVOC+0x14>)
 8000c7a:	8b1b      	ldrh	r3, [r3, #24]

}
 8000c7c:	4618      	mov	r0, r3
 8000c7e:	46bd      	mov	sp, r7
 8000c80:	f85d 7b04 	ldr.w	r7, [sp], #4
 8000c84:	4770      	bx	lr
 8000c86:	bf00      	nop
 8000c88:	200002b8 	.word	0x200002b8

08000c8c <APC1_Get_eCO2>:

/**
  * @brief  Get output in ppm CO2 equivalents.
  * @retval unsigned 16 bit value
  */
uint16_t APC1_Get_eCO2(void) {
 8000c8c:	b480      	push	{r7}
 8000c8e:	af00      	add	r7, sp, #0

	return processed_data.eCO2;
 8000c90:	4b03      	ldr	r3, [pc, #12]	@ (8000ca0 <APC1_Get_eCO2+0x14>)
 8000c92:	8b5b      	ldrh	r3, [r3, #26]

}
 8000c94:	4618      	mov	r0, r3
 8000c96:	46bd      	mov	sp, r7
 8000c98:	f85d 7b04 	ldr.w	r7, [sp], #4
 8000c9c:	4770      	bx	lr
 8000c9e:	bf00      	nop
 8000ca0:	200002b8 	.word	0x200002b8

08000ca4 <APC1_Get_T_Comp>:

/**
  * @brief  Get compensated temperature in °C.
  * @retval double
  */
double APC1_Get_T_Comp(void) {
 8000ca4:	b580      	push	{r7, lr}
 8000ca6:	af00      	add	r7, sp, #0

	return processed_data.t_comp * 0.1f;
 8000ca8:	4b0b      	ldr	r3, [pc, #44]	@ (8000cd8 <APC1_Get_T_Comp+0x34>)
 8000caa:	8b9b      	ldrh	r3, [r3, #28]
 8000cac:	ee07 3a90 	vmov	s15, r3
 8000cb0:	eef8 7ae7 	vcvt.f32.s32	s15, s15
 8000cb4:	ed9f 7a09 	vldr	s14, [pc, #36]	@ 8000cdc <APC1_Get_T_Comp+0x38>
 8000cb8:	ee67 7a87 	vmul.f32	s15, s15, s14
 8000cbc:	ee17 0a90 	vmov	r0, s15
 8000cc0:	f7ff fbf6 	bl	80004b0 <__aeabi_f2d>
 8000cc4:	4602      	mov	r2, r0
 8000cc6:	460b      	mov	r3, r1
 8000cc8:	ec43 2b17 	vmov	d7, r2, r3

}
 8000ccc:	eeb0 0a47 	vmov.f32	s0, s14
 8000cd0:	eef0 0a67 	vmov.f32	s1, s15
 8000cd4:	bd80      	pop	{r7, pc}
 8000cd6:	bf00      	nop
 8000cd8:	200002b8 	.word	0x200002b8
 8000cdc:	3dcccccd 	.word	0x3dcccccd

08000ce0 <APC1_Get_RH_Comp>:

/**
  * @brief  Get compensated RH in %.
  * @retval double
  */
double APC1_Get_RH_Comp(void) {
 8000ce0:	b580      	push	{r7, lr}
 8000ce2:	af00      	add	r7, sp, #0

	return processed_data.rh_comp * 0.1f;
 8000ce4:	4b0b      	ldr	r3, [pc, #44]	@ (8000d14 <APC1_Get_RH_Comp+0x34>)
 8000ce6:	8bdb      	ldrh	r3, [r3, #30]
 8000ce8:	ee07 3a90 	vmov	s15, r3
 8000cec:	eef8 7ae7 	vcvt.f32.s32	s15, s15
 8000cf0:	ed9f 7a09 	vldr	s14, [pc, #36]	@ 8000d18 <APC1_Get_RH_Comp+0x38>
 8000cf4:	ee67 7a87 	vmul.f32	s15, s15, s14
 8000cf8:	ee17 0a90 	vmov	r0, s15
 8000cfc:	f7ff fbd8 	bl	80004b0 <__aeabi_f2d>
 8000d00:	4602      	mov	r2, r0
 8000d02:	460b      	mov	r3, r1
 8000d04:	ec43 2b17 	vmov	d7, r2, r3

}
 8000d08:	eeb0 0a47 	vmov.f32	s0, s14
 8000d0c:	eef0 0a67 	vmov.f32	s1, s15
 8000d10:	bd80      	pop	{r7, pc}
 8000d12:	bf00      	nop
 8000d14:	200002b8 	.word	0x200002b8
 8000d18:	3dcccccd 	.word	0x3dcccccd

08000d1c <APC1_Get_T_Raw>:

/**
  * @brief  Get uncompensated temperature in °C.
  * @retval double
  */
double APC1_Get_T_Raw(void) {
 8000d1c:	b580      	push	{r7, lr}
 8000d1e:	af00      	add	r7, sp, #0

	return processed_data.t_raw * 0.1f;
 8000d20:	4b0b      	ldr	r3, [pc, #44]	@ (8000d50 <APC1_Get_T_Raw+0x34>)
 8000d22:	8c1b      	ldrh	r3, [r3, #32]
 8000d24:	ee07 3a90 	vmov	s15, r3
 8000d28:	eef8 7ae7 	vcvt.f32.s32	s15, s15
 8000d2c:	ed9f 7a09 	vldr	s14, [pc, #36]	@ 8000d54 <APC1_Get_T_Raw+0x38>
 8000d30:	ee67 7a87 	vmul.f32	s15, s15, s14
 8000d34:	ee17 0a90 	vmov	r0, s15
 8000d38:	f7ff fbba 	bl	80004b0 <__aeabi_f2d>
 8000d3c:	4602      	mov	r2, r0
 8000d3e:	460b      	mov	r3, r1
 8000d40:	ec43 2b17 	vmov	d7, r2, r3

}
 8000d44:	eeb0 0a47 	vmov.f32	s0, s14
 8000d48:	eef0 0a67 	vmov.f32	s1, s15
 8000d4c:	bd80      	pop	{r7, pc}
 8000d4e:	bf00      	nop
 8000d50:	200002b8 	.word	0x200002b8
 8000d54:	3dcccccd 	.word	0x3dcccccd

08000d58 <APC1_Get_RH_Raw>:

/**
  * @brief  Get uncompensated RH in %.
  * @retval double
  */
double APC1_Get_RH_Raw(void) {
 8000d58:	b580      	push	{r7, lr}
 8000d5a:	af00      	add	r7, sp, #0

	return processed_data.rh_raw * 0.1f;
 8000d5c:	4b0b      	ldr	r3, [pc, #44]	@ (8000d8c <APC1_Get_RH_Raw+0x34>)
 8000d5e:	8c5b      	ldrh	r3, [r3, #34]	@ 0x22
 8000d60:	ee07 3a90 	vmov	s15, r3
 8000d64:	eef8 7ae7 	vcvt.f32.s32	s15, s15
 8000d68:	ed9f 7a09 	vldr	s14, [pc, #36]	@ 8000d90 <APC1_Get_RH_Raw+0x38>
 8000d6c:	ee67 7a87 	vmul.f32	s15, s15, s14
 8000d70:	ee17 0a90 	vmov	r0, s15
 8000d74:	f7ff fb9c 	bl	80004b0 <__aeabi_f2d>
 8000d78:	4602      	mov	r2, r0
 8000d7a:	460b      	mov	r3, r1
 8000d7c:	ec43 2b17 	vmov	d7, r2, r3

}
 8000d80:	eeb0 0a47 	vmov.f32	s0, s14
 8000d84:	eef0 0a67 	vmov.f32	s1, s15
 8000d88:	bd80      	pop	{r7, pc}
 8000d8a:	bf00      	nop
 8000d8c:	200002b8 	.word	0x200002b8
 8000d90:	3dcccccd 	.word	0x3dcccccd

08000d94 <APC1_Get_AQI>:

/**
  * @brief  Get Air Quality Index according to UBA Classification of TVOC value.
  * @retval unsigned 8 bit value
  */
uint8_t	APC1_Get_AQI(void) {
 8000d94:	b480      	push	{r7}
 8000d96:	af00      	add	r7, sp, #0

	return processed_data.aqi;
 8000d98:	4b03      	ldr	r3, [pc, #12]	@ (8000da8 <APC1_Get_AQI+0x14>)
 8000d9a:	f893 3024 	ldrb.w	r3, [r3, #36]	@ 0x24

}
 8000d9e:	4618      	mov	r0, r3
 8000da0:	46bd      	mov	sp, r7
 8000da2:	f85d 7b04 	ldr.w	r7, [sp], #4
 8000da6:	4770      	bx	lr
 8000da8:	200002b8 	.word	0x200002b8

08000dac <APC1_Get_AQI_String>:

/**
  * @brief  Get Air Quality Index according to UBA Classification of TVOC value as describing string.
  * @retval char*
  */
const char *APC1_Get_AQI_String(void) {
 8000dac:	b580      	push	{r7, lr}
 8000dae:	b082      	sub	sp, #8
 8000db0:	af00      	add	r7, sp, #0

	// if somehow we get a wrong index
	uint8_t index = APC1_Get_AQI();
 8000db2:	f7ff ffef 	bl	8000d94 <APC1_Get_AQI>
 8000db6:	4603      	mov	r3, r0
 8000db8:	71fb      	strb	r3, [r7, #7]
	return (index <= 5 && index >= 1) ? APC1_AQI_Strings[index - 1] : "Index out of bounds\0";
 8000dba:	79fb      	ldrb	r3, [r7, #7]
 8000dbc:	2b05      	cmp	r3, #5
 8000dbe:	d808      	bhi.n	8000dd2 <APC1_Get_AQI_String+0x26>
 8000dc0:	79fb      	ldrb	r3, [r7, #7]
 8000dc2:	2b00      	cmp	r3, #0
 8000dc4:	d005      	beq.n	8000dd2 <APC1_Get_AQI_String+0x26>
 8000dc6:	79fb      	ldrb	r3, [r7, #7]
 8000dc8:	3b01      	subs	r3, #1
 8000dca:	4a04      	ldr	r2, [pc, #16]	@ (8000ddc <APC1_Get_AQI_String+0x30>)
 8000dcc:	f852 3023 	ldr.w	r3, [r2, r3, lsl #2]
 8000dd0:	e000      	b.n	8000dd4 <APC1_Get_AQI_String+0x28>
 8000dd2:	4b03      	ldr	r3, [pc, #12]	@ (8000de0 <APC1_Get_AQI_String+0x34>)

}
 8000dd4:	4618      	mov	r0, r3
 8000dd6:	3708      	adds	r7, #8
 8000dd8:	46bd      	mov	sp, r7
 8000dda:	bd80      	pop	{r7, pc}
 8000ddc:	20000044 	.word	0x20000044
 8000de0:	08003718 	.word	0x08003718

08000de4 <APC1_Get_Error_String>:

/**
  * @brief  Get error value as describing string.
  * @retval char*
  */
char *APC1_Get_Error_String(void) {
 8000de4:	b480      	push	{r7}
 8000de6:	af00      	add	r7, sp, #0

	return error_buffer;
 8000de8:	4b02      	ldr	r3, [pc, #8]	@ (8000df4 <APC1_Get_Error_String+0x10>)

}
 8000dea:	4618      	mov	r0, r3
 8000dec:	46bd      	mov	sp, r7
 8000dee:	f85d 7b04 	ldr.w	r7, [sp], #4
 8000df2:	4770      	bx	lr
 8000df4:	200001ac 	.word	0x200001ac

08000df8 <HAL_UART_RxCpltCallback>:

/**
  * @brief  Full callback for USART receive by interrupt.
  * @note	Sets flag indicating a full reception of values from sensor.
  */
void HAL_UART_RxCpltCallback(UART_HandleTypeDef *huart) {
 8000df8:	b480      	push	{r7}
 8000dfa:	b083      	sub	sp, #12
 8000dfc:	af00      	add	r7, sp, #0
 8000dfe:	6078      	str	r0, [r7, #4]

	if (huart == dev_settings.sensor_uart) {
 8000e00:	4b06      	ldr	r3, [pc, #24]	@ (8000e1c <HAL_UART_RxCpltCallback+0x24>)
 8000e02:	681b      	ldr	r3, [r3, #0]
 8000e04:	687a      	ldr	r2, [r7, #4]
 8000e06:	429a      	cmp	r2, r3
 8000e08:	d102      	bne.n	8000e10 <HAL_UART_RxCpltCallback+0x18>
		dev_settings.received_response = 1;
 8000e0a:	4b04      	ldr	r3, [pc, #16]	@ (8000e1c <HAL_UART_RxCpltCallback+0x24>)
 8000e0c:	2201      	movs	r2, #1
 8000e0e:	605a      	str	r2, [r3, #4]
	}

}
 8000e10:	bf00      	nop
 8000e12:	370c      	adds	r7, #12
 8000e14:	46bd      	mov	sp, r7
 8000e16:	f85d 7b04 	ldr.w	r7, [sp], #4
 8000e1a:	4770      	bx	lr
 8000e1c:	200002ac 	.word	0x200002ac

08000e20 <main>:
/**
  * @brief  The application entry point.
  * @retval int
  */
int main(void)
{
 8000e20:	b580      	push	{r7, lr}
 8000e22:	af00      	add	r7, sp, #0
  /* USER CODE END 1 */

  /* MCU Configuration--------------------------------------------------------*/

  /* Reset of all peripherals, Initializes the Flash interface and the Systick. */
  HAL_Init();
 8000e24:	f000 fac6 	bl	80013b4 <HAL_Init>
  /* USER CODE BEGIN Init */

  /* USER CODE END Init */

  /* Configure the system clock */
  SystemClock_Config();
 8000e28:	f000 f8c8 	bl	8000fbc <SystemClock_Config>
  /* USER CODE BEGIN SysInit */

  /* USER CODE END SysInit */

  /* Initialize all configured peripherals */
  MX_GPIO_Init();
 8000e2c:	f000 f95a 	bl	80010e4 <MX_GPIO_Init>
  MX_USART1_UART_Init();
 8000e30:	f000 f92e 	bl	8001090 <MX_USART1_UART_Init>
  /* USER CODE BEGIN 2 */

  APC1_Init_Sensor(&huart1);
 8000e34:	484b      	ldr	r0, [pc, #300]	@ (8000f64 <main+0x144>)
 8000e36:	f7ff fd0b 	bl	8000850 <APC1_Init_Sensor>

  /* Infinite loop */
  /* USER CODE BEGIN WHILE */
  while (1)
  {
	  if (APC1_Read_Mea_Data() != APC1_OK) {
 8000e3a:	f7ff fd59 	bl	80008f0 <APC1_Read_Mea_Data>
 8000e3e:	4603      	mov	r3, r0
 8000e40:	2b00      	cmp	r3, #0
 8000e42:	d001      	beq.n	8000e48 <main+0x28>
		  Error_Handler();
 8000e44:	f000 f9bc 	bl	80011c0 <Error_Handler>
	  }
	  T_pm1_0 = APC1_Get_PM1_0();
 8000e48:	f7ff fe70 	bl	8000b2c <APC1_Get_PM1_0>
 8000e4c:	4603      	mov	r3, r0
 8000e4e:	461a      	mov	r2, r3
 8000e50:	4b45      	ldr	r3, [pc, #276]	@ (8000f68 <main+0x148>)
 8000e52:	801a      	strh	r2, [r3, #0]
	  T_pm2_5 = APC1_Get_PM2_5();
 8000e54:	f7ff fe76 	bl	8000b44 <APC1_Get_PM2_5>
 8000e58:	4603      	mov	r3, r0
 8000e5a:	461a      	mov	r2, r3
 8000e5c:	4b43      	ldr	r3, [pc, #268]	@ (8000f6c <main+0x14c>)
 8000e5e:	801a      	strh	r2, [r3, #0]
	  T_pm10 = APC1_Get_PM10();
 8000e60:	f7ff fe7c 	bl	8000b5c <APC1_Get_PM10>
 8000e64:	4603      	mov	r3, r0
 8000e66:	461a      	mov	r2, r3
 8000e68:	4b41      	ldr	r3, [pc, #260]	@ (8000f70 <main+0x150>)
 8000e6a:	801a      	strh	r2, [r3, #0]
	  T_pm1_0_air = APC1_Get_PM1_0_air();
 8000e6c:	f7ff fe82 	bl	8000b74 <APC1_Get_PM1_0_air>
 8000e70:	4603      	mov	r3, r0
 8000e72:	461a      	mov	r2, r3
 8000e74:	4b3f      	ldr	r3, [pc, #252]	@ (8000f74 <main+0x154>)
 8000e76:	801a      	strh	r2, [r3, #0]
	  T_pm2_5_air = APC1_Get_PM2_5_air();
 8000e78:	f7ff fe88 	bl	8000b8c <APC1_Get_PM2_5_air>
 8000e7c:	4603      	mov	r3, r0
 8000e7e:	461a      	mov	r2, r3
 8000e80:	4b3d      	ldr	r3, [pc, #244]	@ (8000f78 <main+0x158>)
 8000e82:	801a      	strh	r2, [r3, #0]
	  T_pm10_air = APC1_Get_PM10_air();
 8000e84:	f7ff fe8e 	bl	8000ba4 <APC1_Get_PM10_air>
 8000e88:	4603      	mov	r3, r0
 8000e8a:	461a      	mov	r2, r3
 8000e8c:	4b3b      	ldr	r3, [pc, #236]	@ (8000f7c <main+0x15c>)
 8000e8e:	801a      	strh	r2, [r3, #0]
	  T_particles_0_3 = APC1_Get_Particles_GT_0_3();
 8000e90:	f7ff fe94 	bl	8000bbc <APC1_Get_Particles_GT_0_3>
 8000e94:	4603      	mov	r3, r0
 8000e96:	461a      	mov	r2, r3
 8000e98:	4b39      	ldr	r3, [pc, #228]	@ (8000f80 <main+0x160>)
 8000e9a:	801a      	strh	r2, [r3, #0]
	  T_particles_0_5 = APC1_Get_Particles_GT_0_5();
 8000e9c:	f7ff fe9a 	bl	8000bd4 <APC1_Get_Particles_GT_0_5>
 8000ea0:	4603      	mov	r3, r0
 8000ea2:	461a      	mov	r2, r3
 8000ea4:	4b37      	ldr	r3, [pc, #220]	@ (8000f84 <main+0x164>)
 8000ea6:	801a      	strh	r2, [r3, #0]
	  T_particles_1_0 = APC1_Get_Particles_GT_1_0();
 8000ea8:	f7ff fea4 	bl	8000bf4 <APC1_Get_Particles_GT_1_0>
 8000eac:	4603      	mov	r3, r0
 8000eae:	461a      	mov	r2, r3
 8000eb0:	4b35      	ldr	r3, [pc, #212]	@ (8000f88 <main+0x168>)
 8000eb2:	801a      	strh	r2, [r3, #0]
	  T_particles_2_5 = APC1_Get_Particles_GT_2_5();
 8000eb4:	f7ff feae 	bl	8000c14 <APC1_Get_Particles_GT_2_5>
 8000eb8:	4603      	mov	r3, r0
 8000eba:	461a      	mov	r2, r3
 8000ebc:	4b33      	ldr	r3, [pc, #204]	@ (8000f8c <main+0x16c>)
 8000ebe:	801a      	strh	r2, [r3, #0]
	  T_particles_5_0 = APC1_Get_Particles_GT_5_0();
 8000ec0:	f7ff feb8 	bl	8000c34 <APC1_Get_Particles_GT_5_0>
 8000ec4:	4603      	mov	r3, r0
 8000ec6:	461a      	mov	r2, r3
 8000ec8:	4b31      	ldr	r3, [pc, #196]	@ (8000f90 <main+0x170>)
 8000eca:	801a      	strh	r2, [r3, #0]
	  T_particles_10 = APC1_Get_Particles_GT_10();
 8000ecc:	f7ff fec2 	bl	8000c54 <APC1_Get_Particles_GT_10>
 8000ed0:	4603      	mov	r3, r0
 8000ed2:	461a      	mov	r2, r3
 8000ed4:	4b2f      	ldr	r3, [pc, #188]	@ (8000f94 <main+0x174>)
 8000ed6:	801a      	strh	r2, [r3, #0]
	  T_TVOC = APC1_Get_TVOC();
 8000ed8:	f7ff fecc 	bl	8000c74 <APC1_Get_TVOC>
 8000edc:	4603      	mov	r3, r0
 8000ede:	461a      	mov	r2, r3
 8000ee0:	4b2d      	ldr	r3, [pc, #180]	@ (8000f98 <main+0x178>)
 8000ee2:	801a      	strh	r2, [r3, #0]
	  T_eCO2 = APC1_Get_eCO2();
 8000ee4:	f7ff fed2 	bl	8000c8c <APC1_Get_eCO2>
 8000ee8:	4603      	mov	r3, r0
 8000eea:	461a      	mov	r2, r3
 8000eec:	4b2b      	ldr	r3, [pc, #172]	@ (8000f9c <main+0x17c>)
 8000eee:	801a      	strh	r2, [r3, #0]
	  T_t_comp = APC1_Get_T_Comp();
 8000ef0:	f7ff fed8 	bl	8000ca4 <APC1_Get_T_Comp>
 8000ef4:	eeb0 7a40 	vmov.f32	s14, s0
 8000ef8:	eef0 7a60 	vmov.f32	s15, s1
 8000efc:	4b28      	ldr	r3, [pc, #160]	@ (8000fa0 <main+0x180>)
 8000efe:	ed83 7b00 	vstr	d7, [r3]
	  T_rh_comp = APC1_Get_RH_Comp();
 8000f02:	f7ff feed 	bl	8000ce0 <APC1_Get_RH_Comp>
 8000f06:	eeb0 7a40 	vmov.f32	s14, s0
 8000f0a:	eef0 7a60 	vmov.f32	s15, s1
 8000f0e:	4b25      	ldr	r3, [pc, #148]	@ (8000fa4 <main+0x184>)
 8000f10:	ed83 7b00 	vstr	d7, [r3]
	  T_t_raw = APC1_Get_T_Raw();
 8000f14:	f7ff ff02 	bl	8000d1c <APC1_Get_T_Raw>
 8000f18:	eeb0 7a40 	vmov.f32	s14, s0
 8000f1c:	eef0 7a60 	vmov.f32	s15, s1
 8000f20:	4b21      	ldr	r3, [pc, #132]	@ (8000fa8 <main+0x188>)
 8000f22:	ed83 7b00 	vstr	d7, [r3]
	  T_rh_raw = APC1_Get_RH_Raw();
 8000f26:	f7ff ff17 	bl	8000d58 <APC1_Get_RH_Raw>
 8000f2a:	eeb0 7a40 	vmov.f32	s14, s0
 8000f2e:	eef0 7a60 	vmov.f32	s15, s1
 8000f32:	4b1e      	ldr	r3, [pc, #120]	@ (8000fac <main+0x18c>)
 8000f34:	ed83 7b00 	vstr	d7, [r3]
	  T_aqi = APC1_Get_AQI();
 8000f38:	f7ff ff2c 	bl	8000d94 <APC1_Get_AQI>
 8000f3c:	4603      	mov	r3, r0
 8000f3e:	461a      	mov	r2, r3
 8000f40:	4b1b      	ldr	r3, [pc, #108]	@ (8000fb0 <main+0x190>)
 8000f42:	701a      	strb	r2, [r3, #0]
	  aqi_string = APC1_Get_AQI_String();
 8000f44:	f7ff ff32 	bl	8000dac <APC1_Get_AQI_String>
 8000f48:	4603      	mov	r3, r0
 8000f4a:	4a1a      	ldr	r2, [pc, #104]	@ (8000fb4 <main+0x194>)
 8000f4c:	6013      	str	r3, [r2, #0]
	  error_string = APC1_Get_Error_String();
 8000f4e:	f7ff ff49 	bl	8000de4 <APC1_Get_Error_String>
 8000f52:	4603      	mov	r3, r0
 8000f54:	4a18      	ldr	r2, [pc, #96]	@ (8000fb8 <main+0x198>)
 8000f56:	6013      	str	r3, [r2, #0]
	  HAL_Delay(2000);
 8000f58:	f44f 60fa 	mov.w	r0, #2000	@ 0x7d0
 8000f5c:	f000 fa9c 	bl	8001498 <HAL_Delay>
	  if (APC1_Read_Mea_Data() != APC1_OK) {
 8000f60:	e76b      	b.n	8000e3a <main+0x1a>
 8000f62:	bf00      	nop
 8000f64:	2000032c 	.word	0x2000032c
 8000f68:	200002de 	.word	0x200002de
 8000f6c:	200002e0 	.word	0x200002e0
 8000f70:	200002e2 	.word	0x200002e2
 8000f74:	200002e4 	.word	0x200002e4
 8000f78:	200002e6 	.word	0x200002e6
 8000f7c:	200002e8 	.word	0x200002e8
 8000f80:	200002ea 	.word	0x200002ea
 8000f84:	200002ec 	.word	0x200002ec
 8000f88:	200002ee 	.word	0x200002ee
 8000f8c:	200002f0 	.word	0x200002f0
 8000f90:	200002f2 	.word	0x200002f2
 8000f94:	200002f4 	.word	0x200002f4
 8000f98:	200002f6 	.word	0x200002f6
 8000f9c:	200002f8 	.word	0x200002f8
 8000fa0:	20000300 	.word	0x20000300
 8000fa4:	20000308 	.word	0x20000308
 8000fa8:	20000310 	.word	0x20000310
 8000fac:	20000318 	.word	0x20000318
 8000fb0:	20000328 	.word	0x20000328
 8000fb4:	20000320 	.word	0x20000320
 8000fb8:	20000324 	.word	0x20000324

08000fbc <SystemClock_Config>:
/**
  * @brief System Clock Configuration
  * @retval None
  */
void SystemClock_Config(void)
{
 8000fbc:	b580      	push	{r7, lr}
 8000fbe:	b094      	sub	sp, #80	@ 0x50
 8000fc0:	af00      	add	r7, sp, #0
  RCC_OscInitTypeDef RCC_OscInitStruct = {0};
 8000fc2:	f107 0320 	add.w	r3, r7, #32
 8000fc6:	2230      	movs	r2, #48	@ 0x30
 8000fc8:	2100      	movs	r1, #0
 8000fca:	4618      	mov	r0, r3
 8000fcc:	f002 fada 	bl	8003584 <memset>
  RCC_ClkInitTypeDef RCC_ClkInitStruct = {0};
 8000fd0:	f107 030c 	add.w	r3, r7, #12
 8000fd4:	2200      	movs	r2, #0
 8000fd6:	601a      	str	r2, [r3, #0]
 8000fd8:	605a      	str	r2, [r3, #4]
 8000fda:	609a      	str	r2, [r3, #8]
 8000fdc:	60da      	str	r2, [r3, #12]
 8000fde:	611a      	str	r2, [r3, #16]

  /** Configure the main internal regulator output voltage
  */
  __HAL_RCC_PWR_CLK_ENABLE();
 8000fe0:	2300      	movs	r3, #0
 8000fe2:	60bb      	str	r3, [r7, #8]
 8000fe4:	4b28      	ldr	r3, [pc, #160]	@ (8001088 <SystemClock_Config+0xcc>)
 8000fe6:	6c1b      	ldr	r3, [r3, #64]	@ 0x40
 8000fe8:	4a27      	ldr	r2, [pc, #156]	@ (8001088 <SystemClock_Config+0xcc>)
 8000fea:	f043 5380 	orr.w	r3, r3, #268435456	@ 0x10000000
 8000fee:	6413      	str	r3, [r2, #64]	@ 0x40
 8000ff0:	4b25      	ldr	r3, [pc, #148]	@ (8001088 <SystemClock_Config+0xcc>)
 8000ff2:	6c1b      	ldr	r3, [r3, #64]	@ 0x40
 8000ff4:	f003 5380 	and.w	r3, r3, #268435456	@ 0x10000000
 8000ff8:	60bb      	str	r3, [r7, #8]
 8000ffa:	68bb      	ldr	r3, [r7, #8]
  __HAL_PWR_VOLTAGESCALING_CONFIG(PWR_REGULATOR_VOLTAGE_SCALE1);
 8000ffc:	2300      	movs	r3, #0
 8000ffe:	607b      	str	r3, [r7, #4]
 8001000:	4b22      	ldr	r3, [pc, #136]	@ (800108c <SystemClock_Config+0xd0>)
 8001002:	681b      	ldr	r3, [r3, #0]
 8001004:	4a21      	ldr	r2, [pc, #132]	@ (800108c <SystemClock_Config+0xd0>)
 8001006:	f443 4340 	orr.w	r3, r3, #49152	@ 0xc000
 800100a:	6013      	str	r3, [r2, #0]
 800100c:	4b1f      	ldr	r3, [pc, #124]	@ (800108c <SystemClock_Config+0xd0>)
 800100e:	681b      	ldr	r3, [r3, #0]
 8001010:	f403 4340 	and.w	r3, r3, #49152	@ 0xc000
 8001014:	607b      	str	r3, [r7, #4]
 8001016:	687b      	ldr	r3, [r7, #4]

  /** Initializes the RCC Oscillators according to the specified parameters
  * in the RCC_OscInitTypeDef structure.
  */
  RCC_OscInitStruct.OscillatorType = RCC_OSCILLATORTYPE_HSI;
 8001018:	2302      	movs	r3, #2
 800101a:	623b      	str	r3, [r7, #32]
  RCC_OscInitStruct.HSIState = RCC_HSI_ON;
 800101c:	2301      	movs	r3, #1
 800101e:	62fb      	str	r3, [r7, #44]	@ 0x2c
  RCC_OscInitStruct.HSICalibrationValue = RCC_HSICALIBRATION_DEFAULT;
 8001020:	2310      	movs	r3, #16
 8001022:	633b      	str	r3, [r7, #48]	@ 0x30
  RCC_OscInitStruct.PLL.PLLState = RCC_PLL_ON;
 8001024:	2302      	movs	r3, #2
 8001026:	63bb      	str	r3, [r7, #56]	@ 0x38
  RCC_OscInitStruct.PLL.PLLSource = RCC_PLLSOURCE_HSI;
 8001028:	2300      	movs	r3, #0
 800102a:	63fb      	str	r3, [r7, #60]	@ 0x3c
  RCC_OscInitStruct.PLL.PLLM = 16;
 800102c:	2310      	movs	r3, #16
 800102e:	643b      	str	r3, [r7, #64]	@ 0x40
  RCC_OscInitStruct.PLL.PLLN = 336;
 8001030:	f44f 73a8 	mov.w	r3, #336	@ 0x150
 8001034:	647b      	str	r3, [r7, #68]	@ 0x44
  RCC_OscInitStruct.PLL.PLLP = RCC_PLLP_DIV4;
 8001036:	2304      	movs	r3, #4
 8001038:	64bb      	str	r3, [r7, #72]	@ 0x48
  RCC_OscInitStruct.PLL.PLLQ = 4;
 800103a:	2304      	movs	r3, #4
 800103c:	64fb      	str	r3, [r7, #76]	@ 0x4c
  if (HAL_RCC_OscConfig(&RCC_OscInitStruct) != HAL_OK)
 800103e:	f107 0320 	add.w	r3, r7, #32
 8001042:	4618      	mov	r0, r3
 8001044:	f000 fd8e 	bl	8001b64 <HAL_RCC_OscConfig>
 8001048:	4603      	mov	r3, r0
 800104a:	2b00      	cmp	r3, #0
 800104c:	d001      	beq.n	8001052 <SystemClock_Config+0x96>
  {
    Error_Handler();
 800104e:	f000 f8b7 	bl	80011c0 <Error_Handler>
  }

  /** Initializes the CPU, AHB and APB buses clocks
  */
  RCC_ClkInitStruct.ClockType = RCC_CLOCKTYPE_HCLK|RCC_CLOCKTYPE_SYSCLK
 8001052:	230f      	movs	r3, #15
 8001054:	60fb      	str	r3, [r7, #12]
                              |RCC_CLOCKTYPE_PCLK1|RCC_CLOCKTYPE_PCLK2;
  RCC_ClkInitStruct.SYSCLKSource = RCC_SYSCLKSOURCE_PLLCLK;
 8001056:	2302      	movs	r3, #2
 8001058:	613b      	str	r3, [r7, #16]
  RCC_ClkInitStruct.AHBCLKDivider = RCC_SYSCLK_DIV1;
 800105a:	2300      	movs	r3, #0
 800105c:	617b      	str	r3, [r7, #20]
  RCC_ClkInitStruct.APB1CLKDivider = RCC_HCLK_DIV2;
 800105e:	f44f 5380 	mov.w	r3, #4096	@ 0x1000
 8001062:	61bb      	str	r3, [r7, #24]
  RCC_ClkInitStruct.APB2CLKDivider = RCC_HCLK_DIV1;
 8001064:	2300      	movs	r3, #0
 8001066:	61fb      	str	r3, [r7, #28]

  if (HAL_RCC_ClockConfig(&RCC_ClkInitStruct, FLASH_LATENCY_2) != HAL_OK)
 8001068:	f107 030c 	add.w	r3, r7, #12
 800106c:	2102      	movs	r1, #2
 800106e:	4618      	mov	r0, r3
 8001070:	f000 fff0 	bl	8002054 <HAL_RCC_ClockConfig>
 8001074:	4603      	mov	r3, r0
 8001076:	2b00      	cmp	r3, #0
 8001078:	d001      	beq.n	800107e <SystemClock_Config+0xc2>
  {
    Error_Handler();
 800107a:	f000 f8a1 	bl	80011c0 <Error_Handler>
  }
}
 800107e:	bf00      	nop
 8001080:	3750      	adds	r7, #80	@ 0x50
 8001082:	46bd      	mov	sp, r7
 8001084:	bd80      	pop	{r7, pc}
 8001086:	bf00      	nop
 8001088:	40023800 	.word	0x40023800
 800108c:	40007000 	.word	0x40007000

08001090 <MX_USART1_UART_Init>:
  * @brief USART1 Initialization Function
  * @param None
  * @retval None
  */
static void MX_USART1_UART_Init(void)
{
 8001090:	b580      	push	{r7, lr}
 8001092:	af00      	add	r7, sp, #0
  /* USER CODE END USART1_Init 0 */

  /* USER CODE BEGIN USART1_Init 1 */

  /* USER CODE END USART1_Init 1 */
  huart1.Instance = USART1;
 8001094:	4b11      	ldr	r3, [pc, #68]	@ (80010dc <MX_USART1_UART_Init+0x4c>)
 8001096:	4a12      	ldr	r2, [pc, #72]	@ (80010e0 <MX_USART1_UART_Init+0x50>)
 8001098:	601a      	str	r2, [r3, #0]
  huart1.Init.BaudRate = 9600;
 800109a:	4b10      	ldr	r3, [pc, #64]	@ (80010dc <MX_USART1_UART_Init+0x4c>)
 800109c:	f44f 5216 	mov.w	r2, #9600	@ 0x2580
 80010a0:	605a      	str	r2, [r3, #4]
  huart1.Init.WordLength = UART_WORDLENGTH_8B;
 80010a2:	4b0e      	ldr	r3, [pc, #56]	@ (80010dc <MX_USART1_UART_Init+0x4c>)
 80010a4:	2200      	movs	r2, #0
 80010a6:	609a      	str	r2, [r3, #8]
  huart1.Init.StopBits = UART_STOPBITS_1;
 80010a8:	4b0c      	ldr	r3, [pc, #48]	@ (80010dc <MX_USART1_UART_Init+0x4c>)
 80010aa:	2200      	movs	r2, #0
 80010ac:	60da      	str	r2, [r3, #12]
  huart1.Init.Parity = UART_PARITY_NONE;
 80010ae:	4b0b      	ldr	r3, [pc, #44]	@ (80010dc <MX_USART1_UART_Init+0x4c>)
 80010b0:	2200      	movs	r2, #0
 80010b2:	611a      	str	r2, [r3, #16]
  huart1.Init.Mode = UART_MODE_TX_RX;
 80010b4:	4b09      	ldr	r3, [pc, #36]	@ (80010dc <MX_USART1_UART_Init+0x4c>)
 80010b6:	220c      	movs	r2, #12
 80010b8:	615a      	str	r2, [r3, #20]
  huart1.Init.HwFlowCtl = UART_HWCONTROL_NONE;
 80010ba:	4b08      	ldr	r3, [pc, #32]	@ (80010dc <MX_USART1_UART_Init+0x4c>)
 80010bc:	2200      	movs	r2, #0
 80010be:	619a      	str	r2, [r3, #24]
  huart1.Init.OverSampling = UART_OVERSAMPLING_16;
 80010c0:	4b06      	ldr	r3, [pc, #24]	@ (80010dc <MX_USART1_UART_Init+0x4c>)
 80010c2:	2200      	movs	r2, #0
 80010c4:	61da      	str	r2, [r3, #28]
  if (HAL_UART_Init(&huart1) != HAL_OK)
 80010c6:	4805      	ldr	r0, [pc, #20]	@ (80010dc <MX_USART1_UART_Init+0x4c>)
 80010c8:	f001 f9e4 	bl	8002494 <HAL_UART_Init>
 80010cc:	4603      	mov	r3, r0
 80010ce:	2b00      	cmp	r3, #0
 80010d0:	d001      	beq.n	80010d6 <MX_USART1_UART_Init+0x46>
  {
    Error_Handler();
 80010d2:	f000 f875 	bl	80011c0 <Error_Handler>
  }
  /* USER CODE BEGIN USART1_Init 2 */

  /* USER CODE END USART1_Init 2 */

}
 80010d6:	bf00      	nop
 80010d8:	bd80      	pop	{r7, pc}
 80010da:	bf00      	nop
 80010dc:	2000032c 	.word	0x2000032c
 80010e0:	40011000 	.word	0x40011000

080010e4 <MX_GPIO_Init>:
  * @brief GPIO Initialization Function
  * @param None
  * @retval None
  */
static void MX_GPIO_Init(void)
{
 80010e4:	b580      	push	{r7, lr}
 80010e6:	b08a      	sub	sp, #40	@ 0x28
 80010e8:	af00      	add	r7, sp, #0
  GPIO_InitTypeDef GPIO_InitStruct = {0};
 80010ea:	f107 0314 	add.w	r3, r7, #20
 80010ee:	2200      	movs	r2, #0
 80010f0:	601a      	str	r2, [r3, #0]
 80010f2:	605a      	str	r2, [r3, #4]
 80010f4:	609a      	str	r2, [r3, #8]
 80010f6:	60da      	str	r2, [r3, #12]
 80010f8:	611a      	str	r2, [r3, #16]
/* USER CODE BEGIN MX_GPIO_Init_1 */
/* USER CODE END MX_GPIO_Init_1 */

  /* GPIO Ports Clock Enable */
  __HAL_RCC_GPIOC_CLK_ENABLE();
 80010fa:	2300      	movs	r3, #0
 80010fc:	613b      	str	r3, [r7, #16]
 80010fe:	4b2d      	ldr	r3, [pc, #180]	@ (80011b4 <MX_GPIO_Init+0xd0>)
 8001100:	6b1b      	ldr	r3, [r3, #48]	@ 0x30
 8001102:	4a2c      	ldr	r2, [pc, #176]	@ (80011b4 <MX_GPIO_Init+0xd0>)
 8001104:	f043 0304 	orr.w	r3, r3, #4
 8001108:	6313      	str	r3, [r2, #48]	@ 0x30
 800110a:	4b2a      	ldr	r3, [pc, #168]	@ (80011b4 <MX_GPIO_Init+0xd0>)
 800110c:	6b1b      	ldr	r3, [r3, #48]	@ 0x30
 800110e:	f003 0304 	and.w	r3, r3, #4
 8001112:	613b      	str	r3, [r7, #16]
 8001114:	693b      	ldr	r3, [r7, #16]
  __HAL_RCC_GPIOH_CLK_ENABLE();
 8001116:	2300      	movs	r3, #0
 8001118:	60fb      	str	r3, [r7, #12]
 800111a:	4b26      	ldr	r3, [pc, #152]	@ (80011b4 <MX_GPIO_Init+0xd0>)
 800111c:	6b1b      	ldr	r3, [r3, #48]	@ 0x30
 800111e:	4a25      	ldr	r2, [pc, #148]	@ (80011b4 <MX_GPIO_Init+0xd0>)
 8001120:	f043 0380 	orr.w	r3, r3, #128	@ 0x80
 8001124:	6313      	str	r3, [r2, #48]	@ 0x30
 8001126:	4b23      	ldr	r3, [pc, #140]	@ (80011b4 <MX_GPIO_Init+0xd0>)
 8001128:	6b1b      	ldr	r3, [r3, #48]	@ 0x30
 800112a:	f003 0380 	and.w	r3, r3, #128	@ 0x80
 800112e:	60fb      	str	r3, [r7, #12]
 8001130:	68fb      	ldr	r3, [r7, #12]
  __HAL_RCC_GPIOA_CLK_ENABLE();
 8001132:	2300      	movs	r3, #0
 8001134:	60bb      	str	r3, [r7, #8]
 8001136:	4b1f      	ldr	r3, [pc, #124]	@ (80011b4 <MX_GPIO_Init+0xd0>)
 8001138:	6b1b      	ldr	r3, [r3, #48]	@ 0x30
 800113a:	4a1e      	ldr	r2, [pc, #120]	@ (80011b4 <MX_GPIO_Init+0xd0>)
 800113c:	f043 0301 	orr.w	r3, r3, #1
 8001140:	6313      	str	r3, [r2, #48]	@ 0x30
 8001142:	4b1c      	ldr	r3, [pc, #112]	@ (80011b4 <MX_GPIO_Init+0xd0>)
 8001144:	6b1b      	ldr	r3, [r3, #48]	@ 0x30
 8001146:	f003 0301 	and.w	r3, r3, #1
 800114a:	60bb      	str	r3, [r7, #8]
 800114c:	68bb      	ldr	r3, [r7, #8]
  __HAL_RCC_GPIOB_CLK_ENABLE();
 800114e:	2300      	movs	r3, #0
 8001150:	607b      	str	r3, [r7, #4]
 8001152:	4b18      	ldr	r3, [pc, #96]	@ (80011b4 <MX_GPIO_Init+0xd0>)
 8001154:	6b1b      	ldr	r3, [r3, #48]	@ 0x30
 8001156:	4a17      	ldr	r2, [pc, #92]	@ (80011b4 <MX_GPIO_Init+0xd0>)
 8001158:	f043 0302 	orr.w	r3, r3, #2
 800115c:	6313      	str	r3, [r2, #48]	@ 0x30
 800115e:	4b15      	ldr	r3, [pc, #84]	@ (80011b4 <MX_GPIO_Init+0xd0>)
 8001160:	6b1b      	ldr	r3, [r3, #48]	@ 0x30
 8001162:	f003 0302 	and.w	r3, r3, #2
 8001166:	607b      	str	r3, [r7, #4]
 8001168:	687b      	ldr	r3, [r7, #4]

  /*Configure GPIO pin Output Level */
  HAL_GPIO_WritePin(LD2_GPIO_Port, LD2_Pin, GPIO_PIN_RESET);
 800116a:	2200      	movs	r2, #0
 800116c:	2120      	movs	r1, #32
 800116e:	4812      	ldr	r0, [pc, #72]	@ (80011b8 <MX_GPIO_Init+0xd4>)
 8001170:	f000 fcde 	bl	8001b30 <HAL_GPIO_WritePin>

  /*Configure GPIO pin : B1_Pin */
  GPIO_InitStruct.Pin = B1_Pin;
 8001174:	f44f 5300 	mov.w	r3, #8192	@ 0x2000
 8001178:	617b      	str	r3, [r7, #20]
  GPIO_InitStruct.Mode = GPIO_MODE_IT_FALLING;
 800117a:	f44f 1304 	mov.w	r3, #2162688	@ 0x210000
 800117e:	61bb      	str	r3, [r7, #24]
  GPIO_InitStruct.Pull = GPIO_NOPULL;
 8001180:	2300      	movs	r3, #0
 8001182:	61fb      	str	r3, [r7, #28]
  HAL_GPIO_Init(B1_GPIO_Port, &GPIO_InitStruct);
 8001184:	f107 0314 	add.w	r3, r7, #20
 8001188:	4619      	mov	r1, r3
 800118a:	480c      	ldr	r0, [pc, #48]	@ (80011bc <MX_GPIO_Init+0xd8>)
 800118c:	f000 fb4c 	bl	8001828 <HAL_GPIO_Init>

  /*Configure GPIO pin : LD2_Pin */
  GPIO_InitStruct.Pin = LD2_Pin;
 8001190:	2320      	movs	r3, #32
 8001192:	617b      	str	r3, [r7, #20]
  GPIO_InitStruct.Mode = GPIO_MODE_OUTPUT_PP;
 8001194:	2301      	movs	r3, #1
 8001196:	61bb      	str	r3, [r7, #24]
  GPIO_InitStruct.Pull = GPIO_NOPULL;
 8001198:	2300      	movs	r3, #0
 800119a:	61fb      	str	r3, [r7, #28]
  GPIO_InitStruct.Speed = GPIO_SPEED_FREQ_LOW;
 800119c:	2300      	movs	r3, #0
 800119e:	623b      	str	r3, [r7, #32]
  HAL_GPIO_Init(LD2_GPIO_Port, &GPIO_InitStruct);
 80011a0:	f107 0314 	add.w	r3, r7, #20
 80011a4:	4619      	mov	r1, r3
 80011a6:	4804      	ldr	r0, [pc, #16]	@ (80011b8 <MX_GPIO_Init+0xd4>)
 80011a8:	f000 fb3e 	bl	8001828 <HAL_GPIO_Init>

/* USER CODE BEGIN MX_GPIO_Init_2 */
/* USER CODE END MX_GPIO_Init_2 */
}
 80011ac:	bf00      	nop
 80011ae:	3728      	adds	r7, #40	@ 0x28
 80011b0:	46bd      	mov	sp, r7
 80011b2:	bd80      	pop	{r7, pc}
 80011b4:	40023800 	.word	0x40023800
 80011b8:	40020000 	.word	0x40020000
 80011bc:	40020800 	.word	0x40020800

080011c0 <Error_Handler>:
/**
  * @brief  This function is executed in case of error occurrence.
  * @retval None
  */
void Error_Handler(void)
{
 80011c0:	b580      	push	{r7, lr}
 80011c2:	af00      	add	r7, sp, #0
  \details Disables IRQ interrupts by setting the I-bit in the CPSR.
           Can only be executed in Privileged modes.
 */
__STATIC_FORCEINLINE void __disable_irq(void)
{
  __ASM volatile ("cpsid i" : : : "memory");
 80011c4:	b672      	cpsid	i
}
 80011c6:	bf00      	nop
  /* USER CODE BEGIN Error_Handler_Debug */
  /* User can add his own implementation to report the HAL error return state */
  __disable_irq();
  while (1)
  {
	  error_string = APC1_Get_Error_String();
 80011c8:	f7ff fe0c 	bl	8000de4 <APC1_Get_Error_String>
 80011cc:	4603      	mov	r3, r0
 80011ce:	4a01      	ldr	r2, [pc, #4]	@ (80011d4 <Error_Handler+0x14>)
 80011d0:	6013      	str	r3, [r2, #0]
 80011d2:	e7f9      	b.n	80011c8 <Error_Handler+0x8>
 80011d4:	20000324 	.word	0x20000324

080011d8 <HAL_MspInit>:
/* USER CODE END 0 */
/**
  * Initializes the Global MSP.
  */
void HAL_MspInit(void)
{
 80011d8:	b580      	push	{r7, lr}
 80011da:	b082      	sub	sp, #8
 80011dc:	af00      	add	r7, sp, #0
  /* USER CODE BEGIN MspInit 0 */

  /* USER CODE END MspInit 0 */

  __HAL_RCC_SYSCFG_CLK_ENABLE();
 80011de:	2300      	movs	r3, #0
 80011e0:	607b      	str	r3, [r7, #4]
 80011e2:	4b10      	ldr	r3, [pc, #64]	@ (8001224 <HAL_MspInit+0x4c>)
 80011e4:	6c5b      	ldr	r3, [r3, #68]	@ 0x44
 80011e6:	4a0f      	ldr	r2, [pc, #60]	@ (8001224 <HAL_MspInit+0x4c>)
 80011e8:	f443 4380 	orr.w	r3, r3, #16384	@ 0x4000
 80011ec:	6453      	str	r3, [r2, #68]	@ 0x44
 80011ee:	4b0d      	ldr	r3, [pc, #52]	@ (8001224 <HAL_MspInit+0x4c>)
 80011f0:	6c5b      	ldr	r3, [r3, #68]	@ 0x44
 80011f2:	f403 4380 	and.w	r3, r3, #16384	@ 0x4000
 80011f6:	607b      	str	r3, [r7, #4]
 80011f8:	687b      	ldr	r3, [r7, #4]
  __HAL_RCC_PWR_CLK_ENABLE();
 80011fa:	2300      	movs	r3, #0
 80011fc:	603b      	str	r3, [r7, #0]
 80011fe:	4b09      	ldr	r3, [pc, #36]	@ (8001224 <HAL_MspInit+0x4c>)
 8001200:	6c1b      	ldr	r3, [r3, #64]	@ 0x40
 8001202:	4a08      	ldr	r2, [pc, #32]	@ (8001224 <HAL_MspInit+0x4c>)
 8001204:	f043 5380 	orr.w	r3, r3, #268435456	@ 0x10000000
 8001208:	6413      	str	r3, [r2, #64]	@ 0x40
 800120a:	4b06      	ldr	r3, [pc, #24]	@ (8001224 <HAL_MspInit+0x4c>)
 800120c:	6c1b      	ldr	r3, [r3, #64]	@ 0x40
 800120e:	f003 5380 	and.w	r3, r3, #268435456	@ 0x10000000
 8001212:	603b      	str	r3, [r7, #0]
 8001214:	683b      	ldr	r3, [r7, #0]

  HAL_NVIC_SetPriorityGrouping(NVIC_PRIORITYGROUP_0);
 8001216:	2007      	movs	r0, #7
 8001218:	f000 fa32 	bl	8001680 <HAL_NVIC_SetPriorityGrouping>
  /* System interrupt init*/

  /* USER CODE BEGIN MspInit 1 */

  /* USER CODE END MspInit 1 */
}
 800121c:	bf00      	nop
 800121e:	3708      	adds	r7, #8
 8001220:	46bd      	mov	sp, r7
 8001222:	bd80      	pop	{r7, pc}
 8001224:	40023800 	.word	0x40023800

08001228 <HAL_UART_MspInit>:
* This function configures the hardware resources used in this example
* @param huart: UART handle pointer
* @retval None
*/
void HAL_UART_MspInit(UART_HandleTypeDef* huart)
{
 8001228:	b580      	push	{r7, lr}
 800122a:	b08a      	sub	sp, #40	@ 0x28
 800122c:	af00      	add	r7, sp, #0
 800122e:	6078      	str	r0, [r7, #4]
  GPIO_InitTypeDef GPIO_InitStruct = {0};
 8001230:	f107 0314 	add.w	r3, r7, #20
 8001234:	2200      	movs	r2, #0
 8001236:	601a      	str	r2, [r3, #0]
 8001238:	605a      	str	r2, [r3, #4]
 800123a:	609a      	str	r2, [r3, #8]
 800123c:	60da      	str	r2, [r3, #12]
 800123e:	611a      	str	r2, [r3, #16]
  if(huart->Instance==USART1)
 8001240:	687b      	ldr	r3, [r7, #4]
 8001242:	681b      	ldr	r3, [r3, #0]
 8001244:	4a1d      	ldr	r2, [pc, #116]	@ (80012bc <HAL_UART_MspInit+0x94>)
 8001246:	4293      	cmp	r3, r2
 8001248:	d134      	bne.n	80012b4 <HAL_UART_MspInit+0x8c>
  {
  /* USER CODE BEGIN USART1_MspInit 0 */

  /* USER CODE END USART1_MspInit 0 */
    /* Peripheral clock enable */
    __HAL_RCC_USART1_CLK_ENABLE();
 800124a:	2300      	movs	r3, #0
 800124c:	613b      	str	r3, [r7, #16]
 800124e:	4b1c      	ldr	r3, [pc, #112]	@ (80012c0 <HAL_UART_MspInit+0x98>)
 8001250:	6c5b      	ldr	r3, [r3, #68]	@ 0x44
 8001252:	4a1b      	ldr	r2, [pc, #108]	@ (80012c0 <HAL_UART_MspInit+0x98>)
 8001254:	f043 0310 	orr.w	r3, r3, #16
 8001258:	6453      	str	r3, [r2, #68]	@ 0x44
 800125a:	4b19      	ldr	r3, [pc, #100]	@ (80012c0 <HAL_UART_MspInit+0x98>)
 800125c:	6c5b      	ldr	r3, [r3, #68]	@ 0x44
 800125e:	f003 0310 	and.w	r3, r3, #16
 8001262:	613b      	str	r3, [r7, #16]
 8001264:	693b      	ldr	r3, [r7, #16]

    __HAL_RCC_GPIOA_CLK_ENABLE();
 8001266:	2300      	movs	r3, #0
 8001268:	60fb      	str	r3, [r7, #12]
 800126a:	4b15      	ldr	r3, [pc, #84]	@ (80012c0 <HAL_UART_MspInit+0x98>)
 800126c:	6b1b      	ldr	r3, [r3, #48]	@ 0x30
 800126e:	4a14      	ldr	r2, [pc, #80]	@ (80012c0 <HAL_UART_MspInit+0x98>)
 8001270:	f043 0301 	orr.w	r3, r3, #1
 8001274:	6313      	str	r3, [r2, #48]	@ 0x30
 8001276:	4b12      	ldr	r3, [pc, #72]	@ (80012c0 <HAL_UART_MspInit+0x98>)
 8001278:	6b1b      	ldr	r3, [r3, #48]	@ 0x30
 800127a:	f003 0301 	and.w	r3, r3, #1
 800127e:	60fb      	str	r3, [r7, #12]
 8001280:	68fb      	ldr	r3, [r7, #12]
    /**USART1 GPIO Configuration
    PA9     ------> USART1_TX
    PA10     ------> USART1_RX
    */
    GPIO_InitStruct.Pin = GPIO_PIN_9|GPIO_PIN_10;
 8001282:	f44f 63c0 	mov.w	r3, #1536	@ 0x600
 8001286:	617b      	str	r3, [r7, #20]
    GPIO_InitStruct.Mode = GPIO_MODE_AF_PP;
 8001288:	2302      	movs	r3, #2
 800128a:	61bb      	str	r3, [r7, #24]
    GPIO_InitStruct.Pull = GPIO_NOPULL;
 800128c:	2300      	movs	r3, #0
 800128e:	61fb      	str	r3, [r7, #28]
    GPIO_InitStruct.Speed = GPIO_SPEED_FREQ_VERY_HIGH;
 8001290:	2303      	movs	r3, #3
 8001292:	623b      	str	r3, [r7, #32]
    GPIO_InitStruct.Alternate = GPIO_AF7_USART1;
 8001294:	2307      	movs	r3, #7
 8001296:	627b      	str	r3, [r7, #36]	@ 0x24
    HAL_GPIO_Init(GPIOA, &GPIO_InitStruct);
 8001298:	f107 0314 	add.w	r3, r7, #20
 800129c:	4619      	mov	r1, r3
 800129e:	4809      	ldr	r0, [pc, #36]	@ (80012c4 <HAL_UART_MspInit+0x9c>)
 80012a0:	f000 fac2 	bl	8001828 <HAL_GPIO_Init>

    /* USART1 interrupt Init */
    HAL_NVIC_SetPriority(USART1_IRQn, 0, 0);
 80012a4:	2200      	movs	r2, #0
 80012a6:	2100      	movs	r1, #0
 80012a8:	2025      	movs	r0, #37	@ 0x25
 80012aa:	f000 f9f4 	bl	8001696 <HAL_NVIC_SetPriority>
    HAL_NVIC_EnableIRQ(USART1_IRQn);
 80012ae:	2025      	movs	r0, #37	@ 0x25
 80012b0:	f000 fa0d 	bl	80016ce <HAL_NVIC_EnableIRQ>
  /* USER CODE BEGIN USART1_MspInit 1 */

  /* USER CODE END USART1_MspInit 1 */
  }

}
 80012b4:	bf00      	nop
 80012b6:	3728      	adds	r7, #40	@ 0x28
 80012b8:	46bd      	mov	sp, r7
 80012ba:	bd80      	pop	{r7, pc}
 80012bc:	40011000 	.word	0x40011000
 80012c0:	40023800 	.word	0x40023800
 80012c4:	40020000 	.word	0x40020000

080012c8 <NMI_Handler>:
/******************************************************************************/
/**
  * @brief This function handles Non maskable interrupt.
  */
void NMI_Handler(void)
{
 80012c8:	b480      	push	{r7}
 80012ca:	af00      	add	r7, sp, #0
  /* USER CODE BEGIN NonMaskableInt_IRQn 0 */

  /* USER CODE END NonMaskableInt_IRQn 0 */
  /* USER CODE BEGIN NonMaskableInt_IRQn 1 */
  while (1)
 80012cc:	bf00      	nop
 80012ce:	e7fd      	b.n	80012cc <NMI_Handler+0x4>

080012d0 <HardFault_Handler>:

/**
  * @brief This function handles Hard fault interrupt.
  */
void HardFault_Handler(void)
{
 80012d0:	b480      	push	{r7}
 80012d2:	af00      	add	r7, sp, #0
  /* USER CODE BEGIN HardFault_IRQn 0 */

  /* USER CODE END HardFault_IRQn 0 */
  while (1)
 80012d4:	bf00      	nop
 80012d6:	e7fd      	b.n	80012d4 <HardFault_Handler+0x4>

080012d8 <MemManage_Handler>:

/**
  * @brief This function handles Memory management fault.
  */
void MemManage_Handler(void)
{
 80012d8:	b480      	push	{r7}
 80012da:	af00      	add	r7, sp, #0
  /* USER CODE BEGIN MemoryManagement_IRQn 0 */

  /* USER CODE END MemoryManagement_IRQn 0 */
  while (1)
 80012dc:	bf00      	nop
 80012de:	e7fd      	b.n	80012dc <MemManage_Handler+0x4>

080012e0 <BusFault_Handler>:

/**
  * @brief This function handles Pre-fetch fault, memory access fault.
  */
void BusFault_Handler(void)
{
 80012e0:	b480      	push	{r7}
 80012e2:	af00      	add	r7, sp, #0
  /* USER CODE BEGIN BusFault_IRQn 0 */

  /* USER CODE END BusFault_IRQn 0 */
  while (1)
 80012e4:	bf00      	nop
 80012e6:	e7fd      	b.n	80012e4 <BusFault_Handler+0x4>

080012e8 <UsageFault_Handler>:

/**
  * @brief This function handles Undefined instruction or illegal state.
  */
void UsageFault_Handler(void)
{
 80012e8:	b480      	push	{r7}
 80012ea:	af00      	add	r7, sp, #0
  /* USER CODE BEGIN UsageFault_IRQn 0 */

  /* USER CODE END UsageFault_IRQn 0 */
  while (1)
 80012ec:	bf00      	nop
 80012ee:	e7fd      	b.n	80012ec <UsageFault_Handler+0x4>

080012f0 <SVC_Handler>:

/**
  * @brief This function handles System service call via SWI instruction.
  */
void SVC_Handler(void)
{
 80012f0:	b480      	push	{r7}
 80012f2:	af00      	add	r7, sp, #0

  /* USER CODE END SVCall_IRQn 0 */
  /* USER CODE BEGIN SVCall_IRQn 1 */

  /* USER CODE END SVCall_IRQn 1 */
}
 80012f4:	bf00      	nop
 80012f6:	46bd      	mov	sp, r7
 80012f8:	f85d 7b04 	ldr.w	r7, [sp], #4
 80012fc:	4770      	bx	lr

080012fe <DebugMon_Handler>:

/**
  * @brief This function handles Debug monitor.
  */
void DebugMon_Handler(void)
{
 80012fe:	b480      	push	{r7}
 8001300:	af00      	add	r7, sp, #0

  /* USER CODE END DebugMonitor_IRQn 0 */
  /* USER CODE BEGIN DebugMonitor_IRQn 1 */

  /* USER CODE END DebugMonitor_IRQn 1 */
}
 8001302:	bf00      	nop
 8001304:	46bd      	mov	sp, r7
 8001306:	f85d 7b04 	ldr.w	r7, [sp], #4
 800130a:	4770      	bx	lr

0800130c <PendSV_Handler>:

/**
  * @brief This function handles Pendable request for system service.
  */
void PendSV_Handler(void)
{
 800130c:	b480      	push	{r7}
 800130e:	af00      	add	r7, sp, #0

  /* USER CODE END PendSV_IRQn 0 */
  /* USER CODE BEGIN PendSV_IRQn 1 */

  /* USER CODE END PendSV_IRQn 1 */
}
 8001310:	bf00      	nop
 8001312:	46bd      	mov	sp, r7
 8001314:	f85d 7b04 	ldr.w	r7, [sp], #4
 8001318:	4770      	bx	lr

0800131a <SysTick_Handler>:

/**
  * @brief This function handles System tick timer.
  */
void SysTick_Handler(void)
{
 800131a:	b580      	push	{r7, lr}
 800131c:	af00      	add	r7, sp, #0
  /* USER CODE BEGIN SysTick_IRQn 0 */

  /* USER CODE END SysTick_IRQn 0 */
  HAL_IncTick();
 800131e:	f000 f89b 	bl	8001458 <HAL_IncTick>
  /* USER CODE BEGIN SysTick_IRQn 1 */

  /* USER CODE END SysTick_IRQn 1 */
}
 8001322:	bf00      	nop
 8001324:	bd80      	pop	{r7, pc}
	...

08001328 <USART1_IRQHandler>:

/**
  * @brief This function handles USART1 global interrupt.
  */
void USART1_IRQHandler(void)
{
 8001328:	b580      	push	{r7, lr}
 800132a:	af00      	add	r7, sp, #0
	//	// uint8_t new_c = USART1->DR;
	//	rx[my_index++] = USART1->DR;
	//}

  /* USER CODE END USART1_IRQn 0 */
  HAL_UART_IRQHandler(&huart1);
 800132c:	4802      	ldr	r0, [pc, #8]	@ (8001338 <USART1_IRQHandler+0x10>)
 800132e:	f001 f9c1 	bl	80026b4 <HAL_UART_IRQHandler>
  /* USER CODE BEGIN USART1_IRQn 1 */

  /* USER CODE END USART1_IRQn 1 */
}
 8001332:	bf00      	nop
 8001334:	bd80      	pop	{r7, pc}
 8001336:	bf00      	nop
 8001338:	2000032c 	.word	0x2000032c

0800133c <SystemInit>:
  *         configuration.
  * @param  None
  * @retval None
  */
void SystemInit(void)
{
 800133c:	b480      	push	{r7}
 800133e:	af00      	add	r7, sp, #0
  /* FPU settings ------------------------------------------------------------*/
  #if (__FPU_PRESENT == 1) && (__FPU_USED == 1)
    SCB->CPACR |= ((3UL << 10*2)|(3UL << 11*2));  /* set CP10 and CP11 Full Access */
 8001340:	4b06      	ldr	r3, [pc, #24]	@ (800135c <SystemInit+0x20>)
 8001342:	f8d3 3088 	ldr.w	r3, [r3, #136]	@ 0x88
 8001346:	4a05      	ldr	r2, [pc, #20]	@ (800135c <SystemInit+0x20>)
 8001348:	f443 0370 	orr.w	r3, r3, #15728640	@ 0xf00000
 800134c:	f8c2 3088 	str.w	r3, [r2, #136]	@ 0x88

  /* Configure the Vector Table location -------------------------------------*/
#if defined(USER_VECT_TAB_ADDRESS)
  SCB->VTOR = VECT_TAB_BASE_ADDRESS | VECT_TAB_OFFSET; /* Vector Table Relocation in Internal SRAM */
#endif /* USER_VECT_TAB_ADDRESS */
}
 8001350:	bf00      	nop
 8001352:	46bd      	mov	sp, r7
 8001354:	f85d 7b04 	ldr.w	r7, [sp], #4
 8001358:	4770      	bx	lr
 800135a:	bf00      	nop
 800135c:	e000ed00 	.word	0xe000ed00

08001360 <Reset_Handler>:

    .section  .text.Reset_Handler
  .weak  Reset_Handler
  .type  Reset_Handler, %function
Reset_Handler:  
  ldr   sp, =_estack    		 /* set stack pointer */
 8001360:	f8df d034 	ldr.w	sp, [pc, #52]	@ 8001398 <LoopFillZerobss+0x12>

/* Copy the data segment initializers from flash to SRAM */  
  ldr r0, =_sdata
 8001364:	480d      	ldr	r0, [pc, #52]	@ (800139c <LoopFillZerobss+0x16>)
  ldr r1, =_edata
 8001366:	490e      	ldr	r1, [pc, #56]	@ (80013a0 <LoopFillZerobss+0x1a>)
  ldr r2, =_sidata
 8001368:	4a0e      	ldr	r2, [pc, #56]	@ (80013a4 <LoopFillZerobss+0x1e>)
  movs r3, #0
 800136a:	2300      	movs	r3, #0
  b LoopCopyDataInit
 800136c:	e002      	b.n	8001374 <LoopCopyDataInit>

0800136e <CopyDataInit>:

CopyDataInit:
  ldr r4, [r2, r3]
 800136e:	58d4      	ldr	r4, [r2, r3]
  str r4, [r0, r3]
 8001370:	50c4      	str	r4, [r0, r3]
  adds r3, r3, #4
 8001372:	3304      	adds	r3, #4

08001374 <LoopCopyDataInit>:

LoopCopyDataInit:
  adds r4, r0, r3
 8001374:	18c4      	adds	r4, r0, r3
  cmp r4, r1
 8001376:	428c      	cmp	r4, r1
  bcc CopyDataInit
 8001378:	d3f9      	bcc.n	800136e <CopyDataInit>
  
/* Zero fill the bss segment. */
  ldr r2, =_sbss
 800137a:	4a0b      	ldr	r2, [pc, #44]	@ (80013a8 <LoopFillZerobss+0x22>)
  ldr r4, =_ebss
 800137c:	4c0b      	ldr	r4, [pc, #44]	@ (80013ac <LoopFillZerobss+0x26>)
  movs r3, #0
 800137e:	2300      	movs	r3, #0
  b LoopFillZerobss
 8001380:	e001      	b.n	8001386 <LoopFillZerobss>

08001382 <FillZerobss>:

FillZerobss:
  str  r3, [r2]
 8001382:	6013      	str	r3, [r2, #0]
  adds r2, r2, #4
 8001384:	3204      	adds	r2, #4

08001386 <LoopFillZerobss>:

LoopFillZerobss:
  cmp r2, r4
 8001386:	42a2      	cmp	r2, r4
  bcc FillZerobss
 8001388:	d3fb      	bcc.n	8001382 <FillZerobss>

/* Call the clock system initialization function.*/
  bl  SystemInit   
 800138a:	f7ff ffd7 	bl	800133c <SystemInit>
/* Call static constructors */
    bl __libc_init_array
 800138e:	f002 f911 	bl	80035b4 <__libc_init_array>
/* Call the application's entry point.*/
  bl  main
 8001392:	f7ff fd45 	bl	8000e20 <main>
  bx  lr    
 8001396:	4770      	bx	lr
  ldr   sp, =_estack    		 /* set stack pointer */
 8001398:	20020000 	.word	0x20020000
  ldr r0, =_sdata
 800139c:	20000000 	.word	0x20000000
  ldr r1, =_edata
 80013a0:	2000008c 	.word	0x2000008c
  ldr r2, =_sidata
 80013a4:	08003764 	.word	0x08003764
  ldr r2, =_sbss
 80013a8:	20000090 	.word	0x20000090
  ldr r4, =_ebss
 80013ac:	20000374 	.word	0x20000374

080013b0 <ADC_IRQHandler>:
 * @retval None       
*/
    .section  .text.Default_Handler,"ax",%progbits
Default_Handler:
Infinite_Loop:
  b  Infinite_Loop
 80013b0:	e7fe      	b.n	80013b0 <ADC_IRQHandler>
	...

080013b4 <HAL_Init>:
  *         need to ensure that the SysTick time base is always set to 1 millisecond
  *         to have correct HAL operation.
  * @retval HAL status
  */
HAL_StatusTypeDef HAL_Init(void)
{
 80013b4:	b580      	push	{r7, lr}
 80013b6:	af00      	add	r7, sp, #0
  /* Configure Flash prefetch, Instruction cache, Data cache */ 
#if (INSTRUCTION_CACHE_ENABLE != 0U)
  __HAL_FLASH_INSTRUCTION_CACHE_ENABLE();
 80013b8:	4b0e      	ldr	r3, [pc, #56]	@ (80013f4 <HAL_Init+0x40>)
 80013ba:	681b      	ldr	r3, [r3, #0]
 80013bc:	4a0d      	ldr	r2, [pc, #52]	@ (80013f4 <HAL_Init+0x40>)
 80013be:	f443 7300 	orr.w	r3, r3, #512	@ 0x200
 80013c2:	6013      	str	r3, [r2, #0]
#endif /* INSTRUCTION_CACHE_ENABLE */

#if (DATA_CACHE_ENABLE != 0U)
  __HAL_FLASH_DATA_CACHE_ENABLE();
 80013c4:	4b0b      	ldr	r3, [pc, #44]	@ (80013f4 <HAL_Init+0x40>)
 80013c6:	681b      	ldr	r3, [r3, #0]
 80013c8:	4a0a      	ldr	r2, [pc, #40]	@ (80013f4 <HAL_Init+0x40>)
 80013ca:	f443 6380 	orr.w	r3, r3, #1024	@ 0x400
 80013ce:	6013      	str	r3, [r2, #0]
#endif /* DATA_CACHE_ENABLE */

#if (PREFETCH_ENABLE != 0U)
  __HAL_FLASH_PREFETCH_BUFFER_ENABLE();
 80013d0:	4b08      	ldr	r3, [pc, #32]	@ (80013f4 <HAL_Init+0x40>)
 80013d2:	681b      	ldr	r3, [r3, #0]
 80013d4:	4a07      	ldr	r2, [pc, #28]	@ (80013f4 <HAL_Init+0x40>)
 80013d6:	f443 7380 	orr.w	r3, r3, #256	@ 0x100
 80013da:	6013      	str	r3, [r2, #0]
#endif /* PREFETCH_ENABLE */

  /* Set Interrupt Group Priority */
  HAL_NVIC_SetPriorityGrouping(NVIC_PRIORITYGROUP_4);
 80013dc:	2003      	movs	r0, #3
 80013de:	f000 f94f 	bl	8001680 <HAL_NVIC_SetPriorityGrouping>

  /* Use systick as time base source and configure 1ms tick (default clock after Reset is HSI) */
  HAL_InitTick(TICK_INT_PRIORITY);
 80013e2:	2000      	movs	r0, #0
 80013e4:	f000 f808 	bl	80013f8 <HAL_InitTick>

  /* Init the low level hardware */
  HAL_MspInit();
 80013e8:	f7ff fef6 	bl	80011d8 <HAL_MspInit>

  /* Return function status */
  return HAL_OK;
 80013ec:	2300      	movs	r3, #0
}
 80013ee:	4618      	mov	r0, r3
 80013f0:	bd80      	pop	{r7, pc}
 80013f2:	bf00      	nop
 80013f4:	40023c00 	.word	0x40023c00

080013f8 <HAL_InitTick>:
  *       implementation  in user file.
  * @param TickPriority Tick interrupt priority.
  * @retval HAL status
  */
__weak HAL_StatusTypeDef HAL_InitTick(uint32_t TickPriority)
{
 80013f8:	b580      	push	{r7, lr}
 80013fa:	b082      	sub	sp, #8
 80013fc:	af00      	add	r7, sp, #0
 80013fe:	6078      	str	r0, [r7, #4]
  /* Configure the SysTick to have interrupt in 1ms time basis*/
  if (HAL_SYSTICK_Config(SystemCoreClock / (1000U / uwTickFreq)) > 0U)
 8001400:	4b12      	ldr	r3, [pc, #72]	@ (800144c <HAL_InitTick+0x54>)
 8001402:	681a      	ldr	r2, [r3, #0]
 8001404:	4b12      	ldr	r3, [pc, #72]	@ (8001450 <HAL_InitTick+0x58>)
 8001406:	781b      	ldrb	r3, [r3, #0]
 8001408:	4619      	mov	r1, r3
 800140a:	f44f 737a 	mov.w	r3, #1000	@ 0x3e8
 800140e:	fbb3 f3f1 	udiv	r3, r3, r1
 8001412:	fbb2 f3f3 	udiv	r3, r2, r3
 8001416:	4618      	mov	r0, r3
 8001418:	f000 f967 	bl	80016ea <HAL_SYSTICK_Config>
 800141c:	4603      	mov	r3, r0
 800141e:	2b00      	cmp	r3, #0
 8001420:	d001      	beq.n	8001426 <HAL_InitTick+0x2e>
  {
    return HAL_ERROR;
 8001422:	2301      	movs	r3, #1
 8001424:	e00e      	b.n	8001444 <HAL_InitTick+0x4c>
  }

  /* Configure the SysTick IRQ priority */
  if (TickPriority < (1UL << __NVIC_PRIO_BITS))
 8001426:	687b      	ldr	r3, [r7, #4]
 8001428:	2b0f      	cmp	r3, #15
 800142a:	d80a      	bhi.n	8001442 <HAL_InitTick+0x4a>
  {
    HAL_NVIC_SetPriority(SysTick_IRQn, TickPriority, 0U);
 800142c:	2200      	movs	r2, #0
 800142e:	6879      	ldr	r1, [r7, #4]
 8001430:	f04f 30ff 	mov.w	r0, #4294967295
 8001434:	f000 f92f 	bl	8001696 <HAL_NVIC_SetPriority>
    uwTickPrio = TickPriority;
 8001438:	4a06      	ldr	r2, [pc, #24]	@ (8001454 <HAL_InitTick+0x5c>)
 800143a:	687b      	ldr	r3, [r7, #4]
 800143c:	6013      	str	r3, [r2, #0]
  {
    return HAL_ERROR;
  }

  /* Return function status */
  return HAL_OK;
 800143e:	2300      	movs	r3, #0
 8001440:	e000      	b.n	8001444 <HAL_InitTick+0x4c>
    return HAL_ERROR;
 8001442:	2301      	movs	r3, #1
}
 8001444:	4618      	mov	r0, r3
 8001446:	3708      	adds	r7, #8
 8001448:	46bd      	mov	sp, r7
 800144a:	bd80      	pop	{r7, pc}
 800144c:	20000080 	.word	0x20000080
 8001450:	20000088 	.word	0x20000088
 8001454:	20000084 	.word	0x20000084

08001458 <HAL_IncTick>:
 * @note This function is declared as __weak to be overwritten in case of other 
  *      implementations in user file.
  * @retval None
  */
__weak void HAL_IncTick(void)
{
 8001458:	b480      	push	{r7}
 800145a:	af00      	add	r7, sp, #0
  uwTick += uwTickFreq;
 800145c:	4b06      	ldr	r3, [pc, #24]	@ (8001478 <HAL_IncTick+0x20>)
 800145e:	781b      	ldrb	r3, [r3, #0]
 8001460:	461a      	mov	r2, r3
 8001462:	4b06      	ldr	r3, [pc, #24]	@ (800147c <HAL_IncTick+0x24>)
 8001464:	681b      	ldr	r3, [r3, #0]
 8001466:	4413      	add	r3, r2
 8001468:	4a04      	ldr	r2, [pc, #16]	@ (800147c <HAL_IncTick+0x24>)
 800146a:	6013      	str	r3, [r2, #0]
}
 800146c:	bf00      	nop
 800146e:	46bd      	mov	sp, r7
 8001470:	f85d 7b04 	ldr.w	r7, [sp], #4
 8001474:	4770      	bx	lr
 8001476:	bf00      	nop
 8001478:	20000088 	.word	0x20000088
 800147c:	20000370 	.word	0x20000370

08001480 <HAL_GetTick>:
  * @note This function is declared as __weak to be overwritten in case of other 
  *       implementations in user file.
  * @retval tick value
  */
__weak uint32_t HAL_GetTick(void)
{
 8001480:	b480      	push	{r7}
 8001482:	af00      	add	r7, sp, #0
  return uwTick;
 8001484:	4b03      	ldr	r3, [pc, #12]	@ (8001494 <HAL_GetTick+0x14>)
 8001486:	681b      	ldr	r3, [r3, #0]
}
 8001488:	4618      	mov	r0, r3
 800148a:	46bd      	mov	sp, r7
 800148c:	f85d 7b04 	ldr.w	r7, [sp], #4
 8001490:	4770      	bx	lr
 8001492:	bf00      	nop
 8001494:	20000370 	.word	0x20000370

08001498 <HAL_Delay>:
  *       implementations in user file.
  * @param Delay specifies the delay time length, in milliseconds.
  * @retval None
  */
__weak void HAL_Delay(uint32_t Delay)
{
 8001498:	b580      	push	{r7, lr}
 800149a:	b084      	sub	sp, #16
 800149c:	af00      	add	r7, sp, #0
 800149e:	6078      	str	r0, [r7, #4]
  uint32_t tickstart = HAL_GetTick();
 80014a0:	f7ff ffee 	bl	8001480 <HAL_GetTick>
 80014a4:	60b8      	str	r0, [r7, #8]
  uint32_t wait = Delay;
 80014a6:	687b      	ldr	r3, [r7, #4]
 80014a8:	60fb      	str	r3, [r7, #12]

  /* Add a freq to guarantee minimum wait */
  if (wait < HAL_MAX_DELAY)
 80014aa:	68fb      	ldr	r3, [r7, #12]
 80014ac:	f1b3 3fff 	cmp.w	r3, #4294967295
 80014b0:	d005      	beq.n	80014be <HAL_Delay+0x26>
  {
    wait += (uint32_t)(uwTickFreq);
 80014b2:	4b0a      	ldr	r3, [pc, #40]	@ (80014dc <HAL_Delay+0x44>)
 80014b4:	781b      	ldrb	r3, [r3, #0]
 80014b6:	461a      	mov	r2, r3
 80014b8:	68fb      	ldr	r3, [r7, #12]
 80014ba:	4413      	add	r3, r2
 80014bc:	60fb      	str	r3, [r7, #12]
  }

  while((HAL_GetTick() - tickstart) < wait)
 80014be:	bf00      	nop
 80014c0:	f7ff ffde 	bl	8001480 <HAL_GetTick>
 80014c4:	4602      	mov	r2, r0
 80014c6:	68bb      	ldr	r3, [r7, #8]
 80014c8:	1ad3      	subs	r3, r2, r3
 80014ca:	68fa      	ldr	r2, [r7, #12]
 80014cc:	429a      	cmp	r2, r3
 80014ce:	d8f7      	bhi.n	80014c0 <HAL_Delay+0x28>
  {
  }
}
 80014d0:	bf00      	nop
 80014d2:	bf00      	nop
 80014d4:	3710      	adds	r7, #16
 80014d6:	46bd      	mov	sp, r7
 80014d8:	bd80      	pop	{r7, pc}
 80014da:	bf00      	nop
 80014dc:	20000088 	.word	0x20000088

080014e0 <__NVIC_SetPriorityGrouping>:
           In case of a conflict between priority grouping and available
           priority bits (__NVIC_PRIO_BITS), the smallest possible priority group is set.
  \param [in]      PriorityGroup  Priority grouping field.
 */
__STATIC_INLINE void __NVIC_SetPriorityGrouping(uint32_t PriorityGroup)
{
 80014e0:	b480      	push	{r7}
 80014e2:	b085      	sub	sp, #20
 80014e4:	af00      	add	r7, sp, #0
 80014e6:	6078      	str	r0, [r7, #4]
  uint32_t reg_value;
  uint32_t PriorityGroupTmp = (PriorityGroup & (uint32_t)0x07UL);             /* only values 0..7 are used          */
 80014e8:	687b      	ldr	r3, [r7, #4]
 80014ea:	f003 0307 	and.w	r3, r3, #7
 80014ee:	60fb      	str	r3, [r7, #12]

  reg_value  =  SCB->AIRCR;                                                   /* read old register configuration    */
 80014f0:	4b0c      	ldr	r3, [pc, #48]	@ (8001524 <__NVIC_SetPriorityGrouping+0x44>)
 80014f2:	68db      	ldr	r3, [r3, #12]
 80014f4:	60bb      	str	r3, [r7, #8]
  reg_value &= ~((uint32_t)(SCB_AIRCR_VECTKEY_Msk | SCB_AIRCR_PRIGROUP_Msk)); /* clear bits to change               */
 80014f6:	68ba      	ldr	r2, [r7, #8]
 80014f8:	f64f 03ff 	movw	r3, #63743	@ 0xf8ff
 80014fc:	4013      	ands	r3, r2
 80014fe:	60bb      	str	r3, [r7, #8]
  reg_value  =  (reg_value                                   |
                ((uint32_t)0x5FAUL << SCB_AIRCR_VECTKEY_Pos) |
                (PriorityGroupTmp << SCB_AIRCR_PRIGROUP_Pos)  );              /* Insert write key and priority group */
 8001500:	68fb      	ldr	r3, [r7, #12]
 8001502:	021a      	lsls	r2, r3, #8
                ((uint32_t)0x5FAUL << SCB_AIRCR_VECTKEY_Pos) |
 8001504:	68bb      	ldr	r3, [r7, #8]
 8001506:	4313      	orrs	r3, r2
  reg_value  =  (reg_value                                   |
 8001508:	f043 63bf 	orr.w	r3, r3, #100139008	@ 0x5f80000
 800150c:	f443 3300 	orr.w	r3, r3, #131072	@ 0x20000
 8001510:	60bb      	str	r3, [r7, #8]
  SCB->AIRCR =  reg_value;
 8001512:	4a04      	ldr	r2, [pc, #16]	@ (8001524 <__NVIC_SetPriorityGrouping+0x44>)
 8001514:	68bb      	ldr	r3, [r7, #8]
 8001516:	60d3      	str	r3, [r2, #12]
}
 8001518:	bf00      	nop
 800151a:	3714      	adds	r7, #20
 800151c:	46bd      	mov	sp, r7
 800151e:	f85d 7b04 	ldr.w	r7, [sp], #4
 8001522:	4770      	bx	lr
 8001524:	e000ed00 	.word	0xe000ed00

08001528 <__NVIC_GetPriorityGrouping>:
  \brief   Get Priority Grouping
  \details Reads the priority grouping field from the NVIC Interrupt Controller.
  \return                Priority grouping field (SCB->AIRCR [10:8] PRIGROUP field).
 */
__STATIC_INLINE uint32_t __NVIC_GetPriorityGrouping(void)
{
 8001528:	b480      	push	{r7}
 800152a:	af00      	add	r7, sp, #0
  return ((uint32_t)((SCB->AIRCR & SCB_AIRCR_PRIGROUP_Msk) >> SCB_AIRCR_PRIGROUP_Pos));
 800152c:	4b04      	ldr	r3, [pc, #16]	@ (8001540 <__NVIC_GetPriorityGrouping+0x18>)
 800152e:	68db      	ldr	r3, [r3, #12]
 8001530:	0a1b      	lsrs	r3, r3, #8
 8001532:	f003 0307 	and.w	r3, r3, #7
}
 8001536:	4618      	mov	r0, r3
 8001538:	46bd      	mov	sp, r7
 800153a:	f85d 7b04 	ldr.w	r7, [sp], #4
 800153e:	4770      	bx	lr
 8001540:	e000ed00 	.word	0xe000ed00

08001544 <__NVIC_EnableIRQ>:
  \details Enables a device specific interrupt in the NVIC interrupt controller.
  \param [in]      IRQn  Device specific interrupt number.
  \note    IRQn must not be negative.
 */
__STATIC_INLINE void __NVIC_EnableIRQ(IRQn_Type IRQn)
{
 8001544:	b480      	push	{r7}
 8001546:	b083      	sub	sp, #12
 8001548:	af00      	add	r7, sp, #0
 800154a:	4603      	mov	r3, r0
 800154c:	71fb      	strb	r3, [r7, #7]
  if ((int32_t)(IRQn) >= 0)
 800154e:	f997 3007 	ldrsb.w	r3, [r7, #7]
 8001552:	2b00      	cmp	r3, #0
 8001554:	db0b      	blt.n	800156e <__NVIC_EnableIRQ+0x2a>
  {
    NVIC->ISER[(((uint32_t)IRQn) >> 5UL)] = (uint32_t)(1UL << (((uint32_t)IRQn) & 0x1FUL));
 8001556:	79fb      	ldrb	r3, [r7, #7]
 8001558:	f003 021f 	and.w	r2, r3, #31
 800155c:	4907      	ldr	r1, [pc, #28]	@ (800157c <__NVIC_EnableIRQ+0x38>)
 800155e:	f997 3007 	ldrsb.w	r3, [r7, #7]
 8001562:	095b      	lsrs	r3, r3, #5
 8001564:	2001      	movs	r0, #1
 8001566:	fa00 f202 	lsl.w	r2, r0, r2
 800156a:	f841 2023 	str.w	r2, [r1, r3, lsl #2]
  }
}
 800156e:	bf00      	nop
 8001570:	370c      	adds	r7, #12
 8001572:	46bd      	mov	sp, r7
 8001574:	f85d 7b04 	ldr.w	r7, [sp], #4
 8001578:	4770      	bx	lr
 800157a:	bf00      	nop
 800157c:	e000e100 	.word	0xe000e100

08001580 <__NVIC_SetPriority>:
  \param [in]      IRQn  Interrupt number.
  \param [in]  priority  Priority to set.
  \note    The priority cannot be set for every processor exception.
 */
__STATIC_INLINE void __NVIC_SetPriority(IRQn_Type IRQn, uint32_t priority)
{
 8001580:	b480      	push	{r7}
 8001582:	b083      	sub	sp, #12
 8001584:	af00      	add	r7, sp, #0
 8001586:	4603      	mov	r3, r0
 8001588:	6039      	str	r1, [r7, #0]
 800158a:	71fb      	strb	r3, [r7, #7]
  if ((int32_t)(IRQn) >= 0)
 800158c:	f997 3007 	ldrsb.w	r3, [r7, #7]
 8001590:	2b00      	cmp	r3, #0
 8001592:	db0a      	blt.n	80015aa <__NVIC_SetPriority+0x2a>
  {
    NVIC->IP[((uint32_t)IRQn)]               = (uint8_t)((priority << (8U - __NVIC_PRIO_BITS)) & (uint32_t)0xFFUL);
 8001594:	683b      	ldr	r3, [r7, #0]
 8001596:	b2da      	uxtb	r2, r3
 8001598:	490c      	ldr	r1, [pc, #48]	@ (80015cc <__NVIC_SetPriority+0x4c>)
 800159a:	f997 3007 	ldrsb.w	r3, [r7, #7]
 800159e:	0112      	lsls	r2, r2, #4
 80015a0:	b2d2      	uxtb	r2, r2
 80015a2:	440b      	add	r3, r1
 80015a4:	f883 2300 	strb.w	r2, [r3, #768]	@ 0x300
  }
  else
  {
    SCB->SHP[(((uint32_t)IRQn) & 0xFUL)-4UL] = (uint8_t)((priority << (8U - __NVIC_PRIO_BITS)) & (uint32_t)0xFFUL);
  }
}
 80015a8:	e00a      	b.n	80015c0 <__NVIC_SetPriority+0x40>
    SCB->SHP[(((uint32_t)IRQn) & 0xFUL)-4UL] = (uint8_t)((priority << (8U - __NVIC_PRIO_BITS)) & (uint32_t)0xFFUL);
 80015aa:	683b      	ldr	r3, [r7, #0]
 80015ac:	b2da      	uxtb	r2, r3
 80015ae:	4908      	ldr	r1, [pc, #32]	@ (80015d0 <__NVIC_SetPriority+0x50>)
 80015b0:	79fb      	ldrb	r3, [r7, #7]
 80015b2:	f003 030f 	and.w	r3, r3, #15
 80015b6:	3b04      	subs	r3, #4
 80015b8:	0112      	lsls	r2, r2, #4
 80015ba:	b2d2      	uxtb	r2, r2
 80015bc:	440b      	add	r3, r1
 80015be:	761a      	strb	r2, [r3, #24]
}
 80015c0:	bf00      	nop
 80015c2:	370c      	adds	r7, #12
 80015c4:	46bd      	mov	sp, r7
 80015c6:	f85d 7b04 	ldr.w	r7, [sp], #4
 80015ca:	4770      	bx	lr
 80015cc:	e000e100 	.word	0xe000e100
 80015d0:	e000ed00 	.word	0xe000ed00

080015d4 <NVIC_EncodePriority>:
  \param [in]   PreemptPriority  Preemptive priority value (starting from 0).
  \param [in]       SubPriority  Subpriority value (starting from 0).
  \return                        Encoded priority. Value can be used in the function \ref NVIC_SetPriority().
 */
__STATIC_INLINE uint32_t NVIC_EncodePriority (uint32_t PriorityGroup, uint32_t PreemptPriority, uint32_t SubPriority)
{
 80015d4:	b480      	push	{r7}
 80015d6:	b089      	sub	sp, #36	@ 0x24
 80015d8:	af00      	add	r7, sp, #0
 80015da:	60f8      	str	r0, [r7, #12]
 80015dc:	60b9      	str	r1, [r7, #8]
 80015de:	607a      	str	r2, [r7, #4]
  uint32_t PriorityGroupTmp = (PriorityGroup & (uint32_t)0x07UL);   /* only values 0..7 are used          */
 80015e0:	68fb      	ldr	r3, [r7, #12]
 80015e2:	f003 0307 	and.w	r3, r3, #7
 80015e6:	61fb      	str	r3, [r7, #28]
  uint32_t PreemptPriorityBits;
  uint32_t SubPriorityBits;

  PreemptPriorityBits = ((7UL - PriorityGroupTmp) > (uint32_t)(__NVIC_PRIO_BITS)) ? (uint32_t)(__NVIC_PRIO_BITS) : (uint32_t)(7UL - PriorityGroupTmp);
 80015e8:	69fb      	ldr	r3, [r7, #28]
 80015ea:	f1c3 0307 	rsb	r3, r3, #7
 80015ee:	2b04      	cmp	r3, #4
 80015f0:	bf28      	it	cs
 80015f2:	2304      	movcs	r3, #4
 80015f4:	61bb      	str	r3, [r7, #24]
  SubPriorityBits     = ((PriorityGroupTmp + (uint32_t)(__NVIC_PRIO_BITS)) < (uint32_t)7UL) ? (uint32_t)0UL : (uint32_t)((PriorityGroupTmp - 7UL) + (uint32_t)(__NVIC_PRIO_BITS));
 80015f6:	69fb      	ldr	r3, [r7, #28]
 80015f8:	3304      	adds	r3, #4
 80015fa:	2b06      	cmp	r3, #6
 80015fc:	d902      	bls.n	8001604 <NVIC_EncodePriority+0x30>
 80015fe:	69fb      	ldr	r3, [r7, #28]
 8001600:	3b03      	subs	r3, #3
 8001602:	e000      	b.n	8001606 <NVIC_EncodePriority+0x32>
 8001604:	2300      	movs	r3, #0
 8001606:	617b      	str	r3, [r7, #20]

  return (
           ((PreemptPriority & (uint32_t)((1UL << (PreemptPriorityBits)) - 1UL)) << SubPriorityBits) |
 8001608:	f04f 32ff 	mov.w	r2, #4294967295
 800160c:	69bb      	ldr	r3, [r7, #24]
 800160e:	fa02 f303 	lsl.w	r3, r2, r3
 8001612:	43da      	mvns	r2, r3
 8001614:	68bb      	ldr	r3, [r7, #8]
 8001616:	401a      	ands	r2, r3
 8001618:	697b      	ldr	r3, [r7, #20]
 800161a:	409a      	lsls	r2, r3
           ((SubPriority     & (uint32_t)((1UL << (SubPriorityBits    )) - 1UL)))
 800161c:	f04f 31ff 	mov.w	r1, #4294967295
 8001620:	697b      	ldr	r3, [r7, #20]
 8001622:	fa01 f303 	lsl.w	r3, r1, r3
 8001626:	43d9      	mvns	r1, r3
 8001628:	687b      	ldr	r3, [r7, #4]
 800162a:	400b      	ands	r3, r1
           ((PreemptPriority & (uint32_t)((1UL << (PreemptPriorityBits)) - 1UL)) << SubPriorityBits) |
 800162c:	4313      	orrs	r3, r2
         );
}
 800162e:	4618      	mov	r0, r3
 8001630:	3724      	adds	r7, #36	@ 0x24
 8001632:	46bd      	mov	sp, r7
 8001634:	f85d 7b04 	ldr.w	r7, [sp], #4
 8001638:	4770      	bx	lr
	...

0800163c <SysTick_Config>:
  \note    When the variable <b>__Vendor_SysTickConfig</b> is set to 1, then the
           function <b>SysTick_Config</b> is not included. In this case, the file <b><i>device</i>.h</b>
           must contain a vendor-specific implementation of this function.
 */
__STATIC_INLINE uint32_t SysTick_Config(uint32_t ticks)
{
 800163c:	b580      	push	{r7, lr}
 800163e:	b082      	sub	sp, #8
 8001640:	af00      	add	r7, sp, #0
 8001642:	6078      	str	r0, [r7, #4]
  if ((ticks - 1UL) > SysTick_LOAD_RELOAD_Msk)
 8001644:	687b      	ldr	r3, [r7, #4]
 8001646:	3b01      	subs	r3, #1
 8001648:	f1b3 7f80 	cmp.w	r3, #16777216	@ 0x1000000
 800164c:	d301      	bcc.n	8001652 <SysTick_Config+0x16>
  {
    return (1UL);                                                   /* Reload value impossible */
 800164e:	2301      	movs	r3, #1
 8001650:	e00f      	b.n	8001672 <SysTick_Config+0x36>
  }

  SysTick->LOAD  = (uint32_t)(ticks - 1UL);                         /* set reload register */
 8001652:	4a0a      	ldr	r2, [pc, #40]	@ (800167c <SysTick_Config+0x40>)
 8001654:	687b      	ldr	r3, [r7, #4]
 8001656:	3b01      	subs	r3, #1
 8001658:	6053      	str	r3, [r2, #4]
  NVIC_SetPriority (SysTick_IRQn, (1UL << __NVIC_PRIO_BITS) - 1UL); /* set Priority for Systick Interrupt */
 800165a:	210f      	movs	r1, #15
 800165c:	f04f 30ff 	mov.w	r0, #4294967295
 8001660:	f7ff ff8e 	bl	8001580 <__NVIC_SetPriority>
  SysTick->VAL   = 0UL;                                             /* Load the SysTick Counter Value */
 8001664:	4b05      	ldr	r3, [pc, #20]	@ (800167c <SysTick_Config+0x40>)
 8001666:	2200      	movs	r2, #0
 8001668:	609a      	str	r2, [r3, #8]
  SysTick->CTRL  = SysTick_CTRL_CLKSOURCE_Msk |
 800166a:	4b04      	ldr	r3, [pc, #16]	@ (800167c <SysTick_Config+0x40>)
 800166c:	2207      	movs	r2, #7
 800166e:	601a      	str	r2, [r3, #0]
                   SysTick_CTRL_TICKINT_Msk   |
                   SysTick_CTRL_ENABLE_Msk;                         /* Enable SysTick IRQ and SysTick Timer */
  return (0UL);                                                     /* Function successful */
 8001670:	2300      	movs	r3, #0
}
 8001672:	4618      	mov	r0, r3
 8001674:	3708      	adds	r7, #8
 8001676:	46bd      	mov	sp, r7
 8001678:	bd80      	pop	{r7, pc}
 800167a:	bf00      	nop
 800167c:	e000e010 	.word	0xe000e010

08001680 <HAL_NVIC_SetPriorityGrouping>:
  * @note   When the NVIC_PriorityGroup_0 is selected, IRQ preemption is no more possible. 
  *         The pending IRQ priority will be managed only by the subpriority. 
  * @retval None
  */
void HAL_NVIC_SetPriorityGrouping(uint32_t PriorityGroup)
{
 8001680:	b580      	push	{r7, lr}
 8001682:	b082      	sub	sp, #8
 8001684:	af00      	add	r7, sp, #0
 8001686:	6078      	str	r0, [r7, #4]
  /* Check the parameters */
  assert_param(IS_NVIC_PRIORITY_GROUP(PriorityGroup));
  
  /* Set the PRIGROUP[10:8] bits according to the PriorityGroup parameter value */
  NVIC_SetPriorityGrouping(PriorityGroup);
 8001688:	6878      	ldr	r0, [r7, #4]
 800168a:	f7ff ff29 	bl	80014e0 <__NVIC_SetPriorityGrouping>
}
 800168e:	bf00      	nop
 8001690:	3708      	adds	r7, #8
 8001692:	46bd      	mov	sp, r7
 8001694:	bd80      	pop	{r7, pc}

08001696 <HAL_NVIC_SetPriority>:
  *         This parameter can be a value between 0 and 15
  *         A lower priority value indicates a higher priority.          
  * @retval None
  */
void HAL_NVIC_SetPriority(IRQn_Type IRQn, uint32_t PreemptPriority, uint32_t SubPriority)
{ 
 8001696:	b580      	push	{r7, lr}
 8001698:	b086      	sub	sp, #24
 800169a:	af00      	add	r7, sp, #0
 800169c:	4603      	mov	r3, r0
 800169e:	60b9      	str	r1, [r7, #8]
 80016a0:	607a      	str	r2, [r7, #4]
 80016a2:	73fb      	strb	r3, [r7, #15]
  uint32_t prioritygroup = 0x00U;
 80016a4:	2300      	movs	r3, #0
 80016a6:	617b      	str	r3, [r7, #20]
  
  /* Check the parameters */
  assert_param(IS_NVIC_SUB_PRIORITY(SubPriority));
  assert_param(IS_NVIC_PREEMPTION_PRIORITY(PreemptPriority));
  
  prioritygroup = NVIC_GetPriorityGrouping();
 80016a8:	f7ff ff3e 	bl	8001528 <__NVIC_GetPriorityGrouping>
 80016ac:	6178      	str	r0, [r7, #20]
  
  NVIC_SetPriority(IRQn, NVIC_EncodePriority(prioritygroup, PreemptPriority, SubPriority));
 80016ae:	687a      	ldr	r2, [r7, #4]
 80016b0:	68b9      	ldr	r1, [r7, #8]
 80016b2:	6978      	ldr	r0, [r7, #20]
 80016b4:	f7ff ff8e 	bl	80015d4 <NVIC_EncodePriority>
 80016b8:	4602      	mov	r2, r0
 80016ba:	f997 300f 	ldrsb.w	r3, [r7, #15]
 80016be:	4611      	mov	r1, r2
 80016c0:	4618      	mov	r0, r3
 80016c2:	f7ff ff5d 	bl	8001580 <__NVIC_SetPriority>
}
 80016c6:	bf00      	nop
 80016c8:	3718      	adds	r7, #24
 80016ca:	46bd      	mov	sp, r7
 80016cc:	bd80      	pop	{r7, pc}

080016ce <HAL_NVIC_EnableIRQ>:
  *         This parameter can be an enumerator of IRQn_Type enumeration
  *         (For the complete STM32 Devices IRQ Channels list, please refer to the appropriate CMSIS device file (stm32f4xxxx.h))
  * @retval None
  */
void HAL_NVIC_EnableIRQ(IRQn_Type IRQn)
{
 80016ce:	b580      	push	{r7, lr}
 80016d0:	b082      	sub	sp, #8
 80016d2:	af00      	add	r7, sp, #0
 80016d4:	4603      	mov	r3, r0
 80016d6:	71fb      	strb	r3, [r7, #7]
  /* Check the parameters */
  assert_param(IS_NVIC_DEVICE_IRQ(IRQn));
  
  /* Enable interrupt */
  NVIC_EnableIRQ(IRQn);
 80016d8:	f997 3007 	ldrsb.w	r3, [r7, #7]
 80016dc:	4618      	mov	r0, r3
 80016de:	f7ff ff31 	bl	8001544 <__NVIC_EnableIRQ>
}
 80016e2:	bf00      	nop
 80016e4:	3708      	adds	r7, #8
 80016e6:	46bd      	mov	sp, r7
 80016e8:	bd80      	pop	{r7, pc}

080016ea <HAL_SYSTICK_Config>:
  * @param  TicksNumb Specifies the ticks Number of ticks between two interrupts.
  * @retval status:  - 0  Function succeeded.
  *                  - 1  Function failed.
  */
uint32_t HAL_SYSTICK_Config(uint32_t TicksNumb)
{
 80016ea:	b580      	push	{r7, lr}
 80016ec:	b082      	sub	sp, #8
 80016ee:	af00      	add	r7, sp, #0
 80016f0:	6078      	str	r0, [r7, #4]
   return SysTick_Config(TicksNumb);
 80016f2:	6878      	ldr	r0, [r7, #4]
 80016f4:	f7ff ffa2 	bl	800163c <SysTick_Config>
 80016f8:	4603      	mov	r3, r0
}
 80016fa:	4618      	mov	r0, r3
 80016fc:	3708      	adds	r7, #8
 80016fe:	46bd      	mov	sp, r7
 8001700:	bd80      	pop	{r7, pc}

08001702 <HAL_DMA_Abort>:
  *        and the Stream will be effectively disabled only after the transfer of
  *        this single data is finished.  
  * @retval HAL status
  */
HAL_StatusTypeDef HAL_DMA_Abort(DMA_HandleTypeDef *hdma)
{
 8001702:	b580      	push	{r7, lr}
 8001704:	b084      	sub	sp, #16
 8001706:	af00      	add	r7, sp, #0
 8001708:	6078      	str	r0, [r7, #4]
  /* calculate DMA base and stream number */
  DMA_Base_Registers *regs = (DMA_Base_Registers *)hdma->StreamBaseAddress;
 800170a:	687b      	ldr	r3, [r7, #4]
 800170c:	6d9b      	ldr	r3, [r3, #88]	@ 0x58
 800170e:	60fb      	str	r3, [r7, #12]
  
  uint32_t tickstart = HAL_GetTick();
 8001710:	f7ff feb6 	bl	8001480 <HAL_GetTick>
 8001714:	60b8      	str	r0, [r7, #8]
  
  if(hdma->State != HAL_DMA_STATE_BUSY)
 8001716:	687b      	ldr	r3, [r7, #4]
 8001718:	f893 3035 	ldrb.w	r3, [r3, #53]	@ 0x35
 800171c:	b2db      	uxtb	r3, r3
 800171e:	2b02      	cmp	r3, #2
 8001720:	d008      	beq.n	8001734 <HAL_DMA_Abort+0x32>
  {
    hdma->ErrorCode = HAL_DMA_ERROR_NO_XFER;
 8001722:	687b      	ldr	r3, [r7, #4]
 8001724:	2280      	movs	r2, #128	@ 0x80
 8001726:	655a      	str	r2, [r3, #84]	@ 0x54
    
    /* Process Unlocked */
    __HAL_UNLOCK(hdma);
 8001728:	687b      	ldr	r3, [r7, #4]
 800172a:	2200      	movs	r2, #0
 800172c:	f883 2034 	strb.w	r2, [r3, #52]	@ 0x34
    
    return HAL_ERROR;
 8001730:	2301      	movs	r3, #1
 8001732:	e052      	b.n	80017da <HAL_DMA_Abort+0xd8>
  }
  else
  {
    /* Disable all the transfer interrupts */
    hdma->Instance->CR  &= ~(DMA_IT_TC | DMA_IT_TE | DMA_IT_DME);
 8001734:	687b      	ldr	r3, [r7, #4]
 8001736:	681b      	ldr	r3, [r3, #0]
 8001738:	681a      	ldr	r2, [r3, #0]
 800173a:	687b      	ldr	r3, [r7, #4]
 800173c:	681b      	ldr	r3, [r3, #0]
 800173e:	f022 0216 	bic.w	r2, r2, #22
 8001742:	601a      	str	r2, [r3, #0]
    hdma->Instance->FCR &= ~(DMA_IT_FE);
 8001744:	687b      	ldr	r3, [r7, #4]
 8001746:	681b      	ldr	r3, [r3, #0]
 8001748:	695a      	ldr	r2, [r3, #20]
 800174a:	687b      	ldr	r3, [r7, #4]
 800174c:	681b      	ldr	r3, [r3, #0]
 800174e:	f022 0280 	bic.w	r2, r2, #128	@ 0x80
 8001752:	615a      	str	r2, [r3, #20]
    
    if((hdma->XferHalfCpltCallback != NULL) || (hdma->XferM1HalfCpltCallback != NULL))
 8001754:	687b      	ldr	r3, [r7, #4]
 8001756:	6c1b      	ldr	r3, [r3, #64]	@ 0x40
 8001758:	2b00      	cmp	r3, #0
 800175a:	d103      	bne.n	8001764 <HAL_DMA_Abort+0x62>
 800175c:	687b      	ldr	r3, [r7, #4]
 800175e:	6c9b      	ldr	r3, [r3, #72]	@ 0x48
 8001760:	2b00      	cmp	r3, #0
 8001762:	d007      	beq.n	8001774 <HAL_DMA_Abort+0x72>
    {
      hdma->Instance->CR  &= ~(DMA_IT_HT);
 8001764:	687b      	ldr	r3, [r7, #4]
 8001766:	681b      	ldr	r3, [r3, #0]
 8001768:	681a      	ldr	r2, [r3, #0]
 800176a:	687b      	ldr	r3, [r7, #4]
 800176c:	681b      	ldr	r3, [r3, #0]
 800176e:	f022 0208 	bic.w	r2, r2, #8
 8001772:	601a      	str	r2, [r3, #0]
    }
    
    /* Disable the stream */
    __HAL_DMA_DISABLE(hdma);
 8001774:	687b      	ldr	r3, [r7, #4]
 8001776:	681b      	ldr	r3, [r3, #0]
 8001778:	681a      	ldr	r2, [r3, #0]
 800177a:	687b      	ldr	r3, [r7, #4]
 800177c:	681b      	ldr	r3, [r3, #0]
 800177e:	f022 0201 	bic.w	r2, r2, #1
 8001782:	601a      	str	r2, [r3, #0]
    
    /* Check if the DMA Stream is effectively disabled */
    while((hdma->Instance->CR & DMA_SxCR_EN) != RESET)
 8001784:	e013      	b.n	80017ae <HAL_DMA_Abort+0xac>
    {
      /* Check for the Timeout */
      if((HAL_GetTick() - tickstart ) > HAL_TIMEOUT_DMA_ABORT)
 8001786:	f7ff fe7b 	bl	8001480 <HAL_GetTick>
 800178a:	4602      	mov	r2, r0
 800178c:	68bb      	ldr	r3, [r7, #8]
 800178e:	1ad3      	subs	r3, r2, r3
 8001790:	2b05      	cmp	r3, #5
 8001792:	d90c      	bls.n	80017ae <HAL_DMA_Abort+0xac>
      {
        /* Update error code */
        hdma->ErrorCode = HAL_DMA_ERROR_TIMEOUT;
 8001794:	687b      	ldr	r3, [r7, #4]
 8001796:	2220      	movs	r2, #32
 8001798:	655a      	str	r2, [r3, #84]	@ 0x54
        
        /* Change the DMA state */
        hdma->State = HAL_DMA_STATE_TIMEOUT;
 800179a:	687b      	ldr	r3, [r7, #4]
 800179c:	2203      	movs	r2, #3
 800179e:	f883 2035 	strb.w	r2, [r3, #53]	@ 0x35
        
        /* Process Unlocked */
        __HAL_UNLOCK(hdma);
 80017a2:	687b      	ldr	r3, [r7, #4]
 80017a4:	2200      	movs	r2, #0
 80017a6:	f883 2034 	strb.w	r2, [r3, #52]	@ 0x34
        
        return HAL_TIMEOUT;
 80017aa:	2303      	movs	r3, #3
 80017ac:	e015      	b.n	80017da <HAL_DMA_Abort+0xd8>
    while((hdma->Instance->CR & DMA_SxCR_EN) != RESET)
 80017ae:	687b      	ldr	r3, [r7, #4]
 80017b0:	681b      	ldr	r3, [r3, #0]
 80017b2:	681b      	ldr	r3, [r3, #0]
 80017b4:	f003 0301 	and.w	r3, r3, #1
 80017b8:	2b00      	cmp	r3, #0
 80017ba:	d1e4      	bne.n	8001786 <HAL_DMA_Abort+0x84>
      }
    }
    
    /* Clear all interrupt flags at correct offset within the register */
    regs->IFCR = 0x3FU << hdma->StreamIndex;
 80017bc:	687b      	ldr	r3, [r7, #4]
 80017be:	6ddb      	ldr	r3, [r3, #92]	@ 0x5c
 80017c0:	223f      	movs	r2, #63	@ 0x3f
 80017c2:	409a      	lsls	r2, r3
 80017c4:	68fb      	ldr	r3, [r7, #12]
 80017c6:	609a      	str	r2, [r3, #8]
    
    /* Change the DMA state*/
    hdma->State = HAL_DMA_STATE_READY;
 80017c8:	687b      	ldr	r3, [r7, #4]
 80017ca:	2201      	movs	r2, #1
 80017cc:	f883 2035 	strb.w	r2, [r3, #53]	@ 0x35
    
    /* Process Unlocked */
    __HAL_UNLOCK(hdma);
 80017d0:	687b      	ldr	r3, [r7, #4]
 80017d2:	2200      	movs	r2, #0
 80017d4:	f883 2034 	strb.w	r2, [r3, #52]	@ 0x34
  }
  return HAL_OK;
 80017d8:	2300      	movs	r3, #0
}
 80017da:	4618      	mov	r0, r3
 80017dc:	3710      	adds	r7, #16
 80017de:	46bd      	mov	sp, r7
 80017e0:	bd80      	pop	{r7, pc}

080017e2 <HAL_DMA_Abort_IT>:
  * @param  hdma   pointer to a DMA_HandleTypeDef structure that contains
  *                 the configuration information for the specified DMA Stream.
  * @retval HAL status
  */
HAL_StatusTypeDef HAL_DMA_Abort_IT(DMA_HandleTypeDef *hdma)
{
 80017e2:	b480      	push	{r7}
 80017e4:	b083      	sub	sp, #12
 80017e6:	af00      	add	r7, sp, #0
 80017e8:	6078      	str	r0, [r7, #4]
  if(hdma->State != HAL_DMA_STATE_BUSY)
 80017ea:	687b      	ldr	r3, [r7, #4]
 80017ec:	f893 3035 	ldrb.w	r3, [r3, #53]	@ 0x35
 80017f0:	b2db      	uxtb	r3, r3
 80017f2:	2b02      	cmp	r3, #2
 80017f4:	d004      	beq.n	8001800 <HAL_DMA_Abort_IT+0x1e>
  {
    hdma->ErrorCode = HAL_DMA_ERROR_NO_XFER;
 80017f6:	687b      	ldr	r3, [r7, #4]
 80017f8:	2280      	movs	r2, #128	@ 0x80
 80017fa:	655a      	str	r2, [r3, #84]	@ 0x54
    return HAL_ERROR;
 80017fc:	2301      	movs	r3, #1
 80017fe:	e00c      	b.n	800181a <HAL_DMA_Abort_IT+0x38>
  }
  else
  {
    /* Set Abort State  */
    hdma->State = HAL_DMA_STATE_ABORT;
 8001800:	687b      	ldr	r3, [r7, #4]
 8001802:	2205      	movs	r2, #5
 8001804:	f883 2035 	strb.w	r2, [r3, #53]	@ 0x35
    
    /* Disable the stream */
    __HAL_DMA_DISABLE(hdma);
 8001808:	687b      	ldr	r3, [r7, #4]
 800180a:	681b      	ldr	r3, [r3, #0]
 800180c:	681a      	ldr	r2, [r3, #0]
 800180e:	687b      	ldr	r3, [r7, #4]
 8001810:	681b      	ldr	r3, [r3, #0]
 8001812:	f022 0201 	bic.w	r2, r2, #1
 8001816:	601a      	str	r2, [r3, #0]
  }

  return HAL_OK;
 8001818:	2300      	movs	r3, #0
}
 800181a:	4618      	mov	r0, r3
 800181c:	370c      	adds	r7, #12
 800181e:	46bd      	mov	sp, r7
 8001820:	f85d 7b04 	ldr.w	r7, [sp], #4
 8001824:	4770      	bx	lr
	...

08001828 <HAL_GPIO_Init>:
  * @param  GPIO_Init pointer to a GPIO_InitTypeDef structure that contains
  *         the configuration information for the specified GPIO peripheral.
  * @retval None
  */
void HAL_GPIO_Init(GPIO_TypeDef  *GPIOx, GPIO_InitTypeDef *GPIO_Init)
{
 8001828:	b480      	push	{r7}
 800182a:	b089      	sub	sp, #36	@ 0x24
 800182c:	af00      	add	r7, sp, #0
 800182e:	6078      	str	r0, [r7, #4]
 8001830:	6039      	str	r1, [r7, #0]
  uint32_t position;
  uint32_t ioposition = 0x00U;
 8001832:	2300      	movs	r3, #0
 8001834:	617b      	str	r3, [r7, #20]
  uint32_t iocurrent = 0x00U;
 8001836:	2300      	movs	r3, #0
 8001838:	613b      	str	r3, [r7, #16]
  uint32_t temp = 0x00U;
 800183a:	2300      	movs	r3, #0
 800183c:	61bb      	str	r3, [r7, #24]
  assert_param(IS_GPIO_ALL_INSTANCE(GPIOx));
  assert_param(IS_GPIO_PIN(GPIO_Init->Pin));
  assert_param(IS_GPIO_MODE(GPIO_Init->Mode));

  /* Configure the port pins */
  for(position = 0U; position < GPIO_NUMBER; position++)
 800183e:	2300      	movs	r3, #0
 8001840:	61fb      	str	r3, [r7, #28]
 8001842:	e159      	b.n	8001af8 <HAL_GPIO_Init+0x2d0>
  {
    /* Get the IO position */
    ioposition = 0x01U << position;
 8001844:	2201      	movs	r2, #1
 8001846:	69fb      	ldr	r3, [r7, #28]
 8001848:	fa02 f303 	lsl.w	r3, r2, r3
 800184c:	617b      	str	r3, [r7, #20]
    /* Get the current IO position */
    iocurrent = (uint32_t)(GPIO_Init->Pin) & ioposition;
 800184e:	683b      	ldr	r3, [r7, #0]
 8001850:	681b      	ldr	r3, [r3, #0]
 8001852:	697a      	ldr	r2, [r7, #20]
 8001854:	4013      	ands	r3, r2
 8001856:	613b      	str	r3, [r7, #16]

    if(iocurrent == ioposition)
 8001858:	693a      	ldr	r2, [r7, #16]
 800185a:	697b      	ldr	r3, [r7, #20]
 800185c:	429a      	cmp	r2, r3
 800185e:	f040 8148 	bne.w	8001af2 <HAL_GPIO_Init+0x2ca>
    {
      /*--------------------- GPIO Mode Configuration ------------------------*/
      /* In case of Output or Alternate function mode selection */
      if(((GPIO_Init->Mode & GPIO_MODE) == MODE_OUTPUT) || \
 8001862:	683b      	ldr	r3, [r7, #0]
 8001864:	685b      	ldr	r3, [r3, #4]
 8001866:	f003 0303 	and.w	r3, r3, #3
 800186a:	2b01      	cmp	r3, #1
 800186c:	d005      	beq.n	800187a <HAL_GPIO_Init+0x52>
          (GPIO_Init->Mode & GPIO_MODE) == MODE_AF)
 800186e:	683b      	ldr	r3, [r7, #0]
 8001870:	685b      	ldr	r3, [r3, #4]
 8001872:	f003 0303 	and.w	r3, r3, #3
      if(((GPIO_Init->Mode & GPIO_MODE) == MODE_OUTPUT) || \
 8001876:	2b02      	cmp	r3, #2
 8001878:	d130      	bne.n	80018dc <HAL_GPIO_Init+0xb4>
      {
        /* Check the Speed parameter */
        assert_param(IS_GPIO_SPEED(GPIO_Init->Speed));
        /* Configure the IO Speed */
        temp = GPIOx->OSPEEDR; 
 800187a:	687b      	ldr	r3, [r7, #4]
 800187c:	689b      	ldr	r3, [r3, #8]
 800187e:	61bb      	str	r3, [r7, #24]
        temp &= ~(GPIO_OSPEEDER_OSPEEDR0 << (position * 2U));
 8001880:	69fb      	ldr	r3, [r7, #28]
 8001882:	005b      	lsls	r3, r3, #1
 8001884:	2203      	movs	r2, #3
 8001886:	fa02 f303 	lsl.w	r3, r2, r3
 800188a:	43db      	mvns	r3, r3
 800188c:	69ba      	ldr	r2, [r7, #24]
 800188e:	4013      	ands	r3, r2
 8001890:	61bb      	str	r3, [r7, #24]
        temp |= (GPIO_Init->Speed << (position * 2U));
 8001892:	683b      	ldr	r3, [r7, #0]
 8001894:	68da      	ldr	r2, [r3, #12]
 8001896:	69fb      	ldr	r3, [r7, #28]
 8001898:	005b      	lsls	r3, r3, #1
 800189a:	fa02 f303 	lsl.w	r3, r2, r3
 800189e:	69ba      	ldr	r2, [r7, #24]
 80018a0:	4313      	orrs	r3, r2
 80018a2:	61bb      	str	r3, [r7, #24]
        GPIOx->OSPEEDR = temp;
 80018a4:	687b      	ldr	r3, [r7, #4]
 80018a6:	69ba      	ldr	r2, [r7, #24]
 80018a8:	609a      	str	r2, [r3, #8]

        /* Configure the IO Output Type */
        temp = GPIOx->OTYPER;
 80018aa:	687b      	ldr	r3, [r7, #4]
 80018ac:	685b      	ldr	r3, [r3, #4]
 80018ae:	61bb      	str	r3, [r7, #24]
        temp &= ~(GPIO_OTYPER_OT_0 << position) ;
 80018b0:	2201      	movs	r2, #1
 80018b2:	69fb      	ldr	r3, [r7, #28]
 80018b4:	fa02 f303 	lsl.w	r3, r2, r3
 80018b8:	43db      	mvns	r3, r3
 80018ba:	69ba      	ldr	r2, [r7, #24]
 80018bc:	4013      	ands	r3, r2
 80018be:	61bb      	str	r3, [r7, #24]
        temp |= (((GPIO_Init->Mode & OUTPUT_TYPE) >> OUTPUT_TYPE_Pos) << position);
 80018c0:	683b      	ldr	r3, [r7, #0]
 80018c2:	685b      	ldr	r3, [r3, #4]
 80018c4:	091b      	lsrs	r3, r3, #4
 80018c6:	f003 0201 	and.w	r2, r3, #1
 80018ca:	69fb      	ldr	r3, [r7, #28]
 80018cc:	fa02 f303 	lsl.w	r3, r2, r3
 80018d0:	69ba      	ldr	r2, [r7, #24]
 80018d2:	4313      	orrs	r3, r2
 80018d4:	61bb      	str	r3, [r7, #24]
        GPIOx->OTYPER = temp;
 80018d6:	687b      	ldr	r3, [r7, #4]
 80018d8:	69ba      	ldr	r2, [r7, #24]
 80018da:	605a      	str	r2, [r3, #4]
       }

      if((GPIO_Init->Mode & GPIO_MODE) != MODE_ANALOG)
 80018dc:	683b      	ldr	r3, [r7, #0]
 80018de:	685b      	ldr	r3, [r3, #4]
 80018e0:	f003 0303 	and.w	r3, r3, #3
 80018e4:	2b03      	cmp	r3, #3
 80018e6:	d017      	beq.n	8001918 <HAL_GPIO_Init+0xf0>
      {
        /* Check the parameters */
        assert_param(IS_GPIO_PULL(GPIO_Init->Pull));
        
        /* Activate the Pull-up or Pull down resistor for the current IO */
        temp = GPIOx->PUPDR;
 80018e8:	687b      	ldr	r3, [r7, #4]
 80018ea:	68db      	ldr	r3, [r3, #12]
 80018ec:	61bb      	str	r3, [r7, #24]
        temp &= ~(GPIO_PUPDR_PUPDR0 << (position * 2U));
 80018ee:	69fb      	ldr	r3, [r7, #28]
 80018f0:	005b      	lsls	r3, r3, #1
 80018f2:	2203      	movs	r2, #3
 80018f4:	fa02 f303 	lsl.w	r3, r2, r3
 80018f8:	43db      	mvns	r3, r3
 80018fa:	69ba      	ldr	r2, [r7, #24]
 80018fc:	4013      	ands	r3, r2
 80018fe:	61bb      	str	r3, [r7, #24]
        temp |= ((GPIO_Init->Pull) << (position * 2U));
 8001900:	683b      	ldr	r3, [r7, #0]
 8001902:	689a      	ldr	r2, [r3, #8]
 8001904:	69fb      	ldr	r3, [r7, #28]
 8001906:	005b      	lsls	r3, r3, #1
 8001908:	fa02 f303 	lsl.w	r3, r2, r3
 800190c:	69ba      	ldr	r2, [r7, #24]
 800190e:	4313      	orrs	r3, r2
 8001910:	61bb      	str	r3, [r7, #24]
        GPIOx->PUPDR = temp;
 8001912:	687b      	ldr	r3, [r7, #4]
 8001914:	69ba      	ldr	r2, [r7, #24]
 8001916:	60da      	str	r2, [r3, #12]
      }

      /* In case of Alternate function mode selection */
      if((GPIO_Init->Mode & GPIO_MODE) == MODE_AF)
 8001918:	683b      	ldr	r3, [r7, #0]
 800191a:	685b      	ldr	r3, [r3, #4]
 800191c:	f003 0303 	and.w	r3, r3, #3
 8001920:	2b02      	cmp	r3, #2
 8001922:	d123      	bne.n	800196c <HAL_GPIO_Init+0x144>
      {
        /* Check the Alternate function parameter */
        assert_param(IS_GPIO_AF(GPIO_Init->Alternate));
        /* Configure Alternate function mapped with the current IO */
        temp = GPIOx->AFR[position >> 3U];
 8001924:	69fb      	ldr	r3, [r7, #28]
 8001926:	08da      	lsrs	r2, r3, #3
 8001928:	687b      	ldr	r3, [r7, #4]
 800192a:	3208      	adds	r2, #8
 800192c:	f853 3022 	ldr.w	r3, [r3, r2, lsl #2]
 8001930:	61bb      	str	r3, [r7, #24]
        temp &= ~(0xFU << ((uint32_t)(position & 0x07U) * 4U)) ;
 8001932:	69fb      	ldr	r3, [r7, #28]
 8001934:	f003 0307 	and.w	r3, r3, #7
 8001938:	009b      	lsls	r3, r3, #2
 800193a:	220f      	movs	r2, #15
 800193c:	fa02 f303 	lsl.w	r3, r2, r3
 8001940:	43db      	mvns	r3, r3
 8001942:	69ba      	ldr	r2, [r7, #24]
 8001944:	4013      	ands	r3, r2
 8001946:	61bb      	str	r3, [r7, #24]
        temp |= ((uint32_t)(GPIO_Init->Alternate) << (((uint32_t)position & 0x07U) * 4U));
 8001948:	683b      	ldr	r3, [r7, #0]
 800194a:	691a      	ldr	r2, [r3, #16]
 800194c:	69fb      	ldr	r3, [r7, #28]
 800194e:	f003 0307 	and.w	r3, r3, #7
 8001952:	009b      	lsls	r3, r3, #2
 8001954:	fa02 f303 	lsl.w	r3, r2, r3
 8001958:	69ba      	ldr	r2, [r7, #24]
 800195a:	4313      	orrs	r3, r2
 800195c:	61bb      	str	r3, [r7, #24]
        GPIOx->AFR[position >> 3U] = temp;
 800195e:	69fb      	ldr	r3, [r7, #28]
 8001960:	08da      	lsrs	r2, r3, #3
 8001962:	687b      	ldr	r3, [r7, #4]
 8001964:	3208      	adds	r2, #8
 8001966:	69b9      	ldr	r1, [r7, #24]
 8001968:	f843 1022 	str.w	r1, [r3, r2, lsl #2]
      }

      /* Configure IO Direction mode (Input, Output, Alternate or Analog) */
      temp = GPIOx->MODER;
 800196c:	687b      	ldr	r3, [r7, #4]
 800196e:	681b      	ldr	r3, [r3, #0]
 8001970:	61bb      	str	r3, [r7, #24]
      temp &= ~(GPIO_MODER_MODER0 << (position * 2U));
 8001972:	69fb      	ldr	r3, [r7, #28]
 8001974:	005b      	lsls	r3, r3, #1
 8001976:	2203      	movs	r2, #3
 8001978:	fa02 f303 	lsl.w	r3, r2, r3
 800197c:	43db      	mvns	r3, r3
 800197e:	69ba      	ldr	r2, [r7, #24]
 8001980:	4013      	ands	r3, r2
 8001982:	61bb      	str	r3, [r7, #24]
      temp |= ((GPIO_Init->Mode & GPIO_MODE) << (position * 2U));
 8001984:	683b      	ldr	r3, [r7, #0]
 8001986:	685b      	ldr	r3, [r3, #4]
 8001988:	f003 0203 	and.w	r2, r3, #3
 800198c:	69fb      	ldr	r3, [r7, #28]
 800198e:	005b      	lsls	r3, r3, #1
 8001990:	fa02 f303 	lsl.w	r3, r2, r3
 8001994:	69ba      	ldr	r2, [r7, #24]
 8001996:	4313      	orrs	r3, r2
 8001998:	61bb      	str	r3, [r7, #24]
      GPIOx->MODER = temp;
 800199a:	687b      	ldr	r3, [r7, #4]
 800199c:	69ba      	ldr	r2, [r7, #24]
 800199e:	601a      	str	r2, [r3, #0]

      /*--------------------- EXTI Mode Configuration ------------------------*/
      /* Configure the External Interrupt or event for the current IO */
      if((GPIO_Init->Mode & EXTI_MODE) != 0x00U)
 80019a0:	683b      	ldr	r3, [r7, #0]
 80019a2:	685b      	ldr	r3, [r3, #4]
 80019a4:	f403 3340 	and.w	r3, r3, #196608	@ 0x30000
 80019a8:	2b00      	cmp	r3, #0
 80019aa:	f000 80a2 	beq.w	8001af2 <HAL_GPIO_Init+0x2ca>
      {
        /* Enable SYSCFG Clock */
        __HAL_RCC_SYSCFG_CLK_ENABLE();
 80019ae:	2300      	movs	r3, #0
 80019b0:	60fb      	str	r3, [r7, #12]
 80019b2:	4b57      	ldr	r3, [pc, #348]	@ (8001b10 <HAL_GPIO_Init+0x2e8>)
 80019b4:	6c5b      	ldr	r3, [r3, #68]	@ 0x44
 80019b6:	4a56      	ldr	r2, [pc, #344]	@ (8001b10 <HAL_GPIO_Init+0x2e8>)
 80019b8:	f443 4380 	orr.w	r3, r3, #16384	@ 0x4000
 80019bc:	6453      	str	r3, [r2, #68]	@ 0x44
 80019be:	4b54      	ldr	r3, [pc, #336]	@ (8001b10 <HAL_GPIO_Init+0x2e8>)
 80019c0:	6c5b      	ldr	r3, [r3, #68]	@ 0x44
 80019c2:	f403 4380 	and.w	r3, r3, #16384	@ 0x4000
 80019c6:	60fb      	str	r3, [r7, #12]
 80019c8:	68fb      	ldr	r3, [r7, #12]

        temp = SYSCFG->EXTICR[position >> 2U];
 80019ca:	4a52      	ldr	r2, [pc, #328]	@ (8001b14 <HAL_GPIO_Init+0x2ec>)
 80019cc:	69fb      	ldr	r3, [r7, #28]
 80019ce:	089b      	lsrs	r3, r3, #2
 80019d0:	3302      	adds	r3, #2
 80019d2:	f852 3023 	ldr.w	r3, [r2, r3, lsl #2]
 80019d6:	61bb      	str	r3, [r7, #24]
        temp &= ~(0x0FU << (4U * (position & 0x03U)));
 80019d8:	69fb      	ldr	r3, [r7, #28]
 80019da:	f003 0303 	and.w	r3, r3, #3
 80019de:	009b      	lsls	r3, r3, #2
 80019e0:	220f      	movs	r2, #15
 80019e2:	fa02 f303 	lsl.w	r3, r2, r3
 80019e6:	43db      	mvns	r3, r3
 80019e8:	69ba      	ldr	r2, [r7, #24]
 80019ea:	4013      	ands	r3, r2
 80019ec:	61bb      	str	r3, [r7, #24]
        temp |= ((uint32_t)(GPIO_GET_INDEX(GPIOx)) << (4U * (position & 0x03U)));
 80019ee:	687b      	ldr	r3, [r7, #4]
 80019f0:	4a49      	ldr	r2, [pc, #292]	@ (8001b18 <HAL_GPIO_Init+0x2f0>)
 80019f2:	4293      	cmp	r3, r2
 80019f4:	d019      	beq.n	8001a2a <HAL_GPIO_Init+0x202>
 80019f6:	687b      	ldr	r3, [r7, #4]
 80019f8:	4a48      	ldr	r2, [pc, #288]	@ (8001b1c <HAL_GPIO_Init+0x2f4>)
 80019fa:	4293      	cmp	r3, r2
 80019fc:	d013      	beq.n	8001a26 <HAL_GPIO_Init+0x1fe>
 80019fe:	687b      	ldr	r3, [r7, #4]
 8001a00:	4a47      	ldr	r2, [pc, #284]	@ (8001b20 <HAL_GPIO_Init+0x2f8>)
 8001a02:	4293      	cmp	r3, r2
 8001a04:	d00d      	beq.n	8001a22 <HAL_GPIO_Init+0x1fa>
 8001a06:	687b      	ldr	r3, [r7, #4]
 8001a08:	4a46      	ldr	r2, [pc, #280]	@ (8001b24 <HAL_GPIO_Init+0x2fc>)
 8001a0a:	4293      	cmp	r3, r2
 8001a0c:	d007      	beq.n	8001a1e <HAL_GPIO_Init+0x1f6>
 8001a0e:	687b      	ldr	r3, [r7, #4]
 8001a10:	4a45      	ldr	r2, [pc, #276]	@ (8001b28 <HAL_GPIO_Init+0x300>)
 8001a12:	4293      	cmp	r3, r2
 8001a14:	d101      	bne.n	8001a1a <HAL_GPIO_Init+0x1f2>
 8001a16:	2304      	movs	r3, #4
 8001a18:	e008      	b.n	8001a2c <HAL_GPIO_Init+0x204>
 8001a1a:	2307      	movs	r3, #7
 8001a1c:	e006      	b.n	8001a2c <HAL_GPIO_Init+0x204>
 8001a1e:	2303      	movs	r3, #3
 8001a20:	e004      	b.n	8001a2c <HAL_GPIO_Init+0x204>
 8001a22:	2302      	movs	r3, #2
 8001a24:	e002      	b.n	8001a2c <HAL_GPIO_Init+0x204>
 8001a26:	2301      	movs	r3, #1
 8001a28:	e000      	b.n	8001a2c <HAL_GPIO_Init+0x204>
 8001a2a:	2300      	movs	r3, #0
 8001a2c:	69fa      	ldr	r2, [r7, #28]
 8001a2e:	f002 0203 	and.w	r2, r2, #3
 8001a32:	0092      	lsls	r2, r2, #2
 8001a34:	4093      	lsls	r3, r2
 8001a36:	69ba      	ldr	r2, [r7, #24]
 8001a38:	4313      	orrs	r3, r2
 8001a3a:	61bb      	str	r3, [r7, #24]
        SYSCFG->EXTICR[position >> 2U] = temp;
 8001a3c:	4935      	ldr	r1, [pc, #212]	@ (8001b14 <HAL_GPIO_Init+0x2ec>)
 8001a3e:	69fb      	ldr	r3, [r7, #28]
 8001a40:	089b      	lsrs	r3, r3, #2
 8001a42:	3302      	adds	r3, #2
 8001a44:	69ba      	ldr	r2, [r7, #24]
 8001a46:	f841 2023 	str.w	r2, [r1, r3, lsl #2]

        /* Clear Rising Falling edge configuration */
        temp = EXTI->RTSR;
 8001a4a:	4b38      	ldr	r3, [pc, #224]	@ (8001b2c <HAL_GPIO_Init+0x304>)
 8001a4c:	689b      	ldr	r3, [r3, #8]
 8001a4e:	61bb      	str	r3, [r7, #24]
        temp &= ~((uint32_t)iocurrent);
 8001a50:	693b      	ldr	r3, [r7, #16]
 8001a52:	43db      	mvns	r3, r3
 8001a54:	69ba      	ldr	r2, [r7, #24]
 8001a56:	4013      	ands	r3, r2
 8001a58:	61bb      	str	r3, [r7, #24]
        if((GPIO_Init->Mode & TRIGGER_RISING) != 0x00U)
 8001a5a:	683b      	ldr	r3, [r7, #0]
 8001a5c:	685b      	ldr	r3, [r3, #4]
 8001a5e:	f403 1380 	and.w	r3, r3, #1048576	@ 0x100000
 8001a62:	2b00      	cmp	r3, #0
 8001a64:	d003      	beq.n	8001a6e <HAL_GPIO_Init+0x246>
        {
          temp |= iocurrent;
 8001a66:	69ba      	ldr	r2, [r7, #24]
 8001a68:	693b      	ldr	r3, [r7, #16]
 8001a6a:	4313      	orrs	r3, r2
 8001a6c:	61bb      	str	r3, [r7, #24]
        }
        EXTI->RTSR = temp;
 8001a6e:	4a2f      	ldr	r2, [pc, #188]	@ (8001b2c <HAL_GPIO_Init+0x304>)
 8001a70:	69bb      	ldr	r3, [r7, #24]
 8001a72:	6093      	str	r3, [r2, #8]

        temp = EXTI->FTSR;
 8001a74:	4b2d      	ldr	r3, [pc, #180]	@ (8001b2c <HAL_GPIO_Init+0x304>)
 8001a76:	68db      	ldr	r3, [r3, #12]
 8001a78:	61bb      	str	r3, [r7, #24]
        temp &= ~((uint32_t)iocurrent);
 8001a7a:	693b      	ldr	r3, [r7, #16]
 8001a7c:	43db      	mvns	r3, r3
 8001a7e:	69ba      	ldr	r2, [r7, #24]
 8001a80:	4013      	ands	r3, r2
 8001a82:	61bb      	str	r3, [r7, #24]
        if((GPIO_Init->Mode & TRIGGER_FALLING) != 0x00U)
 8001a84:	683b      	ldr	r3, [r7, #0]
 8001a86:	685b      	ldr	r3, [r3, #4]
 8001a88:	f403 1300 	and.w	r3, r3, #2097152	@ 0x200000
 8001a8c:	2b00      	cmp	r3, #0
 8001a8e:	d003      	beq.n	8001a98 <HAL_GPIO_Init+0x270>
        {
          temp |= iocurrent;
 8001a90:	69ba      	ldr	r2, [r7, #24]
 8001a92:	693b      	ldr	r3, [r7, #16]
 8001a94:	4313      	orrs	r3, r2
 8001a96:	61bb      	str	r3, [r7, #24]
        }
        EXTI->FTSR = temp;
 8001a98:	4a24      	ldr	r2, [pc, #144]	@ (8001b2c <HAL_GPIO_Init+0x304>)
 8001a9a:	69bb      	ldr	r3, [r7, #24]
 8001a9c:	60d3      	str	r3, [r2, #12]

        temp = EXTI->EMR;
 8001a9e:	4b23      	ldr	r3, [pc, #140]	@ (8001b2c <HAL_GPIO_Init+0x304>)
 8001aa0:	685b      	ldr	r3, [r3, #4]
 8001aa2:	61bb      	str	r3, [r7, #24]
        temp &= ~((uint32_t)iocurrent);
 8001aa4:	693b      	ldr	r3, [r7, #16]
 8001aa6:	43db      	mvns	r3, r3
 8001aa8:	69ba      	ldr	r2, [r7, #24]
 8001aaa:	4013      	ands	r3, r2
 8001aac:	61bb      	str	r3, [r7, #24]
        if((GPIO_Init->Mode & EXTI_EVT) != 0x00U)
 8001aae:	683b      	ldr	r3, [r7, #0]
 8001ab0:	685b      	ldr	r3, [r3, #4]
 8001ab2:	f403 3300 	and.w	r3, r3, #131072	@ 0x20000
 8001ab6:	2b00      	cmp	r3, #0
 8001ab8:	d003      	beq.n	8001ac2 <HAL_GPIO_Init+0x29a>
        {
          temp |= iocurrent;
 8001aba:	69ba      	ldr	r2, [r7, #24]
 8001abc:	693b      	ldr	r3, [r7, #16]
 8001abe:	4313      	orrs	r3, r2
 8001ac0:	61bb      	str	r3, [r7, #24]
        }
        EXTI->EMR = temp;
 8001ac2:	4a1a      	ldr	r2, [pc, #104]	@ (8001b2c <HAL_GPIO_Init+0x304>)
 8001ac4:	69bb      	ldr	r3, [r7, #24]
 8001ac6:	6053      	str	r3, [r2, #4]

        /* Clear EXTI line configuration */
        temp = EXTI->IMR;
 8001ac8:	4b18      	ldr	r3, [pc, #96]	@ (8001b2c <HAL_GPIO_Init+0x304>)
 8001aca:	681b      	ldr	r3, [r3, #0]
 8001acc:	61bb      	str	r3, [r7, #24]
        temp &= ~((uint32_t)iocurrent);
 8001ace:	693b      	ldr	r3, [r7, #16]
 8001ad0:	43db      	mvns	r3, r3
 8001ad2:	69ba      	ldr	r2, [r7, #24]
 8001ad4:	4013      	ands	r3, r2
 8001ad6:	61bb      	str	r3, [r7, #24]
        if((GPIO_Init->Mode & EXTI_IT) != 0x00U)
 8001ad8:	683b      	ldr	r3, [r7, #0]
 8001ada:	685b      	ldr	r3, [r3, #4]
 8001adc:	f403 3380 	and.w	r3, r3, #65536	@ 0x10000
 8001ae0:	2b00      	cmp	r3, #0
 8001ae2:	d003      	beq.n	8001aec <HAL_GPIO_Init+0x2c4>
        {
          temp |= iocurrent;
 8001ae4:	69ba      	ldr	r2, [r7, #24]
 8001ae6:	693b      	ldr	r3, [r7, #16]
 8001ae8:	4313      	orrs	r3, r2
 8001aea:	61bb      	str	r3, [r7, #24]
        }
        EXTI->IMR = temp;
 8001aec:	4a0f      	ldr	r2, [pc, #60]	@ (8001b2c <HAL_GPIO_Init+0x304>)
 8001aee:	69bb      	ldr	r3, [r7, #24]
 8001af0:	6013      	str	r3, [r2, #0]
  for(position = 0U; position < GPIO_NUMBER; position++)
 8001af2:	69fb      	ldr	r3, [r7, #28]
 8001af4:	3301      	adds	r3, #1
 8001af6:	61fb      	str	r3, [r7, #28]
 8001af8:	69fb      	ldr	r3, [r7, #28]
 8001afa:	2b0f      	cmp	r3, #15
 8001afc:	f67f aea2 	bls.w	8001844 <HAL_GPIO_Init+0x1c>
      }
    }
  }
}
 8001b00:	bf00      	nop
 8001b02:	bf00      	nop
 8001b04:	3724      	adds	r7, #36	@ 0x24
 8001b06:	46bd      	mov	sp, r7
 8001b08:	f85d 7b04 	ldr.w	r7, [sp], #4
 8001b0c:	4770      	bx	lr
 8001b0e:	bf00      	nop
 8001b10:	40023800 	.word	0x40023800
 8001b14:	40013800 	.word	0x40013800
 8001b18:	40020000 	.word	0x40020000
 8001b1c:	40020400 	.word	0x40020400
 8001b20:	40020800 	.word	0x40020800
 8001b24:	40020c00 	.word	0x40020c00
 8001b28:	40021000 	.word	0x40021000
 8001b2c:	40013c00 	.word	0x40013c00

08001b30 <HAL_GPIO_WritePin>:
  *            @arg GPIO_PIN_RESET: to clear the port pin
  *            @arg GPIO_PIN_SET: to set the port pin
  * @retval None
  */
void HAL_GPIO_WritePin(GPIO_TypeDef* GPIOx, uint16_t GPIO_Pin, GPIO_PinState PinState)
{
 8001b30:	b480      	push	{r7}
 8001b32:	b083      	sub	sp, #12
 8001b34:	af00      	add	r7, sp, #0
 8001b36:	6078      	str	r0, [r7, #4]
 8001b38:	460b      	mov	r3, r1
 8001b3a:	807b      	strh	r3, [r7, #2]
 8001b3c:	4613      	mov	r3, r2
 8001b3e:	707b      	strb	r3, [r7, #1]
  /* Check the parameters */
  assert_param(IS_GPIO_PIN(GPIO_Pin));
  assert_param(IS_GPIO_PIN_ACTION(PinState));

  if(PinState != GPIO_PIN_RESET)
 8001b40:	787b      	ldrb	r3, [r7, #1]
 8001b42:	2b00      	cmp	r3, #0
 8001b44:	d003      	beq.n	8001b4e <HAL_GPIO_WritePin+0x1e>
  {
    GPIOx->BSRR = GPIO_Pin;
 8001b46:	887a      	ldrh	r2, [r7, #2]
 8001b48:	687b      	ldr	r3, [r7, #4]
 8001b4a:	619a      	str	r2, [r3, #24]
  }
  else
  {
    GPIOx->BSRR = (uint32_t)GPIO_Pin << 16U;
  }
}
 8001b4c:	e003      	b.n	8001b56 <HAL_GPIO_WritePin+0x26>
    GPIOx->BSRR = (uint32_t)GPIO_Pin << 16U;
 8001b4e:	887b      	ldrh	r3, [r7, #2]
 8001b50:	041a      	lsls	r2, r3, #16
 8001b52:	687b      	ldr	r3, [r7, #4]
 8001b54:	619a      	str	r2, [r3, #24]
}
 8001b56:	bf00      	nop
 8001b58:	370c      	adds	r7, #12
 8001b5a:	46bd      	mov	sp, r7
 8001b5c:	f85d 7b04 	ldr.w	r7, [sp], #4
 8001b60:	4770      	bx	lr
	...

08001b64 <HAL_RCC_OscConfig>:
  *         supported by this API. User should request a transition to HSE Off
  *         first and then HSE On or HSE Bypass.
  * @retval HAL status
  */
__weak HAL_StatusTypeDef HAL_RCC_OscConfig(RCC_OscInitTypeDef  *RCC_OscInitStruct)
{
 8001b64:	b580      	push	{r7, lr}
 8001b66:	b086      	sub	sp, #24
 8001b68:	af00      	add	r7, sp, #0
 8001b6a:	6078      	str	r0, [r7, #4]
  uint32_t tickstart, pll_config;

  /* Check Null pointer */
  if(RCC_OscInitStruct == NULL)
 8001b6c:	687b      	ldr	r3, [r7, #4]
 8001b6e:	2b00      	cmp	r3, #0
 8001b70:	d101      	bne.n	8001b76 <HAL_RCC_OscConfig+0x12>
  {
    return HAL_ERROR;
 8001b72:	2301      	movs	r3, #1
 8001b74:	e267      	b.n	8002046 <HAL_RCC_OscConfig+0x4e2>
  }

  /* Check the parameters */
  assert_param(IS_RCC_OSCILLATORTYPE(RCC_OscInitStruct->OscillatorType));
  /*------------------------------- HSE Configuration ------------------------*/
  if(((RCC_OscInitStruct->OscillatorType) & RCC_OSCILLATORTYPE_HSE) == RCC_OSCILLATORTYPE_HSE)
 8001b76:	687b      	ldr	r3, [r7, #4]
 8001b78:	681b      	ldr	r3, [r3, #0]
 8001b7a:	f003 0301 	and.w	r3, r3, #1
 8001b7e:	2b00      	cmp	r3, #0
 8001b80:	d075      	beq.n	8001c6e <HAL_RCC_OscConfig+0x10a>
  {
    /* Check the parameters */
    assert_param(IS_RCC_HSE(RCC_OscInitStruct->HSEState));
    /* When the HSE is used as system clock or clock source for PLL in these cases HSE will not disabled */
    if((__HAL_RCC_GET_SYSCLK_SOURCE() == RCC_CFGR_SWS_HSE) ||\
 8001b82:	4b88      	ldr	r3, [pc, #544]	@ (8001da4 <HAL_RCC_OscConfig+0x240>)
 8001b84:	689b      	ldr	r3, [r3, #8]
 8001b86:	f003 030c 	and.w	r3, r3, #12
 8001b8a:	2b04      	cmp	r3, #4
 8001b8c:	d00c      	beq.n	8001ba8 <HAL_RCC_OscConfig+0x44>
      ((__HAL_RCC_GET_SYSCLK_SOURCE() == RCC_CFGR_SWS_PLL) && ((RCC->PLLCFGR & RCC_PLLCFGR_PLLSRC) == RCC_PLLCFGR_PLLSRC_HSE)))
 8001b8e:	4b85      	ldr	r3, [pc, #532]	@ (8001da4 <HAL_RCC_OscConfig+0x240>)
 8001b90:	689b      	ldr	r3, [r3, #8]
 8001b92:	f003 030c 	and.w	r3, r3, #12
    if((__HAL_RCC_GET_SYSCLK_SOURCE() == RCC_CFGR_SWS_HSE) ||\
 8001b96:	2b08      	cmp	r3, #8
 8001b98:	d112      	bne.n	8001bc0 <HAL_RCC_OscConfig+0x5c>
      ((__HAL_RCC_GET_SYSCLK_SOURCE() == RCC_CFGR_SWS_PLL) && ((RCC->PLLCFGR & RCC_PLLCFGR_PLLSRC) == RCC_PLLCFGR_PLLSRC_HSE)))
 8001b9a:	4b82      	ldr	r3, [pc, #520]	@ (8001da4 <HAL_RCC_OscConfig+0x240>)
 8001b9c:	685b      	ldr	r3, [r3, #4]
 8001b9e:	f403 0380 	and.w	r3, r3, #4194304	@ 0x400000
 8001ba2:	f5b3 0f80 	cmp.w	r3, #4194304	@ 0x400000
 8001ba6:	d10b      	bne.n	8001bc0 <HAL_RCC_OscConfig+0x5c>
    {
      if((__HAL_RCC_GET_FLAG(RCC_FLAG_HSERDY) != RESET) && (RCC_OscInitStruct->HSEState == RCC_HSE_OFF))
 8001ba8:	4b7e      	ldr	r3, [pc, #504]	@ (8001da4 <HAL_RCC_OscConfig+0x240>)
 8001baa:	681b      	ldr	r3, [r3, #0]
 8001bac:	f403 3300 	and.w	r3, r3, #131072	@ 0x20000
 8001bb0:	2b00      	cmp	r3, #0
 8001bb2:	d05b      	beq.n	8001c6c <HAL_RCC_OscConfig+0x108>
 8001bb4:	687b      	ldr	r3, [r7, #4]
 8001bb6:	685b      	ldr	r3, [r3, #4]
 8001bb8:	2b00      	cmp	r3, #0
 8001bba:	d157      	bne.n	8001c6c <HAL_RCC_OscConfig+0x108>
      {
        return HAL_ERROR;
 8001bbc:	2301      	movs	r3, #1
 8001bbe:	e242      	b.n	8002046 <HAL_RCC_OscConfig+0x4e2>
      }
    }
    else
    {
      /* Set the new HSE configuration ---------------------------------------*/
      __HAL_RCC_HSE_CONFIG(RCC_OscInitStruct->HSEState);
 8001bc0:	687b      	ldr	r3, [r7, #4]
 8001bc2:	685b      	ldr	r3, [r3, #4]
 8001bc4:	f5b3 3f80 	cmp.w	r3, #65536	@ 0x10000
 8001bc8:	d106      	bne.n	8001bd8 <HAL_RCC_OscConfig+0x74>
 8001bca:	4b76      	ldr	r3, [pc, #472]	@ (8001da4 <HAL_RCC_OscConfig+0x240>)
 8001bcc:	681b      	ldr	r3, [r3, #0]
 8001bce:	4a75      	ldr	r2, [pc, #468]	@ (8001da4 <HAL_RCC_OscConfig+0x240>)
 8001bd0:	f443 3380 	orr.w	r3, r3, #65536	@ 0x10000
 8001bd4:	6013      	str	r3, [r2, #0]
 8001bd6:	e01d      	b.n	8001c14 <HAL_RCC_OscConfig+0xb0>
 8001bd8:	687b      	ldr	r3, [r7, #4]
 8001bda:	685b      	ldr	r3, [r3, #4]
 8001bdc:	f5b3 2fa0 	cmp.w	r3, #327680	@ 0x50000
 8001be0:	d10c      	bne.n	8001bfc <HAL_RCC_OscConfig+0x98>
 8001be2:	4b70      	ldr	r3, [pc, #448]	@ (8001da4 <HAL_RCC_OscConfig+0x240>)
 8001be4:	681b      	ldr	r3, [r3, #0]
 8001be6:	4a6f      	ldr	r2, [pc, #444]	@ (8001da4 <HAL_RCC_OscConfig+0x240>)
 8001be8:	f443 2380 	orr.w	r3, r3, #262144	@ 0x40000
 8001bec:	6013      	str	r3, [r2, #0]
 8001bee:	4b6d      	ldr	r3, [pc, #436]	@ (8001da4 <HAL_RCC_OscConfig+0x240>)
 8001bf0:	681b      	ldr	r3, [r3, #0]
 8001bf2:	4a6c      	ldr	r2, [pc, #432]	@ (8001da4 <HAL_RCC_OscConfig+0x240>)
 8001bf4:	f443 3380 	orr.w	r3, r3, #65536	@ 0x10000
 8001bf8:	6013      	str	r3, [r2, #0]
 8001bfa:	e00b      	b.n	8001c14 <HAL_RCC_OscConfig+0xb0>
 8001bfc:	4b69      	ldr	r3, [pc, #420]	@ (8001da4 <HAL_RCC_OscConfig+0x240>)
 8001bfe:	681b      	ldr	r3, [r3, #0]
 8001c00:	4a68      	ldr	r2, [pc, #416]	@ (8001da4 <HAL_RCC_OscConfig+0x240>)
 8001c02:	f423 3380 	bic.w	r3, r3, #65536	@ 0x10000
 8001c06:	6013      	str	r3, [r2, #0]
 8001c08:	4b66      	ldr	r3, [pc, #408]	@ (8001da4 <HAL_RCC_OscConfig+0x240>)
 8001c0a:	681b      	ldr	r3, [r3, #0]
 8001c0c:	4a65      	ldr	r2, [pc, #404]	@ (8001da4 <HAL_RCC_OscConfig+0x240>)
 8001c0e:	f423 2380 	bic.w	r3, r3, #262144	@ 0x40000
 8001c12:	6013      	str	r3, [r2, #0]

      /* Check the HSE State */
      if((RCC_OscInitStruct->HSEState) != RCC_HSE_OFF)
 8001c14:	687b      	ldr	r3, [r7, #4]
 8001c16:	685b      	ldr	r3, [r3, #4]
 8001c18:	2b00      	cmp	r3, #0
 8001c1a:	d013      	beq.n	8001c44 <HAL_RCC_OscConfig+0xe0>
      {
        /* Get Start Tick */
        tickstart = HAL_GetTick();
 8001c1c:	f7ff fc30 	bl	8001480 <HAL_GetTick>
 8001c20:	6138      	str	r0, [r7, #16]

        /* Wait till HSE is ready */
        while(__HAL_RCC_GET_FLAG(RCC_FLAG_HSERDY) == RESET)
 8001c22:	e008      	b.n	8001c36 <HAL_RCC_OscConfig+0xd2>
        {
          if((HAL_GetTick() - tickstart ) > HSE_TIMEOUT_VALUE)
 8001c24:	f7ff fc2c 	bl	8001480 <HAL_GetTick>
 8001c28:	4602      	mov	r2, r0
 8001c2a:	693b      	ldr	r3, [r7, #16]
 8001c2c:	1ad3      	subs	r3, r2, r3
 8001c2e:	2b64      	cmp	r3, #100	@ 0x64
 8001c30:	d901      	bls.n	8001c36 <HAL_RCC_OscConfig+0xd2>
          {
            return HAL_TIMEOUT;
 8001c32:	2303      	movs	r3, #3
 8001c34:	e207      	b.n	8002046 <HAL_RCC_OscConfig+0x4e2>
        while(__HAL_RCC_GET_FLAG(RCC_FLAG_HSERDY) == RESET)
 8001c36:	4b5b      	ldr	r3, [pc, #364]	@ (8001da4 <HAL_RCC_OscConfig+0x240>)
 8001c38:	681b      	ldr	r3, [r3, #0]
 8001c3a:	f403 3300 	and.w	r3, r3, #131072	@ 0x20000
 8001c3e:	2b00      	cmp	r3, #0
 8001c40:	d0f0      	beq.n	8001c24 <HAL_RCC_OscConfig+0xc0>
 8001c42:	e014      	b.n	8001c6e <HAL_RCC_OscConfig+0x10a>
        }
      }
      else
      {
        /* Get Start Tick */
        tickstart = HAL_GetTick();
 8001c44:	f7ff fc1c 	bl	8001480 <HAL_GetTick>
 8001c48:	6138      	str	r0, [r7, #16]

        /* Wait till HSE is bypassed or disabled */
        while(__HAL_RCC_GET_FLAG(RCC_FLAG_HSERDY) != RESET)
 8001c4a:	e008      	b.n	8001c5e <HAL_RCC_OscConfig+0xfa>
        {
          if((HAL_GetTick() - tickstart ) > HSE_TIMEOUT_VALUE)
 8001c4c:	f7ff fc18 	bl	8001480 <HAL_GetTick>
 8001c50:	4602      	mov	r2, r0
 8001c52:	693b      	ldr	r3, [r7, #16]
 8001c54:	1ad3      	subs	r3, r2, r3
 8001c56:	2b64      	cmp	r3, #100	@ 0x64
 8001c58:	d901      	bls.n	8001c5e <HAL_RCC_OscConfig+0xfa>
          {
            return HAL_TIMEOUT;
 8001c5a:	2303      	movs	r3, #3
 8001c5c:	e1f3      	b.n	8002046 <HAL_RCC_OscConfig+0x4e2>
        while(__HAL_RCC_GET_FLAG(RCC_FLAG_HSERDY) != RESET)
 8001c5e:	4b51      	ldr	r3, [pc, #324]	@ (8001da4 <HAL_RCC_OscConfig+0x240>)
 8001c60:	681b      	ldr	r3, [r3, #0]
 8001c62:	f403 3300 	and.w	r3, r3, #131072	@ 0x20000
 8001c66:	2b00      	cmp	r3, #0
 8001c68:	d1f0      	bne.n	8001c4c <HAL_RCC_OscConfig+0xe8>
 8001c6a:	e000      	b.n	8001c6e <HAL_RCC_OscConfig+0x10a>
      if((__HAL_RCC_GET_FLAG(RCC_FLAG_HSERDY) != RESET) && (RCC_OscInitStruct->HSEState == RCC_HSE_OFF))
 8001c6c:	bf00      	nop
        }
      }
    }
  }
  /*----------------------------- HSI Configuration --------------------------*/
  if(((RCC_OscInitStruct->OscillatorType) & RCC_OSCILLATORTYPE_HSI) == RCC_OSCILLATORTYPE_HSI)
 8001c6e:	687b      	ldr	r3, [r7, #4]
 8001c70:	681b      	ldr	r3, [r3, #0]
 8001c72:	f003 0302 	and.w	r3, r3, #2
 8001c76:	2b00      	cmp	r3, #0
 8001c78:	d063      	beq.n	8001d42 <HAL_RCC_OscConfig+0x1de>
    /* Check the parameters */
    assert_param(IS_RCC_HSI(RCC_OscInitStruct->HSIState));
    assert_param(IS_RCC_CALIBRATION_VALUE(RCC_OscInitStruct->HSICalibrationValue));

    /* Check if HSI is used as system clock or as PLL source when PLL is selected as system clock */
    if((__HAL_RCC_GET_SYSCLK_SOURCE() == RCC_CFGR_SWS_HSI) ||\
 8001c7a:	4b4a      	ldr	r3, [pc, #296]	@ (8001da4 <HAL_RCC_OscConfig+0x240>)
 8001c7c:	689b      	ldr	r3, [r3, #8]
 8001c7e:	f003 030c 	and.w	r3, r3, #12
 8001c82:	2b00      	cmp	r3, #0
 8001c84:	d00b      	beq.n	8001c9e <HAL_RCC_OscConfig+0x13a>
      ((__HAL_RCC_GET_SYSCLK_SOURCE() == RCC_CFGR_SWS_PLL) && ((RCC->PLLCFGR & RCC_PLLCFGR_PLLSRC) == RCC_PLLCFGR_PLLSRC_HSI)))
 8001c86:	4b47      	ldr	r3, [pc, #284]	@ (8001da4 <HAL_RCC_OscConfig+0x240>)
 8001c88:	689b      	ldr	r3, [r3, #8]
 8001c8a:	f003 030c 	and.w	r3, r3, #12
    if((__HAL_RCC_GET_SYSCLK_SOURCE() == RCC_CFGR_SWS_HSI) ||\
 8001c8e:	2b08      	cmp	r3, #8
 8001c90:	d11c      	bne.n	8001ccc <HAL_RCC_OscConfig+0x168>
      ((__HAL_RCC_GET_SYSCLK_SOURCE() == RCC_CFGR_SWS_PLL) && ((RCC->PLLCFGR & RCC_PLLCFGR_PLLSRC) == RCC_PLLCFGR_PLLSRC_HSI)))
 8001c92:	4b44      	ldr	r3, [pc, #272]	@ (8001da4 <HAL_RCC_OscConfig+0x240>)
 8001c94:	685b      	ldr	r3, [r3, #4]
 8001c96:	f403 0380 	and.w	r3, r3, #4194304	@ 0x400000
 8001c9a:	2b00      	cmp	r3, #0
 8001c9c:	d116      	bne.n	8001ccc <HAL_RCC_OscConfig+0x168>
    {
      /* When HSI is used as system clock it will not disabled */
      if((__HAL_RCC_GET_FLAG(RCC_FLAG_HSIRDY) != RESET) && (RCC_OscInitStruct->HSIState != RCC_HSI_ON))
 8001c9e:	4b41      	ldr	r3, [pc, #260]	@ (8001da4 <HAL_RCC_OscConfig+0x240>)
 8001ca0:	681b      	ldr	r3, [r3, #0]
 8001ca2:	f003 0302 	and.w	r3, r3, #2
 8001ca6:	2b00      	cmp	r3, #0
 8001ca8:	d005      	beq.n	8001cb6 <HAL_RCC_OscConfig+0x152>
 8001caa:	687b      	ldr	r3, [r7, #4]
 8001cac:	68db      	ldr	r3, [r3, #12]
 8001cae:	2b01      	cmp	r3, #1
 8001cb0:	d001      	beq.n	8001cb6 <HAL_RCC_OscConfig+0x152>
      {
        return HAL_ERROR;
 8001cb2:	2301      	movs	r3, #1
 8001cb4:	e1c7      	b.n	8002046 <HAL_RCC_OscConfig+0x4e2>
      }
      /* Otherwise, just the calibration is allowed */
      else
      {
        /* Adjusts the Internal High Speed oscillator (HSI) calibration value.*/
        __HAL_RCC_HSI_CALIBRATIONVALUE_ADJUST(RCC_OscInitStruct->HSICalibrationValue);
 8001cb6:	4b3b      	ldr	r3, [pc, #236]	@ (8001da4 <HAL_RCC_OscConfig+0x240>)
 8001cb8:	681b      	ldr	r3, [r3, #0]
 8001cba:	f023 02f8 	bic.w	r2, r3, #248	@ 0xf8
 8001cbe:	687b      	ldr	r3, [r7, #4]
 8001cc0:	691b      	ldr	r3, [r3, #16]
 8001cc2:	00db      	lsls	r3, r3, #3
 8001cc4:	4937      	ldr	r1, [pc, #220]	@ (8001da4 <HAL_RCC_OscConfig+0x240>)
 8001cc6:	4313      	orrs	r3, r2
 8001cc8:	600b      	str	r3, [r1, #0]
      if((__HAL_RCC_GET_FLAG(RCC_FLAG_HSIRDY) != RESET) && (RCC_OscInitStruct->HSIState != RCC_HSI_ON))
 8001cca:	e03a      	b.n	8001d42 <HAL_RCC_OscConfig+0x1de>
      }
    }
    else
    {
      /* Check the HSI State */
      if((RCC_OscInitStruct->HSIState)!= RCC_HSI_OFF)
 8001ccc:	687b      	ldr	r3, [r7, #4]
 8001cce:	68db      	ldr	r3, [r3, #12]
 8001cd0:	2b00      	cmp	r3, #0
 8001cd2:	d020      	beq.n	8001d16 <HAL_RCC_OscConfig+0x1b2>
      {
        /* Enable the Internal High Speed oscillator (HSI). */
        __HAL_RCC_HSI_ENABLE();
 8001cd4:	4b34      	ldr	r3, [pc, #208]	@ (8001da8 <HAL_RCC_OscConfig+0x244>)
 8001cd6:	2201      	movs	r2, #1
 8001cd8:	601a      	str	r2, [r3, #0]

        /* Get Start Tick*/
        tickstart = HAL_GetTick();
 8001cda:	f7ff fbd1 	bl	8001480 <HAL_GetTick>
 8001cde:	6138      	str	r0, [r7, #16]

        /* Wait till HSI is ready */
        while(__HAL_RCC_GET_FLAG(RCC_FLAG_HSIRDY) == RESET)
 8001ce0:	e008      	b.n	8001cf4 <HAL_RCC_OscConfig+0x190>
        {
          if((HAL_GetTick() - tickstart ) > HSI_TIMEOUT_VALUE)
 8001ce2:	f7ff fbcd 	bl	8001480 <HAL_GetTick>
 8001ce6:	4602      	mov	r2, r0
 8001ce8:	693b      	ldr	r3, [r7, #16]
 8001cea:	1ad3      	subs	r3, r2, r3
 8001cec:	2b02      	cmp	r3, #2
 8001cee:	d901      	bls.n	8001cf4 <HAL_RCC_OscConfig+0x190>
          {
            return HAL_TIMEOUT;
 8001cf0:	2303      	movs	r3, #3
 8001cf2:	e1a8      	b.n	8002046 <HAL_RCC_OscConfig+0x4e2>
        while(__HAL_RCC_GET_FLAG(RCC_FLAG_HSIRDY) == RESET)
 8001cf4:	4b2b      	ldr	r3, [pc, #172]	@ (8001da4 <HAL_RCC_OscConfig+0x240>)
 8001cf6:	681b      	ldr	r3, [r3, #0]
 8001cf8:	f003 0302 	and.w	r3, r3, #2
 8001cfc:	2b00      	cmp	r3, #0
 8001cfe:	d0f0      	beq.n	8001ce2 <HAL_RCC_OscConfig+0x17e>
          }
        }

        /* Adjusts the Internal High Speed oscillator (HSI) calibration value. */
        __HAL_RCC_HSI_CALIBRATIONVALUE_ADJUST(RCC_OscInitStruct->HSICalibrationValue);
 8001d00:	4b28      	ldr	r3, [pc, #160]	@ (8001da4 <HAL_RCC_OscConfig+0x240>)
 8001d02:	681b      	ldr	r3, [r3, #0]
 8001d04:	f023 02f8 	bic.w	r2, r3, #248	@ 0xf8
 8001d08:	687b      	ldr	r3, [r7, #4]
 8001d0a:	691b      	ldr	r3, [r3, #16]
 8001d0c:	00db      	lsls	r3, r3, #3
 8001d0e:	4925      	ldr	r1, [pc, #148]	@ (8001da4 <HAL_RCC_OscConfig+0x240>)
 8001d10:	4313      	orrs	r3, r2
 8001d12:	600b      	str	r3, [r1, #0]
 8001d14:	e015      	b.n	8001d42 <HAL_RCC_OscConfig+0x1de>
      }
      else
      {
        /* Disable the Internal High Speed oscillator (HSI). */
        __HAL_RCC_HSI_DISABLE();
 8001d16:	4b24      	ldr	r3, [pc, #144]	@ (8001da8 <HAL_RCC_OscConfig+0x244>)
 8001d18:	2200      	movs	r2, #0
 8001d1a:	601a      	str	r2, [r3, #0]

        /* Get Start Tick*/
        tickstart = HAL_GetTick();
 8001d1c:	f7ff fbb0 	bl	8001480 <HAL_GetTick>
 8001d20:	6138      	str	r0, [r7, #16]

        /* Wait till HSI is ready */
        while(__HAL_RCC_GET_FLAG(RCC_FLAG_HSIRDY) != RESET)
 8001d22:	e008      	b.n	8001d36 <HAL_RCC_OscConfig+0x1d2>
        {
          if((HAL_GetTick() - tickstart ) > HSI_TIMEOUT_VALUE)
 8001d24:	f7ff fbac 	bl	8001480 <HAL_GetTick>
 8001d28:	4602      	mov	r2, r0
 8001d2a:	693b      	ldr	r3, [r7, #16]
 8001d2c:	1ad3      	subs	r3, r2, r3
 8001d2e:	2b02      	cmp	r3, #2
 8001d30:	d901      	bls.n	8001d36 <HAL_RCC_OscConfig+0x1d2>
          {
            return HAL_TIMEOUT;
 8001d32:	2303      	movs	r3, #3
 8001d34:	e187      	b.n	8002046 <HAL_RCC_OscConfig+0x4e2>
        while(__HAL_RCC_GET_FLAG(RCC_FLAG_HSIRDY) != RESET)
 8001d36:	4b1b      	ldr	r3, [pc, #108]	@ (8001da4 <HAL_RCC_OscConfig+0x240>)
 8001d38:	681b      	ldr	r3, [r3, #0]
 8001d3a:	f003 0302 	and.w	r3, r3, #2
 8001d3e:	2b00      	cmp	r3, #0
 8001d40:	d1f0      	bne.n	8001d24 <HAL_RCC_OscConfig+0x1c0>
        }
      }
    }
  }
  /*------------------------------ LSI Configuration -------------------------*/
  if(((RCC_OscInitStruct->OscillatorType) & RCC_OSCILLATORTYPE_LSI) == RCC_OSCILLATORTYPE_LSI)
 8001d42:	687b      	ldr	r3, [r7, #4]
 8001d44:	681b      	ldr	r3, [r3, #0]
 8001d46:	f003 0308 	and.w	r3, r3, #8
 8001d4a:	2b00      	cmp	r3, #0
 8001d4c:	d036      	beq.n	8001dbc <HAL_RCC_OscConfig+0x258>
  {
    /* Check the parameters */
    assert_param(IS_RCC_LSI(RCC_OscInitStruct->LSIState));

    /* Check the LSI State */
    if((RCC_OscInitStruct->LSIState)!= RCC_LSI_OFF)
 8001d4e:	687b      	ldr	r3, [r7, #4]
 8001d50:	695b      	ldr	r3, [r3, #20]
 8001d52:	2b00      	cmp	r3, #0
 8001d54:	d016      	beq.n	8001d84 <HAL_RCC_OscConfig+0x220>
    {
      /* Enable the Internal Low Speed oscillator (LSI). */
      __HAL_RCC_LSI_ENABLE();
 8001d56:	4b15      	ldr	r3, [pc, #84]	@ (8001dac <HAL_RCC_OscConfig+0x248>)
 8001d58:	2201      	movs	r2, #1
 8001d5a:	601a      	str	r2, [r3, #0]

      /* Get Start Tick*/
      tickstart = HAL_GetTick();
 8001d5c:	f7ff fb90 	bl	8001480 <HAL_GetTick>
 8001d60:	6138      	str	r0, [r7, #16]

      /* Wait till LSI is ready */
      while(__HAL_RCC_GET_FLAG(RCC_FLAG_LSIRDY) == RESET)
 8001d62:	e008      	b.n	8001d76 <HAL_RCC_OscConfig+0x212>
      {
        if((HAL_GetTick() - tickstart ) > LSI_TIMEOUT_VALUE)
 8001d64:	f7ff fb8c 	bl	8001480 <HAL_GetTick>
 8001d68:	4602      	mov	r2, r0
 8001d6a:	693b      	ldr	r3, [r7, #16]
 8001d6c:	1ad3      	subs	r3, r2, r3
 8001d6e:	2b02      	cmp	r3, #2
 8001d70:	d901      	bls.n	8001d76 <HAL_RCC_OscConfig+0x212>
        {
          return HAL_TIMEOUT;
 8001d72:	2303      	movs	r3, #3
 8001d74:	e167      	b.n	8002046 <HAL_RCC_OscConfig+0x4e2>
      while(__HAL_RCC_GET_FLAG(RCC_FLAG_LSIRDY) == RESET)
 8001d76:	4b0b      	ldr	r3, [pc, #44]	@ (8001da4 <HAL_RCC_OscConfig+0x240>)
 8001d78:	6f5b      	ldr	r3, [r3, #116]	@ 0x74
 8001d7a:	f003 0302 	and.w	r3, r3, #2
 8001d7e:	2b00      	cmp	r3, #0
 8001d80:	d0f0      	beq.n	8001d64 <HAL_RCC_OscConfig+0x200>
 8001d82:	e01b      	b.n	8001dbc <HAL_RCC_OscConfig+0x258>
      }
    }
    else
    {
      /* Disable the Internal Low Speed oscillator (LSI). */
      __HAL_RCC_LSI_DISABLE();
 8001d84:	4b09      	ldr	r3, [pc, #36]	@ (8001dac <HAL_RCC_OscConfig+0x248>)
 8001d86:	2200      	movs	r2, #0
 8001d88:	601a      	str	r2, [r3, #0]

      /* Get Start Tick */
      tickstart = HAL_GetTick();
 8001d8a:	f7ff fb79 	bl	8001480 <HAL_GetTick>
 8001d8e:	6138      	str	r0, [r7, #16]

      /* Wait till LSI is ready */
      while(__HAL_RCC_GET_FLAG(RCC_FLAG_LSIRDY) != RESET)
 8001d90:	e00e      	b.n	8001db0 <HAL_RCC_OscConfig+0x24c>
      {
        if((HAL_GetTick() - tickstart ) > LSI_TIMEOUT_VALUE)
 8001d92:	f7ff fb75 	bl	8001480 <HAL_GetTick>
 8001d96:	4602      	mov	r2, r0
 8001d98:	693b      	ldr	r3, [r7, #16]
 8001d9a:	1ad3      	subs	r3, r2, r3
 8001d9c:	2b02      	cmp	r3, #2
 8001d9e:	d907      	bls.n	8001db0 <HAL_RCC_OscConfig+0x24c>
        {
          return HAL_TIMEOUT;
 8001da0:	2303      	movs	r3, #3
 8001da2:	e150      	b.n	8002046 <HAL_RCC_OscConfig+0x4e2>
 8001da4:	40023800 	.word	0x40023800
 8001da8:	42470000 	.word	0x42470000
 8001dac:	42470e80 	.word	0x42470e80
      while(__HAL_RCC_GET_FLAG(RCC_FLAG_LSIRDY) != RESET)
 8001db0:	4b88      	ldr	r3, [pc, #544]	@ (8001fd4 <HAL_RCC_OscConfig+0x470>)
 8001db2:	6f5b      	ldr	r3, [r3, #116]	@ 0x74
 8001db4:	f003 0302 	and.w	r3, r3, #2
 8001db8:	2b00      	cmp	r3, #0
 8001dba:	d1ea      	bne.n	8001d92 <HAL_RCC_OscConfig+0x22e>
        }
      }
    }
  }
  /*------------------------------ LSE Configuration -------------------------*/
  if(((RCC_OscInitStruct->OscillatorType) & RCC_OSCILLATORTYPE_LSE) == RCC_OSCILLATORTYPE_LSE)
 8001dbc:	687b      	ldr	r3, [r7, #4]
 8001dbe:	681b      	ldr	r3, [r3, #0]
 8001dc0:	f003 0304 	and.w	r3, r3, #4
 8001dc4:	2b00      	cmp	r3, #0
 8001dc6:	f000 8097 	beq.w	8001ef8 <HAL_RCC_OscConfig+0x394>
  {
    FlagStatus       pwrclkchanged = RESET;
 8001dca:	2300      	movs	r3, #0
 8001dcc:	75fb      	strb	r3, [r7, #23]
    /* Check the parameters */
    assert_param(IS_RCC_LSE(RCC_OscInitStruct->LSEState));

    /* Update LSE configuration in Backup Domain control register    */
    /* Requires to enable write access to Backup Domain of necessary */
    if(__HAL_RCC_PWR_IS_CLK_DISABLED())
 8001dce:	4b81      	ldr	r3, [pc, #516]	@ (8001fd4 <HAL_RCC_OscConfig+0x470>)
 8001dd0:	6c1b      	ldr	r3, [r3, #64]	@ 0x40
 8001dd2:	f003 5380 	and.w	r3, r3, #268435456	@ 0x10000000
 8001dd6:	2b00      	cmp	r3, #0
 8001dd8:	d10f      	bne.n	8001dfa <HAL_RCC_OscConfig+0x296>
    {
      __HAL_RCC_PWR_CLK_ENABLE();
 8001dda:	2300      	movs	r3, #0
 8001ddc:	60bb      	str	r3, [r7, #8]
 8001dde:	4b7d      	ldr	r3, [pc, #500]	@ (8001fd4 <HAL_RCC_OscConfig+0x470>)
 8001de0:	6c1b      	ldr	r3, [r3, #64]	@ 0x40
 8001de2:	4a7c      	ldr	r2, [pc, #496]	@ (8001fd4 <HAL_RCC_OscConfig+0x470>)
 8001de4:	f043 5380 	orr.w	r3, r3, #268435456	@ 0x10000000
 8001de8:	6413      	str	r3, [r2, #64]	@ 0x40
 8001dea:	4b7a      	ldr	r3, [pc, #488]	@ (8001fd4 <HAL_RCC_OscConfig+0x470>)
 8001dec:	6c1b      	ldr	r3, [r3, #64]	@ 0x40
 8001dee:	f003 5380 	and.w	r3, r3, #268435456	@ 0x10000000
 8001df2:	60bb      	str	r3, [r7, #8]
 8001df4:	68bb      	ldr	r3, [r7, #8]
      pwrclkchanged = SET;
 8001df6:	2301      	movs	r3, #1
 8001df8:	75fb      	strb	r3, [r7, #23]
    }

    if(HAL_IS_BIT_CLR(PWR->CR, PWR_CR_DBP))
 8001dfa:	4b77      	ldr	r3, [pc, #476]	@ (8001fd8 <HAL_RCC_OscConfig+0x474>)
 8001dfc:	681b      	ldr	r3, [r3, #0]
 8001dfe:	f403 7380 	and.w	r3, r3, #256	@ 0x100
 8001e02:	2b00      	cmp	r3, #0
 8001e04:	d118      	bne.n	8001e38 <HAL_RCC_OscConfig+0x2d4>
    {
      /* Enable write access to Backup domain */
      SET_BIT(PWR->CR, PWR_CR_DBP);
 8001e06:	4b74      	ldr	r3, [pc, #464]	@ (8001fd8 <HAL_RCC_OscConfig+0x474>)
 8001e08:	681b      	ldr	r3, [r3, #0]
 8001e0a:	4a73      	ldr	r2, [pc, #460]	@ (8001fd8 <HAL_RCC_OscConfig+0x474>)
 8001e0c:	f443 7380 	orr.w	r3, r3, #256	@ 0x100
 8001e10:	6013      	str	r3, [r2, #0]

      /* Wait for Backup domain Write protection disable */
      tickstart = HAL_GetTick();
 8001e12:	f7ff fb35 	bl	8001480 <HAL_GetTick>
 8001e16:	6138      	str	r0, [r7, #16]

      while(HAL_IS_BIT_CLR(PWR->CR, PWR_CR_DBP))
 8001e18:	e008      	b.n	8001e2c <HAL_RCC_OscConfig+0x2c8>
      {
        if((HAL_GetTick() - tickstart) > RCC_DBP_TIMEOUT_VALUE)
 8001e1a:	f7ff fb31 	bl	8001480 <HAL_GetTick>
 8001e1e:	4602      	mov	r2, r0
 8001e20:	693b      	ldr	r3, [r7, #16]
 8001e22:	1ad3      	subs	r3, r2, r3
 8001e24:	2b02      	cmp	r3, #2
 8001e26:	d901      	bls.n	8001e2c <HAL_RCC_OscConfig+0x2c8>
        {
          return HAL_TIMEOUT;
 8001e28:	2303      	movs	r3, #3
 8001e2a:	e10c      	b.n	8002046 <HAL_RCC_OscConfig+0x4e2>
      while(HAL_IS_BIT_CLR(PWR->CR, PWR_CR_DBP))
 8001e2c:	4b6a      	ldr	r3, [pc, #424]	@ (8001fd8 <HAL_RCC_OscConfig+0x474>)
 8001e2e:	681b      	ldr	r3, [r3, #0]
 8001e30:	f403 7380 	and.w	r3, r3, #256	@ 0x100
 8001e34:	2b00      	cmp	r3, #0
 8001e36:	d0f0      	beq.n	8001e1a <HAL_RCC_OscConfig+0x2b6>
        }
      }
    }

    /* Set the new LSE configuration -----------------------------------------*/
    __HAL_RCC_LSE_CONFIG(RCC_OscInitStruct->LSEState);
 8001e38:	687b      	ldr	r3, [r7, #4]
 8001e3a:	689b      	ldr	r3, [r3, #8]
 8001e3c:	2b01      	cmp	r3, #1
 8001e3e:	d106      	bne.n	8001e4e <HAL_RCC_OscConfig+0x2ea>
 8001e40:	4b64      	ldr	r3, [pc, #400]	@ (8001fd4 <HAL_RCC_OscConfig+0x470>)
 8001e42:	6f1b      	ldr	r3, [r3, #112]	@ 0x70
 8001e44:	4a63      	ldr	r2, [pc, #396]	@ (8001fd4 <HAL_RCC_OscConfig+0x470>)
 8001e46:	f043 0301 	orr.w	r3, r3, #1
 8001e4a:	6713      	str	r3, [r2, #112]	@ 0x70
 8001e4c:	e01c      	b.n	8001e88 <HAL_RCC_OscConfig+0x324>
 8001e4e:	687b      	ldr	r3, [r7, #4]
 8001e50:	689b      	ldr	r3, [r3, #8]
 8001e52:	2b05      	cmp	r3, #5
 8001e54:	d10c      	bne.n	8001e70 <HAL_RCC_OscConfig+0x30c>
 8001e56:	4b5f      	ldr	r3, [pc, #380]	@ (8001fd4 <HAL_RCC_OscConfig+0x470>)
 8001e58:	6f1b      	ldr	r3, [r3, #112]	@ 0x70
 8001e5a:	4a5e      	ldr	r2, [pc, #376]	@ (8001fd4 <HAL_RCC_OscConfig+0x470>)
 8001e5c:	f043 0304 	orr.w	r3, r3, #4
 8001e60:	6713      	str	r3, [r2, #112]	@ 0x70
 8001e62:	4b5c      	ldr	r3, [pc, #368]	@ (8001fd4 <HAL_RCC_OscConfig+0x470>)
 8001e64:	6f1b      	ldr	r3, [r3, #112]	@ 0x70
 8001e66:	4a5b      	ldr	r2, [pc, #364]	@ (8001fd4 <HAL_RCC_OscConfig+0x470>)
 8001e68:	f043 0301 	orr.w	r3, r3, #1
 8001e6c:	6713      	str	r3, [r2, #112]	@ 0x70
 8001e6e:	e00b      	b.n	8001e88 <HAL_RCC_OscConfig+0x324>
 8001e70:	4b58      	ldr	r3, [pc, #352]	@ (8001fd4 <HAL_RCC_OscConfig+0x470>)
 8001e72:	6f1b      	ldr	r3, [r3, #112]	@ 0x70
 8001e74:	4a57      	ldr	r2, [pc, #348]	@ (8001fd4 <HAL_RCC_OscConfig+0x470>)
 8001e76:	f023 0301 	bic.w	r3, r3, #1
 8001e7a:	6713      	str	r3, [r2, #112]	@ 0x70
 8001e7c:	4b55      	ldr	r3, [pc, #340]	@ (8001fd4 <HAL_RCC_OscConfig+0x470>)
 8001e7e:	6f1b      	ldr	r3, [r3, #112]	@ 0x70
 8001e80:	4a54      	ldr	r2, [pc, #336]	@ (8001fd4 <HAL_RCC_OscConfig+0x470>)
 8001e82:	f023 0304 	bic.w	r3, r3, #4
 8001e86:	6713      	str	r3, [r2, #112]	@ 0x70
    /* Check the LSE State */
    if((RCC_OscInitStruct->LSEState) != RCC_LSE_OFF)
 8001e88:	687b      	ldr	r3, [r7, #4]
 8001e8a:	689b      	ldr	r3, [r3, #8]
 8001e8c:	2b00      	cmp	r3, #0
 8001e8e:	d015      	beq.n	8001ebc <HAL_RCC_OscConfig+0x358>
    {
      /* Get Start Tick*/
      tickstart = HAL_GetTick();
 8001e90:	f7ff faf6 	bl	8001480 <HAL_GetTick>
 8001e94:	6138      	str	r0, [r7, #16]

      /* Wait till LSE is ready */
      while(__HAL_RCC_GET_FLAG(RCC_FLAG_LSERDY) == RESET)
 8001e96:	e00a      	b.n	8001eae <HAL_RCC_OscConfig+0x34a>
      {
        if((HAL_GetTick() - tickstart ) > RCC_LSE_TIMEOUT_VALUE)
 8001e98:	f7ff faf2 	bl	8001480 <HAL_GetTick>
 8001e9c:	4602      	mov	r2, r0
 8001e9e:	693b      	ldr	r3, [r7, #16]
 8001ea0:	1ad3      	subs	r3, r2, r3
 8001ea2:	f241 3288 	movw	r2, #5000	@ 0x1388
 8001ea6:	4293      	cmp	r3, r2
 8001ea8:	d901      	bls.n	8001eae <HAL_RCC_OscConfig+0x34a>
        {
          return HAL_TIMEOUT;
 8001eaa:	2303      	movs	r3, #3
 8001eac:	e0cb      	b.n	8002046 <HAL_RCC_OscConfig+0x4e2>
      while(__HAL_RCC_GET_FLAG(RCC_FLAG_LSERDY) == RESET)
 8001eae:	4b49      	ldr	r3, [pc, #292]	@ (8001fd4 <HAL_RCC_OscConfig+0x470>)
 8001eb0:	6f1b      	ldr	r3, [r3, #112]	@ 0x70
 8001eb2:	f003 0302 	and.w	r3, r3, #2
 8001eb6:	2b00      	cmp	r3, #0
 8001eb8:	d0ee      	beq.n	8001e98 <HAL_RCC_OscConfig+0x334>
 8001eba:	e014      	b.n	8001ee6 <HAL_RCC_OscConfig+0x382>
      }
    }
    else
    {
      /* Get Start Tick */
      tickstart = HAL_GetTick();
 8001ebc:	f7ff fae0 	bl	8001480 <HAL_GetTick>
 8001ec0:	6138      	str	r0, [r7, #16]

      /* Wait till LSE is ready */
      while(__HAL_RCC_GET_FLAG(RCC_FLAG_LSERDY) != RESET)
 8001ec2:	e00a      	b.n	8001eda <HAL_RCC_OscConfig+0x376>
      {
        if((HAL_GetTick() - tickstart ) > RCC_LSE_TIMEOUT_VALUE)
 8001ec4:	f7ff fadc 	bl	8001480 <HAL_GetTick>
 8001ec8:	4602      	mov	r2, r0
 8001eca:	693b      	ldr	r3, [r7, #16]
 8001ecc:	1ad3      	subs	r3, r2, r3
 8001ece:	f241 3288 	movw	r2, #5000	@ 0x1388
 8001ed2:	4293      	cmp	r3, r2
 8001ed4:	d901      	bls.n	8001eda <HAL_RCC_OscConfig+0x376>
        {
          return HAL_TIMEOUT;
 8001ed6:	2303      	movs	r3, #3
 8001ed8:	e0b5      	b.n	8002046 <HAL_RCC_OscConfig+0x4e2>
      while(__HAL_RCC_GET_FLAG(RCC_FLAG_LSERDY) != RESET)
 8001eda:	4b3e      	ldr	r3, [pc, #248]	@ (8001fd4 <HAL_RCC_OscConfig+0x470>)
 8001edc:	6f1b      	ldr	r3, [r3, #112]	@ 0x70
 8001ede:	f003 0302 	and.w	r3, r3, #2
 8001ee2:	2b00      	cmp	r3, #0
 8001ee4:	d1ee      	bne.n	8001ec4 <HAL_RCC_OscConfig+0x360>
        }
      }
    }

    /* Restore clock configuration if changed */
    if(pwrclkchanged == SET)
 8001ee6:	7dfb      	ldrb	r3, [r7, #23]
 8001ee8:	2b01      	cmp	r3, #1
 8001eea:	d105      	bne.n	8001ef8 <HAL_RCC_OscConfig+0x394>
    {
      __HAL_RCC_PWR_CLK_DISABLE();
 8001eec:	4b39      	ldr	r3, [pc, #228]	@ (8001fd4 <HAL_RCC_OscConfig+0x470>)
 8001eee:	6c1b      	ldr	r3, [r3, #64]	@ 0x40
 8001ef0:	4a38      	ldr	r2, [pc, #224]	@ (8001fd4 <HAL_RCC_OscConfig+0x470>)
 8001ef2:	f023 5380 	bic.w	r3, r3, #268435456	@ 0x10000000
 8001ef6:	6413      	str	r3, [r2, #64]	@ 0x40
    }
  }
  /*-------------------------------- PLL Configuration -----------------------*/
  /* Check the parameters */
  assert_param(IS_RCC_PLL(RCC_OscInitStruct->PLL.PLLState));
  if ((RCC_OscInitStruct->PLL.PLLState) != RCC_PLL_NONE)
 8001ef8:	687b      	ldr	r3, [r7, #4]
 8001efa:	699b      	ldr	r3, [r3, #24]
 8001efc:	2b00      	cmp	r3, #0
 8001efe:	f000 80a1 	beq.w	8002044 <HAL_RCC_OscConfig+0x4e0>
  {
    /* Check if the PLL is used as system clock or not */
    if(__HAL_RCC_GET_SYSCLK_SOURCE() != RCC_CFGR_SWS_PLL)
 8001f02:	4b34      	ldr	r3, [pc, #208]	@ (8001fd4 <HAL_RCC_OscConfig+0x470>)
 8001f04:	689b      	ldr	r3, [r3, #8]
 8001f06:	f003 030c 	and.w	r3, r3, #12
 8001f0a:	2b08      	cmp	r3, #8
 8001f0c:	d05c      	beq.n	8001fc8 <HAL_RCC_OscConfig+0x464>
    {
      if((RCC_OscInitStruct->PLL.PLLState) == RCC_PLL_ON)
 8001f0e:	687b      	ldr	r3, [r7, #4]
 8001f10:	699b      	ldr	r3, [r3, #24]
 8001f12:	2b02      	cmp	r3, #2
 8001f14:	d141      	bne.n	8001f9a <HAL_RCC_OscConfig+0x436>
        assert_param(IS_RCC_PLLN_VALUE(RCC_OscInitStruct->PLL.PLLN));
        assert_param(IS_RCC_PLLP_VALUE(RCC_OscInitStruct->PLL.PLLP));
        assert_param(IS_RCC_PLLQ_VALUE(RCC_OscInitStruct->PLL.PLLQ));

        /* Disable the main PLL. */
        __HAL_RCC_PLL_DISABLE();
 8001f16:	4b31      	ldr	r3, [pc, #196]	@ (8001fdc <HAL_RCC_OscConfig+0x478>)
 8001f18:	2200      	movs	r2, #0
 8001f1a:	601a      	str	r2, [r3, #0]

        /* Get Start Tick */
        tickstart = HAL_GetTick();
 8001f1c:	f7ff fab0 	bl	8001480 <HAL_GetTick>
 8001f20:	6138      	str	r0, [r7, #16]

        /* Wait till PLL is ready */
        while(__HAL_RCC_GET_FLAG(RCC_FLAG_PLLRDY) != RESET)
 8001f22:	e008      	b.n	8001f36 <HAL_RCC_OscConfig+0x3d2>
        {
          if((HAL_GetTick() - tickstart ) > PLL_TIMEOUT_VALUE)
 8001f24:	f7ff faac 	bl	8001480 <HAL_GetTick>
 8001f28:	4602      	mov	r2, r0
 8001f2a:	693b      	ldr	r3, [r7, #16]
 8001f2c:	1ad3      	subs	r3, r2, r3
 8001f2e:	2b02      	cmp	r3, #2
 8001f30:	d901      	bls.n	8001f36 <HAL_RCC_OscConfig+0x3d2>
          {
            return HAL_TIMEOUT;
 8001f32:	2303      	movs	r3, #3
 8001f34:	e087      	b.n	8002046 <HAL_RCC_OscConfig+0x4e2>
        while(__HAL_RCC_GET_FLAG(RCC_FLAG_PLLRDY) != RESET)
 8001f36:	4b27      	ldr	r3, [pc, #156]	@ (8001fd4 <HAL_RCC_OscConfig+0x470>)
 8001f38:	681b      	ldr	r3, [r3, #0]
 8001f3a:	f003 7300 	and.w	r3, r3, #33554432	@ 0x2000000
 8001f3e:	2b00      	cmp	r3, #0
 8001f40:	d1f0      	bne.n	8001f24 <HAL_RCC_OscConfig+0x3c0>
          }
        }

        /* Configure the main PLL clock source, multiplication and division factors. */
        WRITE_REG(RCC->PLLCFGR, (RCC_OscInitStruct->PLL.PLLSource                                            | \
 8001f42:	687b      	ldr	r3, [r7, #4]
 8001f44:	69da      	ldr	r2, [r3, #28]
 8001f46:	687b      	ldr	r3, [r7, #4]
 8001f48:	6a1b      	ldr	r3, [r3, #32]
 8001f4a:	431a      	orrs	r2, r3
 8001f4c:	687b      	ldr	r3, [r7, #4]
 8001f4e:	6a5b      	ldr	r3, [r3, #36]	@ 0x24
 8001f50:	019b      	lsls	r3, r3, #6
 8001f52:	431a      	orrs	r2, r3
 8001f54:	687b      	ldr	r3, [r7, #4]
 8001f56:	6a9b      	ldr	r3, [r3, #40]	@ 0x28
 8001f58:	085b      	lsrs	r3, r3, #1
 8001f5a:	3b01      	subs	r3, #1
 8001f5c:	041b      	lsls	r3, r3, #16
 8001f5e:	431a      	orrs	r2, r3
 8001f60:	687b      	ldr	r3, [r7, #4]
 8001f62:	6adb      	ldr	r3, [r3, #44]	@ 0x2c
 8001f64:	061b      	lsls	r3, r3, #24
 8001f66:	491b      	ldr	r1, [pc, #108]	@ (8001fd4 <HAL_RCC_OscConfig+0x470>)
 8001f68:	4313      	orrs	r3, r2
 8001f6a:	604b      	str	r3, [r1, #4]
                                 RCC_OscInitStruct->PLL.PLLM                                                 | \
                                 (RCC_OscInitStruct->PLL.PLLN << RCC_PLLCFGR_PLLN_Pos)             | \
                                 (((RCC_OscInitStruct->PLL.PLLP >> 1U) - 1U) << RCC_PLLCFGR_PLLP_Pos) | \
                                 (RCC_OscInitStruct->PLL.PLLQ << RCC_PLLCFGR_PLLQ_Pos)));
        /* Enable the main PLL. */
        __HAL_RCC_PLL_ENABLE();
 8001f6c:	4b1b      	ldr	r3, [pc, #108]	@ (8001fdc <HAL_RCC_OscConfig+0x478>)
 8001f6e:	2201      	movs	r2, #1
 8001f70:	601a      	str	r2, [r3, #0]

        /* Get Start Tick */
        tickstart = HAL_GetTick();
 8001f72:	f7ff fa85 	bl	8001480 <HAL_GetTick>
 8001f76:	6138      	str	r0, [r7, #16]

        /* Wait till PLL is ready */
        while(__HAL_RCC_GET_FLAG(RCC_FLAG_PLLRDY) == RESET)
 8001f78:	e008      	b.n	8001f8c <HAL_RCC_OscConfig+0x428>
        {
          if((HAL_GetTick() - tickstart ) > PLL_TIMEOUT_VALUE)
 8001f7a:	f7ff fa81 	bl	8001480 <HAL_GetTick>
 8001f7e:	4602      	mov	r2, r0
 8001f80:	693b      	ldr	r3, [r7, #16]
 8001f82:	1ad3      	subs	r3, r2, r3
 8001f84:	2b02      	cmp	r3, #2
 8001f86:	d901      	bls.n	8001f8c <HAL_RCC_OscConfig+0x428>
          {
            return HAL_TIMEOUT;
 8001f88:	2303      	movs	r3, #3
 8001f8a:	e05c      	b.n	8002046 <HAL_RCC_OscConfig+0x4e2>
        while(__HAL_RCC_GET_FLAG(RCC_FLAG_PLLRDY) == RESET)
 8001f8c:	4b11      	ldr	r3, [pc, #68]	@ (8001fd4 <HAL_RCC_OscConfig+0x470>)
 8001f8e:	681b      	ldr	r3, [r3, #0]
 8001f90:	f003 7300 	and.w	r3, r3, #33554432	@ 0x2000000
 8001f94:	2b00      	cmp	r3, #0
 8001f96:	d0f0      	beq.n	8001f7a <HAL_RCC_OscConfig+0x416>
 8001f98:	e054      	b.n	8002044 <HAL_RCC_OscConfig+0x4e0>
        }
      }
      else
      {
        /* Disable the main PLL. */
        __HAL_RCC_PLL_DISABLE();
 8001f9a:	4b10      	ldr	r3, [pc, #64]	@ (8001fdc <HAL_RCC_OscConfig+0x478>)
 8001f9c:	2200      	movs	r2, #0
 8001f9e:	601a      	str	r2, [r3, #0]

        /* Get Start Tick */
        tickstart = HAL_GetTick();
 8001fa0:	f7ff fa6e 	bl	8001480 <HAL_GetTick>
 8001fa4:	6138      	str	r0, [r7, #16]

        /* Wait till PLL is ready */
        while(__HAL_RCC_GET_FLAG(RCC_FLAG_PLLRDY) != RESET)
 8001fa6:	e008      	b.n	8001fba <HAL_RCC_OscConfig+0x456>
        {
          if((HAL_GetTick() - tickstart ) > PLL_TIMEOUT_VALUE)
 8001fa8:	f7ff fa6a 	bl	8001480 <HAL_GetTick>
 8001fac:	4602      	mov	r2, r0
 8001fae:	693b      	ldr	r3, [r7, #16]
 8001fb0:	1ad3      	subs	r3, r2, r3
 8001fb2:	2b02      	cmp	r3, #2
 8001fb4:	d901      	bls.n	8001fba <HAL_RCC_OscConfig+0x456>
          {
            return HAL_TIMEOUT;
 8001fb6:	2303      	movs	r3, #3
 8001fb8:	e045      	b.n	8002046 <HAL_RCC_OscConfig+0x4e2>
        while(__HAL_RCC_GET_FLAG(RCC_FLAG_PLLRDY) != RESET)
 8001fba:	4b06      	ldr	r3, [pc, #24]	@ (8001fd4 <HAL_RCC_OscConfig+0x470>)
 8001fbc:	681b      	ldr	r3, [r3, #0]
 8001fbe:	f003 7300 	and.w	r3, r3, #33554432	@ 0x2000000
 8001fc2:	2b00      	cmp	r3, #0
 8001fc4:	d1f0      	bne.n	8001fa8 <HAL_RCC_OscConfig+0x444>
 8001fc6:	e03d      	b.n	8002044 <HAL_RCC_OscConfig+0x4e0>
      }
    }
    else
    {
      /* Check if there is a request to disable the PLL used as System clock source */
      if((RCC_OscInitStruct->PLL.PLLState) == RCC_PLL_OFF)
 8001fc8:	687b      	ldr	r3, [r7, #4]
 8001fca:	699b      	ldr	r3, [r3, #24]
 8001fcc:	2b01      	cmp	r3, #1
 8001fce:	d107      	bne.n	8001fe0 <HAL_RCC_OscConfig+0x47c>
      {
        return HAL_ERROR;
 8001fd0:	2301      	movs	r3, #1
 8001fd2:	e038      	b.n	8002046 <HAL_RCC_OscConfig+0x4e2>
 8001fd4:	40023800 	.word	0x40023800
 8001fd8:	40007000 	.word	0x40007000
 8001fdc:	42470060 	.word	0x42470060
      }
      else
      {
        /* Do not return HAL_ERROR if request repeats the current configuration */
        pll_config = RCC->PLLCFGR;
 8001fe0:	4b1b      	ldr	r3, [pc, #108]	@ (8002050 <HAL_RCC_OscConfig+0x4ec>)
 8001fe2:	685b      	ldr	r3, [r3, #4]
 8001fe4:	60fb      	str	r3, [r7, #12]
            (READ_BIT(pll_config, RCC_PLLCFGR_PLLN) != (RCC_OscInitStruct->PLL.PLLN) << RCC_PLLCFGR_PLLN_Pos) ||
            (READ_BIT(pll_config, RCC_PLLCFGR_PLLP) != (((RCC_OscInitStruct->PLL.PLLP >> 1U) - 1U)) << RCC_PLLCFGR_PLLP_Pos) ||
            (READ_BIT(pll_config, RCC_PLLCFGR_PLLQ) != (RCC_OscInitStruct->PLL.PLLQ << RCC_PLLCFGR_PLLQ_Pos)) ||
            (READ_BIT(pll_config, RCC_PLLCFGR_PLLR) != (RCC_OscInitStruct->PLL.PLLR << RCC_PLLCFGR_PLLR_Pos)))
#else
        if (((RCC_OscInitStruct->PLL.PLLState) == RCC_PLL_OFF) ||
 8001fe6:	687b      	ldr	r3, [r7, #4]
 8001fe8:	699b      	ldr	r3, [r3, #24]
 8001fea:	2b01      	cmp	r3, #1
 8001fec:	d028      	beq.n	8002040 <HAL_RCC_OscConfig+0x4dc>
            (READ_BIT(pll_config, RCC_PLLCFGR_PLLSRC) != RCC_OscInitStruct->PLL.PLLSource) ||
 8001fee:	68fb      	ldr	r3, [r7, #12]
 8001ff0:	f403 0280 	and.w	r2, r3, #4194304	@ 0x400000
 8001ff4:	687b      	ldr	r3, [r7, #4]
 8001ff6:	69db      	ldr	r3, [r3, #28]
        if (((RCC_OscInitStruct->PLL.PLLState) == RCC_PLL_OFF) ||
 8001ff8:	429a      	cmp	r2, r3
 8001ffa:	d121      	bne.n	8002040 <HAL_RCC_OscConfig+0x4dc>
            (READ_BIT(pll_config, RCC_PLLCFGR_PLLM) != (RCC_OscInitStruct->PLL.PLLM) << RCC_PLLCFGR_PLLM_Pos) ||
 8001ffc:	68fb      	ldr	r3, [r7, #12]
 8001ffe:	f003 023f 	and.w	r2, r3, #63	@ 0x3f
 8002002:	687b      	ldr	r3, [r7, #4]
 8002004:	6a1b      	ldr	r3, [r3, #32]
            (READ_BIT(pll_config, RCC_PLLCFGR_PLLSRC) != RCC_OscInitStruct->PLL.PLLSource) ||
 8002006:	429a      	cmp	r2, r3
 8002008:	d11a      	bne.n	8002040 <HAL_RCC_OscConfig+0x4dc>
            (READ_BIT(pll_config, RCC_PLLCFGR_PLLN) != (RCC_OscInitStruct->PLL.PLLN) << RCC_PLLCFGR_PLLN_Pos) ||
 800200a:	68fa      	ldr	r2, [r7, #12]
 800200c:	f647 73c0 	movw	r3, #32704	@ 0x7fc0
 8002010:	4013      	ands	r3, r2
 8002012:	687a      	ldr	r2, [r7, #4]
 8002014:	6a52      	ldr	r2, [r2, #36]	@ 0x24
 8002016:	0192      	lsls	r2, r2, #6
            (READ_BIT(pll_config, RCC_PLLCFGR_PLLM) != (RCC_OscInitStruct->PLL.PLLM) << RCC_PLLCFGR_PLLM_Pos) ||
 8002018:	4293      	cmp	r3, r2
 800201a:	d111      	bne.n	8002040 <HAL_RCC_OscConfig+0x4dc>
            (READ_BIT(pll_config, RCC_PLLCFGR_PLLP) != (((RCC_OscInitStruct->PLL.PLLP >> 1U) - 1U)) << RCC_PLLCFGR_PLLP_Pos) ||
 800201c:	68fb      	ldr	r3, [r7, #12]
 800201e:	f403 3240 	and.w	r2, r3, #196608	@ 0x30000
 8002022:	687b      	ldr	r3, [r7, #4]
 8002024:	6a9b      	ldr	r3, [r3, #40]	@ 0x28
 8002026:	085b      	lsrs	r3, r3, #1
 8002028:	3b01      	subs	r3, #1
 800202a:	041b      	lsls	r3, r3, #16
            (READ_BIT(pll_config, RCC_PLLCFGR_PLLN) != (RCC_OscInitStruct->PLL.PLLN) << RCC_PLLCFGR_PLLN_Pos) ||
 800202c:	429a      	cmp	r2, r3
 800202e:	d107      	bne.n	8002040 <HAL_RCC_OscConfig+0x4dc>
            (READ_BIT(pll_config, RCC_PLLCFGR_PLLQ) != (RCC_OscInitStruct->PLL.PLLQ << RCC_PLLCFGR_PLLQ_Pos)))
 8002030:	68fb      	ldr	r3, [r7, #12]
 8002032:	f003 6270 	and.w	r2, r3, #251658240	@ 0xf000000
 8002036:	687b      	ldr	r3, [r7, #4]
 8002038:	6adb      	ldr	r3, [r3, #44]	@ 0x2c
 800203a:	061b      	lsls	r3, r3, #24
            (READ_BIT(pll_config, RCC_PLLCFGR_PLLP) != (((RCC_OscInitStruct->PLL.PLLP >> 1U) - 1U)) << RCC_PLLCFGR_PLLP_Pos) ||
 800203c:	429a      	cmp	r2, r3
 800203e:	d001      	beq.n	8002044 <HAL_RCC_OscConfig+0x4e0>
#endif
        {
          return HAL_ERROR;
 8002040:	2301      	movs	r3, #1
 8002042:	e000      	b.n	8002046 <HAL_RCC_OscConfig+0x4e2>
        }
      }
    }
  }
  return HAL_OK;
 8002044:	2300      	movs	r3, #0
}
 8002046:	4618      	mov	r0, r3
 8002048:	3718      	adds	r7, #24
 800204a:	46bd      	mov	sp, r7
 800204c:	bd80      	pop	{r7, pc}
 800204e:	bf00      	nop
 8002050:	40023800 	.word	0x40023800

08002054 <HAL_RCC_ClockConfig>:
  *         HPRE[3:0] bits to ensure that HCLK not exceed the maximum allowed frequency
  *         (for more details refer to section above "Initialization/de-initialization functions")
  * @retval None
  */
HAL_StatusTypeDef HAL_RCC_ClockConfig(RCC_ClkInitTypeDef  *RCC_ClkInitStruct, uint32_t FLatency)
{
 8002054:	b580      	push	{r7, lr}
 8002056:	b084      	sub	sp, #16
 8002058:	af00      	add	r7, sp, #0
 800205a:	6078      	str	r0, [r7, #4]
 800205c:	6039      	str	r1, [r7, #0]
  uint32_t tickstart;

  /* Check Null pointer */
  if(RCC_ClkInitStruct == NULL)
 800205e:	687b      	ldr	r3, [r7, #4]
 8002060:	2b00      	cmp	r3, #0
 8002062:	d101      	bne.n	8002068 <HAL_RCC_ClockConfig+0x14>
  {
    return HAL_ERROR;
 8002064:	2301      	movs	r3, #1
 8002066:	e0cc      	b.n	8002202 <HAL_RCC_ClockConfig+0x1ae>
  /* To correctly read data from FLASH memory, the number of wait states (LATENCY)
    must be correctly programmed according to the frequency of the CPU clock
    (HCLK) and the supply voltage of the device. */

  /* Increasing the number of wait states because of higher CPU frequency */
  if(FLatency > __HAL_FLASH_GET_LATENCY())
 8002068:	4b68      	ldr	r3, [pc, #416]	@ (800220c <HAL_RCC_ClockConfig+0x1b8>)
 800206a:	681b      	ldr	r3, [r3, #0]
 800206c:	f003 0307 	and.w	r3, r3, #7
 8002070:	683a      	ldr	r2, [r7, #0]
 8002072:	429a      	cmp	r2, r3
 8002074:	d90c      	bls.n	8002090 <HAL_RCC_ClockConfig+0x3c>
  {
    /* Program the new number of wait states to the LATENCY bits in the FLASH_ACR register */
    __HAL_FLASH_SET_LATENCY(FLatency);
 8002076:	4b65      	ldr	r3, [pc, #404]	@ (800220c <HAL_RCC_ClockConfig+0x1b8>)
 8002078:	683a      	ldr	r2, [r7, #0]
 800207a:	b2d2      	uxtb	r2, r2
 800207c:	701a      	strb	r2, [r3, #0]

    /* Check that the new number of wait states is taken into account to access the Flash
    memory by reading the FLASH_ACR register */
    if(__HAL_FLASH_GET_LATENCY() != FLatency)
 800207e:	4b63      	ldr	r3, [pc, #396]	@ (800220c <HAL_RCC_ClockConfig+0x1b8>)
 8002080:	681b      	ldr	r3, [r3, #0]
 8002082:	f003 0307 	and.w	r3, r3, #7
 8002086:	683a      	ldr	r2, [r7, #0]
 8002088:	429a      	cmp	r2, r3
 800208a:	d001      	beq.n	8002090 <HAL_RCC_ClockConfig+0x3c>
    {
      return HAL_ERROR;
 800208c:	2301      	movs	r3, #1
 800208e:	e0b8      	b.n	8002202 <HAL_RCC_ClockConfig+0x1ae>
    }
  }

  /*-------------------------- HCLK Configuration --------------------------*/
  if(((RCC_ClkInitStruct->ClockType) & RCC_CLOCKTYPE_HCLK) == RCC_CLOCKTYPE_HCLK)
 8002090:	687b      	ldr	r3, [r7, #4]
 8002092:	681b      	ldr	r3, [r3, #0]
 8002094:	f003 0302 	and.w	r3, r3, #2
 8002098:	2b00      	cmp	r3, #0
 800209a:	d020      	beq.n	80020de <HAL_RCC_ClockConfig+0x8a>
  {
    /* Set the highest APBx dividers in order to ensure that we do not go through
       a non-spec phase whatever we decrease or increase HCLK. */
    if(((RCC_ClkInitStruct->ClockType) & RCC_CLOCKTYPE_PCLK1) == RCC_CLOCKTYPE_PCLK1)
 800209c:	687b      	ldr	r3, [r7, #4]
 800209e:	681b      	ldr	r3, [r3, #0]
 80020a0:	f003 0304 	and.w	r3, r3, #4
 80020a4:	2b00      	cmp	r3, #0
 80020a6:	d005      	beq.n	80020b4 <HAL_RCC_ClockConfig+0x60>
    {
      MODIFY_REG(RCC->CFGR, RCC_CFGR_PPRE1, RCC_HCLK_DIV16);
 80020a8:	4b59      	ldr	r3, [pc, #356]	@ (8002210 <HAL_RCC_ClockConfig+0x1bc>)
 80020aa:	689b      	ldr	r3, [r3, #8]
 80020ac:	4a58      	ldr	r2, [pc, #352]	@ (8002210 <HAL_RCC_ClockConfig+0x1bc>)
 80020ae:	f443 53e0 	orr.w	r3, r3, #7168	@ 0x1c00
 80020b2:	6093      	str	r3, [r2, #8]
    }

    if(((RCC_ClkInitStruct->ClockType) & RCC_CLOCKTYPE_PCLK2) == RCC_CLOCKTYPE_PCLK2)
 80020b4:	687b      	ldr	r3, [r7, #4]
 80020b6:	681b      	ldr	r3, [r3, #0]
 80020b8:	f003 0308 	and.w	r3, r3, #8
 80020bc:	2b00      	cmp	r3, #0
 80020be:	d005      	beq.n	80020cc <HAL_RCC_ClockConfig+0x78>
    {
      MODIFY_REG(RCC->CFGR, RCC_CFGR_PPRE2, (RCC_HCLK_DIV16 << 3));
 80020c0:	4b53      	ldr	r3, [pc, #332]	@ (8002210 <HAL_RCC_ClockConfig+0x1bc>)
 80020c2:	689b      	ldr	r3, [r3, #8]
 80020c4:	4a52      	ldr	r2, [pc, #328]	@ (8002210 <HAL_RCC_ClockConfig+0x1bc>)
 80020c6:	f443 4360 	orr.w	r3, r3, #57344	@ 0xe000
 80020ca:	6093      	str	r3, [r2, #8]
    }

    assert_param(IS_RCC_HCLK(RCC_ClkInitStruct->AHBCLKDivider));
    MODIFY_REG(RCC->CFGR, RCC_CFGR_HPRE, RCC_ClkInitStruct->AHBCLKDivider);
 80020cc:	4b50      	ldr	r3, [pc, #320]	@ (8002210 <HAL_RCC_ClockConfig+0x1bc>)
 80020ce:	689b      	ldr	r3, [r3, #8]
 80020d0:	f023 02f0 	bic.w	r2, r3, #240	@ 0xf0
 80020d4:	687b      	ldr	r3, [r7, #4]
 80020d6:	689b      	ldr	r3, [r3, #8]
 80020d8:	494d      	ldr	r1, [pc, #308]	@ (8002210 <HAL_RCC_ClockConfig+0x1bc>)
 80020da:	4313      	orrs	r3, r2
 80020dc:	608b      	str	r3, [r1, #8]
  }

  /*------------------------- SYSCLK Configuration ---------------------------*/
  if(((RCC_ClkInitStruct->ClockType) & RCC_CLOCKTYPE_SYSCLK) == RCC_CLOCKTYPE_SYSCLK)
 80020de:	687b      	ldr	r3, [r7, #4]
 80020e0:	681b      	ldr	r3, [r3, #0]
 80020e2:	f003 0301 	and.w	r3, r3, #1
 80020e6:	2b00      	cmp	r3, #0
 80020e8:	d044      	beq.n	8002174 <HAL_RCC_ClockConfig+0x120>
  {
    assert_param(IS_RCC_SYSCLKSOURCE(RCC_ClkInitStruct->SYSCLKSource));

    /* HSE is selected as System Clock Source */
    if(RCC_ClkInitStruct->SYSCLKSource == RCC_SYSCLKSOURCE_HSE)
 80020ea:	687b      	ldr	r3, [r7, #4]
 80020ec:	685b      	ldr	r3, [r3, #4]
 80020ee:	2b01      	cmp	r3, #1
 80020f0:	d107      	bne.n	8002102 <HAL_RCC_ClockConfig+0xae>
    {
      /* Check the HSE ready flag */
      if(__HAL_RCC_GET_FLAG(RCC_FLAG_HSERDY) == RESET)
 80020f2:	4b47      	ldr	r3, [pc, #284]	@ (8002210 <HAL_RCC_ClockConfig+0x1bc>)
 80020f4:	681b      	ldr	r3, [r3, #0]
 80020f6:	f403 3300 	and.w	r3, r3, #131072	@ 0x20000
 80020fa:	2b00      	cmp	r3, #0
 80020fc:	d119      	bne.n	8002132 <HAL_RCC_ClockConfig+0xde>
      {
        return HAL_ERROR;
 80020fe:	2301      	movs	r3, #1
 8002100:	e07f      	b.n	8002202 <HAL_RCC_ClockConfig+0x1ae>
      }
    }
    /* PLL is selected as System Clock Source */
    else if((RCC_ClkInitStruct->SYSCLKSource == RCC_SYSCLKSOURCE_PLLCLK)   ||
 8002102:	687b      	ldr	r3, [r7, #4]
 8002104:	685b      	ldr	r3, [r3, #4]
 8002106:	2b02      	cmp	r3, #2
 8002108:	d003      	beq.n	8002112 <HAL_RCC_ClockConfig+0xbe>
            (RCC_ClkInitStruct->SYSCLKSource == RCC_SYSCLKSOURCE_PLLRCLK))
 800210a:	687b      	ldr	r3, [r7, #4]
 800210c:	685b      	ldr	r3, [r3, #4]
    else if((RCC_ClkInitStruct->SYSCLKSource == RCC_SYSCLKSOURCE_PLLCLK)   ||
 800210e:	2b03      	cmp	r3, #3
 8002110:	d107      	bne.n	8002122 <HAL_RCC_ClockConfig+0xce>
    {
      /* Check the PLL ready flag */
      if(__HAL_RCC_GET_FLAG(RCC_FLAG_PLLRDY) == RESET)
 8002112:	4b3f      	ldr	r3, [pc, #252]	@ (8002210 <HAL_RCC_ClockConfig+0x1bc>)
 8002114:	681b      	ldr	r3, [r3, #0]
 8002116:	f003 7300 	and.w	r3, r3, #33554432	@ 0x2000000
 800211a:	2b00      	cmp	r3, #0
 800211c:	d109      	bne.n	8002132 <HAL_RCC_ClockConfig+0xde>
      {
        return HAL_ERROR;
 800211e:	2301      	movs	r3, #1
 8002120:	e06f      	b.n	8002202 <HAL_RCC_ClockConfig+0x1ae>
    }
    /* HSI is selected as System Clock Source */
    else
    {
      /* Check the HSI ready flag */
      if(__HAL_RCC_GET_FLAG(RCC_FLAG_HSIRDY) == RESET)
 8002122:	4b3b      	ldr	r3, [pc, #236]	@ (8002210 <HAL_RCC_ClockConfig+0x1bc>)
 8002124:	681b      	ldr	r3, [r3, #0]
 8002126:	f003 0302 	and.w	r3, r3, #2
 800212a:	2b00      	cmp	r3, #0
 800212c:	d101      	bne.n	8002132 <HAL_RCC_ClockConfig+0xde>
      {
        return HAL_ERROR;
 800212e:	2301      	movs	r3, #1
 8002130:	e067      	b.n	8002202 <HAL_RCC_ClockConfig+0x1ae>
      }
    }

    __HAL_RCC_SYSCLK_CONFIG(RCC_ClkInitStruct->SYSCLKSource);
 8002132:	4b37      	ldr	r3, [pc, #220]	@ (8002210 <HAL_RCC_ClockConfig+0x1bc>)
 8002134:	689b      	ldr	r3, [r3, #8]
 8002136:	f023 0203 	bic.w	r2, r3, #3
 800213a:	687b      	ldr	r3, [r7, #4]
 800213c:	685b      	ldr	r3, [r3, #4]
 800213e:	4934      	ldr	r1, [pc, #208]	@ (8002210 <HAL_RCC_ClockConfig+0x1bc>)
 8002140:	4313      	orrs	r3, r2
 8002142:	608b      	str	r3, [r1, #8]

    /* Get Start Tick */
    tickstart = HAL_GetTick();
 8002144:	f7ff f99c 	bl	8001480 <HAL_GetTick>
 8002148:	60f8      	str	r0, [r7, #12]

    while (__HAL_RCC_GET_SYSCLK_SOURCE() != (RCC_ClkInitStruct->SYSCLKSource << RCC_CFGR_SWS_Pos))
 800214a:	e00a      	b.n	8002162 <HAL_RCC_ClockConfig+0x10e>
    {
      if ((HAL_GetTick() - tickstart) > CLOCKSWITCH_TIMEOUT_VALUE)
 800214c:	f7ff f998 	bl	8001480 <HAL_GetTick>
 8002150:	4602      	mov	r2, r0
 8002152:	68fb      	ldr	r3, [r7, #12]
 8002154:	1ad3      	subs	r3, r2, r3
 8002156:	f241 3288 	movw	r2, #5000	@ 0x1388
 800215a:	4293      	cmp	r3, r2
 800215c:	d901      	bls.n	8002162 <HAL_RCC_ClockConfig+0x10e>
      {
        return HAL_TIMEOUT;
 800215e:	2303      	movs	r3, #3
 8002160:	e04f      	b.n	8002202 <HAL_RCC_ClockConfig+0x1ae>
    while (__HAL_RCC_GET_SYSCLK_SOURCE() != (RCC_ClkInitStruct->SYSCLKSource << RCC_CFGR_SWS_Pos))
 8002162:	4b2b      	ldr	r3, [pc, #172]	@ (8002210 <HAL_RCC_ClockConfig+0x1bc>)
 8002164:	689b      	ldr	r3, [r3, #8]
 8002166:	f003 020c 	and.w	r2, r3, #12
 800216a:	687b      	ldr	r3, [r7, #4]
 800216c:	685b      	ldr	r3, [r3, #4]
 800216e:	009b      	lsls	r3, r3, #2
 8002170:	429a      	cmp	r2, r3
 8002172:	d1eb      	bne.n	800214c <HAL_RCC_ClockConfig+0xf8>
      }
    }
  }

  /* Decreasing the number of wait states because of lower CPU frequency */
  if(FLatency < __HAL_FLASH_GET_LATENCY())
 8002174:	4b25      	ldr	r3, [pc, #148]	@ (800220c <HAL_RCC_ClockConfig+0x1b8>)
 8002176:	681b      	ldr	r3, [r3, #0]
 8002178:	f003 0307 	and.w	r3, r3, #7
 800217c:	683a      	ldr	r2, [r7, #0]
 800217e:	429a      	cmp	r2, r3
 8002180:	d20c      	bcs.n	800219c <HAL_RCC_ClockConfig+0x148>
  {
     /* Program the new number of wait states to the LATENCY bits in the FLASH_ACR register */
    __HAL_FLASH_SET_LATENCY(FLatency);
 8002182:	4b22      	ldr	r3, [pc, #136]	@ (800220c <HAL_RCC_ClockConfig+0x1b8>)
 8002184:	683a      	ldr	r2, [r7, #0]
 8002186:	b2d2      	uxtb	r2, r2
 8002188:	701a      	strb	r2, [r3, #0]

    /* Check that the new number of wait states is taken into account to access the Flash
    memory by reading the FLASH_ACR register */
    if(__HAL_FLASH_GET_LATENCY() != FLatency)
 800218a:	4b20      	ldr	r3, [pc, #128]	@ (800220c <HAL_RCC_ClockConfig+0x1b8>)
 800218c:	681b      	ldr	r3, [r3, #0]
 800218e:	f003 0307 	and.w	r3, r3, #7
 8002192:	683a      	ldr	r2, [r7, #0]
 8002194:	429a      	cmp	r2, r3
 8002196:	d001      	beq.n	800219c <HAL_RCC_ClockConfig+0x148>
    {
      return HAL_ERROR;
 8002198:	2301      	movs	r3, #1
 800219a:	e032      	b.n	8002202 <HAL_RCC_ClockConfig+0x1ae>
    }
  }

  /*-------------------------- PCLK1 Configuration ---------------------------*/
  if(((RCC_ClkInitStruct->ClockType) & RCC_CLOCKTYPE_PCLK1) == RCC_CLOCKTYPE_PCLK1)
 800219c:	687b      	ldr	r3, [r7, #4]
 800219e:	681b      	ldr	r3, [r3, #0]
 80021a0:	f003 0304 	and.w	r3, r3, #4
 80021a4:	2b00      	cmp	r3, #0
 80021a6:	d008      	beq.n	80021ba <HAL_RCC_ClockConfig+0x166>
  {
    assert_param(IS_RCC_PCLK(RCC_ClkInitStruct->APB1CLKDivider));
    MODIFY_REG(RCC->CFGR, RCC_CFGR_PPRE1, RCC_ClkInitStruct->APB1CLKDivider);
 80021a8:	4b19      	ldr	r3, [pc, #100]	@ (8002210 <HAL_RCC_ClockConfig+0x1bc>)
 80021aa:	689b      	ldr	r3, [r3, #8]
 80021ac:	f423 52e0 	bic.w	r2, r3, #7168	@ 0x1c00
 80021b0:	687b      	ldr	r3, [r7, #4]
 80021b2:	68db      	ldr	r3, [r3, #12]
 80021b4:	4916      	ldr	r1, [pc, #88]	@ (8002210 <HAL_RCC_ClockConfig+0x1bc>)
 80021b6:	4313      	orrs	r3, r2
 80021b8:	608b      	str	r3, [r1, #8]
  }

  /*-------------------------- PCLK2 Configuration ---------------------------*/
  if(((RCC_ClkInitStruct->ClockType) & RCC_CLOCKTYPE_PCLK2) == RCC_CLOCKTYPE_PCLK2)
 80021ba:	687b      	ldr	r3, [r7, #4]
 80021bc:	681b      	ldr	r3, [r3, #0]
 80021be:	f003 0308 	and.w	r3, r3, #8
 80021c2:	2b00      	cmp	r3, #0
 80021c4:	d009      	beq.n	80021da <HAL_RCC_ClockConfig+0x186>
  {
    assert_param(IS_RCC_PCLK(RCC_ClkInitStruct->APB2CLKDivider));
    MODIFY_REG(RCC->CFGR, RCC_CFGR_PPRE2, ((RCC_ClkInitStruct->APB2CLKDivider) << 3U));
 80021c6:	4b12      	ldr	r3, [pc, #72]	@ (8002210 <HAL_RCC_ClockConfig+0x1bc>)
 80021c8:	689b      	ldr	r3, [r3, #8]
 80021ca:	f423 4260 	bic.w	r2, r3, #57344	@ 0xe000
 80021ce:	687b      	ldr	r3, [r7, #4]
 80021d0:	691b      	ldr	r3, [r3, #16]
 80021d2:	00db      	lsls	r3, r3, #3
 80021d4:	490e      	ldr	r1, [pc, #56]	@ (8002210 <HAL_RCC_ClockConfig+0x1bc>)
 80021d6:	4313      	orrs	r3, r2
 80021d8:	608b      	str	r3, [r1, #8]
  }

  /* Update the SystemCoreClock global variable */
  SystemCoreClock = HAL_RCC_GetSysClockFreq() >> AHBPrescTable[(RCC->CFGR & RCC_CFGR_HPRE)>> RCC_CFGR_HPRE_Pos];
 80021da:	f000 f821 	bl	8002220 <HAL_RCC_GetSysClockFreq>
 80021de:	4602      	mov	r2, r0
 80021e0:	4b0b      	ldr	r3, [pc, #44]	@ (8002210 <HAL_RCC_ClockConfig+0x1bc>)
 80021e2:	689b      	ldr	r3, [r3, #8]
 80021e4:	091b      	lsrs	r3, r3, #4
 80021e6:	f003 030f 	and.w	r3, r3, #15
 80021ea:	490a      	ldr	r1, [pc, #40]	@ (8002214 <HAL_RCC_ClockConfig+0x1c0>)
 80021ec:	5ccb      	ldrb	r3, [r1, r3]
 80021ee:	fa22 f303 	lsr.w	r3, r2, r3
 80021f2:	4a09      	ldr	r2, [pc, #36]	@ (8002218 <HAL_RCC_ClockConfig+0x1c4>)
 80021f4:	6013      	str	r3, [r2, #0]

  /* Configure the source of time base considering new system clocks settings */
  HAL_InitTick (uwTickPrio);
 80021f6:	4b09      	ldr	r3, [pc, #36]	@ (800221c <HAL_RCC_ClockConfig+0x1c8>)
 80021f8:	681b      	ldr	r3, [r3, #0]
 80021fa:	4618      	mov	r0, r3
 80021fc:	f7ff f8fc 	bl	80013f8 <HAL_InitTick>

  return HAL_OK;
 8002200:	2300      	movs	r3, #0
}
 8002202:	4618      	mov	r0, r3
 8002204:	3710      	adds	r7, #16
 8002206:	46bd      	mov	sp, r7
 8002208:	bd80      	pop	{r7, pc}
 800220a:	bf00      	nop
 800220c:	40023c00 	.word	0x40023c00
 8002210:	40023800 	.word	0x40023800
 8002214:	0800373c 	.word	0x0800373c
 8002218:	20000080 	.word	0x20000080
 800221c:	20000084 	.word	0x20000084

08002220 <HAL_RCC_GetSysClockFreq>:
  *
  *
  * @retval SYSCLK frequency
  */
__weak uint32_t HAL_RCC_GetSysClockFreq(void)
{
 8002220:	e92d 4fb0 	stmdb	sp!, {r4, r5, r7, r8, r9, sl, fp, lr}
 8002224:	b094      	sub	sp, #80	@ 0x50
 8002226:	af00      	add	r7, sp, #0
  uint32_t pllm = 0U, pllvco = 0U, pllp = 0U;
 8002228:	2300      	movs	r3, #0
 800222a:	647b      	str	r3, [r7, #68]	@ 0x44
 800222c:	2300      	movs	r3, #0
 800222e:	64fb      	str	r3, [r7, #76]	@ 0x4c
 8002230:	2300      	movs	r3, #0
 8002232:	643b      	str	r3, [r7, #64]	@ 0x40
  uint32_t sysclockfreq = 0U;
 8002234:	2300      	movs	r3, #0
 8002236:	64bb      	str	r3, [r7, #72]	@ 0x48

  /* Get SYSCLK source -------------------------------------------------------*/
  switch (RCC->CFGR & RCC_CFGR_SWS)
 8002238:	4b79      	ldr	r3, [pc, #484]	@ (8002420 <HAL_RCC_GetSysClockFreq+0x200>)
 800223a:	689b      	ldr	r3, [r3, #8]
 800223c:	f003 030c 	and.w	r3, r3, #12
 8002240:	2b08      	cmp	r3, #8
 8002242:	d00d      	beq.n	8002260 <HAL_RCC_GetSysClockFreq+0x40>
 8002244:	2b08      	cmp	r3, #8
 8002246:	f200 80e1 	bhi.w	800240c <HAL_RCC_GetSysClockFreq+0x1ec>
 800224a:	2b00      	cmp	r3, #0
 800224c:	d002      	beq.n	8002254 <HAL_RCC_GetSysClockFreq+0x34>
 800224e:	2b04      	cmp	r3, #4
 8002250:	d003      	beq.n	800225a <HAL_RCC_GetSysClockFreq+0x3a>
 8002252:	e0db      	b.n	800240c <HAL_RCC_GetSysClockFreq+0x1ec>
  {
    case RCC_CFGR_SWS_HSI:  /* HSI used as system clock source */
    {
      sysclockfreq = HSI_VALUE;
 8002254:	4b73      	ldr	r3, [pc, #460]	@ (8002424 <HAL_RCC_GetSysClockFreq+0x204>)
 8002256:	64bb      	str	r3, [r7, #72]	@ 0x48
       break;
 8002258:	e0db      	b.n	8002412 <HAL_RCC_GetSysClockFreq+0x1f2>
    }
    case RCC_CFGR_SWS_HSE:  /* HSE used as system clock  source */
    {
      sysclockfreq = HSE_VALUE;
 800225a:	4b73      	ldr	r3, [pc, #460]	@ (8002428 <HAL_RCC_GetSysClockFreq+0x208>)
 800225c:	64bb      	str	r3, [r7, #72]	@ 0x48
      break;
 800225e:	e0d8      	b.n	8002412 <HAL_RCC_GetSysClockFreq+0x1f2>
    }
    case RCC_CFGR_SWS_PLL:  /* PLL used as system clock  source */
    {
      /* PLL_VCO = (HSE_VALUE or HSI_VALUE / PLLM) * PLLN
      SYSCLK = PLL_VCO / PLLP */
      pllm = RCC->PLLCFGR & RCC_PLLCFGR_PLLM;
 8002260:	4b6f      	ldr	r3, [pc, #444]	@ (8002420 <HAL_RCC_GetSysClockFreq+0x200>)
 8002262:	685b      	ldr	r3, [r3, #4]
 8002264:	f003 033f 	and.w	r3, r3, #63	@ 0x3f
 8002268:	647b      	str	r3, [r7, #68]	@ 0x44
      if(__HAL_RCC_GET_PLL_OSCSOURCE() != RCC_PLLSOURCE_HSI)
 800226a:	4b6d      	ldr	r3, [pc, #436]	@ (8002420 <HAL_RCC_GetSysClockFreq+0x200>)
 800226c:	685b      	ldr	r3, [r3, #4]
 800226e:	f403 0380 	and.w	r3, r3, #4194304	@ 0x400000
 8002272:	2b00      	cmp	r3, #0
 8002274:	d063      	beq.n	800233e <HAL_RCC_GetSysClockFreq+0x11e>
      {
        /* HSE used as PLL clock source */
        pllvco = (uint32_t) ((((uint64_t) HSE_VALUE * ((uint64_t) ((RCC->PLLCFGR & RCC_PLLCFGR_PLLN) >> RCC_PLLCFGR_PLLN_Pos)))) / (uint64_t)pllm);
 8002276:	4b6a      	ldr	r3, [pc, #424]	@ (8002420 <HAL_RCC_GetSysClockFreq+0x200>)
 8002278:	685b      	ldr	r3, [r3, #4]
 800227a:	099b      	lsrs	r3, r3, #6
 800227c:	2200      	movs	r2, #0
 800227e:	63bb      	str	r3, [r7, #56]	@ 0x38
 8002280:	63fa      	str	r2, [r7, #60]	@ 0x3c
 8002282:	6bbb      	ldr	r3, [r7, #56]	@ 0x38
 8002284:	f3c3 0308 	ubfx	r3, r3, #0, #9
 8002288:	633b      	str	r3, [r7, #48]	@ 0x30
 800228a:	2300      	movs	r3, #0
 800228c:	637b      	str	r3, [r7, #52]	@ 0x34
 800228e:	e9d7 450c 	ldrd	r4, r5, [r7, #48]	@ 0x30
 8002292:	4622      	mov	r2, r4
 8002294:	462b      	mov	r3, r5
 8002296:	f04f 0000 	mov.w	r0, #0
 800229a:	f04f 0100 	mov.w	r1, #0
 800229e:	0159      	lsls	r1, r3, #5
 80022a0:	ea41 61d2 	orr.w	r1, r1, r2, lsr #27
 80022a4:	0150      	lsls	r0, r2, #5
 80022a6:	4602      	mov	r2, r0
 80022a8:	460b      	mov	r3, r1
 80022aa:	4621      	mov	r1, r4
 80022ac:	1a51      	subs	r1, r2, r1
 80022ae:	6139      	str	r1, [r7, #16]
 80022b0:	4629      	mov	r1, r5
 80022b2:	eb63 0301 	sbc.w	r3, r3, r1
 80022b6:	617b      	str	r3, [r7, #20]
 80022b8:	f04f 0200 	mov.w	r2, #0
 80022bc:	f04f 0300 	mov.w	r3, #0
 80022c0:	e9d7 ab04 	ldrd	sl, fp, [r7, #16]
 80022c4:	4659      	mov	r1, fp
 80022c6:	018b      	lsls	r3, r1, #6
 80022c8:	4651      	mov	r1, sl
 80022ca:	ea43 6391 	orr.w	r3, r3, r1, lsr #26
 80022ce:	4651      	mov	r1, sl
 80022d0:	018a      	lsls	r2, r1, #6
 80022d2:	4651      	mov	r1, sl
 80022d4:	ebb2 0801 	subs.w	r8, r2, r1
 80022d8:	4659      	mov	r1, fp
 80022da:	eb63 0901 	sbc.w	r9, r3, r1
 80022de:	f04f 0200 	mov.w	r2, #0
 80022e2:	f04f 0300 	mov.w	r3, #0
 80022e6:	ea4f 03c9 	mov.w	r3, r9, lsl #3
 80022ea:	ea43 7358 	orr.w	r3, r3, r8, lsr #29
 80022ee:	ea4f 02c8 	mov.w	r2, r8, lsl #3
 80022f2:	4690      	mov	r8, r2
 80022f4:	4699      	mov	r9, r3
 80022f6:	4623      	mov	r3, r4
 80022f8:	eb18 0303 	adds.w	r3, r8, r3
 80022fc:	60bb      	str	r3, [r7, #8]
 80022fe:	462b      	mov	r3, r5
 8002300:	eb49 0303 	adc.w	r3, r9, r3
 8002304:	60fb      	str	r3, [r7, #12]
 8002306:	f04f 0200 	mov.w	r2, #0
 800230a:	f04f 0300 	mov.w	r3, #0
 800230e:	e9d7 4502 	ldrd	r4, r5, [r7, #8]
 8002312:	4629      	mov	r1, r5
 8002314:	024b      	lsls	r3, r1, #9
 8002316:	4621      	mov	r1, r4
 8002318:	ea43 53d1 	orr.w	r3, r3, r1, lsr #23
 800231c:	4621      	mov	r1, r4
 800231e:	024a      	lsls	r2, r1, #9
 8002320:	4610      	mov	r0, r2
 8002322:	4619      	mov	r1, r3
 8002324:	6c7b      	ldr	r3, [r7, #68]	@ 0x44
 8002326:	2200      	movs	r2, #0
 8002328:	62bb      	str	r3, [r7, #40]	@ 0x28
 800232a:	62fa      	str	r2, [r7, #44]	@ 0x2c
 800232c:	e9d7 230a 	ldrd	r2, r3, [r7, #40]	@ 0x28
 8002330:	f7fe f916 	bl	8000560 <__aeabi_uldivmod>
 8002334:	4602      	mov	r2, r0
 8002336:	460b      	mov	r3, r1
 8002338:	4613      	mov	r3, r2
 800233a:	64fb      	str	r3, [r7, #76]	@ 0x4c
 800233c:	e058      	b.n	80023f0 <HAL_RCC_GetSysClockFreq+0x1d0>
      }
      else
      {
        /* HSI used as PLL clock source */
        pllvco = (uint32_t) ((((uint64_t) HSI_VALUE * ((uint64_t) ((RCC->PLLCFGR & RCC_PLLCFGR_PLLN) >> RCC_PLLCFGR_PLLN_Pos)))) / (uint64_t)pllm);
 800233e:	4b38      	ldr	r3, [pc, #224]	@ (8002420 <HAL_RCC_GetSysClockFreq+0x200>)
 8002340:	685b      	ldr	r3, [r3, #4]
 8002342:	099b      	lsrs	r3, r3, #6
 8002344:	2200      	movs	r2, #0
 8002346:	4618      	mov	r0, r3
 8002348:	4611      	mov	r1, r2
 800234a:	f3c0 0308 	ubfx	r3, r0, #0, #9
 800234e:	623b      	str	r3, [r7, #32]
 8002350:	2300      	movs	r3, #0
 8002352:	627b      	str	r3, [r7, #36]	@ 0x24
 8002354:	e9d7 8908 	ldrd	r8, r9, [r7, #32]
 8002358:	4642      	mov	r2, r8
 800235a:	464b      	mov	r3, r9
 800235c:	f04f 0000 	mov.w	r0, #0
 8002360:	f04f 0100 	mov.w	r1, #0
 8002364:	0159      	lsls	r1, r3, #5
 8002366:	ea41 61d2 	orr.w	r1, r1, r2, lsr #27
 800236a:	0150      	lsls	r0, r2, #5
 800236c:	4602      	mov	r2, r0
 800236e:	460b      	mov	r3, r1
 8002370:	4641      	mov	r1, r8
 8002372:	ebb2 0a01 	subs.w	sl, r2, r1
 8002376:	4649      	mov	r1, r9
 8002378:	eb63 0b01 	sbc.w	fp, r3, r1
 800237c:	f04f 0200 	mov.w	r2, #0
 8002380:	f04f 0300 	mov.w	r3, #0
 8002384:	ea4f 138b 	mov.w	r3, fp, lsl #6
 8002388:	ea43 639a 	orr.w	r3, r3, sl, lsr #26
 800238c:	ea4f 128a 	mov.w	r2, sl, lsl #6
 8002390:	ebb2 040a 	subs.w	r4, r2, sl
 8002394:	eb63 050b 	sbc.w	r5, r3, fp
 8002398:	f04f 0200 	mov.w	r2, #0
 800239c:	f04f 0300 	mov.w	r3, #0
 80023a0:	00eb      	lsls	r3, r5, #3
 80023a2:	ea43 7354 	orr.w	r3, r3, r4, lsr #29
 80023a6:	00e2      	lsls	r2, r4, #3
 80023a8:	4614      	mov	r4, r2
 80023aa:	461d      	mov	r5, r3
 80023ac:	4643      	mov	r3, r8
 80023ae:	18e3      	adds	r3, r4, r3
 80023b0:	603b      	str	r3, [r7, #0]
 80023b2:	464b      	mov	r3, r9
 80023b4:	eb45 0303 	adc.w	r3, r5, r3
 80023b8:	607b      	str	r3, [r7, #4]
 80023ba:	f04f 0200 	mov.w	r2, #0
 80023be:	f04f 0300 	mov.w	r3, #0
 80023c2:	e9d7 4500 	ldrd	r4, r5, [r7]
 80023c6:	4629      	mov	r1, r5
 80023c8:	028b      	lsls	r3, r1, #10
 80023ca:	4621      	mov	r1, r4
 80023cc:	ea43 5391 	orr.w	r3, r3, r1, lsr #22
 80023d0:	4621      	mov	r1, r4
 80023d2:	028a      	lsls	r2, r1, #10
 80023d4:	4610      	mov	r0, r2
 80023d6:	4619      	mov	r1, r3
 80023d8:	6c7b      	ldr	r3, [r7, #68]	@ 0x44
 80023da:	2200      	movs	r2, #0
 80023dc:	61bb      	str	r3, [r7, #24]
 80023de:	61fa      	str	r2, [r7, #28]
 80023e0:	e9d7 2306 	ldrd	r2, r3, [r7, #24]
 80023e4:	f7fe f8bc 	bl	8000560 <__aeabi_uldivmod>
 80023e8:	4602      	mov	r2, r0
 80023ea:	460b      	mov	r3, r1
 80023ec:	4613      	mov	r3, r2
 80023ee:	64fb      	str	r3, [r7, #76]	@ 0x4c
      }
      pllp = ((((RCC->PLLCFGR & RCC_PLLCFGR_PLLP) >> RCC_PLLCFGR_PLLP_Pos) + 1U) *2U);
 80023f0:	4b0b      	ldr	r3, [pc, #44]	@ (8002420 <HAL_RCC_GetSysClockFreq+0x200>)
 80023f2:	685b      	ldr	r3, [r3, #4]
 80023f4:	0c1b      	lsrs	r3, r3, #16
 80023f6:	f003 0303 	and.w	r3, r3, #3
 80023fa:	3301      	adds	r3, #1
 80023fc:	005b      	lsls	r3, r3, #1
 80023fe:	643b      	str	r3, [r7, #64]	@ 0x40

      sysclockfreq = pllvco/pllp;
 8002400:	6cfa      	ldr	r2, [r7, #76]	@ 0x4c
 8002402:	6c3b      	ldr	r3, [r7, #64]	@ 0x40
 8002404:	fbb2 f3f3 	udiv	r3, r2, r3
 8002408:	64bb      	str	r3, [r7, #72]	@ 0x48
      break;
 800240a:	e002      	b.n	8002412 <HAL_RCC_GetSysClockFreq+0x1f2>
    }
    default:
    {
      sysclockfreq = HSI_VALUE;
 800240c:	4b05      	ldr	r3, [pc, #20]	@ (8002424 <HAL_RCC_GetSysClockFreq+0x204>)
 800240e:	64bb      	str	r3, [r7, #72]	@ 0x48
      break;
 8002410:	bf00      	nop
    }
  }
  return sysclockfreq;
 8002412:	6cbb      	ldr	r3, [r7, #72]	@ 0x48
}
 8002414:	4618      	mov	r0, r3
 8002416:	3750      	adds	r7, #80	@ 0x50
 8002418:	46bd      	mov	sp, r7
 800241a:	e8bd 8fb0 	ldmia.w	sp!, {r4, r5, r7, r8, r9, sl, fp, pc}
 800241e:	bf00      	nop
 8002420:	40023800 	.word	0x40023800
 8002424:	00f42400 	.word	0x00f42400
 8002428:	007a1200 	.word	0x007a1200

0800242c <HAL_RCC_GetHCLKFreq>:
  * @note   The SystemCoreClock CMSIS variable is used to store System Clock Frequency
  *         and updated within this function
  * @retval HCLK frequency
  */
uint32_t HAL_RCC_GetHCLKFreq(void)
{
 800242c:	b480      	push	{r7}
 800242e:	af00      	add	r7, sp, #0
  return SystemCoreClock;
 8002430:	4b03      	ldr	r3, [pc, #12]	@ (8002440 <HAL_RCC_GetHCLKFreq+0x14>)
 8002432:	681b      	ldr	r3, [r3, #0]
}
 8002434:	4618      	mov	r0, r3
 8002436:	46bd      	mov	sp, r7
 8002438:	f85d 7b04 	ldr.w	r7, [sp], #4
 800243c:	4770      	bx	lr
 800243e:	bf00      	nop
 8002440:	20000080 	.word	0x20000080

08002444 <HAL_RCC_GetPCLK1Freq>:
  * @note   Each time PCLK1 changes, this function must be called to update the
  *         right PCLK1 value. Otherwise, any configuration based on this function will be incorrect.
  * @retval PCLK1 frequency
  */
uint32_t HAL_RCC_GetPCLK1Freq(void)
{
 8002444:	b580      	push	{r7, lr}
 8002446:	af00      	add	r7, sp, #0
  /* Get HCLK source and Compute PCLK1 frequency ---------------------------*/
  return (HAL_RCC_GetHCLKFreq() >> APBPrescTable[(RCC->CFGR & RCC_CFGR_PPRE1)>> RCC_CFGR_PPRE1_Pos]);
 8002448:	f7ff fff0 	bl	800242c <HAL_RCC_GetHCLKFreq>
 800244c:	4602      	mov	r2, r0
 800244e:	4b05      	ldr	r3, [pc, #20]	@ (8002464 <HAL_RCC_GetPCLK1Freq+0x20>)
 8002450:	689b      	ldr	r3, [r3, #8]
 8002452:	0a9b      	lsrs	r3, r3, #10
 8002454:	f003 0307 	and.w	r3, r3, #7
 8002458:	4903      	ldr	r1, [pc, #12]	@ (8002468 <HAL_RCC_GetPCLK1Freq+0x24>)
 800245a:	5ccb      	ldrb	r3, [r1, r3]
 800245c:	fa22 f303 	lsr.w	r3, r2, r3
}
 8002460:	4618      	mov	r0, r3
 8002462:	bd80      	pop	{r7, pc}
 8002464:	40023800 	.word	0x40023800
 8002468:	0800374c 	.word	0x0800374c

0800246c <HAL_RCC_GetPCLK2Freq>:
  * @note   Each time PCLK2 changes, this function must be called to update the
  *         right PCLK2 value. Otherwise, any configuration based on this function will be incorrect.
  * @retval PCLK2 frequency
  */
uint32_t HAL_RCC_GetPCLK2Freq(void)
{
 800246c:	b580      	push	{r7, lr}
 800246e:	af00      	add	r7, sp, #0
  /* Get HCLK source and Compute PCLK2 frequency ---------------------------*/
  return (HAL_RCC_GetHCLKFreq()>> APBPrescTable[(RCC->CFGR & RCC_CFGR_PPRE2)>> RCC_CFGR_PPRE2_Pos]);
 8002470:	f7ff ffdc 	bl	800242c <HAL_RCC_GetHCLKFreq>
 8002474:	4602      	mov	r2, r0
 8002476:	4b05      	ldr	r3, [pc, #20]	@ (800248c <HAL_RCC_GetPCLK2Freq+0x20>)
 8002478:	689b      	ldr	r3, [r3, #8]
 800247a:	0b5b      	lsrs	r3, r3, #13
 800247c:	f003 0307 	and.w	r3, r3, #7
 8002480:	4903      	ldr	r1, [pc, #12]	@ (8002490 <HAL_RCC_GetPCLK2Freq+0x24>)
 8002482:	5ccb      	ldrb	r3, [r1, r3]
 8002484:	fa22 f303 	lsr.w	r3, r2, r3
}
 8002488:	4618      	mov	r0, r3
 800248a:	bd80      	pop	{r7, pc}
 800248c:	40023800 	.word	0x40023800
 8002490:	0800374c 	.word	0x0800374c

08002494 <HAL_UART_Init>:
  * @param  huart  Pointer to a UART_HandleTypeDef structure that contains
  *                the configuration information for the specified UART module.
  * @retval HAL status
  */
HAL_StatusTypeDef HAL_UART_Init(UART_HandleTypeDef *huart)
{
 8002494:	b580      	push	{r7, lr}
 8002496:	b082      	sub	sp, #8
 8002498:	af00      	add	r7, sp, #0
 800249a:	6078      	str	r0, [r7, #4]
  /* Check the UART handle allocation */
  if (huart == NULL)
 800249c:	687b      	ldr	r3, [r7, #4]
 800249e:	2b00      	cmp	r3, #0
 80024a0:	d101      	bne.n	80024a6 <HAL_UART_Init+0x12>
  {
    return HAL_ERROR;
 80024a2:	2301      	movs	r3, #1
 80024a4:	e03f      	b.n	8002526 <HAL_UART_Init+0x92>
    assert_param(IS_UART_INSTANCE(huart->Instance));
  }
  assert_param(IS_UART_WORD_LENGTH(huart->Init.WordLength));
  assert_param(IS_UART_OVERSAMPLING(huart->Init.OverSampling));

  if (huart->gState == HAL_UART_STATE_RESET)
 80024a6:	687b      	ldr	r3, [r7, #4]
 80024a8:	f893 303d 	ldrb.w	r3, [r3, #61]	@ 0x3d
 80024ac:	b2db      	uxtb	r3, r3
 80024ae:	2b00      	cmp	r3, #0
 80024b0:	d106      	bne.n	80024c0 <HAL_UART_Init+0x2c>
  {
    /* Allocate lock resource and initialize it */
    huart->Lock = HAL_UNLOCKED;
 80024b2:	687b      	ldr	r3, [r7, #4]
 80024b4:	2200      	movs	r2, #0
 80024b6:	f883 203c 	strb.w	r2, [r3, #60]	@ 0x3c

    /* Init the low level hardware */
    huart->MspInitCallback(huart);
#else
    /* Init the low level hardware : GPIO, CLOCK */
    HAL_UART_MspInit(huart);
 80024ba:	6878      	ldr	r0, [r7, #4]
 80024bc:	f7fe feb4 	bl	8001228 <HAL_UART_MspInit>
#endif /* (USE_HAL_UART_REGISTER_CALLBACKS) */
  }

  huart->gState = HAL_UART_STATE_BUSY;
 80024c0:	687b      	ldr	r3, [r7, #4]
 80024c2:	2224      	movs	r2, #36	@ 0x24
 80024c4:	f883 203d 	strb.w	r2, [r3, #61]	@ 0x3d

  /* Disable the peripheral */
  __HAL_UART_DISABLE(huart);
 80024c8:	687b      	ldr	r3, [r7, #4]
 80024ca:	681b      	ldr	r3, [r3, #0]
 80024cc:	68da      	ldr	r2, [r3, #12]
 80024ce:	687b      	ldr	r3, [r7, #4]
 80024d0:	681b      	ldr	r3, [r3, #0]
 80024d2:	f422 5200 	bic.w	r2, r2, #8192	@ 0x2000
 80024d6:	60da      	str	r2, [r3, #12]

  /* Set the UART Communication parameters */
  UART_SetConfig(huart);
 80024d8:	6878      	ldr	r0, [r7, #4]
 80024da:	f000 fddf 	bl	800309c <UART_SetConfig>

  /* In asynchronous mode, the following bits must be kept cleared:
     - LINEN and CLKEN bits in the USART_CR2 register,
     - SCEN, HDSEL and IREN  bits in the USART_CR3 register.*/
  CLEAR_BIT(huart->Instance->CR2, (USART_CR2_LINEN | USART_CR2_CLKEN));
 80024de:	687b      	ldr	r3, [r7, #4]
 80024e0:	681b      	ldr	r3, [r3, #0]
 80024e2:	691a      	ldr	r2, [r3, #16]
 80024e4:	687b      	ldr	r3, [r7, #4]
 80024e6:	681b      	ldr	r3, [r3, #0]
 80024e8:	f422 4290 	bic.w	r2, r2, #18432	@ 0x4800
 80024ec:	611a      	str	r2, [r3, #16]
  CLEAR_BIT(huart->Instance->CR3, (USART_CR3_SCEN | USART_CR3_HDSEL | USART_CR3_IREN));
 80024ee:	687b      	ldr	r3, [r7, #4]
 80024f0:	681b      	ldr	r3, [r3, #0]
 80024f2:	695a      	ldr	r2, [r3, #20]
 80024f4:	687b      	ldr	r3, [r7, #4]
 80024f6:	681b      	ldr	r3, [r3, #0]
 80024f8:	f022 022a 	bic.w	r2, r2, #42	@ 0x2a
 80024fc:	615a      	str	r2, [r3, #20]

  /* Enable the peripheral */
  __HAL_UART_ENABLE(huart);
 80024fe:	687b      	ldr	r3, [r7, #4]
 8002500:	681b      	ldr	r3, [r3, #0]
 8002502:	68da      	ldr	r2, [r3, #12]
 8002504:	687b      	ldr	r3, [r7, #4]
 8002506:	681b      	ldr	r3, [r3, #0]
 8002508:	f442 5200 	orr.w	r2, r2, #8192	@ 0x2000
 800250c:	60da      	str	r2, [r3, #12]

  /* Initialize the UART state */
  huart->ErrorCode = HAL_UART_ERROR_NONE;
 800250e:	687b      	ldr	r3, [r7, #4]
 8002510:	2200      	movs	r2, #0
 8002512:	641a      	str	r2, [r3, #64]	@ 0x40
  huart->gState = HAL_UART_STATE_READY;
 8002514:	687b      	ldr	r3, [r7, #4]
 8002516:	2220      	movs	r2, #32
 8002518:	f883 203d 	strb.w	r2, [r3, #61]	@ 0x3d
  huart->RxState = HAL_UART_STATE_READY;
 800251c:	687b      	ldr	r3, [r7, #4]
 800251e:	2220      	movs	r2, #32
 8002520:	f883 203e 	strb.w	r2, [r3, #62]	@ 0x3e

  return HAL_OK;
 8002524:	2300      	movs	r3, #0
}
 8002526:	4618      	mov	r0, r3
 8002528:	3708      	adds	r7, #8
 800252a:	46bd      	mov	sp, r7
 800252c:	bd80      	pop	{r7, pc}

0800252e <HAL_UART_Transmit>:
  * @param  Size  Amount of data elements (u8 or u16) to be sent
  * @param  Timeout Timeout duration
  * @retval HAL status
  */
HAL_StatusTypeDef HAL_UART_Transmit(UART_HandleTypeDef *huart, const uint8_t *pData, uint16_t Size, uint32_t Timeout)
{
 800252e:	b580      	push	{r7, lr}
 8002530:	b08a      	sub	sp, #40	@ 0x28
 8002532:	af02      	add	r7, sp, #8
 8002534:	60f8      	str	r0, [r7, #12]
 8002536:	60b9      	str	r1, [r7, #8]
 8002538:	603b      	str	r3, [r7, #0]
 800253a:	4613      	mov	r3, r2
 800253c:	80fb      	strh	r3, [r7, #6]
  const uint8_t  *pdata8bits;
  const uint16_t *pdata16bits;
  uint32_t tickstart = 0U;
 800253e:	2300      	movs	r3, #0
 8002540:	617b      	str	r3, [r7, #20]

  /* Check that a Tx process is not already ongoing */
  if (huart->gState == HAL_UART_STATE_READY)
 8002542:	68fb      	ldr	r3, [r7, #12]
 8002544:	f893 303d 	ldrb.w	r3, [r3, #61]	@ 0x3d
 8002548:	b2db      	uxtb	r3, r3
 800254a:	2b20      	cmp	r3, #32
 800254c:	d17c      	bne.n	8002648 <HAL_UART_Transmit+0x11a>
  {
    if ((pData == NULL) || (Size == 0U))
 800254e:	68bb      	ldr	r3, [r7, #8]
 8002550:	2b00      	cmp	r3, #0
 8002552:	d002      	beq.n	800255a <HAL_UART_Transmit+0x2c>
 8002554:	88fb      	ldrh	r3, [r7, #6]
 8002556:	2b00      	cmp	r3, #0
 8002558:	d101      	bne.n	800255e <HAL_UART_Transmit+0x30>
    {
      return  HAL_ERROR;
 800255a:	2301      	movs	r3, #1
 800255c:	e075      	b.n	800264a <HAL_UART_Transmit+0x11c>
    }

    /* Process Locked */
    __HAL_LOCK(huart);
 800255e:	68fb      	ldr	r3, [r7, #12]
 8002560:	f893 303c 	ldrb.w	r3, [r3, #60]	@ 0x3c
 8002564:	2b01      	cmp	r3, #1
 8002566:	d101      	bne.n	800256c <HAL_UART_Transmit+0x3e>
 8002568:	2302      	movs	r3, #2
 800256a:	e06e      	b.n	800264a <HAL_UART_Transmit+0x11c>
 800256c:	68fb      	ldr	r3, [r7, #12]
 800256e:	2201      	movs	r2, #1
 8002570:	f883 203c 	strb.w	r2, [r3, #60]	@ 0x3c

    huart->ErrorCode = HAL_UART_ERROR_NONE;
 8002574:	68fb      	ldr	r3, [r7, #12]
 8002576:	2200      	movs	r2, #0
 8002578:	641a      	str	r2, [r3, #64]	@ 0x40
    huart->gState = HAL_UART_STATE_BUSY_TX;
 800257a:	68fb      	ldr	r3, [r7, #12]
 800257c:	2221      	movs	r2, #33	@ 0x21
 800257e:	f883 203d 	strb.w	r2, [r3, #61]	@ 0x3d

    /* Init tickstart for timeout management */
    tickstart = HAL_GetTick();
 8002582:	f7fe ff7d 	bl	8001480 <HAL_GetTick>
 8002586:	6178      	str	r0, [r7, #20]

    huart->TxXferSize = Size;
 8002588:	68fb      	ldr	r3, [r7, #12]
 800258a:	88fa      	ldrh	r2, [r7, #6]
 800258c:	849a      	strh	r2, [r3, #36]	@ 0x24
    huart->TxXferCount = Size;
 800258e:	68fb      	ldr	r3, [r7, #12]
 8002590:	88fa      	ldrh	r2, [r7, #6]
 8002592:	84da      	strh	r2, [r3, #38]	@ 0x26

    /* In case of 9bits/No Parity transfer, pData needs to be handled as a uint16_t pointer */
    if ((huart->Init.WordLength == UART_WORDLENGTH_9B) && (huart->Init.Parity == UART_PARITY_NONE))
 8002594:	68fb      	ldr	r3, [r7, #12]
 8002596:	689b      	ldr	r3, [r3, #8]
 8002598:	f5b3 5f80 	cmp.w	r3, #4096	@ 0x1000
 800259c:	d108      	bne.n	80025b0 <HAL_UART_Transmit+0x82>
 800259e:	68fb      	ldr	r3, [r7, #12]
 80025a0:	691b      	ldr	r3, [r3, #16]
 80025a2:	2b00      	cmp	r3, #0
 80025a4:	d104      	bne.n	80025b0 <HAL_UART_Transmit+0x82>
    {
      pdata8bits  = NULL;
 80025a6:	2300      	movs	r3, #0
 80025a8:	61fb      	str	r3, [r7, #28]
      pdata16bits = (const uint16_t *) pData;
 80025aa:	68bb      	ldr	r3, [r7, #8]
 80025ac:	61bb      	str	r3, [r7, #24]
 80025ae:	e003      	b.n	80025b8 <HAL_UART_Transmit+0x8a>
    }
    else
    {
      pdata8bits  = pData;
 80025b0:	68bb      	ldr	r3, [r7, #8]
 80025b2:	61fb      	str	r3, [r7, #28]
      pdata16bits = NULL;
 80025b4:	2300      	movs	r3, #0
 80025b6:	61bb      	str	r3, [r7, #24]
    }

    /* Process Unlocked */
    __HAL_UNLOCK(huart);
 80025b8:	68fb      	ldr	r3, [r7, #12]
 80025ba:	2200      	movs	r2, #0
 80025bc:	f883 203c 	strb.w	r2, [r3, #60]	@ 0x3c

    while (huart->TxXferCount > 0U)
 80025c0:	e02a      	b.n	8002618 <HAL_UART_Transmit+0xea>
    {
      if (UART_WaitOnFlagUntilTimeout(huart, UART_FLAG_TXE, RESET, tickstart, Timeout) != HAL_OK)
 80025c2:	683b      	ldr	r3, [r7, #0]
 80025c4:	9300      	str	r3, [sp, #0]
 80025c6:	697b      	ldr	r3, [r7, #20]
 80025c8:	2200      	movs	r2, #0
 80025ca:	2180      	movs	r1, #128	@ 0x80
 80025cc:	68f8      	ldr	r0, [r7, #12]
 80025ce:	f000 fb1f 	bl	8002c10 <UART_WaitOnFlagUntilTimeout>
 80025d2:	4603      	mov	r3, r0
 80025d4:	2b00      	cmp	r3, #0
 80025d6:	d001      	beq.n	80025dc <HAL_UART_Transmit+0xae>
      {
        return HAL_TIMEOUT;
 80025d8:	2303      	movs	r3, #3
 80025da:	e036      	b.n	800264a <HAL_UART_Transmit+0x11c>
      }
      if (pdata8bits == NULL)
 80025dc:	69fb      	ldr	r3, [r7, #28]
 80025de:	2b00      	cmp	r3, #0
 80025e0:	d10b      	bne.n	80025fa <HAL_UART_Transmit+0xcc>
      {
        huart->Instance->DR = (uint16_t)(*pdata16bits & 0x01FFU);
 80025e2:	69bb      	ldr	r3, [r7, #24]
 80025e4:	881b      	ldrh	r3, [r3, #0]
 80025e6:	461a      	mov	r2, r3
 80025e8:	68fb      	ldr	r3, [r7, #12]
 80025ea:	681b      	ldr	r3, [r3, #0]
 80025ec:	f3c2 0208 	ubfx	r2, r2, #0, #9
 80025f0:	605a      	str	r2, [r3, #4]
        pdata16bits++;
 80025f2:	69bb      	ldr	r3, [r7, #24]
 80025f4:	3302      	adds	r3, #2
 80025f6:	61bb      	str	r3, [r7, #24]
 80025f8:	e007      	b.n	800260a <HAL_UART_Transmit+0xdc>
      }
      else
      {
        huart->Instance->DR = (uint8_t)(*pdata8bits & 0xFFU);
 80025fa:	69fb      	ldr	r3, [r7, #28]
 80025fc:	781a      	ldrb	r2, [r3, #0]
 80025fe:	68fb      	ldr	r3, [r7, #12]
 8002600:	681b      	ldr	r3, [r3, #0]
 8002602:	605a      	str	r2, [r3, #4]
        pdata8bits++;
 8002604:	69fb      	ldr	r3, [r7, #28]
 8002606:	3301      	adds	r3, #1
 8002608:	61fb      	str	r3, [r7, #28]
      }
      huart->TxXferCount--;
 800260a:	68fb      	ldr	r3, [r7, #12]
 800260c:	8cdb      	ldrh	r3, [r3, #38]	@ 0x26
 800260e:	b29b      	uxth	r3, r3
 8002610:	3b01      	subs	r3, #1
 8002612:	b29a      	uxth	r2, r3
 8002614:	68fb      	ldr	r3, [r7, #12]
 8002616:	84da      	strh	r2, [r3, #38]	@ 0x26
    while (huart->TxXferCount > 0U)
 8002618:	68fb      	ldr	r3, [r7, #12]
 800261a:	8cdb      	ldrh	r3, [r3, #38]	@ 0x26
 800261c:	b29b      	uxth	r3, r3
 800261e:	2b00      	cmp	r3, #0
 8002620:	d1cf      	bne.n	80025c2 <HAL_UART_Transmit+0x94>
    }

    if (UART_WaitOnFlagUntilTimeout(huart, UART_FLAG_TC, RESET, tickstart, Timeout) != HAL_OK)
 8002622:	683b      	ldr	r3, [r7, #0]
 8002624:	9300      	str	r3, [sp, #0]
 8002626:	697b      	ldr	r3, [r7, #20]
 8002628:	2200      	movs	r2, #0
 800262a:	2140      	movs	r1, #64	@ 0x40
 800262c:	68f8      	ldr	r0, [r7, #12]
 800262e:	f000 faef 	bl	8002c10 <UART_WaitOnFlagUntilTimeout>
 8002632:	4603      	mov	r3, r0
 8002634:	2b00      	cmp	r3, #0
 8002636:	d001      	beq.n	800263c <HAL_UART_Transmit+0x10e>
    {
      return HAL_TIMEOUT;
 8002638:	2303      	movs	r3, #3
 800263a:	e006      	b.n	800264a <HAL_UART_Transmit+0x11c>
    }

    /* At end of Tx process, restore huart->gState to Ready */
    huart->gState = HAL_UART_STATE_READY;
 800263c:	68fb      	ldr	r3, [r7, #12]
 800263e:	2220      	movs	r2, #32
 8002640:	f883 203d 	strb.w	r2, [r3, #61]	@ 0x3d

    return HAL_OK;
 8002644:	2300      	movs	r3, #0
 8002646:	e000      	b.n	800264a <HAL_UART_Transmit+0x11c>
  }
  else
  {
    return HAL_BUSY;
 8002648:	2302      	movs	r3, #2
  }
}
 800264a:	4618      	mov	r0, r3
 800264c:	3720      	adds	r7, #32
 800264e:	46bd      	mov	sp, r7
 8002650:	bd80      	pop	{r7, pc}

08002652 <HAL_UART_Receive_IT>:
  * @param  pData Pointer to data buffer (u8 or u16 data elements).
  * @param  Size  Amount of data elements (u8 or u16) to be received.
  * @retval HAL status
  */
HAL_StatusTypeDef HAL_UART_Receive_IT(UART_HandleTypeDef *huart, uint8_t *pData, uint16_t Size)
{
 8002652:	b580      	push	{r7, lr}
 8002654:	b084      	sub	sp, #16
 8002656:	af00      	add	r7, sp, #0
 8002658:	60f8      	str	r0, [r7, #12]
 800265a:	60b9      	str	r1, [r7, #8]
 800265c:	4613      	mov	r3, r2
 800265e:	80fb      	strh	r3, [r7, #6]
  /* Check that a Rx process is not already ongoing */
  if (huart->RxState == HAL_UART_STATE_READY)
 8002660:	68fb      	ldr	r3, [r7, #12]
 8002662:	f893 303e 	ldrb.w	r3, [r3, #62]	@ 0x3e
 8002666:	b2db      	uxtb	r3, r3
 8002668:	2b20      	cmp	r3, #32
 800266a:	d11d      	bne.n	80026a8 <HAL_UART_Receive_IT+0x56>
  {
    if ((pData == NULL) || (Size == 0U))
 800266c:	68bb      	ldr	r3, [r7, #8]
 800266e:	2b00      	cmp	r3, #0
 8002670:	d002      	beq.n	8002678 <HAL_UART_Receive_IT+0x26>
 8002672:	88fb      	ldrh	r3, [r7, #6]
 8002674:	2b00      	cmp	r3, #0
 8002676:	d101      	bne.n	800267c <HAL_UART_Receive_IT+0x2a>
    {
      return HAL_ERROR;
 8002678:	2301      	movs	r3, #1
 800267a:	e016      	b.n	80026aa <HAL_UART_Receive_IT+0x58>
    }

    /* Process Locked */
    __HAL_LOCK(huart);
 800267c:	68fb      	ldr	r3, [r7, #12]
 800267e:	f893 303c 	ldrb.w	r3, [r3, #60]	@ 0x3c
 8002682:	2b01      	cmp	r3, #1
 8002684:	d101      	bne.n	800268a <HAL_UART_Receive_IT+0x38>
 8002686:	2302      	movs	r3, #2
 8002688:	e00f      	b.n	80026aa <HAL_UART_Receive_IT+0x58>
 800268a:	68fb      	ldr	r3, [r7, #12]
 800268c:	2201      	movs	r2, #1
 800268e:	f883 203c 	strb.w	r2, [r3, #60]	@ 0x3c

    /* Set Reception type to Standard reception */
    huart->ReceptionType = HAL_UART_RECEPTION_STANDARD;
 8002692:	68fb      	ldr	r3, [r7, #12]
 8002694:	2200      	movs	r2, #0
 8002696:	631a      	str	r2, [r3, #48]	@ 0x30

    return (UART_Start_Receive_IT(huart, pData, Size));
 8002698:	88fb      	ldrh	r3, [r7, #6]
 800269a:	461a      	mov	r2, r3
 800269c:	68b9      	ldr	r1, [r7, #8]
 800269e:	68f8      	ldr	r0, [r7, #12]
 80026a0:	f000 fb24 	bl	8002cec <UART_Start_Receive_IT>
 80026a4:	4603      	mov	r3, r0
 80026a6:	e000      	b.n	80026aa <HAL_UART_Receive_IT+0x58>
  }
  else
  {
    return HAL_BUSY;
 80026a8:	2302      	movs	r3, #2
  }
}
 80026aa:	4618      	mov	r0, r3
 80026ac:	3710      	adds	r7, #16
 80026ae:	46bd      	mov	sp, r7
 80026b0:	bd80      	pop	{r7, pc}
	...

080026b4 <HAL_UART_IRQHandler>:
  * @param  huart  Pointer to a UART_HandleTypeDef structure that contains
  *                the configuration information for the specified UART module.
  * @retval None
  */
void HAL_UART_IRQHandler(UART_HandleTypeDef *huart)
{
 80026b4:	b580      	push	{r7, lr}
 80026b6:	b0ba      	sub	sp, #232	@ 0xe8
 80026b8:	af00      	add	r7, sp, #0
 80026ba:	6078      	str	r0, [r7, #4]
  uint32_t isrflags   = READ_REG(huart->Instance->SR);
 80026bc:	687b      	ldr	r3, [r7, #4]
 80026be:	681b      	ldr	r3, [r3, #0]
 80026c0:	681b      	ldr	r3, [r3, #0]
 80026c2:	f8c7 30e4 	str.w	r3, [r7, #228]	@ 0xe4
  uint32_t cr1its     = READ_REG(huart->Instance->CR1);
 80026c6:	687b      	ldr	r3, [r7, #4]
 80026c8:	681b      	ldr	r3, [r3, #0]
 80026ca:	68db      	ldr	r3, [r3, #12]
 80026cc:	f8c7 30e0 	str.w	r3, [r7, #224]	@ 0xe0
  uint32_t cr3its     = READ_REG(huart->Instance->CR3);
 80026d0:	687b      	ldr	r3, [r7, #4]
 80026d2:	681b      	ldr	r3, [r3, #0]
 80026d4:	695b      	ldr	r3, [r3, #20]
 80026d6:	f8c7 30dc 	str.w	r3, [r7, #220]	@ 0xdc
  uint32_t errorflags = 0x00U;
 80026da:	2300      	movs	r3, #0
 80026dc:	f8c7 30d8 	str.w	r3, [r7, #216]	@ 0xd8
  uint32_t dmarequest = 0x00U;
 80026e0:	2300      	movs	r3, #0
 80026e2:	f8c7 30d4 	str.w	r3, [r7, #212]	@ 0xd4

  /* If no error occurs */
  errorflags = (isrflags & (uint32_t)(USART_SR_PE | USART_SR_FE | USART_SR_ORE | USART_SR_NE));
 80026e6:	f8d7 30e4 	ldr.w	r3, [r7, #228]	@ 0xe4
 80026ea:	f003 030f 	and.w	r3, r3, #15
 80026ee:	f8c7 30d8 	str.w	r3, [r7, #216]	@ 0xd8
  if (errorflags == RESET)
 80026f2:	f8d7 30d8 	ldr.w	r3, [r7, #216]	@ 0xd8
 80026f6:	2b00      	cmp	r3, #0
 80026f8:	d10f      	bne.n	800271a <HAL_UART_IRQHandler+0x66>
  {
    /* UART in mode Receiver -------------------------------------------------*/
    if (((isrflags & USART_SR_RXNE) != RESET) && ((cr1its & USART_CR1_RXNEIE) != RESET))
 80026fa:	f8d7 30e4 	ldr.w	r3, [r7, #228]	@ 0xe4
 80026fe:	f003 0320 	and.w	r3, r3, #32
 8002702:	2b00      	cmp	r3, #0
 8002704:	d009      	beq.n	800271a <HAL_UART_IRQHandler+0x66>
 8002706:	f8d7 30e0 	ldr.w	r3, [r7, #224]	@ 0xe0
 800270a:	f003 0320 	and.w	r3, r3, #32
 800270e:	2b00      	cmp	r3, #0
 8002710:	d003      	beq.n	800271a <HAL_UART_IRQHandler+0x66>
    {
      UART_Receive_IT(huart);
 8002712:	6878      	ldr	r0, [r7, #4]
 8002714:	f000 fc07 	bl	8002f26 <UART_Receive_IT>
      return;
 8002718:	e256      	b.n	8002bc8 <HAL_UART_IRQHandler+0x514>
    }
  }

  /* If some errors occur */
  if ((errorflags != RESET) && (((cr3its & USART_CR3_EIE) != RESET)
 800271a:	f8d7 30d8 	ldr.w	r3, [r7, #216]	@ 0xd8
 800271e:	2b00      	cmp	r3, #0
 8002720:	f000 80de 	beq.w	80028e0 <HAL_UART_IRQHandler+0x22c>
 8002724:	f8d7 30dc 	ldr.w	r3, [r7, #220]	@ 0xdc
 8002728:	f003 0301 	and.w	r3, r3, #1
 800272c:	2b00      	cmp	r3, #0
 800272e:	d106      	bne.n	800273e <HAL_UART_IRQHandler+0x8a>
                                || ((cr1its & (USART_CR1_RXNEIE | USART_CR1_PEIE)) != RESET)))
 8002730:	f8d7 30e0 	ldr.w	r3, [r7, #224]	@ 0xe0
 8002734:	f403 7390 	and.w	r3, r3, #288	@ 0x120
 8002738:	2b00      	cmp	r3, #0
 800273a:	f000 80d1 	beq.w	80028e0 <HAL_UART_IRQHandler+0x22c>
  {
    /* UART parity error interrupt occurred ----------------------------------*/
    if (((isrflags & USART_SR_PE) != RESET) && ((cr1its & USART_CR1_PEIE) != RESET))
 800273e:	f8d7 30e4 	ldr.w	r3, [r7, #228]	@ 0xe4
 8002742:	f003 0301 	and.w	r3, r3, #1
 8002746:	2b00      	cmp	r3, #0
 8002748:	d00b      	beq.n	8002762 <HAL_UART_IRQHandler+0xae>
 800274a:	f8d7 30e0 	ldr.w	r3, [r7, #224]	@ 0xe0
 800274e:	f403 7380 	and.w	r3, r3, #256	@ 0x100
 8002752:	2b00      	cmp	r3, #0
 8002754:	d005      	beq.n	8002762 <HAL_UART_IRQHandler+0xae>
    {
      huart->ErrorCode |= HAL_UART_ERROR_PE;
 8002756:	687b      	ldr	r3, [r7, #4]
 8002758:	6c1b      	ldr	r3, [r3, #64]	@ 0x40
 800275a:	f043 0201 	orr.w	r2, r3, #1
 800275e:	687b      	ldr	r3, [r7, #4]
 8002760:	641a      	str	r2, [r3, #64]	@ 0x40
    }

    /* UART noise error interrupt occurred -----------------------------------*/
    if (((isrflags & USART_SR_NE) != RESET) && ((cr3its & USART_CR3_EIE) != RESET))
 8002762:	f8d7 30e4 	ldr.w	r3, [r7, #228]	@ 0xe4
 8002766:	f003 0304 	and.w	r3, r3, #4
 800276a:	2b00      	cmp	r3, #0
 800276c:	d00b      	beq.n	8002786 <HAL_UART_IRQHandler+0xd2>
 800276e:	f8d7 30dc 	ldr.w	r3, [r7, #220]	@ 0xdc
 8002772:	f003 0301 	and.w	r3, r3, #1
 8002776:	2b00      	cmp	r3, #0
 8002778:	d005      	beq.n	8002786 <HAL_UART_IRQHandler+0xd2>
    {
      huart->ErrorCode |= HAL_UART_ERROR_NE;
 800277a:	687b      	ldr	r3, [r7, #4]
 800277c:	6c1b      	ldr	r3, [r3, #64]	@ 0x40
 800277e:	f043 0202 	orr.w	r2, r3, #2
 8002782:	687b      	ldr	r3, [r7, #4]
 8002784:	641a      	str	r2, [r3, #64]	@ 0x40
    }

    /* UART frame error interrupt occurred -----------------------------------*/
    if (((isrflags & USART_SR_FE) != RESET) && ((cr3its & USART_CR3_EIE) != RESET))
 8002786:	f8d7 30e4 	ldr.w	r3, [r7, #228]	@ 0xe4
 800278a:	f003 0302 	and.w	r3, r3, #2
 800278e:	2b00      	cmp	r3, #0
 8002790:	d00b      	beq.n	80027aa <HAL_UART_IRQHandler+0xf6>
 8002792:	f8d7 30dc 	ldr.w	r3, [r7, #220]	@ 0xdc
 8002796:	f003 0301 	and.w	r3, r3, #1
 800279a:	2b00      	cmp	r3, #0
 800279c:	d005      	beq.n	80027aa <HAL_UART_IRQHandler+0xf6>
    {
      huart->ErrorCode |= HAL_UART_ERROR_FE;
 800279e:	687b      	ldr	r3, [r7, #4]
 80027a0:	6c1b      	ldr	r3, [r3, #64]	@ 0x40
 80027a2:	f043 0204 	orr.w	r2, r3, #4
 80027a6:	687b      	ldr	r3, [r7, #4]
 80027a8:	641a      	str	r2, [r3, #64]	@ 0x40
    }

    /* UART Over-Run interrupt occurred --------------------------------------*/
    if (((isrflags & USART_SR_ORE) != RESET) && (((cr1its & USART_CR1_RXNEIE) != RESET)
 80027aa:	f8d7 30e4 	ldr.w	r3, [r7, #228]	@ 0xe4
 80027ae:	f003 0308 	and.w	r3, r3, #8
 80027b2:	2b00      	cmp	r3, #0
 80027b4:	d011      	beq.n	80027da <HAL_UART_IRQHandler+0x126>
 80027b6:	f8d7 30e0 	ldr.w	r3, [r7, #224]	@ 0xe0
 80027ba:	f003 0320 	and.w	r3, r3, #32
 80027be:	2b00      	cmp	r3, #0
 80027c0:	d105      	bne.n	80027ce <HAL_UART_IRQHandler+0x11a>
                                                 || ((cr3its & USART_CR3_EIE) != RESET)))
 80027c2:	f8d7 30dc 	ldr.w	r3, [r7, #220]	@ 0xdc
 80027c6:	f003 0301 	and.w	r3, r3, #1
 80027ca:	2b00      	cmp	r3, #0
 80027cc:	d005      	beq.n	80027da <HAL_UART_IRQHandler+0x126>
    {
      huart->ErrorCode |= HAL_UART_ERROR_ORE;
 80027ce:	687b      	ldr	r3, [r7, #4]
 80027d0:	6c1b      	ldr	r3, [r3, #64]	@ 0x40
 80027d2:	f043 0208 	orr.w	r2, r3, #8
 80027d6:	687b      	ldr	r3, [r7, #4]
 80027d8:	641a      	str	r2, [r3, #64]	@ 0x40
    }

    /* Call UART Error Call back function if need be --------------------------*/
    if (huart->ErrorCode != HAL_UART_ERROR_NONE)
 80027da:	687b      	ldr	r3, [r7, #4]
 80027dc:	6c1b      	ldr	r3, [r3, #64]	@ 0x40
 80027de:	2b00      	cmp	r3, #0
 80027e0:	f000 81ed 	beq.w	8002bbe <HAL_UART_IRQHandler+0x50a>
    {
      /* UART in mode Receiver -----------------------------------------------*/
      if (((isrflags & USART_SR_RXNE) != RESET) && ((cr1its & USART_CR1_RXNEIE) != RESET))
 80027e4:	f8d7 30e4 	ldr.w	r3, [r7, #228]	@ 0xe4
 80027e8:	f003 0320 	and.w	r3, r3, #32
 80027ec:	2b00      	cmp	r3, #0
 80027ee:	d008      	beq.n	8002802 <HAL_UART_IRQHandler+0x14e>
 80027f0:	f8d7 30e0 	ldr.w	r3, [r7, #224]	@ 0xe0
 80027f4:	f003 0320 	and.w	r3, r3, #32
 80027f8:	2b00      	cmp	r3, #0
 80027fa:	d002      	beq.n	8002802 <HAL_UART_IRQHandler+0x14e>
      {
        UART_Receive_IT(huart);
 80027fc:	6878      	ldr	r0, [r7, #4]
 80027fe:	f000 fb92 	bl	8002f26 <UART_Receive_IT>
      }

      /* If Overrun error occurs, or if any error occurs in DMA mode reception,
         consider error as blocking */
      dmarequest = HAL_IS_BIT_SET(huart->Instance->CR3, USART_CR3_DMAR);
 8002802:	687b      	ldr	r3, [r7, #4]
 8002804:	681b      	ldr	r3, [r3, #0]
 8002806:	695b      	ldr	r3, [r3, #20]
 8002808:	f003 0340 	and.w	r3, r3, #64	@ 0x40
 800280c:	2b40      	cmp	r3, #64	@ 0x40
 800280e:	bf0c      	ite	eq
 8002810:	2301      	moveq	r3, #1
 8002812:	2300      	movne	r3, #0
 8002814:	b2db      	uxtb	r3, r3
 8002816:	f8c7 30d4 	str.w	r3, [r7, #212]	@ 0xd4
      if (((huart->ErrorCode & HAL_UART_ERROR_ORE) != RESET) || dmarequest)
 800281a:	687b      	ldr	r3, [r7, #4]
 800281c:	6c1b      	ldr	r3, [r3, #64]	@ 0x40
 800281e:	f003 0308 	and.w	r3, r3, #8
 8002822:	2b00      	cmp	r3, #0
 8002824:	d103      	bne.n	800282e <HAL_UART_IRQHandler+0x17a>
 8002826:	f8d7 30d4 	ldr.w	r3, [r7, #212]	@ 0xd4
 800282a:	2b00      	cmp	r3, #0
 800282c:	d04f      	beq.n	80028ce <HAL_UART_IRQHandler+0x21a>
      {
        /* Blocking error : transfer is aborted
           Set the UART state ready to be able to start again the process,
           Disable Rx Interrupts, and disable Rx DMA request, if ongoing */
        UART_EndRxTransfer(huart);
 800282e:	6878      	ldr	r0, [r7, #4]
 8002830:	f000 fa9a 	bl	8002d68 <UART_EndRxTransfer>

        /* Disable the UART DMA Rx request if enabled */
        if (HAL_IS_BIT_SET(huart->Instance->CR3, USART_CR3_DMAR))
 8002834:	687b      	ldr	r3, [r7, #4]
 8002836:	681b      	ldr	r3, [r3, #0]
 8002838:	695b      	ldr	r3, [r3, #20]
 800283a:	f003 0340 	and.w	r3, r3, #64	@ 0x40
 800283e:	2b40      	cmp	r3, #64	@ 0x40
 8002840:	d141      	bne.n	80028c6 <HAL_UART_IRQHandler+0x212>
        {
          ATOMIC_CLEAR_BIT(huart->Instance->CR3, USART_CR3_DMAR);
 8002842:	687b      	ldr	r3, [r7, #4]
 8002844:	681b      	ldr	r3, [r3, #0]
 8002846:	3314      	adds	r3, #20
 8002848:	f8c7 309c 	str.w	r3, [r7, #156]	@ 0x9c
 */
__STATIC_FORCEINLINE uint32_t __LDREXW(volatile uint32_t *addr)
{
    uint32_t result;

   __ASM volatile ("ldrex %0, %1" : "=r" (result) : "Q" (*addr) );
 800284c:	f8d7 309c 	ldr.w	r3, [r7, #156]	@ 0x9c
 8002850:	e853 3f00 	ldrex	r3, [r3]
 8002854:	f8c7 3098 	str.w	r3, [r7, #152]	@ 0x98
   return(result);
 8002858:	f8d7 3098 	ldr.w	r3, [r7, #152]	@ 0x98
 800285c:	f023 0340 	bic.w	r3, r3, #64	@ 0x40
 8002860:	f8c7 30d0 	str.w	r3, [r7, #208]	@ 0xd0
 8002864:	687b      	ldr	r3, [r7, #4]
 8002866:	681b      	ldr	r3, [r3, #0]
 8002868:	3314      	adds	r3, #20
 800286a:	f8d7 20d0 	ldr.w	r2, [r7, #208]	@ 0xd0
 800286e:	f8c7 20a8 	str.w	r2, [r7, #168]	@ 0xa8
 8002872:	f8c7 30a4 	str.w	r3, [r7, #164]	@ 0xa4
 */
__STATIC_FORCEINLINE uint32_t __STREXW(uint32_t value, volatile uint32_t *addr)
{
   uint32_t result;

   __ASM volatile ("strex %0, %2, %1" : "=&r" (result), "=Q" (*addr) : "r" (value) );
 8002876:	f8d7 10a4 	ldr.w	r1, [r7, #164]	@ 0xa4
 800287a:	f8d7 20a8 	ldr.w	r2, [r7, #168]	@ 0xa8
 800287e:	e841 2300 	strex	r3, r2, [r1]
 8002882:	f8c7 30a0 	str.w	r3, [r7, #160]	@ 0xa0
   return(result);
 8002886:	f8d7 30a0 	ldr.w	r3, [r7, #160]	@ 0xa0
 800288a:	2b00      	cmp	r3, #0
 800288c:	d1d9      	bne.n	8002842 <HAL_UART_IRQHandler+0x18e>

          /* Abort the UART DMA Rx stream */
          if (huart->hdmarx != NULL)
 800288e:	687b      	ldr	r3, [r7, #4]
 8002890:	6b9b      	ldr	r3, [r3, #56]	@ 0x38
 8002892:	2b00      	cmp	r3, #0
 8002894:	d013      	beq.n	80028be <HAL_UART_IRQHandler+0x20a>
          {
            /* Set the UART DMA Abort callback :
               will lead to call HAL_UART_ErrorCallback() at end of DMA abort procedure */
            huart->hdmarx->XferAbortCallback = UART_DMAAbortOnError;
 8002896:	687b      	ldr	r3, [r7, #4]
 8002898:	6b9b      	ldr	r3, [r3, #56]	@ 0x38
 800289a:	4a7d      	ldr	r2, [pc, #500]	@ (8002a90 <HAL_UART_IRQHandler+0x3dc>)
 800289c:	651a      	str	r2, [r3, #80]	@ 0x50
            if (HAL_DMA_Abort_IT(huart->hdmarx) != HAL_OK)
 800289e:	687b      	ldr	r3, [r7, #4]
 80028a0:	6b9b      	ldr	r3, [r3, #56]	@ 0x38
 80028a2:	4618      	mov	r0, r3
 80028a4:	f7fe ff9d 	bl	80017e2 <HAL_DMA_Abort_IT>
 80028a8:	4603      	mov	r3, r0
 80028aa:	2b00      	cmp	r3, #0
 80028ac:	d016      	beq.n	80028dc <HAL_UART_IRQHandler+0x228>
            {
              /* Call Directly XferAbortCallback function in case of error */
              huart->hdmarx->XferAbortCallback(huart->hdmarx);
 80028ae:	687b      	ldr	r3, [r7, #4]
 80028b0:	6b9b      	ldr	r3, [r3, #56]	@ 0x38
 80028b2:	6d1b      	ldr	r3, [r3, #80]	@ 0x50
 80028b4:	687a      	ldr	r2, [r7, #4]
 80028b6:	6b92      	ldr	r2, [r2, #56]	@ 0x38
 80028b8:	4610      	mov	r0, r2
 80028ba:	4798      	blx	r3
        if (HAL_IS_BIT_SET(huart->Instance->CR3, USART_CR3_DMAR))
 80028bc:	e00e      	b.n	80028dc <HAL_UART_IRQHandler+0x228>
#if (USE_HAL_UART_REGISTER_CALLBACKS == 1)
            /*Call registered error callback*/
            huart->ErrorCallback(huart);
#else
            /*Call legacy weak error callback*/
            HAL_UART_ErrorCallback(huart);
 80028be:	6878      	ldr	r0, [r7, #4]
 80028c0:	f000 f990 	bl	8002be4 <HAL_UART_ErrorCallback>
        if (HAL_IS_BIT_SET(huart->Instance->CR3, USART_CR3_DMAR))
 80028c4:	e00a      	b.n	80028dc <HAL_UART_IRQHandler+0x228>
#if (USE_HAL_UART_REGISTER_CALLBACKS == 1)
          /*Call registered error callback*/
          huart->ErrorCallback(huart);
#else
          /*Call legacy weak error callback*/
          HAL_UART_ErrorCallback(huart);
 80028c6:	6878      	ldr	r0, [r7, #4]
 80028c8:	f000 f98c 	bl	8002be4 <HAL_UART_ErrorCallback>
        if (HAL_IS_BIT_SET(huart->Instance->CR3, USART_CR3_DMAR))
 80028cc:	e006      	b.n	80028dc <HAL_UART_IRQHandler+0x228>
#if (USE_HAL_UART_REGISTER_CALLBACKS == 1)
        /*Call registered error callback*/
        huart->ErrorCallback(huart);
#else
        /*Call legacy weak error callback*/
        HAL_UART_ErrorCallback(huart);
 80028ce:	6878      	ldr	r0, [r7, #4]
 80028d0:	f000 f988 	bl	8002be4 <HAL_UART_ErrorCallback>
#endif /* USE_HAL_UART_REGISTER_CALLBACKS */

        huart->ErrorCode = HAL_UART_ERROR_NONE;
 80028d4:	687b      	ldr	r3, [r7, #4]
 80028d6:	2200      	movs	r2, #0
 80028d8:	641a      	str	r2, [r3, #64]	@ 0x40
      }
    }
    return;
 80028da:	e170      	b.n	8002bbe <HAL_UART_IRQHandler+0x50a>
        if (HAL_IS_BIT_SET(huart->Instance->CR3, USART_CR3_DMAR))
 80028dc:	bf00      	nop
    return;
 80028de:	e16e      	b.n	8002bbe <HAL_UART_IRQHandler+0x50a>
  } /* End if some error occurs */

  /* Check current reception Mode :
     If Reception till IDLE event has been selected : */
  if ((huart->ReceptionType == HAL_UART_RECEPTION_TOIDLE)
 80028e0:	687b      	ldr	r3, [r7, #4]
 80028e2:	6b1b      	ldr	r3, [r3, #48]	@ 0x30
 80028e4:	2b01      	cmp	r3, #1
 80028e6:	f040 814a 	bne.w	8002b7e <HAL_UART_IRQHandler+0x4ca>
      && ((isrflags & USART_SR_IDLE) != 0U)
 80028ea:	f8d7 30e4 	ldr.w	r3, [r7, #228]	@ 0xe4
 80028ee:	f003 0310 	and.w	r3, r3, #16
 80028f2:	2b00      	cmp	r3, #0
 80028f4:	f000 8143 	beq.w	8002b7e <HAL_UART_IRQHandler+0x4ca>
      && ((cr1its & USART_SR_IDLE) != 0U))
 80028f8:	f8d7 30e0 	ldr.w	r3, [r7, #224]	@ 0xe0
 80028fc:	f003 0310 	and.w	r3, r3, #16
 8002900:	2b00      	cmp	r3, #0
 8002902:	f000 813c 	beq.w	8002b7e <HAL_UART_IRQHandler+0x4ca>
  {
    __HAL_UART_CLEAR_IDLEFLAG(huart);
 8002906:	2300      	movs	r3, #0
 8002908:	60bb      	str	r3, [r7, #8]
 800290a:	687b      	ldr	r3, [r7, #4]
 800290c:	681b      	ldr	r3, [r3, #0]
 800290e:	681b      	ldr	r3, [r3, #0]
 8002910:	60bb      	str	r3, [r7, #8]
 8002912:	687b      	ldr	r3, [r7, #4]
 8002914:	681b      	ldr	r3, [r3, #0]
 8002916:	685b      	ldr	r3, [r3, #4]
 8002918:	60bb      	str	r3, [r7, #8]
 800291a:	68bb      	ldr	r3, [r7, #8]

    /* Check if DMA mode is enabled in UART */
    if (HAL_IS_BIT_SET(huart->Instance->CR3, USART_CR3_DMAR))
 800291c:	687b      	ldr	r3, [r7, #4]
 800291e:	681b      	ldr	r3, [r3, #0]
 8002920:	695b      	ldr	r3, [r3, #20]
 8002922:	f003 0340 	and.w	r3, r3, #64	@ 0x40
 8002926:	2b40      	cmp	r3, #64	@ 0x40
 8002928:	f040 80b4 	bne.w	8002a94 <HAL_UART_IRQHandler+0x3e0>
    {
      /* DMA mode enabled */
      /* Check received length : If all expected data are received, do nothing,
         (DMA cplt callback will be called).
         Otherwise, if at least one data has already been received, IDLE event is to be notified to user */
      uint16_t nb_remaining_rx_data = (uint16_t) __HAL_DMA_GET_COUNTER(huart->hdmarx);
 800292c:	687b      	ldr	r3, [r7, #4]
 800292e:	6b9b      	ldr	r3, [r3, #56]	@ 0x38
 8002930:	681b      	ldr	r3, [r3, #0]
 8002932:	685b      	ldr	r3, [r3, #4]
 8002934:	f8a7 30be 	strh.w	r3, [r7, #190]	@ 0xbe
      if ((nb_remaining_rx_data > 0U)
 8002938:	f8b7 30be 	ldrh.w	r3, [r7, #190]	@ 0xbe
 800293c:	2b00      	cmp	r3, #0
 800293e:	f000 8140 	beq.w	8002bc2 <HAL_UART_IRQHandler+0x50e>
          && (nb_remaining_rx_data < huart->RxXferSize))
 8002942:	687b      	ldr	r3, [r7, #4]
 8002944:	8d9b      	ldrh	r3, [r3, #44]	@ 0x2c
 8002946:	f8b7 20be 	ldrh.w	r2, [r7, #190]	@ 0xbe
 800294a:	429a      	cmp	r2, r3
 800294c:	f080 8139 	bcs.w	8002bc2 <HAL_UART_IRQHandler+0x50e>
      {
        /* Reception is not complete */
        huart->RxXferCount = nb_remaining_rx_data;
 8002950:	687b      	ldr	r3, [r7, #4]
 8002952:	f8b7 20be 	ldrh.w	r2, [r7, #190]	@ 0xbe
 8002956:	85da      	strh	r2, [r3, #46]	@ 0x2e

        /* In Normal mode, end DMA xfer and HAL UART Rx process*/
        if (huart->hdmarx->Init.Mode != DMA_CIRCULAR)
 8002958:	687b      	ldr	r3, [r7, #4]
 800295a:	6b9b      	ldr	r3, [r3, #56]	@ 0x38
 800295c:	69db      	ldr	r3, [r3, #28]
 800295e:	f5b3 7f80 	cmp.w	r3, #256	@ 0x100
 8002962:	f000 8088 	beq.w	8002a76 <HAL_UART_IRQHandler+0x3c2>
        {
          /* Disable PE and ERR (Frame error, noise error, overrun error) interrupts */
          ATOMIC_CLEAR_BIT(huart->Instance->CR1, USART_CR1_PEIE);
 8002966:	687b      	ldr	r3, [r7, #4]
 8002968:	681b      	ldr	r3, [r3, #0]
 800296a:	330c      	adds	r3, #12
 800296c:	f8c7 3088 	str.w	r3, [r7, #136]	@ 0x88
   __ASM volatile ("ldrex %0, %1" : "=r" (result) : "Q" (*addr) );
 8002970:	f8d7 3088 	ldr.w	r3, [r7, #136]	@ 0x88
 8002974:	e853 3f00 	ldrex	r3, [r3]
 8002978:	f8c7 3084 	str.w	r3, [r7, #132]	@ 0x84
   return(result);
 800297c:	f8d7 3084 	ldr.w	r3, [r7, #132]	@ 0x84
 8002980:	f423 7380 	bic.w	r3, r3, #256	@ 0x100
 8002984:	f8c7 30b8 	str.w	r3, [r7, #184]	@ 0xb8
 8002988:	687b      	ldr	r3, [r7, #4]
 800298a:	681b      	ldr	r3, [r3, #0]
 800298c:	330c      	adds	r3, #12
 800298e:	f8d7 20b8 	ldr.w	r2, [r7, #184]	@ 0xb8
 8002992:	f8c7 2094 	str.w	r2, [r7, #148]	@ 0x94
 8002996:	f8c7 3090 	str.w	r3, [r7, #144]	@ 0x90
   __ASM volatile ("strex %0, %2, %1" : "=&r" (result), "=Q" (*addr) : "r" (value) );
 800299a:	f8d7 1090 	ldr.w	r1, [r7, #144]	@ 0x90
 800299e:	f8d7 2094 	ldr.w	r2, [r7, #148]	@ 0x94
 80029a2:	e841 2300 	strex	r3, r2, [r1]
 80029a6:	f8c7 308c 	str.w	r3, [r7, #140]	@ 0x8c
   return(result);
 80029aa:	f8d7 308c 	ldr.w	r3, [r7, #140]	@ 0x8c
 80029ae:	2b00      	cmp	r3, #0
 80029b0:	d1d9      	bne.n	8002966 <HAL_UART_IRQHandler+0x2b2>
          ATOMIC_CLEAR_BIT(huart->Instance->CR3, USART_CR3_EIE);
 80029b2:	687b      	ldr	r3, [r7, #4]
 80029b4:	681b      	ldr	r3, [r3, #0]
 80029b6:	3314      	adds	r3, #20
 80029b8:	677b      	str	r3, [r7, #116]	@ 0x74
   __ASM volatile ("ldrex %0, %1" : "=r" (result) : "Q" (*addr) );
 80029ba:	6f7b      	ldr	r3, [r7, #116]	@ 0x74
 80029bc:	e853 3f00 	ldrex	r3, [r3]
 80029c0:	673b      	str	r3, [r7, #112]	@ 0x70
   return(result);
 80029c2:	6f3b      	ldr	r3, [r7, #112]	@ 0x70
 80029c4:	f023 0301 	bic.w	r3, r3, #1
 80029c8:	f8c7 30b4 	str.w	r3, [r7, #180]	@ 0xb4
 80029cc:	687b      	ldr	r3, [r7, #4]
 80029ce:	681b      	ldr	r3, [r3, #0]
 80029d0:	3314      	adds	r3, #20
 80029d2:	f8d7 20b4 	ldr.w	r2, [r7, #180]	@ 0xb4
 80029d6:	f8c7 2080 	str.w	r2, [r7, #128]	@ 0x80
 80029da:	67fb      	str	r3, [r7, #124]	@ 0x7c
   __ASM volatile ("strex %0, %2, %1" : "=&r" (result), "=Q" (*addr) : "r" (value) );
 80029dc:	6ff9      	ldr	r1, [r7, #124]	@ 0x7c
 80029de:	f8d7 2080 	ldr.w	r2, [r7, #128]	@ 0x80
 80029e2:	e841 2300 	strex	r3, r2, [r1]
 80029e6:	67bb      	str	r3, [r7, #120]	@ 0x78
   return(result);
 80029e8:	6fbb      	ldr	r3, [r7, #120]	@ 0x78
 80029ea:	2b00      	cmp	r3, #0
 80029ec:	d1e1      	bne.n	80029b2 <HAL_UART_IRQHandler+0x2fe>

          /* Disable the DMA transfer for the receiver request by resetting the DMAR bit
             in the UART CR3 register */
          ATOMIC_CLEAR_BIT(huart->Instance->CR3, USART_CR3_DMAR);
 80029ee:	687b      	ldr	r3, [r7, #4]
 80029f0:	681b      	ldr	r3, [r3, #0]
 80029f2:	3314      	adds	r3, #20
 80029f4:	663b      	str	r3, [r7, #96]	@ 0x60
   __ASM volatile ("ldrex %0, %1" : "=r" (result) : "Q" (*addr) );
 80029f6:	6e3b      	ldr	r3, [r7, #96]	@ 0x60
 80029f8:	e853 3f00 	ldrex	r3, [r3]
 80029fc:	65fb      	str	r3, [r7, #92]	@ 0x5c
   return(result);
 80029fe:	6dfb      	ldr	r3, [r7, #92]	@ 0x5c
 8002a00:	f023 0340 	bic.w	r3, r3, #64	@ 0x40
 8002a04:	f8c7 30b0 	str.w	r3, [r7, #176]	@ 0xb0
 8002a08:	687b      	ldr	r3, [r7, #4]
 8002a0a:	681b      	ldr	r3, [r3, #0]
 8002a0c:	3314      	adds	r3, #20
 8002a0e:	f8d7 20b0 	ldr.w	r2, [r7, #176]	@ 0xb0
 8002a12:	66fa      	str	r2, [r7, #108]	@ 0x6c
 8002a14:	66bb      	str	r3, [r7, #104]	@ 0x68
   __ASM volatile ("strex %0, %2, %1" : "=&r" (result), "=Q" (*addr) : "r" (value) );
 8002a16:	6eb9      	ldr	r1, [r7, #104]	@ 0x68
 8002a18:	6efa      	ldr	r2, [r7, #108]	@ 0x6c
 8002a1a:	e841 2300 	strex	r3, r2, [r1]
 8002a1e:	667b      	str	r3, [r7, #100]	@ 0x64
   return(result);
 8002a20:	6e7b      	ldr	r3, [r7, #100]	@ 0x64
 8002a22:	2b00      	cmp	r3, #0
 8002a24:	d1e3      	bne.n	80029ee <HAL_UART_IRQHandler+0x33a>

          /* At end of Rx process, restore huart->RxState to Ready */
          huart->RxState = HAL_UART_STATE_READY;
 8002a26:	687b      	ldr	r3, [r7, #4]
 8002a28:	2220      	movs	r2, #32
 8002a2a:	f883 203e 	strb.w	r2, [r3, #62]	@ 0x3e
          huart->ReceptionType = HAL_UART_RECEPTION_STANDARD;
 8002a2e:	687b      	ldr	r3, [r7, #4]
 8002a30:	2200      	movs	r2, #0
 8002a32:	631a      	str	r2, [r3, #48]	@ 0x30

          ATOMIC_CLEAR_BIT(huart->Instance->CR1, USART_CR1_IDLEIE);
 8002a34:	687b      	ldr	r3, [r7, #4]
 8002a36:	681b      	ldr	r3, [r3, #0]
 8002a38:	330c      	adds	r3, #12
 8002a3a:	64fb      	str	r3, [r7, #76]	@ 0x4c
   __ASM volatile ("ldrex %0, %1" : "=r" (result) : "Q" (*addr) );
 8002a3c:	6cfb      	ldr	r3, [r7, #76]	@ 0x4c
 8002a3e:	e853 3f00 	ldrex	r3, [r3]
 8002a42:	64bb      	str	r3, [r7, #72]	@ 0x48
   return(result);
 8002a44:	6cbb      	ldr	r3, [r7, #72]	@ 0x48
 8002a46:	f023 0310 	bic.w	r3, r3, #16
 8002a4a:	f8c7 30ac 	str.w	r3, [r7, #172]	@ 0xac
 8002a4e:	687b      	ldr	r3, [r7, #4]
 8002a50:	681b      	ldr	r3, [r3, #0]
 8002a52:	330c      	adds	r3, #12
 8002a54:	f8d7 20ac 	ldr.w	r2, [r7, #172]	@ 0xac
 8002a58:	65ba      	str	r2, [r7, #88]	@ 0x58
 8002a5a:	657b      	str	r3, [r7, #84]	@ 0x54
   __ASM volatile ("strex %0, %2, %1" : "=&r" (result), "=Q" (*addr) : "r" (value) );
 8002a5c:	6d79      	ldr	r1, [r7, #84]	@ 0x54
 8002a5e:	6dba      	ldr	r2, [r7, #88]	@ 0x58
 8002a60:	e841 2300 	strex	r3, r2, [r1]
 8002a64:	653b      	str	r3, [r7, #80]	@ 0x50
   return(result);
 8002a66:	6d3b      	ldr	r3, [r7, #80]	@ 0x50
 8002a68:	2b00      	cmp	r3, #0
 8002a6a:	d1e3      	bne.n	8002a34 <HAL_UART_IRQHandler+0x380>

          /* Last bytes received, so no need as the abort is immediate */
          (void)HAL_DMA_Abort(huart->hdmarx);
 8002a6c:	687b      	ldr	r3, [r7, #4]
 8002a6e:	6b9b      	ldr	r3, [r3, #56]	@ 0x38
 8002a70:	4618      	mov	r0, r3
 8002a72:	f7fe fe46 	bl	8001702 <HAL_DMA_Abort>
#if (USE_HAL_UART_REGISTER_CALLBACKS == 1)
        /*Call registered Rx Event callback*/
        huart->RxEventCallback(huart, (huart->RxXferSize - huart->RxXferCount));
#else
        /*Call legacy weak Rx Event callback*/
        HAL_UARTEx_RxEventCallback(huart, (huart->RxXferSize - huart->RxXferCount));
 8002a76:	687b      	ldr	r3, [r7, #4]
 8002a78:	8d9a      	ldrh	r2, [r3, #44]	@ 0x2c
 8002a7a:	687b      	ldr	r3, [r7, #4]
 8002a7c:	8ddb      	ldrh	r3, [r3, #46]	@ 0x2e
 8002a7e:	b29b      	uxth	r3, r3
 8002a80:	1ad3      	subs	r3, r2, r3
 8002a82:	b29b      	uxth	r3, r3
 8002a84:	4619      	mov	r1, r3
 8002a86:	6878      	ldr	r0, [r7, #4]
 8002a88:	f000 f8b6 	bl	8002bf8 <HAL_UARTEx_RxEventCallback>
#endif /* USE_HAL_UART_REGISTER_CALLBACKS */
      }
      return;
 8002a8c:	e099      	b.n	8002bc2 <HAL_UART_IRQHandler+0x50e>
 8002a8e:	bf00      	nop
 8002a90:	08002e2f 	.word	0x08002e2f
    else
    {
      /* DMA mode not enabled */
      /* Check received length : If all expected data are received, do nothing.
         Otherwise, if at least one data has already been received, IDLE event is to be notified to user */
      uint16_t nb_rx_data = huart->RxXferSize - huart->RxXferCount;
 8002a94:	687b      	ldr	r3, [r7, #4]
 8002a96:	8d9a      	ldrh	r2, [r3, #44]	@ 0x2c
 8002a98:	687b      	ldr	r3, [r7, #4]
 8002a9a:	8ddb      	ldrh	r3, [r3, #46]	@ 0x2e
 8002a9c:	b29b      	uxth	r3, r3
 8002a9e:	1ad3      	subs	r3, r2, r3
 8002aa0:	f8a7 30ce 	strh.w	r3, [r7, #206]	@ 0xce
      if ((huart->RxXferCount > 0U)
 8002aa4:	687b      	ldr	r3, [r7, #4]
 8002aa6:	8ddb      	ldrh	r3, [r3, #46]	@ 0x2e
 8002aa8:	b29b      	uxth	r3, r3
 8002aaa:	2b00      	cmp	r3, #0
 8002aac:	f000 808b 	beq.w	8002bc6 <HAL_UART_IRQHandler+0x512>
          && (nb_rx_data > 0U))
 8002ab0:	f8b7 30ce 	ldrh.w	r3, [r7, #206]	@ 0xce
 8002ab4:	2b00      	cmp	r3, #0
 8002ab6:	f000 8086 	beq.w	8002bc6 <HAL_UART_IRQHandler+0x512>
      {
        /* Disable the UART Parity Error Interrupt and RXNE interrupts */
        ATOMIC_CLEAR_BIT(huart->Instance->CR1, (USART_CR1_RXNEIE | USART_CR1_PEIE));
 8002aba:	687b      	ldr	r3, [r7, #4]
 8002abc:	681b      	ldr	r3, [r3, #0]
 8002abe:	330c      	adds	r3, #12
 8002ac0:	63bb      	str	r3, [r7, #56]	@ 0x38
   __ASM volatile ("ldrex %0, %1" : "=r" (result) : "Q" (*addr) );
 8002ac2:	6bbb      	ldr	r3, [r7, #56]	@ 0x38
 8002ac4:	e853 3f00 	ldrex	r3, [r3]
 8002ac8:	637b      	str	r3, [r7, #52]	@ 0x34
   return(result);
 8002aca:	6b7b      	ldr	r3, [r7, #52]	@ 0x34
 8002acc:	f423 7390 	bic.w	r3, r3, #288	@ 0x120
 8002ad0:	f8c7 30c8 	str.w	r3, [r7, #200]	@ 0xc8
 8002ad4:	687b      	ldr	r3, [r7, #4]
 8002ad6:	681b      	ldr	r3, [r3, #0]
 8002ad8:	330c      	adds	r3, #12
 8002ada:	f8d7 20c8 	ldr.w	r2, [r7, #200]	@ 0xc8
 8002ade:	647a      	str	r2, [r7, #68]	@ 0x44
 8002ae0:	643b      	str	r3, [r7, #64]	@ 0x40
   __ASM volatile ("strex %0, %2, %1" : "=&r" (result), "=Q" (*addr) : "r" (value) );
 8002ae2:	6c39      	ldr	r1, [r7, #64]	@ 0x40
 8002ae4:	6c7a      	ldr	r2, [r7, #68]	@ 0x44
 8002ae6:	e841 2300 	strex	r3, r2, [r1]
 8002aea:	63fb      	str	r3, [r7, #60]	@ 0x3c
   return(result);
 8002aec:	6bfb      	ldr	r3, [r7, #60]	@ 0x3c
 8002aee:	2b00      	cmp	r3, #0
 8002af0:	d1e3      	bne.n	8002aba <HAL_UART_IRQHandler+0x406>

        /* Disable the UART Error Interrupt: (Frame error, noise error, overrun error) */
        ATOMIC_CLEAR_BIT(huart->Instance->CR3, USART_CR3_EIE);
 8002af2:	687b      	ldr	r3, [r7, #4]
 8002af4:	681b      	ldr	r3, [r3, #0]
 8002af6:	3314      	adds	r3, #20
 8002af8:	627b      	str	r3, [r7, #36]	@ 0x24
   __ASM volatile ("ldrex %0, %1" : "=r" (result) : "Q" (*addr) );
 8002afa:	6a7b      	ldr	r3, [r7, #36]	@ 0x24
 8002afc:	e853 3f00 	ldrex	r3, [r3]
 8002b00:	623b      	str	r3, [r7, #32]
   return(result);
 8002b02:	6a3b      	ldr	r3, [r7, #32]
 8002b04:	f023 0301 	bic.w	r3, r3, #1
 8002b08:	f8c7 30c4 	str.w	r3, [r7, #196]	@ 0xc4
 8002b0c:	687b      	ldr	r3, [r7, #4]
 8002b0e:	681b      	ldr	r3, [r3, #0]
 8002b10:	3314      	adds	r3, #20
 8002b12:	f8d7 20c4 	ldr.w	r2, [r7, #196]	@ 0xc4
 8002b16:	633a      	str	r2, [r7, #48]	@ 0x30
 8002b18:	62fb      	str	r3, [r7, #44]	@ 0x2c
   __ASM volatile ("strex %0, %2, %1" : "=&r" (result), "=Q" (*addr) : "r" (value) );
 8002b1a:	6af9      	ldr	r1, [r7, #44]	@ 0x2c
 8002b1c:	6b3a      	ldr	r2, [r7, #48]	@ 0x30
 8002b1e:	e841 2300 	strex	r3, r2, [r1]
 8002b22:	62bb      	str	r3, [r7, #40]	@ 0x28
   return(result);
 8002b24:	6abb      	ldr	r3, [r7, #40]	@ 0x28
 8002b26:	2b00      	cmp	r3, #0
 8002b28:	d1e3      	bne.n	8002af2 <HAL_UART_IRQHandler+0x43e>

        /* Rx process is completed, restore huart->RxState to Ready */
        huart->RxState = HAL_UART_STATE_READY;
 8002b2a:	687b      	ldr	r3, [r7, #4]
 8002b2c:	2220      	movs	r2, #32
 8002b2e:	f883 203e 	strb.w	r2, [r3, #62]	@ 0x3e
        huart->ReceptionType = HAL_UART_RECEPTION_STANDARD;
 8002b32:	687b      	ldr	r3, [r7, #4]
 8002b34:	2200      	movs	r2, #0
 8002b36:	631a      	str	r2, [r3, #48]	@ 0x30

        ATOMIC_CLEAR_BIT(huart->Instance->CR1, USART_CR1_IDLEIE);
 8002b38:	687b      	ldr	r3, [r7, #4]
 8002b3a:	681b      	ldr	r3, [r3, #0]
 8002b3c:	330c      	adds	r3, #12
 8002b3e:	613b      	str	r3, [r7, #16]
   __ASM volatile ("ldrex %0, %1" : "=r" (result) : "Q" (*addr) );
 8002b40:	693b      	ldr	r3, [r7, #16]
 8002b42:	e853 3f00 	ldrex	r3, [r3]
 8002b46:	60fb      	str	r3, [r7, #12]
   return(result);
 8002b48:	68fb      	ldr	r3, [r7, #12]
 8002b4a:	f023 0310 	bic.w	r3, r3, #16
 8002b4e:	f8c7 30c0 	str.w	r3, [r7, #192]	@ 0xc0
 8002b52:	687b      	ldr	r3, [r7, #4]
 8002b54:	681b      	ldr	r3, [r3, #0]
 8002b56:	330c      	adds	r3, #12
 8002b58:	f8d7 20c0 	ldr.w	r2, [r7, #192]	@ 0xc0
 8002b5c:	61fa      	str	r2, [r7, #28]
 8002b5e:	61bb      	str	r3, [r7, #24]
   __ASM volatile ("strex %0, %2, %1" : "=&r" (result), "=Q" (*addr) : "r" (value) );
 8002b60:	69b9      	ldr	r1, [r7, #24]
 8002b62:	69fa      	ldr	r2, [r7, #28]
 8002b64:	e841 2300 	strex	r3, r2, [r1]
 8002b68:	617b      	str	r3, [r7, #20]
   return(result);
 8002b6a:	697b      	ldr	r3, [r7, #20]
 8002b6c:	2b00      	cmp	r3, #0
 8002b6e:	d1e3      	bne.n	8002b38 <HAL_UART_IRQHandler+0x484>
#if (USE_HAL_UART_REGISTER_CALLBACKS == 1)
        /*Call registered Rx complete callback*/
        huart->RxEventCallback(huart, nb_rx_data);
#else
        /*Call legacy weak Rx Event callback*/
        HAL_UARTEx_RxEventCallback(huart, nb_rx_data);
 8002b70:	f8b7 30ce 	ldrh.w	r3, [r7, #206]	@ 0xce
 8002b74:	4619      	mov	r1, r3
 8002b76:	6878      	ldr	r0, [r7, #4]
 8002b78:	f000 f83e 	bl	8002bf8 <HAL_UARTEx_RxEventCallback>
#endif /* USE_HAL_UART_REGISTER_CALLBACKS */
      }
      return;
 8002b7c:	e023      	b.n	8002bc6 <HAL_UART_IRQHandler+0x512>
    }
  }

  /* UART in mode Transmitter ------------------------------------------------*/
  if (((isrflags & USART_SR_TXE) != RESET) && ((cr1its & USART_CR1_TXEIE) != RESET))
 8002b7e:	f8d7 30e4 	ldr.w	r3, [r7, #228]	@ 0xe4
 8002b82:	f003 0380 	and.w	r3, r3, #128	@ 0x80
 8002b86:	2b00      	cmp	r3, #0
 8002b88:	d009      	beq.n	8002b9e <HAL_UART_IRQHandler+0x4ea>
 8002b8a:	f8d7 30e0 	ldr.w	r3, [r7, #224]	@ 0xe0
 8002b8e:	f003 0380 	and.w	r3, r3, #128	@ 0x80
 8002b92:	2b00      	cmp	r3, #0
 8002b94:	d003      	beq.n	8002b9e <HAL_UART_IRQHandler+0x4ea>
  {
    UART_Transmit_IT(huart);
 8002b96:	6878      	ldr	r0, [r7, #4]
 8002b98:	f000 f95d 	bl	8002e56 <UART_Transmit_IT>
    return;
 8002b9c:	e014      	b.n	8002bc8 <HAL_UART_IRQHandler+0x514>
  }

  /* UART in mode Transmitter end --------------------------------------------*/
  if (((isrflags & USART_SR_TC) != RESET) && ((cr1its & USART_CR1_TCIE) != RESET))
 8002b9e:	f8d7 30e4 	ldr.w	r3, [r7, #228]	@ 0xe4
 8002ba2:	f003 0340 	and.w	r3, r3, #64	@ 0x40
 8002ba6:	2b00      	cmp	r3, #0
 8002ba8:	d00e      	beq.n	8002bc8 <HAL_UART_IRQHandler+0x514>
 8002baa:	f8d7 30e0 	ldr.w	r3, [r7, #224]	@ 0xe0
 8002bae:	f003 0340 	and.w	r3, r3, #64	@ 0x40
 8002bb2:	2b00      	cmp	r3, #0
 8002bb4:	d008      	beq.n	8002bc8 <HAL_UART_IRQHandler+0x514>
  {
    UART_EndTransmit_IT(huart);
 8002bb6:	6878      	ldr	r0, [r7, #4]
 8002bb8:	f000 f99d 	bl	8002ef6 <UART_EndTransmit_IT>
    return;
 8002bbc:	e004      	b.n	8002bc8 <HAL_UART_IRQHandler+0x514>
    return;
 8002bbe:	bf00      	nop
 8002bc0:	e002      	b.n	8002bc8 <HAL_UART_IRQHandler+0x514>
      return;
 8002bc2:	bf00      	nop
 8002bc4:	e000      	b.n	8002bc8 <HAL_UART_IRQHandler+0x514>
      return;
 8002bc6:	bf00      	nop
  }
}
 8002bc8:	37e8      	adds	r7, #232	@ 0xe8
 8002bca:	46bd      	mov	sp, r7
 8002bcc:	bd80      	pop	{r7, pc}
 8002bce:	bf00      	nop

08002bd0 <HAL_UART_TxCpltCallback>:
  * @param  huart  Pointer to a UART_HandleTypeDef structure that contains
  *                the configuration information for the specified UART module.
  * @retval None
  */
__weak void HAL_UART_TxCpltCallback(UART_HandleTypeDef *huart)
{
 8002bd0:	b480      	push	{r7}
 8002bd2:	b083      	sub	sp, #12
 8002bd4:	af00      	add	r7, sp, #0
 8002bd6:	6078      	str	r0, [r7, #4]
  /* Prevent unused argument(s) compilation warning */
  UNUSED(huart);
  /* NOTE: This function should not be modified, when the callback is needed,
           the HAL_UART_TxCpltCallback could be implemented in the user file
   */
}
 8002bd8:	bf00      	nop
 8002bda:	370c      	adds	r7, #12
 8002bdc:	46bd      	mov	sp, r7
 8002bde:	f85d 7b04 	ldr.w	r7, [sp], #4
 8002be2:	4770      	bx	lr

08002be4 <HAL_UART_ErrorCallback>:
  * @param  huart  Pointer to a UART_HandleTypeDef structure that contains
  *                the configuration information for the specified UART module.
  * @retval None
  */
__weak void HAL_UART_ErrorCallback(UART_HandleTypeDef *huart)
{
 8002be4:	b480      	push	{r7}
 8002be6:	b083      	sub	sp, #12
 8002be8:	af00      	add	r7, sp, #0
 8002bea:	6078      	str	r0, [r7, #4]
  /* Prevent unused argument(s) compilation warning */
  UNUSED(huart);
  /* NOTE: This function should not be modified, when the callback is needed,
           the HAL_UART_ErrorCallback could be implemented in the user file
   */
}
 8002bec:	bf00      	nop
 8002bee:	370c      	adds	r7, #12
 8002bf0:	46bd      	mov	sp, r7
 8002bf2:	f85d 7b04 	ldr.w	r7, [sp], #4
 8002bf6:	4770      	bx	lr

08002bf8 <HAL_UARTEx_RxEventCallback>:
  * @param  Size  Number of data available in application reception buffer (indicates a position in
  *               reception buffer until which, data are available)
  * @retval None
  */
__weak void HAL_UARTEx_RxEventCallback(UART_HandleTypeDef *huart, uint16_t Size)
{
 8002bf8:	b480      	push	{r7}
 8002bfa:	b083      	sub	sp, #12
 8002bfc:	af00      	add	r7, sp, #0
 8002bfe:	6078      	str	r0, [r7, #4]
 8002c00:	460b      	mov	r3, r1
 8002c02:	807b      	strh	r3, [r7, #2]
  UNUSED(Size);

  /* NOTE : This function should not be modified, when the callback is needed,
            the HAL_UARTEx_RxEventCallback can be implemented in the user file.
   */
}
 8002c04:	bf00      	nop
 8002c06:	370c      	adds	r7, #12
 8002c08:	46bd      	mov	sp, r7
 8002c0a:	f85d 7b04 	ldr.w	r7, [sp], #4
 8002c0e:	4770      	bx	lr

08002c10 <UART_WaitOnFlagUntilTimeout>:
  * @param  Timeout Timeout duration
  * @retval HAL status
  */
static HAL_StatusTypeDef UART_WaitOnFlagUntilTimeout(UART_HandleTypeDef *huart, uint32_t Flag, FlagStatus Status,
                                                     uint32_t Tickstart, uint32_t Timeout)
{
 8002c10:	b580      	push	{r7, lr}
 8002c12:	b090      	sub	sp, #64	@ 0x40
 8002c14:	af00      	add	r7, sp, #0
 8002c16:	60f8      	str	r0, [r7, #12]
 8002c18:	60b9      	str	r1, [r7, #8]
 8002c1a:	603b      	str	r3, [r7, #0]
 8002c1c:	4613      	mov	r3, r2
 8002c1e:	71fb      	strb	r3, [r7, #7]
  /* Wait until flag is set */
  while ((__HAL_UART_GET_FLAG(huart, Flag) ? SET : RESET) == Status)
 8002c20:	e050      	b.n	8002cc4 <UART_WaitOnFlagUntilTimeout+0xb4>
  {
    /* Check for the Timeout */
    if (Timeout != HAL_MAX_DELAY)
 8002c22:	6cbb      	ldr	r3, [r7, #72]	@ 0x48
 8002c24:	f1b3 3fff 	cmp.w	r3, #4294967295
 8002c28:	d04c      	beq.n	8002cc4 <UART_WaitOnFlagUntilTimeout+0xb4>
    {
      if ((Timeout == 0U) || ((HAL_GetTick() - Tickstart) > Timeout))
 8002c2a:	6cbb      	ldr	r3, [r7, #72]	@ 0x48
 8002c2c:	2b00      	cmp	r3, #0
 8002c2e:	d007      	beq.n	8002c40 <UART_WaitOnFlagUntilTimeout+0x30>
 8002c30:	f7fe fc26 	bl	8001480 <HAL_GetTick>
 8002c34:	4602      	mov	r2, r0
 8002c36:	683b      	ldr	r3, [r7, #0]
 8002c38:	1ad3      	subs	r3, r2, r3
 8002c3a:	6cba      	ldr	r2, [r7, #72]	@ 0x48
 8002c3c:	429a      	cmp	r2, r3
 8002c3e:	d241      	bcs.n	8002cc4 <UART_WaitOnFlagUntilTimeout+0xb4>
      {
        /* Disable TXE, RXNE, PE and ERR (Frame error, noise error, overrun error) interrupts for the interrupt process */
        ATOMIC_CLEAR_BIT(huart->Instance->CR1, (USART_CR1_RXNEIE | USART_CR1_PEIE | USART_CR1_TXEIE));
 8002c40:	68fb      	ldr	r3, [r7, #12]
 8002c42:	681b      	ldr	r3, [r3, #0]
 8002c44:	330c      	adds	r3, #12
 8002c46:	62bb      	str	r3, [r7, #40]	@ 0x28
   __ASM volatile ("ldrex %0, %1" : "=r" (result) : "Q" (*addr) );
 8002c48:	6abb      	ldr	r3, [r7, #40]	@ 0x28
 8002c4a:	e853 3f00 	ldrex	r3, [r3]
 8002c4e:	627b      	str	r3, [r7, #36]	@ 0x24
   return(result);
 8002c50:	6a7b      	ldr	r3, [r7, #36]	@ 0x24
 8002c52:	f423 73d0 	bic.w	r3, r3, #416	@ 0x1a0
 8002c56:	63fb      	str	r3, [r7, #60]	@ 0x3c
 8002c58:	68fb      	ldr	r3, [r7, #12]
 8002c5a:	681b      	ldr	r3, [r3, #0]
 8002c5c:	330c      	adds	r3, #12
 8002c5e:	6bfa      	ldr	r2, [r7, #60]	@ 0x3c
 8002c60:	637a      	str	r2, [r7, #52]	@ 0x34
 8002c62:	633b      	str	r3, [r7, #48]	@ 0x30
   __ASM volatile ("strex %0, %2, %1" : "=&r" (result), "=Q" (*addr) : "r" (value) );
 8002c64:	6b39      	ldr	r1, [r7, #48]	@ 0x30
 8002c66:	6b7a      	ldr	r2, [r7, #52]	@ 0x34
 8002c68:	e841 2300 	strex	r3, r2, [r1]
 8002c6c:	62fb      	str	r3, [r7, #44]	@ 0x2c
   return(result);
 8002c6e:	6afb      	ldr	r3, [r7, #44]	@ 0x2c
 8002c70:	2b00      	cmp	r3, #0
 8002c72:	d1e5      	bne.n	8002c40 <UART_WaitOnFlagUntilTimeout+0x30>
        ATOMIC_CLEAR_BIT(huart->Instance->CR3, USART_CR3_EIE);
 8002c74:	68fb      	ldr	r3, [r7, #12]
 8002c76:	681b      	ldr	r3, [r3, #0]
 8002c78:	3314      	adds	r3, #20
 8002c7a:	617b      	str	r3, [r7, #20]
   __ASM volatile ("ldrex %0, %1" : "=r" (result) : "Q" (*addr) );
 8002c7c:	697b      	ldr	r3, [r7, #20]
 8002c7e:	e853 3f00 	ldrex	r3, [r3]
 8002c82:	613b      	str	r3, [r7, #16]
   return(result);
 8002c84:	693b      	ldr	r3, [r7, #16]
 8002c86:	f023 0301 	bic.w	r3, r3, #1
 8002c8a:	63bb      	str	r3, [r7, #56]	@ 0x38
 8002c8c:	68fb      	ldr	r3, [r7, #12]
 8002c8e:	681b      	ldr	r3, [r3, #0]
 8002c90:	3314      	adds	r3, #20
 8002c92:	6bba      	ldr	r2, [r7, #56]	@ 0x38
 8002c94:	623a      	str	r2, [r7, #32]
 8002c96:	61fb      	str	r3, [r7, #28]
   __ASM volatile ("strex %0, %2, %1" : "=&r" (result), "=Q" (*addr) : "r" (value) );
 8002c98:	69f9      	ldr	r1, [r7, #28]
 8002c9a:	6a3a      	ldr	r2, [r7, #32]
 8002c9c:	e841 2300 	strex	r3, r2, [r1]
 8002ca0:	61bb      	str	r3, [r7, #24]
   return(result);
 8002ca2:	69bb      	ldr	r3, [r7, #24]
 8002ca4:	2b00      	cmp	r3, #0
 8002ca6:	d1e5      	bne.n	8002c74 <UART_WaitOnFlagUntilTimeout+0x64>

        huart->gState  = HAL_UART_STATE_READY;
 8002ca8:	68fb      	ldr	r3, [r7, #12]
 8002caa:	2220      	movs	r2, #32
 8002cac:	f883 203d 	strb.w	r2, [r3, #61]	@ 0x3d
        huart->RxState = HAL_UART_STATE_READY;
 8002cb0:	68fb      	ldr	r3, [r7, #12]
 8002cb2:	2220      	movs	r2, #32
 8002cb4:	f883 203e 	strb.w	r2, [r3, #62]	@ 0x3e

        /* Process Unlocked */
        __HAL_UNLOCK(huart);
 8002cb8:	68fb      	ldr	r3, [r7, #12]
 8002cba:	2200      	movs	r2, #0
 8002cbc:	f883 203c 	strb.w	r2, [r3, #60]	@ 0x3c

        return HAL_TIMEOUT;
 8002cc0:	2303      	movs	r3, #3
 8002cc2:	e00f      	b.n	8002ce4 <UART_WaitOnFlagUntilTimeout+0xd4>
  while ((__HAL_UART_GET_FLAG(huart, Flag) ? SET : RESET) == Status)
 8002cc4:	68fb      	ldr	r3, [r7, #12]
 8002cc6:	681b      	ldr	r3, [r3, #0]
 8002cc8:	681a      	ldr	r2, [r3, #0]
 8002cca:	68bb      	ldr	r3, [r7, #8]
 8002ccc:	4013      	ands	r3, r2
 8002cce:	68ba      	ldr	r2, [r7, #8]
 8002cd0:	429a      	cmp	r2, r3
 8002cd2:	bf0c      	ite	eq
 8002cd4:	2301      	moveq	r3, #1
 8002cd6:	2300      	movne	r3, #0
 8002cd8:	b2db      	uxtb	r3, r3
 8002cda:	461a      	mov	r2, r3
 8002cdc:	79fb      	ldrb	r3, [r7, #7]
 8002cde:	429a      	cmp	r2, r3
 8002ce0:	d09f      	beq.n	8002c22 <UART_WaitOnFlagUntilTimeout+0x12>
      }
    }
  }
  return HAL_OK;
 8002ce2:	2300      	movs	r3, #0
}
 8002ce4:	4618      	mov	r0, r3
 8002ce6:	3740      	adds	r7, #64	@ 0x40
 8002ce8:	46bd      	mov	sp, r7
 8002cea:	bd80      	pop	{r7, pc}

08002cec <UART_Start_Receive_IT>:
  * @param  pData Pointer to data buffer (u8 or u16 data elements).
  * @param  Size  Amount of data elements (u8 or u16) to be received.
  * @retval HAL status
  */
HAL_StatusTypeDef UART_Start_Receive_IT(UART_HandleTypeDef *huart, uint8_t *pData, uint16_t Size)
{
 8002cec:	b480      	push	{r7}
 8002cee:	b085      	sub	sp, #20
 8002cf0:	af00      	add	r7, sp, #0
 8002cf2:	60f8      	str	r0, [r7, #12]
 8002cf4:	60b9      	str	r1, [r7, #8]
 8002cf6:	4613      	mov	r3, r2
 8002cf8:	80fb      	strh	r3, [r7, #6]
  huart->pRxBuffPtr = pData;
 8002cfa:	68fb      	ldr	r3, [r7, #12]
 8002cfc:	68ba      	ldr	r2, [r7, #8]
 8002cfe:	629a      	str	r2, [r3, #40]	@ 0x28
  huart->RxXferSize = Size;
 8002d00:	68fb      	ldr	r3, [r7, #12]
 8002d02:	88fa      	ldrh	r2, [r7, #6]
 8002d04:	859a      	strh	r2, [r3, #44]	@ 0x2c
  huart->RxXferCount = Size;
 8002d06:	68fb      	ldr	r3, [r7, #12]
 8002d08:	88fa      	ldrh	r2, [r7, #6]
 8002d0a:	85da      	strh	r2, [r3, #46]	@ 0x2e

  huart->ErrorCode = HAL_UART_ERROR_NONE;
 8002d0c:	68fb      	ldr	r3, [r7, #12]
 8002d0e:	2200      	movs	r2, #0
 8002d10:	641a      	str	r2, [r3, #64]	@ 0x40
  huart->RxState = HAL_UART_STATE_BUSY_RX;
 8002d12:	68fb      	ldr	r3, [r7, #12]
 8002d14:	2222      	movs	r2, #34	@ 0x22
 8002d16:	f883 203e 	strb.w	r2, [r3, #62]	@ 0x3e

  /* Process Unlocked */
  __HAL_UNLOCK(huart);
 8002d1a:	68fb      	ldr	r3, [r7, #12]
 8002d1c:	2200      	movs	r2, #0
 8002d1e:	f883 203c 	strb.w	r2, [r3, #60]	@ 0x3c

  if (huart->Init.Parity != UART_PARITY_NONE)
 8002d22:	68fb      	ldr	r3, [r7, #12]
 8002d24:	691b      	ldr	r3, [r3, #16]
 8002d26:	2b00      	cmp	r3, #0
 8002d28:	d007      	beq.n	8002d3a <UART_Start_Receive_IT+0x4e>
  {
    /* Enable the UART Parity Error Interrupt */
    __HAL_UART_ENABLE_IT(huart, UART_IT_PE);
 8002d2a:	68fb      	ldr	r3, [r7, #12]
 8002d2c:	681b      	ldr	r3, [r3, #0]
 8002d2e:	68da      	ldr	r2, [r3, #12]
 8002d30:	68fb      	ldr	r3, [r7, #12]
 8002d32:	681b      	ldr	r3, [r3, #0]
 8002d34:	f442 7280 	orr.w	r2, r2, #256	@ 0x100
 8002d38:	60da      	str	r2, [r3, #12]
  }

  /* Enable the UART Error Interrupt: (Frame error, noise error, overrun error) */
  __HAL_UART_ENABLE_IT(huart, UART_IT_ERR);
 8002d3a:	68fb      	ldr	r3, [r7, #12]
 8002d3c:	681b      	ldr	r3, [r3, #0]
 8002d3e:	695a      	ldr	r2, [r3, #20]
 8002d40:	68fb      	ldr	r3, [r7, #12]
 8002d42:	681b      	ldr	r3, [r3, #0]
 8002d44:	f042 0201 	orr.w	r2, r2, #1
 8002d48:	615a      	str	r2, [r3, #20]

  /* Enable the UART Data Register not empty Interrupt */
  __HAL_UART_ENABLE_IT(huart, UART_IT_RXNE);
 8002d4a:	68fb      	ldr	r3, [r7, #12]
 8002d4c:	681b      	ldr	r3, [r3, #0]
 8002d4e:	68da      	ldr	r2, [r3, #12]
 8002d50:	68fb      	ldr	r3, [r7, #12]
 8002d52:	681b      	ldr	r3, [r3, #0]
 8002d54:	f042 0220 	orr.w	r2, r2, #32
 8002d58:	60da      	str	r2, [r3, #12]

  return HAL_OK;
 8002d5a:	2300      	movs	r3, #0
}
 8002d5c:	4618      	mov	r0, r3
 8002d5e:	3714      	adds	r7, #20
 8002d60:	46bd      	mov	sp, r7
 8002d62:	f85d 7b04 	ldr.w	r7, [sp], #4
 8002d66:	4770      	bx	lr

08002d68 <UART_EndRxTransfer>:
  * @brief  End ongoing Rx transfer on UART peripheral (following error detection or Reception completion).
  * @param  huart UART handle.
  * @retval None
  */
static void UART_EndRxTransfer(UART_HandleTypeDef *huart)
{
 8002d68:	b480      	push	{r7}
 8002d6a:	b095      	sub	sp, #84	@ 0x54
 8002d6c:	af00      	add	r7, sp, #0
 8002d6e:	6078      	str	r0, [r7, #4]
  /* Disable RXNE, PE and ERR (Frame error, noise error, overrun error) interrupts */
  ATOMIC_CLEAR_BIT(huart->Instance->CR1, (USART_CR1_RXNEIE | USART_CR1_PEIE));
 8002d70:	687b      	ldr	r3, [r7, #4]
 8002d72:	681b      	ldr	r3, [r3, #0]
 8002d74:	330c      	adds	r3, #12
 8002d76:	637b      	str	r3, [r7, #52]	@ 0x34
   __ASM volatile ("ldrex %0, %1" : "=r" (result) : "Q" (*addr) );
 8002d78:	6b7b      	ldr	r3, [r7, #52]	@ 0x34
 8002d7a:	e853 3f00 	ldrex	r3, [r3]
 8002d7e:	633b      	str	r3, [r7, #48]	@ 0x30
   return(result);
 8002d80:	6b3b      	ldr	r3, [r7, #48]	@ 0x30
 8002d82:	f423 7390 	bic.w	r3, r3, #288	@ 0x120
 8002d86:	64fb      	str	r3, [r7, #76]	@ 0x4c
 8002d88:	687b      	ldr	r3, [r7, #4]
 8002d8a:	681b      	ldr	r3, [r3, #0]
 8002d8c:	330c      	adds	r3, #12
 8002d8e:	6cfa      	ldr	r2, [r7, #76]	@ 0x4c
 8002d90:	643a      	str	r2, [r7, #64]	@ 0x40
 8002d92:	63fb      	str	r3, [r7, #60]	@ 0x3c
   __ASM volatile ("strex %0, %2, %1" : "=&r" (result), "=Q" (*addr) : "r" (value) );
 8002d94:	6bf9      	ldr	r1, [r7, #60]	@ 0x3c
 8002d96:	6c3a      	ldr	r2, [r7, #64]	@ 0x40
 8002d98:	e841 2300 	strex	r3, r2, [r1]
 8002d9c:	63bb      	str	r3, [r7, #56]	@ 0x38
   return(result);
 8002d9e:	6bbb      	ldr	r3, [r7, #56]	@ 0x38
 8002da0:	2b00      	cmp	r3, #0
 8002da2:	d1e5      	bne.n	8002d70 <UART_EndRxTransfer+0x8>
  ATOMIC_CLEAR_BIT(huart->Instance->CR3, USART_CR3_EIE);
 8002da4:	687b      	ldr	r3, [r7, #4]
 8002da6:	681b      	ldr	r3, [r3, #0]
 8002da8:	3314      	adds	r3, #20
 8002daa:	623b      	str	r3, [r7, #32]
   __ASM volatile ("ldrex %0, %1" : "=r" (result) : "Q" (*addr) );
 8002dac:	6a3b      	ldr	r3, [r7, #32]
 8002dae:	e853 3f00 	ldrex	r3, [r3]
 8002db2:	61fb      	str	r3, [r7, #28]
   return(result);
 8002db4:	69fb      	ldr	r3, [r7, #28]
 8002db6:	f023 0301 	bic.w	r3, r3, #1
 8002dba:	64bb      	str	r3, [r7, #72]	@ 0x48
 8002dbc:	687b      	ldr	r3, [r7, #4]
 8002dbe:	681b      	ldr	r3, [r3, #0]
 8002dc0:	3314      	adds	r3, #20
 8002dc2:	6cba      	ldr	r2, [r7, #72]	@ 0x48
 8002dc4:	62fa      	str	r2, [r7, #44]	@ 0x2c
 8002dc6:	62bb      	str	r3, [r7, #40]	@ 0x28
   __ASM volatile ("strex %0, %2, %1" : "=&r" (result), "=Q" (*addr) : "r" (value) );
 8002dc8:	6ab9      	ldr	r1, [r7, #40]	@ 0x28
 8002dca:	6afa      	ldr	r2, [r7, #44]	@ 0x2c
 8002dcc:	e841 2300 	strex	r3, r2, [r1]
 8002dd0:	627b      	str	r3, [r7, #36]	@ 0x24
   return(result);
 8002dd2:	6a7b      	ldr	r3, [r7, #36]	@ 0x24
 8002dd4:	2b00      	cmp	r3, #0
 8002dd6:	d1e5      	bne.n	8002da4 <UART_EndRxTransfer+0x3c>

  /* In case of reception waiting for IDLE event, disable also the IDLE IE interrupt source */
  if (huart->ReceptionType == HAL_UART_RECEPTION_TOIDLE)
 8002dd8:	687b      	ldr	r3, [r7, #4]
 8002dda:	6b1b      	ldr	r3, [r3, #48]	@ 0x30
 8002ddc:	2b01      	cmp	r3, #1
 8002dde:	d119      	bne.n	8002e14 <UART_EndRxTransfer+0xac>
  {
    ATOMIC_CLEAR_BIT(huart->Instance->CR1, USART_CR1_IDLEIE);
 8002de0:	687b      	ldr	r3, [r7, #4]
 8002de2:	681b      	ldr	r3, [r3, #0]
 8002de4:	330c      	adds	r3, #12
 8002de6:	60fb      	str	r3, [r7, #12]
   __ASM volatile ("ldrex %0, %1" : "=r" (result) : "Q" (*addr) );
 8002de8:	68fb      	ldr	r3, [r7, #12]
 8002dea:	e853 3f00 	ldrex	r3, [r3]
 8002dee:	60bb      	str	r3, [r7, #8]
   return(result);
 8002df0:	68bb      	ldr	r3, [r7, #8]
 8002df2:	f023 0310 	bic.w	r3, r3, #16
 8002df6:	647b      	str	r3, [r7, #68]	@ 0x44
 8002df8:	687b      	ldr	r3, [r7, #4]
 8002dfa:	681b      	ldr	r3, [r3, #0]
 8002dfc:	330c      	adds	r3, #12
 8002dfe:	6c7a      	ldr	r2, [r7, #68]	@ 0x44
 8002e00:	61ba      	str	r2, [r7, #24]
 8002e02:	617b      	str	r3, [r7, #20]
   __ASM volatile ("strex %0, %2, %1" : "=&r" (result), "=Q" (*addr) : "r" (value) );
 8002e04:	6979      	ldr	r1, [r7, #20]
 8002e06:	69ba      	ldr	r2, [r7, #24]
 8002e08:	e841 2300 	strex	r3, r2, [r1]
 8002e0c:	613b      	str	r3, [r7, #16]
   return(result);
 8002e0e:	693b      	ldr	r3, [r7, #16]
 8002e10:	2b00      	cmp	r3, #0
 8002e12:	d1e5      	bne.n	8002de0 <UART_EndRxTransfer+0x78>
  }

  /* At end of Rx process, restore huart->RxState to Ready */
  huart->RxState = HAL_UART_STATE_READY;
 8002e14:	687b      	ldr	r3, [r7, #4]
 8002e16:	2220      	movs	r2, #32
 8002e18:	f883 203e 	strb.w	r2, [r3, #62]	@ 0x3e
  huart->ReceptionType = HAL_UART_RECEPTION_STANDARD;
 8002e1c:	687b      	ldr	r3, [r7, #4]
 8002e1e:	2200      	movs	r2, #0
 8002e20:	631a      	str	r2, [r3, #48]	@ 0x30
}
 8002e22:	bf00      	nop
 8002e24:	3754      	adds	r7, #84	@ 0x54
 8002e26:	46bd      	mov	sp, r7
 8002e28:	f85d 7b04 	ldr.w	r7, [sp], #4
 8002e2c:	4770      	bx	lr

08002e2e <UART_DMAAbortOnError>:
  * @param  hdma  Pointer to a DMA_HandleTypeDef structure that contains
  *               the configuration information for the specified DMA module.
  * @retval None
  */
static void UART_DMAAbortOnError(DMA_HandleTypeDef *hdma)
{
 8002e2e:	b580      	push	{r7, lr}
 8002e30:	b084      	sub	sp, #16
 8002e32:	af00      	add	r7, sp, #0
 8002e34:	6078      	str	r0, [r7, #4]
  UART_HandleTypeDef *huart = (UART_HandleTypeDef *)((DMA_HandleTypeDef *)hdma)->Parent;
 8002e36:	687b      	ldr	r3, [r7, #4]
 8002e38:	6b9b      	ldr	r3, [r3, #56]	@ 0x38
 8002e3a:	60fb      	str	r3, [r7, #12]
  huart->RxXferCount = 0x00U;
 8002e3c:	68fb      	ldr	r3, [r7, #12]
 8002e3e:	2200      	movs	r2, #0
 8002e40:	85da      	strh	r2, [r3, #46]	@ 0x2e
  huart->TxXferCount = 0x00U;
 8002e42:	68fb      	ldr	r3, [r7, #12]
 8002e44:	2200      	movs	r2, #0
 8002e46:	84da      	strh	r2, [r3, #38]	@ 0x26
#if (USE_HAL_UART_REGISTER_CALLBACKS == 1)
  /*Call registered error callback*/
  huart->ErrorCallback(huart);
#else
  /*Call legacy weak error callback*/
  HAL_UART_ErrorCallback(huart);
 8002e48:	68f8      	ldr	r0, [r7, #12]
 8002e4a:	f7ff fecb 	bl	8002be4 <HAL_UART_ErrorCallback>
#endif /* USE_HAL_UART_REGISTER_CALLBACKS */
}
 8002e4e:	bf00      	nop
 8002e50:	3710      	adds	r7, #16
 8002e52:	46bd      	mov	sp, r7
 8002e54:	bd80      	pop	{r7, pc}

08002e56 <UART_Transmit_IT>:
  * @param  huart  Pointer to a UART_HandleTypeDef structure that contains
  *                the configuration information for the specified UART module.
  * @retval HAL status
  */
static HAL_StatusTypeDef UART_Transmit_IT(UART_HandleTypeDef *huart)
{
 8002e56:	b480      	push	{r7}
 8002e58:	b085      	sub	sp, #20
 8002e5a:	af00      	add	r7, sp, #0
 8002e5c:	6078      	str	r0, [r7, #4]
  const uint16_t *tmp;

  /* Check that a Tx process is ongoing */
  if (huart->gState == HAL_UART_STATE_BUSY_TX)
 8002e5e:	687b      	ldr	r3, [r7, #4]
 8002e60:	f893 303d 	ldrb.w	r3, [r3, #61]	@ 0x3d
 8002e64:	b2db      	uxtb	r3, r3
 8002e66:	2b21      	cmp	r3, #33	@ 0x21
 8002e68:	d13e      	bne.n	8002ee8 <UART_Transmit_IT+0x92>
  {
    if ((huart->Init.WordLength == UART_WORDLENGTH_9B) && (huart->Init.Parity == UART_PARITY_NONE))
 8002e6a:	687b      	ldr	r3, [r7, #4]
 8002e6c:	689b      	ldr	r3, [r3, #8]
 8002e6e:	f5b3 5f80 	cmp.w	r3, #4096	@ 0x1000
 8002e72:	d114      	bne.n	8002e9e <UART_Transmit_IT+0x48>
 8002e74:	687b      	ldr	r3, [r7, #4]
 8002e76:	691b      	ldr	r3, [r3, #16]
 8002e78:	2b00      	cmp	r3, #0
 8002e7a:	d110      	bne.n	8002e9e <UART_Transmit_IT+0x48>
    {
      tmp = (const uint16_t *) huart->pTxBuffPtr;
 8002e7c:	687b      	ldr	r3, [r7, #4]
 8002e7e:	6a1b      	ldr	r3, [r3, #32]
 8002e80:	60fb      	str	r3, [r7, #12]
      huart->Instance->DR = (uint16_t)(*tmp & (uint16_t)0x01FF);
 8002e82:	68fb      	ldr	r3, [r7, #12]
 8002e84:	881b      	ldrh	r3, [r3, #0]
 8002e86:	461a      	mov	r2, r3
 8002e88:	687b      	ldr	r3, [r7, #4]
 8002e8a:	681b      	ldr	r3, [r3, #0]
 8002e8c:	f3c2 0208 	ubfx	r2, r2, #0, #9
 8002e90:	605a      	str	r2, [r3, #4]
      huart->pTxBuffPtr += 2U;
 8002e92:	687b      	ldr	r3, [r7, #4]
 8002e94:	6a1b      	ldr	r3, [r3, #32]
 8002e96:	1c9a      	adds	r2, r3, #2
 8002e98:	687b      	ldr	r3, [r7, #4]
 8002e9a:	621a      	str	r2, [r3, #32]
 8002e9c:	e008      	b.n	8002eb0 <UART_Transmit_IT+0x5a>
    }
    else
    {
      huart->Instance->DR = (uint8_t)(*huart->pTxBuffPtr++ & (uint8_t)0x00FF);
 8002e9e:	687b      	ldr	r3, [r7, #4]
 8002ea0:	6a1b      	ldr	r3, [r3, #32]
 8002ea2:	1c59      	adds	r1, r3, #1
 8002ea4:	687a      	ldr	r2, [r7, #4]
 8002ea6:	6211      	str	r1, [r2, #32]
 8002ea8:	781a      	ldrb	r2, [r3, #0]
 8002eaa:	687b      	ldr	r3, [r7, #4]
 8002eac:	681b      	ldr	r3, [r3, #0]
 8002eae:	605a      	str	r2, [r3, #4]
    }

    if (--huart->TxXferCount == 0U)
 8002eb0:	687b      	ldr	r3, [r7, #4]
 8002eb2:	8cdb      	ldrh	r3, [r3, #38]	@ 0x26
 8002eb4:	b29b      	uxth	r3, r3
 8002eb6:	3b01      	subs	r3, #1
 8002eb8:	b29b      	uxth	r3, r3
 8002eba:	687a      	ldr	r2, [r7, #4]
 8002ebc:	4619      	mov	r1, r3
 8002ebe:	84d1      	strh	r1, [r2, #38]	@ 0x26
 8002ec0:	2b00      	cmp	r3, #0
 8002ec2:	d10f      	bne.n	8002ee4 <UART_Transmit_IT+0x8e>
    {
      /* Disable the UART Transmit Data Register Empty Interrupt */
      __HAL_UART_DISABLE_IT(huart, UART_IT_TXE);
 8002ec4:	687b      	ldr	r3, [r7, #4]
 8002ec6:	681b      	ldr	r3, [r3, #0]
 8002ec8:	68da      	ldr	r2, [r3, #12]
 8002eca:	687b      	ldr	r3, [r7, #4]
 8002ecc:	681b      	ldr	r3, [r3, #0]
 8002ece:	f022 0280 	bic.w	r2, r2, #128	@ 0x80
 8002ed2:	60da      	str	r2, [r3, #12]

      /* Enable the UART Transmit Complete Interrupt */
      __HAL_UART_ENABLE_IT(huart, UART_IT_TC);
 8002ed4:	687b      	ldr	r3, [r7, #4]
 8002ed6:	681b      	ldr	r3, [r3, #0]
 8002ed8:	68da      	ldr	r2, [r3, #12]
 8002eda:	687b      	ldr	r3, [r7, #4]
 8002edc:	681b      	ldr	r3, [r3, #0]
 8002ede:	f042 0240 	orr.w	r2, r2, #64	@ 0x40
 8002ee2:	60da      	str	r2, [r3, #12]
    }
    return HAL_OK;
 8002ee4:	2300      	movs	r3, #0
 8002ee6:	e000      	b.n	8002eea <UART_Transmit_IT+0x94>
  }
  else
  {
    return HAL_BUSY;
 8002ee8:	2302      	movs	r3, #2
  }
}
 8002eea:	4618      	mov	r0, r3
 8002eec:	3714      	adds	r7, #20
 8002eee:	46bd      	mov	sp, r7
 8002ef0:	f85d 7b04 	ldr.w	r7, [sp], #4
 8002ef4:	4770      	bx	lr

08002ef6 <UART_EndTransmit_IT>:
  * @param  huart  Pointer to a UART_HandleTypeDef structure that contains
  *                the configuration information for the specified UART module.
  * @retval HAL status
  */
static HAL_StatusTypeDef UART_EndTransmit_IT(UART_HandleTypeDef *huart)
{
 8002ef6:	b580      	push	{r7, lr}
 8002ef8:	b082      	sub	sp, #8
 8002efa:	af00      	add	r7, sp, #0
 8002efc:	6078      	str	r0, [r7, #4]
  /* Disable the UART Transmit Complete Interrupt */
  __HAL_UART_DISABLE_IT(huart, UART_IT_TC);
 8002efe:	687b      	ldr	r3, [r7, #4]
 8002f00:	681b      	ldr	r3, [r3, #0]
 8002f02:	68da      	ldr	r2, [r3, #12]
 8002f04:	687b      	ldr	r3, [r7, #4]
 8002f06:	681b      	ldr	r3, [r3, #0]
 8002f08:	f022 0240 	bic.w	r2, r2, #64	@ 0x40
 8002f0c:	60da      	str	r2, [r3, #12]

  /* Tx process is ended, restore huart->gState to Ready */
  huart->gState = HAL_UART_STATE_READY;
 8002f0e:	687b      	ldr	r3, [r7, #4]
 8002f10:	2220      	movs	r2, #32
 8002f12:	f883 203d 	strb.w	r2, [r3, #61]	@ 0x3d
#if (USE_HAL_UART_REGISTER_CALLBACKS == 1)
  /*Call registered Tx complete callback*/
  huart->TxCpltCallback(huart);
#else
  /*Call legacy weak Tx complete callback*/
  HAL_UART_TxCpltCallback(huart);
 8002f16:	6878      	ldr	r0, [r7, #4]
 8002f18:	f7ff fe5a 	bl	8002bd0 <HAL_UART_TxCpltCallback>
#endif /* USE_HAL_UART_REGISTER_CALLBACKS */

  return HAL_OK;
 8002f1c:	2300      	movs	r3, #0
}
 8002f1e:	4618      	mov	r0, r3
 8002f20:	3708      	adds	r7, #8
 8002f22:	46bd      	mov	sp, r7
 8002f24:	bd80      	pop	{r7, pc}

08002f26 <UART_Receive_IT>:
  * @param  huart  Pointer to a UART_HandleTypeDef structure that contains
  *                the configuration information for the specified UART module.
  * @retval HAL status
  */
static HAL_StatusTypeDef UART_Receive_IT(UART_HandleTypeDef *huart)
{
 8002f26:	b580      	push	{r7, lr}
 8002f28:	b08c      	sub	sp, #48	@ 0x30
 8002f2a:	af00      	add	r7, sp, #0
 8002f2c:	6078      	str	r0, [r7, #4]
  uint8_t  *pdata8bits;
  uint16_t *pdata16bits;

  /* Check that a Rx process is ongoing */
  if (huart->RxState == HAL_UART_STATE_BUSY_RX)
 8002f2e:	687b      	ldr	r3, [r7, #4]
 8002f30:	f893 303e 	ldrb.w	r3, [r3, #62]	@ 0x3e
 8002f34:	b2db      	uxtb	r3, r3
 8002f36:	2b22      	cmp	r3, #34	@ 0x22
 8002f38:	f040 80ab 	bne.w	8003092 <UART_Receive_IT+0x16c>
  {
    if ((huart->Init.WordLength == UART_WORDLENGTH_9B) && (huart->Init.Parity == UART_PARITY_NONE))
 8002f3c:	687b      	ldr	r3, [r7, #4]
 8002f3e:	689b      	ldr	r3, [r3, #8]
 8002f40:	f5b3 5f80 	cmp.w	r3, #4096	@ 0x1000
 8002f44:	d117      	bne.n	8002f76 <UART_Receive_IT+0x50>
 8002f46:	687b      	ldr	r3, [r7, #4]
 8002f48:	691b      	ldr	r3, [r3, #16]
 8002f4a:	2b00      	cmp	r3, #0
 8002f4c:	d113      	bne.n	8002f76 <UART_Receive_IT+0x50>
    {
      pdata8bits  = NULL;
 8002f4e:	2300      	movs	r3, #0
 8002f50:	62fb      	str	r3, [r7, #44]	@ 0x2c
      pdata16bits = (uint16_t *) huart->pRxBuffPtr;
 8002f52:	687b      	ldr	r3, [r7, #4]
 8002f54:	6a9b      	ldr	r3, [r3, #40]	@ 0x28
 8002f56:	62bb      	str	r3, [r7, #40]	@ 0x28
      *pdata16bits = (uint16_t)(huart->Instance->DR & (uint16_t)0x01FF);
 8002f58:	687b      	ldr	r3, [r7, #4]
 8002f5a:	681b      	ldr	r3, [r3, #0]
 8002f5c:	685b      	ldr	r3, [r3, #4]
 8002f5e:	b29b      	uxth	r3, r3
 8002f60:	f3c3 0308 	ubfx	r3, r3, #0, #9
 8002f64:	b29a      	uxth	r2, r3
 8002f66:	6abb      	ldr	r3, [r7, #40]	@ 0x28
 8002f68:	801a      	strh	r2, [r3, #0]
      huart->pRxBuffPtr += 2U;
 8002f6a:	687b      	ldr	r3, [r7, #4]
 8002f6c:	6a9b      	ldr	r3, [r3, #40]	@ 0x28
 8002f6e:	1c9a      	adds	r2, r3, #2
 8002f70:	687b      	ldr	r3, [r7, #4]
 8002f72:	629a      	str	r2, [r3, #40]	@ 0x28
 8002f74:	e026      	b.n	8002fc4 <UART_Receive_IT+0x9e>
    }
    else
    {
      pdata8bits = (uint8_t *) huart->pRxBuffPtr;
 8002f76:	687b      	ldr	r3, [r7, #4]
 8002f78:	6a9b      	ldr	r3, [r3, #40]	@ 0x28
 8002f7a:	62fb      	str	r3, [r7, #44]	@ 0x2c
      pdata16bits  = NULL;
 8002f7c:	2300      	movs	r3, #0
 8002f7e:	62bb      	str	r3, [r7, #40]	@ 0x28

      if ((huart->Init.WordLength == UART_WORDLENGTH_9B) || ((huart->Init.WordLength == UART_WORDLENGTH_8B) && (huart->Init.Parity == UART_PARITY_NONE)))
 8002f80:	687b      	ldr	r3, [r7, #4]
 8002f82:	689b      	ldr	r3, [r3, #8]
 8002f84:	f5b3 5f80 	cmp.w	r3, #4096	@ 0x1000
 8002f88:	d007      	beq.n	8002f9a <UART_Receive_IT+0x74>
 8002f8a:	687b      	ldr	r3, [r7, #4]
 8002f8c:	689b      	ldr	r3, [r3, #8]
 8002f8e:	2b00      	cmp	r3, #0
 8002f90:	d10a      	bne.n	8002fa8 <UART_Receive_IT+0x82>
 8002f92:	687b      	ldr	r3, [r7, #4]
 8002f94:	691b      	ldr	r3, [r3, #16]
 8002f96:	2b00      	cmp	r3, #0
 8002f98:	d106      	bne.n	8002fa8 <UART_Receive_IT+0x82>
      {
        *pdata8bits = (uint8_t)(huart->Instance->DR & (uint8_t)0x00FF);
 8002f9a:	687b      	ldr	r3, [r7, #4]
 8002f9c:	681b      	ldr	r3, [r3, #0]
 8002f9e:	685b      	ldr	r3, [r3, #4]
 8002fa0:	b2da      	uxtb	r2, r3
 8002fa2:	6afb      	ldr	r3, [r7, #44]	@ 0x2c
 8002fa4:	701a      	strb	r2, [r3, #0]
 8002fa6:	e008      	b.n	8002fba <UART_Receive_IT+0x94>
      }
      else
      {
        *pdata8bits = (uint8_t)(huart->Instance->DR & (uint8_t)0x007F);
 8002fa8:	687b      	ldr	r3, [r7, #4]
 8002faa:	681b      	ldr	r3, [r3, #0]
 8002fac:	685b      	ldr	r3, [r3, #4]
 8002fae:	b2db      	uxtb	r3, r3
 8002fb0:	f003 037f 	and.w	r3, r3, #127	@ 0x7f
 8002fb4:	b2da      	uxtb	r2, r3
 8002fb6:	6afb      	ldr	r3, [r7, #44]	@ 0x2c
 8002fb8:	701a      	strb	r2, [r3, #0]
      }
      huart->pRxBuffPtr += 1U;
 8002fba:	687b      	ldr	r3, [r7, #4]
 8002fbc:	6a9b      	ldr	r3, [r3, #40]	@ 0x28
 8002fbe:	1c5a      	adds	r2, r3, #1
 8002fc0:	687b      	ldr	r3, [r7, #4]
 8002fc2:	629a      	str	r2, [r3, #40]	@ 0x28
    }

    if (--huart->RxXferCount == 0U)
 8002fc4:	687b      	ldr	r3, [r7, #4]
 8002fc6:	8ddb      	ldrh	r3, [r3, #46]	@ 0x2e
 8002fc8:	b29b      	uxth	r3, r3
 8002fca:	3b01      	subs	r3, #1
 8002fcc:	b29b      	uxth	r3, r3
 8002fce:	687a      	ldr	r2, [r7, #4]
 8002fd0:	4619      	mov	r1, r3
 8002fd2:	85d1      	strh	r1, [r2, #46]	@ 0x2e
 8002fd4:	2b00      	cmp	r3, #0
 8002fd6:	d15a      	bne.n	800308e <UART_Receive_IT+0x168>
    {
      /* Disable the UART Data Register not empty Interrupt */
      __HAL_UART_DISABLE_IT(huart, UART_IT_RXNE);
 8002fd8:	687b      	ldr	r3, [r7, #4]
 8002fda:	681b      	ldr	r3, [r3, #0]
 8002fdc:	68da      	ldr	r2, [r3, #12]
 8002fde:	687b      	ldr	r3, [r7, #4]
 8002fe0:	681b      	ldr	r3, [r3, #0]
 8002fe2:	f022 0220 	bic.w	r2, r2, #32
 8002fe6:	60da      	str	r2, [r3, #12]

      /* Disable the UART Parity Error Interrupt */
      __HAL_UART_DISABLE_IT(huart, UART_IT_PE);
 8002fe8:	687b      	ldr	r3, [r7, #4]
 8002fea:	681b      	ldr	r3, [r3, #0]
 8002fec:	68da      	ldr	r2, [r3, #12]
 8002fee:	687b      	ldr	r3, [r7, #4]
 8002ff0:	681b      	ldr	r3, [r3, #0]
 8002ff2:	f422 7280 	bic.w	r2, r2, #256	@ 0x100
 8002ff6:	60da      	str	r2, [r3, #12]

      /* Disable the UART Error Interrupt: (Frame error, noise error, overrun error) */
      __HAL_UART_DISABLE_IT(huart, UART_IT_ERR);
 8002ff8:	687b      	ldr	r3, [r7, #4]
 8002ffa:	681b      	ldr	r3, [r3, #0]
 8002ffc:	695a      	ldr	r2, [r3, #20]
 8002ffe:	687b      	ldr	r3, [r7, #4]
 8003000:	681b      	ldr	r3, [r3, #0]
 8003002:	f022 0201 	bic.w	r2, r2, #1
 8003006:	615a      	str	r2, [r3, #20]

      /* Rx process is completed, restore huart->RxState to Ready */
      huart->RxState = HAL_UART_STATE_READY;
 8003008:	687b      	ldr	r3, [r7, #4]
 800300a:	2220      	movs	r2, #32
 800300c:	f883 203e 	strb.w	r2, [r3, #62]	@ 0x3e

      /* Check current reception Mode :
         If Reception till IDLE event has been selected : */
      if (huart->ReceptionType == HAL_UART_RECEPTION_TOIDLE)
 8003010:	687b      	ldr	r3, [r7, #4]
 8003012:	6b1b      	ldr	r3, [r3, #48]	@ 0x30
 8003014:	2b01      	cmp	r3, #1
 8003016:	d135      	bne.n	8003084 <UART_Receive_IT+0x15e>
      {
        /* Set reception type to Standard */
        huart->ReceptionType = HAL_UART_RECEPTION_STANDARD;
 8003018:	687b      	ldr	r3, [r7, #4]
 800301a:	2200      	movs	r2, #0
 800301c:	631a      	str	r2, [r3, #48]	@ 0x30

        /* Disable IDLE interrupt */
        ATOMIC_CLEAR_BIT(huart->Instance->CR1, USART_CR1_IDLEIE);
 800301e:	687b      	ldr	r3, [r7, #4]
 8003020:	681b      	ldr	r3, [r3, #0]
 8003022:	330c      	adds	r3, #12
 8003024:	617b      	str	r3, [r7, #20]
   __ASM volatile ("ldrex %0, %1" : "=r" (result) : "Q" (*addr) );
 8003026:	697b      	ldr	r3, [r7, #20]
 8003028:	e853 3f00 	ldrex	r3, [r3]
 800302c:	613b      	str	r3, [r7, #16]
   return(result);
 800302e:	693b      	ldr	r3, [r7, #16]
 8003030:	f023 0310 	bic.w	r3, r3, #16
 8003034:	627b      	str	r3, [r7, #36]	@ 0x24
 8003036:	687b      	ldr	r3, [r7, #4]
 8003038:	681b      	ldr	r3, [r3, #0]
 800303a:	330c      	adds	r3, #12
 800303c:	6a7a      	ldr	r2, [r7, #36]	@ 0x24
 800303e:	623a      	str	r2, [r7, #32]
 8003040:	61fb      	str	r3, [r7, #28]
   __ASM volatile ("strex %0, %2, %1" : "=&r" (result), "=Q" (*addr) : "r" (value) );
 8003042:	69f9      	ldr	r1, [r7, #28]
 8003044:	6a3a      	ldr	r2, [r7, #32]
 8003046:	e841 2300 	strex	r3, r2, [r1]
 800304a:	61bb      	str	r3, [r7, #24]
   return(result);
 800304c:	69bb      	ldr	r3, [r7, #24]
 800304e:	2b00      	cmp	r3, #0
 8003050:	d1e5      	bne.n	800301e <UART_Receive_IT+0xf8>

        /* Check if IDLE flag is set */
        if (__HAL_UART_GET_FLAG(huart, UART_FLAG_IDLE))
 8003052:	687b      	ldr	r3, [r7, #4]
 8003054:	681b      	ldr	r3, [r3, #0]
 8003056:	681b      	ldr	r3, [r3, #0]
 8003058:	f003 0310 	and.w	r3, r3, #16
 800305c:	2b10      	cmp	r3, #16
 800305e:	d10a      	bne.n	8003076 <UART_Receive_IT+0x150>
        {
          /* Clear IDLE flag in ISR */
          __HAL_UART_CLEAR_IDLEFLAG(huart);
 8003060:	2300      	movs	r3, #0
 8003062:	60fb      	str	r3, [r7, #12]
 8003064:	687b      	ldr	r3, [r7, #4]
 8003066:	681b      	ldr	r3, [r3, #0]
 8003068:	681b      	ldr	r3, [r3, #0]
 800306a:	60fb      	str	r3, [r7, #12]
 800306c:	687b      	ldr	r3, [r7, #4]
 800306e:	681b      	ldr	r3, [r3, #0]
 8003070:	685b      	ldr	r3, [r3, #4]
 8003072:	60fb      	str	r3, [r7, #12]
 8003074:	68fb      	ldr	r3, [r7, #12]
#if (USE_HAL_UART_REGISTER_CALLBACKS == 1)
        /*Call registered Rx Event callback*/
        huart->RxEventCallback(huart, huart->RxXferSize);
#else
        /*Call legacy weak Rx Event callback*/
        HAL_UARTEx_RxEventCallback(huart, huart->RxXferSize);
 8003076:	687b      	ldr	r3, [r7, #4]
 8003078:	8d9b      	ldrh	r3, [r3, #44]	@ 0x2c
 800307a:	4619      	mov	r1, r3
 800307c:	6878      	ldr	r0, [r7, #4]
 800307e:	f7ff fdbb 	bl	8002bf8 <HAL_UARTEx_RxEventCallback>
 8003082:	e002      	b.n	800308a <UART_Receive_IT+0x164>
#if (USE_HAL_UART_REGISTER_CALLBACKS == 1)
        /*Call registered Rx complete callback*/
        huart->RxCpltCallback(huart);
#else
        /*Call legacy weak Rx complete callback*/
        HAL_UART_RxCpltCallback(huart);
 8003084:	6878      	ldr	r0, [r7, #4]
 8003086:	f7fd feb7 	bl	8000df8 <HAL_UART_RxCpltCallback>
#endif /* USE_HAL_UART_REGISTER_CALLBACKS */
      }

      return HAL_OK;
 800308a:	2300      	movs	r3, #0
 800308c:	e002      	b.n	8003094 <UART_Receive_IT+0x16e>
    }
    return HAL_OK;
 800308e:	2300      	movs	r3, #0
 8003090:	e000      	b.n	8003094 <UART_Receive_IT+0x16e>
  }
  else
  {
    return HAL_BUSY;
 8003092:	2302      	movs	r3, #2
  }
}
 8003094:	4618      	mov	r0, r3
 8003096:	3730      	adds	r7, #48	@ 0x30
 8003098:	46bd      	mov	sp, r7
 800309a:	bd80      	pop	{r7, pc}

0800309c <UART_SetConfig>:
  * @param  huart  Pointer to a UART_HandleTypeDef structure that contains
  *                the configuration information for the specified UART module.
  * @retval None
  */
static void UART_SetConfig(UART_HandleTypeDef *huart)
{
 800309c:	e92d 4fb0 	stmdb	sp!, {r4, r5, r7, r8, r9, sl, fp, lr}
 80030a0:	b0c0      	sub	sp, #256	@ 0x100
 80030a2:	af00      	add	r7, sp, #0
 80030a4:	f8c7 00f4 	str.w	r0, [r7, #244]	@ 0xf4
  assert_param(IS_UART_MODE(huart->Init.Mode));

  /*-------------------------- USART CR2 Configuration -----------------------*/
  /* Configure the UART Stop Bits: Set STOP[13:12] bits
     according to huart->Init.StopBits value */
  MODIFY_REG(huart->Instance->CR2, USART_CR2_STOP, huart->Init.StopBits);
 80030a8:	f8d7 30f4 	ldr.w	r3, [r7, #244]	@ 0xf4
 80030ac:	681b      	ldr	r3, [r3, #0]
 80030ae:	691b      	ldr	r3, [r3, #16]
 80030b0:	f423 5040 	bic.w	r0, r3, #12288	@ 0x3000
 80030b4:	f8d7 30f4 	ldr.w	r3, [r7, #244]	@ 0xf4
 80030b8:	68d9      	ldr	r1, [r3, #12]
 80030ba:	f8d7 30f4 	ldr.w	r3, [r7, #244]	@ 0xf4
 80030be:	681a      	ldr	r2, [r3, #0]
 80030c0:	ea40 0301 	orr.w	r3, r0, r1
 80030c4:	6113      	str	r3, [r2, #16]
     Set the M bits according to huart->Init.WordLength value
     Set PCE and PS bits according to huart->Init.Parity value
     Set TE and RE bits according to huart->Init.Mode value
     Set OVER8 bit according to huart->Init.OverSampling value */

  tmpreg = (uint32_t)huart->Init.WordLength | huart->Init.Parity | huart->Init.Mode | huart->Init.OverSampling;
 80030c6:	f8d7 30f4 	ldr.w	r3, [r7, #244]	@ 0xf4
 80030ca:	689a      	ldr	r2, [r3, #8]
 80030cc:	f8d7 30f4 	ldr.w	r3, [r7, #244]	@ 0xf4
 80030d0:	691b      	ldr	r3, [r3, #16]
 80030d2:	431a      	orrs	r2, r3
 80030d4:	f8d7 30f4 	ldr.w	r3, [r7, #244]	@ 0xf4
 80030d8:	695b      	ldr	r3, [r3, #20]
 80030da:	431a      	orrs	r2, r3
 80030dc:	f8d7 30f4 	ldr.w	r3, [r7, #244]	@ 0xf4
 80030e0:	69db      	ldr	r3, [r3, #28]
 80030e2:	4313      	orrs	r3, r2
 80030e4:	f8c7 30f8 	str.w	r3, [r7, #248]	@ 0xf8
  MODIFY_REG(huart->Instance->CR1,
 80030e8:	f8d7 30f4 	ldr.w	r3, [r7, #244]	@ 0xf4
 80030ec:	681b      	ldr	r3, [r3, #0]
 80030ee:	68db      	ldr	r3, [r3, #12]
 80030f0:	f423 4116 	bic.w	r1, r3, #38400	@ 0x9600
 80030f4:	f021 010c 	bic.w	r1, r1, #12
 80030f8:	f8d7 30f4 	ldr.w	r3, [r7, #244]	@ 0xf4
 80030fc:	681a      	ldr	r2, [r3, #0]
 80030fe:	f8d7 30f8 	ldr.w	r3, [r7, #248]	@ 0xf8
 8003102:	430b      	orrs	r3, r1
 8003104:	60d3      	str	r3, [r2, #12]
             (uint32_t)(USART_CR1_M | USART_CR1_PCE | USART_CR1_PS | USART_CR1_TE | USART_CR1_RE | USART_CR1_OVER8),
             tmpreg);

  /*-------------------------- USART CR3 Configuration -----------------------*/
  /* Configure the UART HFC: Set CTSE and RTSE bits according to huart->Init.HwFlowCtl value */
  MODIFY_REG(huart->Instance->CR3, (USART_CR3_RTSE | USART_CR3_CTSE), huart->Init.HwFlowCtl);
 8003106:	f8d7 30f4 	ldr.w	r3, [r7, #244]	@ 0xf4
 800310a:	681b      	ldr	r3, [r3, #0]
 800310c:	695b      	ldr	r3, [r3, #20]
 800310e:	f423 7040 	bic.w	r0, r3, #768	@ 0x300
 8003112:	f8d7 30f4 	ldr.w	r3, [r7, #244]	@ 0xf4
 8003116:	6999      	ldr	r1, [r3, #24]
 8003118:	f8d7 30f4 	ldr.w	r3, [r7, #244]	@ 0xf4
 800311c:	681a      	ldr	r2, [r3, #0]
 800311e:	ea40 0301 	orr.w	r3, r0, r1
 8003122:	6153      	str	r3, [r2, #20]
    if ((huart->Instance == USART1) || (huart->Instance == USART6) || (huart->Instance == UART9) || (huart->Instance == UART10))
    {
      pclk = HAL_RCC_GetPCLK2Freq();
    }
#elif defined(USART6)
    if ((huart->Instance == USART1) || (huart->Instance == USART6))
 8003124:	f8d7 30f4 	ldr.w	r3, [r7, #244]	@ 0xf4
 8003128:	681a      	ldr	r2, [r3, #0]
 800312a:	4b8f      	ldr	r3, [pc, #572]	@ (8003368 <UART_SetConfig+0x2cc>)
 800312c:	429a      	cmp	r2, r3
 800312e:	d005      	beq.n	800313c <UART_SetConfig+0xa0>
 8003130:	f8d7 30f4 	ldr.w	r3, [r7, #244]	@ 0xf4
 8003134:	681a      	ldr	r2, [r3, #0]
 8003136:	4b8d      	ldr	r3, [pc, #564]	@ (800336c <UART_SetConfig+0x2d0>)
 8003138:	429a      	cmp	r2, r3
 800313a:	d104      	bne.n	8003146 <UART_SetConfig+0xaa>
    {
      pclk = HAL_RCC_GetPCLK2Freq();
 800313c:	f7ff f996 	bl	800246c <HAL_RCC_GetPCLK2Freq>
 8003140:	f8c7 00fc 	str.w	r0, [r7, #252]	@ 0xfc
 8003144:	e003      	b.n	800314e <UART_SetConfig+0xb2>
      pclk = HAL_RCC_GetPCLK2Freq();
    }
#endif /* USART6 */
    else
    {
      pclk = HAL_RCC_GetPCLK1Freq();
 8003146:	f7ff f97d 	bl	8002444 <HAL_RCC_GetPCLK1Freq>
 800314a:	f8c7 00fc 	str.w	r0, [r7, #252]	@ 0xfc
    }
  /*-------------------------- USART BRR Configuration ---------------------*/
  if (huart->Init.OverSampling == UART_OVERSAMPLING_8)
 800314e:	f8d7 30f4 	ldr.w	r3, [r7, #244]	@ 0xf4
 8003152:	69db      	ldr	r3, [r3, #28]
 8003154:	f5b3 4f00 	cmp.w	r3, #32768	@ 0x8000
 8003158:	f040 810c 	bne.w	8003374 <UART_SetConfig+0x2d8>
  {
    huart->Instance->BRR = UART_BRR_SAMPLING8(pclk, huart->Init.BaudRate);
 800315c:	f8d7 30fc 	ldr.w	r3, [r7, #252]	@ 0xfc
 8003160:	2200      	movs	r2, #0
 8003162:	f8c7 30e8 	str.w	r3, [r7, #232]	@ 0xe8
 8003166:	f8c7 20ec 	str.w	r2, [r7, #236]	@ 0xec
 800316a:	e9d7 453a 	ldrd	r4, r5, [r7, #232]	@ 0xe8
 800316e:	4622      	mov	r2, r4
 8003170:	462b      	mov	r3, r5
 8003172:	1891      	adds	r1, r2, r2
 8003174:	65b9      	str	r1, [r7, #88]	@ 0x58
 8003176:	415b      	adcs	r3, r3
 8003178:	65fb      	str	r3, [r7, #92]	@ 0x5c
 800317a:	e9d7 2316 	ldrd	r2, r3, [r7, #88]	@ 0x58
 800317e:	4621      	mov	r1, r4
 8003180:	eb12 0801 	adds.w	r8, r2, r1
 8003184:	4629      	mov	r1, r5
 8003186:	eb43 0901 	adc.w	r9, r3, r1
 800318a:	f04f 0200 	mov.w	r2, #0
 800318e:	f04f 0300 	mov.w	r3, #0
 8003192:	ea4f 03c9 	mov.w	r3, r9, lsl #3
 8003196:	ea43 7358 	orr.w	r3, r3, r8, lsr #29
 800319a:	ea4f 02c8 	mov.w	r2, r8, lsl #3
 800319e:	4690      	mov	r8, r2
 80031a0:	4699      	mov	r9, r3
 80031a2:	4623      	mov	r3, r4
 80031a4:	eb18 0303 	adds.w	r3, r8, r3
 80031a8:	f8c7 30e0 	str.w	r3, [r7, #224]	@ 0xe0
 80031ac:	462b      	mov	r3, r5
 80031ae:	eb49 0303 	adc.w	r3, r9, r3
 80031b2:	f8c7 30e4 	str.w	r3, [r7, #228]	@ 0xe4
 80031b6:	f8d7 30f4 	ldr.w	r3, [r7, #244]	@ 0xf4
 80031ba:	685b      	ldr	r3, [r3, #4]
 80031bc:	2200      	movs	r2, #0
 80031be:	f8c7 30d8 	str.w	r3, [r7, #216]	@ 0xd8
 80031c2:	f8c7 20dc 	str.w	r2, [r7, #220]	@ 0xdc
 80031c6:	e9d7 1236 	ldrd	r1, r2, [r7, #216]	@ 0xd8
 80031ca:	460b      	mov	r3, r1
 80031cc:	18db      	adds	r3, r3, r3
 80031ce:	653b      	str	r3, [r7, #80]	@ 0x50
 80031d0:	4613      	mov	r3, r2
 80031d2:	eb42 0303 	adc.w	r3, r2, r3
 80031d6:	657b      	str	r3, [r7, #84]	@ 0x54
 80031d8:	e9d7 2314 	ldrd	r2, r3, [r7, #80]	@ 0x50
 80031dc:	e9d7 0138 	ldrd	r0, r1, [r7, #224]	@ 0xe0
 80031e0:	f7fd f9be 	bl	8000560 <__aeabi_uldivmod>
 80031e4:	4602      	mov	r2, r0
 80031e6:	460b      	mov	r3, r1
 80031e8:	4b61      	ldr	r3, [pc, #388]	@ (8003370 <UART_SetConfig+0x2d4>)
 80031ea:	fba3 2302 	umull	r2, r3, r3, r2
 80031ee:	095b      	lsrs	r3, r3, #5
 80031f0:	011c      	lsls	r4, r3, #4
 80031f2:	f8d7 30fc 	ldr.w	r3, [r7, #252]	@ 0xfc
 80031f6:	2200      	movs	r2, #0
 80031f8:	f8c7 30d0 	str.w	r3, [r7, #208]	@ 0xd0
 80031fc:	f8c7 20d4 	str.w	r2, [r7, #212]	@ 0xd4
 8003200:	e9d7 8934 	ldrd	r8, r9, [r7, #208]	@ 0xd0
 8003204:	4642      	mov	r2, r8
 8003206:	464b      	mov	r3, r9
 8003208:	1891      	adds	r1, r2, r2
 800320a:	64b9      	str	r1, [r7, #72]	@ 0x48
 800320c:	415b      	adcs	r3, r3
 800320e:	64fb      	str	r3, [r7, #76]	@ 0x4c
 8003210:	e9d7 2312 	ldrd	r2, r3, [r7, #72]	@ 0x48
 8003214:	4641      	mov	r1, r8
 8003216:	eb12 0a01 	adds.w	sl, r2, r1
 800321a:	4649      	mov	r1, r9
 800321c:	eb43 0b01 	adc.w	fp, r3, r1
 8003220:	f04f 0200 	mov.w	r2, #0
 8003224:	f04f 0300 	mov.w	r3, #0
 8003228:	ea4f 03cb 	mov.w	r3, fp, lsl #3
 800322c:	ea43 735a 	orr.w	r3, r3, sl, lsr #29
 8003230:	ea4f 02ca 	mov.w	r2, sl, lsl #3
 8003234:	4692      	mov	sl, r2
 8003236:	469b      	mov	fp, r3
 8003238:	4643      	mov	r3, r8
 800323a:	eb1a 0303 	adds.w	r3, sl, r3
 800323e:	f8c7 30c8 	str.w	r3, [r7, #200]	@ 0xc8
 8003242:	464b      	mov	r3, r9
 8003244:	eb4b 0303 	adc.w	r3, fp, r3
 8003248:	f8c7 30cc 	str.w	r3, [r7, #204]	@ 0xcc
 800324c:	f8d7 30f4 	ldr.w	r3, [r7, #244]	@ 0xf4
 8003250:	685b      	ldr	r3, [r3, #4]
 8003252:	2200      	movs	r2, #0
 8003254:	f8c7 30c0 	str.w	r3, [r7, #192]	@ 0xc0
 8003258:	f8c7 20c4 	str.w	r2, [r7, #196]	@ 0xc4
 800325c:	e9d7 1230 	ldrd	r1, r2, [r7, #192]	@ 0xc0
 8003260:	460b      	mov	r3, r1
 8003262:	18db      	adds	r3, r3, r3
 8003264:	643b      	str	r3, [r7, #64]	@ 0x40
 8003266:	4613      	mov	r3, r2
 8003268:	eb42 0303 	adc.w	r3, r2, r3
 800326c:	647b      	str	r3, [r7, #68]	@ 0x44
 800326e:	e9d7 2310 	ldrd	r2, r3, [r7, #64]	@ 0x40
 8003272:	e9d7 0132 	ldrd	r0, r1, [r7, #200]	@ 0xc8
 8003276:	f7fd f973 	bl	8000560 <__aeabi_uldivmod>
 800327a:	4602      	mov	r2, r0
 800327c:	460b      	mov	r3, r1
 800327e:	4611      	mov	r1, r2
 8003280:	4b3b      	ldr	r3, [pc, #236]	@ (8003370 <UART_SetConfig+0x2d4>)
 8003282:	fba3 2301 	umull	r2, r3, r3, r1
 8003286:	095b      	lsrs	r3, r3, #5
 8003288:	2264      	movs	r2, #100	@ 0x64
 800328a:	fb02 f303 	mul.w	r3, r2, r3
 800328e:	1acb      	subs	r3, r1, r3
 8003290:	00db      	lsls	r3, r3, #3
 8003292:	f103 0232 	add.w	r2, r3, #50	@ 0x32
 8003296:	4b36      	ldr	r3, [pc, #216]	@ (8003370 <UART_SetConfig+0x2d4>)
 8003298:	fba3 2302 	umull	r2, r3, r3, r2
 800329c:	095b      	lsrs	r3, r3, #5
 800329e:	005b      	lsls	r3, r3, #1
 80032a0:	f403 73f8 	and.w	r3, r3, #496	@ 0x1f0
 80032a4:	441c      	add	r4, r3
 80032a6:	f8d7 30fc 	ldr.w	r3, [r7, #252]	@ 0xfc
 80032aa:	2200      	movs	r2, #0
 80032ac:	f8c7 30b8 	str.w	r3, [r7, #184]	@ 0xb8
 80032b0:	f8c7 20bc 	str.w	r2, [r7, #188]	@ 0xbc
 80032b4:	e9d7 892e 	ldrd	r8, r9, [r7, #184]	@ 0xb8
 80032b8:	4642      	mov	r2, r8
 80032ba:	464b      	mov	r3, r9
 80032bc:	1891      	adds	r1, r2, r2
 80032be:	63b9      	str	r1, [r7, #56]	@ 0x38
 80032c0:	415b      	adcs	r3, r3
 80032c2:	63fb      	str	r3, [r7, #60]	@ 0x3c
 80032c4:	e9d7 230e 	ldrd	r2, r3, [r7, #56]	@ 0x38
 80032c8:	4641      	mov	r1, r8
 80032ca:	1851      	adds	r1, r2, r1
 80032cc:	6339      	str	r1, [r7, #48]	@ 0x30
 80032ce:	4649      	mov	r1, r9
 80032d0:	414b      	adcs	r3, r1
 80032d2:	637b      	str	r3, [r7, #52]	@ 0x34
 80032d4:	f04f 0200 	mov.w	r2, #0
 80032d8:	f04f 0300 	mov.w	r3, #0
 80032dc:	e9d7 ab0c 	ldrd	sl, fp, [r7, #48]	@ 0x30
 80032e0:	4659      	mov	r1, fp
 80032e2:	00cb      	lsls	r3, r1, #3
 80032e4:	4651      	mov	r1, sl
 80032e6:	ea43 7351 	orr.w	r3, r3, r1, lsr #29
 80032ea:	4651      	mov	r1, sl
 80032ec:	00ca      	lsls	r2, r1, #3
 80032ee:	4610      	mov	r0, r2
 80032f0:	4619      	mov	r1, r3
 80032f2:	4603      	mov	r3, r0
 80032f4:	4642      	mov	r2, r8
 80032f6:	189b      	adds	r3, r3, r2
 80032f8:	f8c7 30b0 	str.w	r3, [r7, #176]	@ 0xb0
 80032fc:	464b      	mov	r3, r9
 80032fe:	460a      	mov	r2, r1
 8003300:	eb42 0303 	adc.w	r3, r2, r3
 8003304:	f8c7 30b4 	str.w	r3, [r7, #180]	@ 0xb4
 8003308:	f8d7 30f4 	ldr.w	r3, [r7, #244]	@ 0xf4
 800330c:	685b      	ldr	r3, [r3, #4]
 800330e:	2200      	movs	r2, #0
 8003310:	f8c7 30a8 	str.w	r3, [r7, #168]	@ 0xa8
 8003314:	f8c7 20ac 	str.w	r2, [r7, #172]	@ 0xac
 8003318:	e9d7 122a 	ldrd	r1, r2, [r7, #168]	@ 0xa8
 800331c:	460b      	mov	r3, r1
 800331e:	18db      	adds	r3, r3, r3
 8003320:	62bb      	str	r3, [r7, #40]	@ 0x28
 8003322:	4613      	mov	r3, r2
 8003324:	eb42 0303 	adc.w	r3, r2, r3
 8003328:	62fb      	str	r3, [r7, #44]	@ 0x2c
 800332a:	e9d7 230a 	ldrd	r2, r3, [r7, #40]	@ 0x28
 800332e:	e9d7 012c 	ldrd	r0, r1, [r7, #176]	@ 0xb0
 8003332:	f7fd f915 	bl	8000560 <__aeabi_uldivmod>
 8003336:	4602      	mov	r2, r0
 8003338:	460b      	mov	r3, r1
 800333a:	4b0d      	ldr	r3, [pc, #52]	@ (8003370 <UART_SetConfig+0x2d4>)
 800333c:	fba3 1302 	umull	r1, r3, r3, r2
 8003340:	095b      	lsrs	r3, r3, #5
 8003342:	2164      	movs	r1, #100	@ 0x64
 8003344:	fb01 f303 	mul.w	r3, r1, r3
 8003348:	1ad3      	subs	r3, r2, r3
 800334a:	00db      	lsls	r3, r3, #3
 800334c:	3332      	adds	r3, #50	@ 0x32
 800334e:	4a08      	ldr	r2, [pc, #32]	@ (8003370 <UART_SetConfig+0x2d4>)
 8003350:	fba2 2303 	umull	r2, r3, r2, r3
 8003354:	095b      	lsrs	r3, r3, #5
 8003356:	f003 0207 	and.w	r2, r3, #7
 800335a:	f8d7 30f4 	ldr.w	r3, [r7, #244]	@ 0xf4
 800335e:	681b      	ldr	r3, [r3, #0]
 8003360:	4422      	add	r2, r4
 8003362:	609a      	str	r2, [r3, #8]
  }
  else
  {
    huart->Instance->BRR = UART_BRR_SAMPLING16(pclk, huart->Init.BaudRate);
  }
}
 8003364:	e106      	b.n	8003574 <UART_SetConfig+0x4d8>
 8003366:	bf00      	nop
 8003368:	40011000 	.word	0x40011000
 800336c:	40011400 	.word	0x40011400
 8003370:	51eb851f 	.word	0x51eb851f
    huart->Instance->BRR = UART_BRR_SAMPLING16(pclk, huart->Init.BaudRate);
 8003374:	f8d7 30fc 	ldr.w	r3, [r7, #252]	@ 0xfc
 8003378:	2200      	movs	r2, #0
 800337a:	f8c7 30a0 	str.w	r3, [r7, #160]	@ 0xa0
 800337e:	f8c7 20a4 	str.w	r2, [r7, #164]	@ 0xa4
 8003382:	e9d7 8928 	ldrd	r8, r9, [r7, #160]	@ 0xa0
 8003386:	4642      	mov	r2, r8
 8003388:	464b      	mov	r3, r9
 800338a:	1891      	adds	r1, r2, r2
 800338c:	6239      	str	r1, [r7, #32]
 800338e:	415b      	adcs	r3, r3
 8003390:	627b      	str	r3, [r7, #36]	@ 0x24
 8003392:	e9d7 2308 	ldrd	r2, r3, [r7, #32]
 8003396:	4641      	mov	r1, r8
 8003398:	1854      	adds	r4, r2, r1
 800339a:	4649      	mov	r1, r9
 800339c:	eb43 0501 	adc.w	r5, r3, r1
 80033a0:	f04f 0200 	mov.w	r2, #0
 80033a4:	f04f 0300 	mov.w	r3, #0
 80033a8:	00eb      	lsls	r3, r5, #3
 80033aa:	ea43 7354 	orr.w	r3, r3, r4, lsr #29
 80033ae:	00e2      	lsls	r2, r4, #3
 80033b0:	4614      	mov	r4, r2
 80033b2:	461d      	mov	r5, r3
 80033b4:	4643      	mov	r3, r8
 80033b6:	18e3      	adds	r3, r4, r3
 80033b8:	f8c7 3098 	str.w	r3, [r7, #152]	@ 0x98
 80033bc:	464b      	mov	r3, r9
 80033be:	eb45 0303 	adc.w	r3, r5, r3
 80033c2:	f8c7 309c 	str.w	r3, [r7, #156]	@ 0x9c
 80033c6:	f8d7 30f4 	ldr.w	r3, [r7, #244]	@ 0xf4
 80033ca:	685b      	ldr	r3, [r3, #4]
 80033cc:	2200      	movs	r2, #0
 80033ce:	f8c7 3090 	str.w	r3, [r7, #144]	@ 0x90
 80033d2:	f8c7 2094 	str.w	r2, [r7, #148]	@ 0x94
 80033d6:	f04f 0200 	mov.w	r2, #0
 80033da:	f04f 0300 	mov.w	r3, #0
 80033de:	e9d7 4524 	ldrd	r4, r5, [r7, #144]	@ 0x90
 80033e2:	4629      	mov	r1, r5
 80033e4:	008b      	lsls	r3, r1, #2
 80033e6:	4621      	mov	r1, r4
 80033e8:	ea43 7391 	orr.w	r3, r3, r1, lsr #30
 80033ec:	4621      	mov	r1, r4
 80033ee:	008a      	lsls	r2, r1, #2
 80033f0:	e9d7 0126 	ldrd	r0, r1, [r7, #152]	@ 0x98
 80033f4:	f7fd f8b4 	bl	8000560 <__aeabi_uldivmod>
 80033f8:	4602      	mov	r2, r0
 80033fa:	460b      	mov	r3, r1
 80033fc:	4b60      	ldr	r3, [pc, #384]	@ (8003580 <UART_SetConfig+0x4e4>)
 80033fe:	fba3 2302 	umull	r2, r3, r3, r2
 8003402:	095b      	lsrs	r3, r3, #5
 8003404:	011c      	lsls	r4, r3, #4
 8003406:	f8d7 30fc 	ldr.w	r3, [r7, #252]	@ 0xfc
 800340a:	2200      	movs	r2, #0
 800340c:	f8c7 3088 	str.w	r3, [r7, #136]	@ 0x88
 8003410:	f8c7 208c 	str.w	r2, [r7, #140]	@ 0x8c
 8003414:	e9d7 8922 	ldrd	r8, r9, [r7, #136]	@ 0x88
 8003418:	4642      	mov	r2, r8
 800341a:	464b      	mov	r3, r9
 800341c:	1891      	adds	r1, r2, r2
 800341e:	61b9      	str	r1, [r7, #24]
 8003420:	415b      	adcs	r3, r3
 8003422:	61fb      	str	r3, [r7, #28]
 8003424:	e9d7 2306 	ldrd	r2, r3, [r7, #24]
 8003428:	4641      	mov	r1, r8
 800342a:	1851      	adds	r1, r2, r1
 800342c:	6139      	str	r1, [r7, #16]
 800342e:	4649      	mov	r1, r9
 8003430:	414b      	adcs	r3, r1
 8003432:	617b      	str	r3, [r7, #20]
 8003434:	f04f 0200 	mov.w	r2, #0
 8003438:	f04f 0300 	mov.w	r3, #0
 800343c:	e9d7 ab04 	ldrd	sl, fp, [r7, #16]
 8003440:	4659      	mov	r1, fp
 8003442:	00cb      	lsls	r3, r1, #3
 8003444:	4651      	mov	r1, sl
 8003446:	ea43 7351 	orr.w	r3, r3, r1, lsr #29
 800344a:	4651      	mov	r1, sl
 800344c:	00ca      	lsls	r2, r1, #3
 800344e:	4610      	mov	r0, r2
 8003450:	4619      	mov	r1, r3
 8003452:	4603      	mov	r3, r0
 8003454:	4642      	mov	r2, r8
 8003456:	189b      	adds	r3, r3, r2
 8003458:	f8c7 3080 	str.w	r3, [r7, #128]	@ 0x80
 800345c:	464b      	mov	r3, r9
 800345e:	460a      	mov	r2, r1
 8003460:	eb42 0303 	adc.w	r3, r2, r3
 8003464:	f8c7 3084 	str.w	r3, [r7, #132]	@ 0x84
 8003468:	f8d7 30f4 	ldr.w	r3, [r7, #244]	@ 0xf4
 800346c:	685b      	ldr	r3, [r3, #4]
 800346e:	2200      	movs	r2, #0
 8003470:	67bb      	str	r3, [r7, #120]	@ 0x78
 8003472:	67fa      	str	r2, [r7, #124]	@ 0x7c
 8003474:	f04f 0200 	mov.w	r2, #0
 8003478:	f04f 0300 	mov.w	r3, #0
 800347c:	e9d7 891e 	ldrd	r8, r9, [r7, #120]	@ 0x78
 8003480:	4649      	mov	r1, r9
 8003482:	008b      	lsls	r3, r1, #2
 8003484:	4641      	mov	r1, r8
 8003486:	ea43 7391 	orr.w	r3, r3, r1, lsr #30
 800348a:	4641      	mov	r1, r8
 800348c:	008a      	lsls	r2, r1, #2
 800348e:	e9d7 0120 	ldrd	r0, r1, [r7, #128]	@ 0x80
 8003492:	f7fd f865 	bl	8000560 <__aeabi_uldivmod>
 8003496:	4602      	mov	r2, r0
 8003498:	460b      	mov	r3, r1
 800349a:	4611      	mov	r1, r2
 800349c:	4b38      	ldr	r3, [pc, #224]	@ (8003580 <UART_SetConfig+0x4e4>)
 800349e:	fba3 2301 	umull	r2, r3, r3, r1
 80034a2:	095b      	lsrs	r3, r3, #5
 80034a4:	2264      	movs	r2, #100	@ 0x64
 80034a6:	fb02 f303 	mul.w	r3, r2, r3
 80034aa:	1acb      	subs	r3, r1, r3
 80034ac:	011b      	lsls	r3, r3, #4
 80034ae:	3332      	adds	r3, #50	@ 0x32
 80034b0:	4a33      	ldr	r2, [pc, #204]	@ (8003580 <UART_SetConfig+0x4e4>)
 80034b2:	fba2 2303 	umull	r2, r3, r2, r3
 80034b6:	095b      	lsrs	r3, r3, #5
 80034b8:	f003 03f0 	and.w	r3, r3, #240	@ 0xf0
 80034bc:	441c      	add	r4, r3
 80034be:	f8d7 30fc 	ldr.w	r3, [r7, #252]	@ 0xfc
 80034c2:	2200      	movs	r2, #0
 80034c4:	673b      	str	r3, [r7, #112]	@ 0x70
 80034c6:	677a      	str	r2, [r7, #116]	@ 0x74
 80034c8:	e9d7 891c 	ldrd	r8, r9, [r7, #112]	@ 0x70
 80034cc:	4642      	mov	r2, r8
 80034ce:	464b      	mov	r3, r9
 80034d0:	1891      	adds	r1, r2, r2
 80034d2:	60b9      	str	r1, [r7, #8]
 80034d4:	415b      	adcs	r3, r3
 80034d6:	60fb      	str	r3, [r7, #12]
 80034d8:	e9d7 2302 	ldrd	r2, r3, [r7, #8]
 80034dc:	4641      	mov	r1, r8
 80034de:	1851      	adds	r1, r2, r1
 80034e0:	6039      	str	r1, [r7, #0]
 80034e2:	4649      	mov	r1, r9
 80034e4:	414b      	adcs	r3, r1
 80034e6:	607b      	str	r3, [r7, #4]
 80034e8:	f04f 0200 	mov.w	r2, #0
 80034ec:	f04f 0300 	mov.w	r3, #0
 80034f0:	e9d7 ab00 	ldrd	sl, fp, [r7]
 80034f4:	4659      	mov	r1, fp
 80034f6:	00cb      	lsls	r3, r1, #3
 80034f8:	4651      	mov	r1, sl
 80034fa:	ea43 7351 	orr.w	r3, r3, r1, lsr #29
 80034fe:	4651      	mov	r1, sl
 8003500:	00ca      	lsls	r2, r1, #3
 8003502:	4610      	mov	r0, r2
 8003504:	4619      	mov	r1, r3
 8003506:	4603      	mov	r3, r0
 8003508:	4642      	mov	r2, r8
 800350a:	189b      	adds	r3, r3, r2
 800350c:	66bb      	str	r3, [r7, #104]	@ 0x68
 800350e:	464b      	mov	r3, r9
 8003510:	460a      	mov	r2, r1
 8003512:	eb42 0303 	adc.w	r3, r2, r3
 8003516:	66fb      	str	r3, [r7, #108]	@ 0x6c
 8003518:	f8d7 30f4 	ldr.w	r3, [r7, #244]	@ 0xf4
 800351c:	685b      	ldr	r3, [r3, #4]
 800351e:	2200      	movs	r2, #0
 8003520:	663b      	str	r3, [r7, #96]	@ 0x60
 8003522:	667a      	str	r2, [r7, #100]	@ 0x64
 8003524:	f04f 0200 	mov.w	r2, #0
 8003528:	f04f 0300 	mov.w	r3, #0
 800352c:	e9d7 8918 	ldrd	r8, r9, [r7, #96]	@ 0x60
 8003530:	4649      	mov	r1, r9
 8003532:	008b      	lsls	r3, r1, #2
 8003534:	4641      	mov	r1, r8
 8003536:	ea43 7391 	orr.w	r3, r3, r1, lsr #30
 800353a:	4641      	mov	r1, r8
 800353c:	008a      	lsls	r2, r1, #2
 800353e:	e9d7 011a 	ldrd	r0, r1, [r7, #104]	@ 0x68
 8003542:	f7fd f80d 	bl	8000560 <__aeabi_uldivmod>
 8003546:	4602      	mov	r2, r0
 8003548:	460b      	mov	r3, r1
 800354a:	4b0d      	ldr	r3, [pc, #52]	@ (8003580 <UART_SetConfig+0x4e4>)
 800354c:	fba3 1302 	umull	r1, r3, r3, r2
 8003550:	095b      	lsrs	r3, r3, #5
 8003552:	2164      	movs	r1, #100	@ 0x64
 8003554:	fb01 f303 	mul.w	r3, r1, r3
 8003558:	1ad3      	subs	r3, r2, r3
 800355a:	011b      	lsls	r3, r3, #4
 800355c:	3332      	adds	r3, #50	@ 0x32
 800355e:	4a08      	ldr	r2, [pc, #32]	@ (8003580 <UART_SetConfig+0x4e4>)
 8003560:	fba2 2303 	umull	r2, r3, r2, r3
 8003564:	095b      	lsrs	r3, r3, #5
 8003566:	f003 020f 	and.w	r2, r3, #15
 800356a:	f8d7 30f4 	ldr.w	r3, [r7, #244]	@ 0xf4
 800356e:	681b      	ldr	r3, [r3, #0]
 8003570:	4422      	add	r2, r4
 8003572:	609a      	str	r2, [r3, #8]
}
 8003574:	bf00      	nop
 8003576:	f507 7780 	add.w	r7, r7, #256	@ 0x100
 800357a:	46bd      	mov	sp, r7
 800357c:	e8bd 8fb0 	ldmia.w	sp!, {r4, r5, r7, r8, r9, sl, fp, pc}
 8003580:	51eb851f 	.word	0x51eb851f

08003584 <memset>:
 8003584:	4402      	add	r2, r0
 8003586:	4603      	mov	r3, r0
 8003588:	4293      	cmp	r3, r2
 800358a:	d100      	bne.n	800358e <memset+0xa>
 800358c:	4770      	bx	lr
 800358e:	f803 1b01 	strb.w	r1, [r3], #1
 8003592:	e7f9      	b.n	8003588 <memset+0x4>

08003594 <strcat>:
 8003594:	b510      	push	{r4, lr}
 8003596:	4602      	mov	r2, r0
 8003598:	7814      	ldrb	r4, [r2, #0]
 800359a:	4613      	mov	r3, r2
 800359c:	3201      	adds	r2, #1
 800359e:	2c00      	cmp	r4, #0
 80035a0:	d1fa      	bne.n	8003598 <strcat+0x4>
 80035a2:	3b01      	subs	r3, #1
 80035a4:	f811 2b01 	ldrb.w	r2, [r1], #1
 80035a8:	f803 2f01 	strb.w	r2, [r3, #1]!
 80035ac:	2a00      	cmp	r2, #0
 80035ae:	d1f9      	bne.n	80035a4 <strcat+0x10>
 80035b0:	bd10      	pop	{r4, pc}
	...

080035b4 <__libc_init_array>:
 80035b4:	b570      	push	{r4, r5, r6, lr}
 80035b6:	4d0d      	ldr	r5, [pc, #52]	@ (80035ec <__libc_init_array+0x38>)
 80035b8:	4c0d      	ldr	r4, [pc, #52]	@ (80035f0 <__libc_init_array+0x3c>)
 80035ba:	1b64      	subs	r4, r4, r5
 80035bc:	10a4      	asrs	r4, r4, #2
 80035be:	2600      	movs	r6, #0
 80035c0:	42a6      	cmp	r6, r4
 80035c2:	d109      	bne.n	80035d8 <__libc_init_array+0x24>
 80035c4:	4d0b      	ldr	r5, [pc, #44]	@ (80035f4 <__libc_init_array+0x40>)
 80035c6:	4c0c      	ldr	r4, [pc, #48]	@ (80035f8 <__libc_init_array+0x44>)
 80035c8:	f000 f818 	bl	80035fc <_init>
 80035cc:	1b64      	subs	r4, r4, r5
 80035ce:	10a4      	asrs	r4, r4, #2
 80035d0:	2600      	movs	r6, #0
 80035d2:	42a6      	cmp	r6, r4
 80035d4:	d105      	bne.n	80035e2 <__libc_init_array+0x2e>
 80035d6:	bd70      	pop	{r4, r5, r6, pc}
 80035d8:	f855 3b04 	ldr.w	r3, [r5], #4
 80035dc:	4798      	blx	r3
 80035de:	3601      	adds	r6, #1
 80035e0:	e7ee      	b.n	80035c0 <__libc_init_array+0xc>
 80035e2:	f855 3b04 	ldr.w	r3, [r5], #4
 80035e6:	4798      	blx	r3
 80035e8:	3601      	adds	r6, #1
 80035ea:	e7f2      	b.n	80035d2 <__libc_init_array+0x1e>
 80035ec:	0800375c 	.word	0x0800375c
 80035f0:	0800375c 	.word	0x0800375c
 80035f4:	0800375c 	.word	0x0800375c
 80035f8:	08003760 	.word	0x08003760

080035fc <_init>:
 80035fc:	b5f8      	push	{r3, r4, r5, r6, r7, lr}
 80035fe:	bf00      	nop
 8003600:	bcf8      	pop	{r3, r4, r5, r6, r7}
 8003602:	bc08      	pop	{r3}
 8003604:	469e      	mov	lr, r3
 8003606:	4770      	bx	lr

08003608 <_fini>:
 8003608:	b5f8      	push	{r3, r4, r5, r6, r7, lr}
 800360a:	bf00      	nop
 800360c:	bcf8      	pop	{r3, r4, r5, r6, r7}
 800360e:	bc08      	pop	{r3}
 8003610:	469e      	mov	lr, r3
 8003612:	4770      	bx	lr
