
APC1.elf:     file format elf32-littlearm

Sections:
Idx Name          Size      VMA       LMA       File off  Algn
  0 .isr_vector   00000198  08000000  08000000  00001000  2**0
                  CONTENTS, ALLOC, LOAD, READONLY, DATA
  1 .text         00003508  08000198  08000198  00001198  2**2
                  CONTENTS, ALLOC, LOAD, READONLY, CODE
  2 .rodata       00000140  080036a0  080036a0  000046a0  2**2
                  CONTENTS, ALLOC, LOAD, READONLY, DATA
  3 .ARM.extab    00000000  080037e0  080037e0  0000508c  2**0
                  CONTENTS
  4 .ARM          00000008  080037e0  080037e0  000047e0  2**2
                  CONTENTS, ALLOC, LOAD, READONLY, DATA
  5 .preinit_array 00000000  080037e8  080037e8  0000508c  2**0
                  CONTENTS, ALLOC, LOAD, DATA
  6 .init_array   00000004  080037e8  080037e8  000047e8  2**2
                  CONTENTS, ALLOC, LOAD, DATA
  7 .fini_array   00000004  080037ec  080037ec  000047ec  2**2
                  CONTENTS, ALLOC, LOAD, DATA
  8 .data         0000008c  20000000  080037f0  00005000  2**2
                  CONTENTS, ALLOC, LOAD, DATA
  9 .bss          000002e4  20000090  0800387c  00005090  2**3
                  ALLOC
 10 ._user_heap_stack 00000604  20000374  0800387c  00005374  2**0
                  ALLOC
 11 .ARM.attributes 00000030  00000000  00000000  0000508c  2**0
                  CONTENTS, READONLY
 12 .debug_info   00009110  00000000  00000000  000050bc  2**0
                  CONTENTS, READONLY, DEBUGGING, OCTETS
 13 .debug_abbrev 0000191a  00000000  00000000  0000e1cc  2**0
                  CONTENTS, READONLY, DEBUGGING, OCTETS
 14 .debug_aranges 000007c8  00000000  00000000  0000fae8  2**3
                  CONTENTS, READONLY, DEBUGGING, OCTETS
 15 .debug_rnglists 000005f2  00000000  00000000  000102b0  2**0
                  CONTENTS, READONLY, DEBUGGING, OCTETS
 16 .debug_macro  00015607  00000000  00000000  000108a2  2**0
                  CONTENTS, READONLY, DEBUGGING, OCTETS
 17 .debug_line   00009b1f  00000000  00000000  00025ea9  2**0
                  CONTENTS, READONLY, DEBUGGING, OCTETS
 18 .debug_str    0008563d  00000000  00000000  0002f9c8  2**0
                  CONTENTS, READONLY, DEBUGGING, OCTETS
 19 .comment      00000043  00000000  00000000  000b5005  2**0
                  CONTENTS, READONLY
 20 .debug_frame  00001f7c  00000000  00000000  000b5048  2**2
                  CONTENTS, READONLY, DEBUGGING, OCTETS
 21 .debug_line_str 0000004f  00000000  00000000  000b6fc4  2**0
                  CONTENTS, READONLY, DEBUGGING, OCTETS

Disassembly of section .text:

08000198 <__do_global_dtors_aux>:
 8000198:	b510      	push	{r4, lr}
 800019a:	4c05      	ldr	r4, [pc, #20]	@ (80001b0 <__do_global_dtors_aux+0x18>)
 800019c:	7823      	ldrb	r3, [r4, #0]
 800019e:	b933      	cbnz	r3, 80001ae <__do_global_dtors_aux+0x16>
 80001a0:	4b04      	ldr	r3, [pc, #16]	@ (80001b4 <__do_global_dtors_aux+0x1c>)
 80001a2:	b113      	cbz	r3, 80001aa <__do_global_dtors_aux+0x12>
 80001a4:	4804      	ldr	r0, [pc, #16]	@ (80001b8 <__do_global_dtors_aux+0x20>)
 80001a6:	f3af 8000 	nop.w
 80001aa:	2301      	movs	r3, #1
 80001ac:	7023      	strb	r3, [r4, #0]
 80001ae:	bd10      	pop	{r4, pc}
 80001b0:	20000090 	.word	0x20000090
 80001b4:	00000000 	.word	0x00000000
 80001b8:	08003688 	.word	0x08003688

080001bc <frame_dummy>:
 80001bc:	b508      	push	{r3, lr}
 80001be:	4b03      	ldr	r3, [pc, #12]	@ (80001cc <frame_dummy+0x10>)
 80001c0:	b11b      	cbz	r3, 80001ca <frame_dummy+0xe>
 80001c2:	4903      	ldr	r1, [pc, #12]	@ (80001d0 <frame_dummy+0x14>)
 80001c4:	4803      	ldr	r0, [pc, #12]	@ (80001d4 <frame_dummy+0x18>)
 80001c6:	f3af 8000 	nop.w
 80001ca:	bd08      	pop	{r3, pc}
 80001cc:	00000000 	.word	0x00000000
 80001d0:	20000094 	.word	0x20000094
 80001d4:	08003688 	.word	0x08003688

080001d8 <strlen>:
 80001d8:	4603      	mov	r3, r0
 80001da:	f813 2b01 	ldrb.w	r2, [r3], #1
 80001de:	2a00      	cmp	r2, #0
 80001e0:	d1fb      	bne.n	80001da <strlen+0x2>
 80001e2:	1a18      	subs	r0, r3, r0
 80001e4:	3801      	subs	r0, #1
 80001e6:	4770      	bx	lr

080001e8 <__aeabi_drsub>:
 80001e8:	f081 4100 	eor.w	r1, r1, #2147483648	@ 0x80000000
 80001ec:	e002      	b.n	80001f4 <__adddf3>
 80001ee:	bf00      	nop

080001f0 <__aeabi_dsub>:
 80001f0:	f083 4300 	eor.w	r3, r3, #2147483648	@ 0x80000000

080001f4 <__adddf3>:
 80001f4:	b530      	push	{r4, r5, lr}
 80001f6:	ea4f 0441 	mov.w	r4, r1, lsl #1
 80001fa:	ea4f 0543 	mov.w	r5, r3, lsl #1
 80001fe:	ea94 0f05 	teq	r4, r5
 8000202:	bf08      	it	eq
 8000204:	ea90 0f02 	teqeq	r0, r2
 8000208:	bf1f      	itttt	ne
 800020a:	ea54 0c00 	orrsne.w	ip, r4, r0
 800020e:	ea55 0c02 	orrsne.w	ip, r5, r2
 8000212:	ea7f 5c64 	mvnsne.w	ip, r4, asr #21
 8000216:	ea7f 5c65 	mvnsne.w	ip, r5, asr #21
 800021a:	f000 80e2 	beq.w	80003e2 <__adddf3+0x1ee>
 800021e:	ea4f 5454 	mov.w	r4, r4, lsr #21
 8000222:	ebd4 5555 	rsbs	r5, r4, r5, lsr #21
 8000226:	bfb8      	it	lt
 8000228:	426d      	neglt	r5, r5
 800022a:	dd0c      	ble.n	8000246 <__adddf3+0x52>
 800022c:	442c      	add	r4, r5
 800022e:	ea80 0202 	eor.w	r2, r0, r2
 8000232:	ea81 0303 	eor.w	r3, r1, r3
 8000236:	ea82 0000 	eor.w	r0, r2, r0
 800023a:	ea83 0101 	eor.w	r1, r3, r1
 800023e:	ea80 0202 	eor.w	r2, r0, r2
 8000242:	ea81 0303 	eor.w	r3, r1, r3
 8000246:	2d36      	cmp	r5, #54	@ 0x36
 8000248:	bf88      	it	hi
 800024a:	bd30      	pophi	{r4, r5, pc}
 800024c:	f011 4f00 	tst.w	r1, #2147483648	@ 0x80000000
 8000250:	ea4f 3101 	mov.w	r1, r1, lsl #12
 8000254:	f44f 1c80 	mov.w	ip, #1048576	@ 0x100000
 8000258:	ea4c 3111 	orr.w	r1, ip, r1, lsr #12
 800025c:	d002      	beq.n	8000264 <__adddf3+0x70>
 800025e:	4240      	negs	r0, r0
 8000260:	eb61 0141 	sbc.w	r1, r1, r1, lsl #1
 8000264:	f013 4f00 	tst.w	r3, #2147483648	@ 0x80000000
 8000268:	ea4f 3303 	mov.w	r3, r3, lsl #12
 800026c:	ea4c 3313 	orr.w	r3, ip, r3, lsr #12
 8000270:	d002      	beq.n	8000278 <__adddf3+0x84>
 8000272:	4252      	negs	r2, r2
 8000274:	eb63 0343 	sbc.w	r3, r3, r3, lsl #1
 8000278:	ea94 0f05 	teq	r4, r5
 800027c:	f000 80a7 	beq.w	80003ce <__adddf3+0x1da>
 8000280:	f1a4 0401 	sub.w	r4, r4, #1
 8000284:	f1d5 0e20 	rsbs	lr, r5, #32
 8000288:	db0d      	blt.n	80002a6 <__adddf3+0xb2>
 800028a:	fa02 fc0e 	lsl.w	ip, r2, lr
 800028e:	fa22 f205 	lsr.w	r2, r2, r5
 8000292:	1880      	adds	r0, r0, r2
 8000294:	f141 0100 	adc.w	r1, r1, #0
 8000298:	fa03 f20e 	lsl.w	r2, r3, lr
 800029c:	1880      	adds	r0, r0, r2
 800029e:	fa43 f305 	asr.w	r3, r3, r5
 80002a2:	4159      	adcs	r1, r3
 80002a4:	e00e      	b.n	80002c4 <__adddf3+0xd0>
 80002a6:	f1a5 0520 	sub.w	r5, r5, #32
 80002aa:	f10e 0e20 	add.w	lr, lr, #32
 80002ae:	2a01      	cmp	r2, #1
 80002b0:	fa03 fc0e 	lsl.w	ip, r3, lr
 80002b4:	bf28      	it	cs
 80002b6:	f04c 0c02 	orrcs.w	ip, ip, #2
 80002ba:	fa43 f305 	asr.w	r3, r3, r5
 80002be:	18c0      	adds	r0, r0, r3
 80002c0:	eb51 71e3 	adcs.w	r1, r1, r3, asr #31
 80002c4:	f001 4500 	and.w	r5, r1, #2147483648	@ 0x80000000
 80002c8:	d507      	bpl.n	80002da <__adddf3+0xe6>
 80002ca:	f04f 0e00 	mov.w	lr, #0
 80002ce:	f1dc 0c00 	rsbs	ip, ip, #0
 80002d2:	eb7e 0000 	sbcs.w	r0, lr, r0
 80002d6:	eb6e 0101 	sbc.w	r1, lr, r1
 80002da:	f5b1 1f80 	cmp.w	r1, #1048576	@ 0x100000
 80002de:	d31b      	bcc.n	8000318 <__adddf3+0x124>
 80002e0:	f5b1 1f00 	cmp.w	r1, #2097152	@ 0x200000
 80002e4:	d30c      	bcc.n	8000300 <__adddf3+0x10c>
 80002e6:	0849      	lsrs	r1, r1, #1
 80002e8:	ea5f 0030 	movs.w	r0, r0, rrx
 80002ec:	ea4f 0c3c 	mov.w	ip, ip, rrx
 80002f0:	f104 0401 	add.w	r4, r4, #1
 80002f4:	ea4f 5244 	mov.w	r2, r4, lsl #21
 80002f8:	f512 0f80 	cmn.w	r2, #4194304	@ 0x400000
 80002fc:	f080 809a 	bcs.w	8000434 <__adddf3+0x240>
 8000300:	f1bc 4f00 	cmp.w	ip, #2147483648	@ 0x80000000
 8000304:	bf08      	it	eq
 8000306:	ea5f 0c50 	movseq.w	ip, r0, lsr #1
 800030a:	f150 0000 	adcs.w	r0, r0, #0
 800030e:	eb41 5104 	adc.w	r1, r1, r4, lsl #20
 8000312:	ea41 0105 	orr.w	r1, r1, r5
 8000316:	bd30      	pop	{r4, r5, pc}
 8000318:	ea5f 0c4c 	movs.w	ip, ip, lsl #1
 800031c:	4140      	adcs	r0, r0
 800031e:	eb41 0101 	adc.w	r1, r1, r1
 8000322:	3c01      	subs	r4, #1
 8000324:	bf28      	it	cs
 8000326:	f5b1 1f80 	cmpcs.w	r1, #1048576	@ 0x100000
 800032a:	d2e9      	bcs.n	8000300 <__adddf3+0x10c>
 800032c:	f091 0f00 	teq	r1, #0
 8000330:	bf04      	itt	eq
 8000332:	4601      	moveq	r1, r0
 8000334:	2000      	moveq	r0, #0
 8000336:	fab1 f381 	clz	r3, r1
 800033a:	bf08      	it	eq
 800033c:	3320      	addeq	r3, #32
 800033e:	f1a3 030b 	sub.w	r3, r3, #11
 8000342:	f1b3 0220 	subs.w	r2, r3, #32
 8000346:	da0c      	bge.n	8000362 <__adddf3+0x16e>
 8000348:	320c      	adds	r2, #12
 800034a:	dd08      	ble.n	800035e <__adddf3+0x16a>
 800034c:	f102 0c14 	add.w	ip, r2, #20
 8000350:	f1c2 020c 	rsb	r2, r2, #12
 8000354:	fa01 f00c 	lsl.w	r0, r1, ip
 8000358:	fa21 f102 	lsr.w	r1, r1, r2
 800035c:	e00c      	b.n	8000378 <__adddf3+0x184>
 800035e:	f102 0214 	add.w	r2, r2, #20
 8000362:	bfd8      	it	le
 8000364:	f1c2 0c20 	rsble	ip, r2, #32
 8000368:	fa01 f102 	lsl.w	r1, r1, r2
 800036c:	fa20 fc0c 	lsr.w	ip, r0, ip
 8000370:	bfdc      	itt	le
 8000372:	ea41 010c 	orrle.w	r1, r1, ip
 8000376:	4090      	lslle	r0, r2
 8000378:	1ae4      	subs	r4, r4, r3
 800037a:	bfa2      	ittt	ge
 800037c:	eb01 5104 	addge.w	r1, r1, r4, lsl #20
 8000380:	4329      	orrge	r1, r5
 8000382:	bd30      	popge	{r4, r5, pc}
 8000384:	ea6f 0404 	mvn.w	r4, r4
 8000388:	3c1f      	subs	r4, #31
 800038a:	da1c      	bge.n	80003c6 <__adddf3+0x1d2>
 800038c:	340c      	adds	r4, #12
 800038e:	dc0e      	bgt.n	80003ae <__adddf3+0x1ba>
 8000390:	f104 0414 	add.w	r4, r4, #20
 8000394:	f1c4 0220 	rsb	r2, r4, #32
 8000398:	fa20 f004 	lsr.w	r0, r0, r4
 800039c:	fa01 f302 	lsl.w	r3, r1, r2
 80003a0:	ea40 0003 	orr.w	r0, r0, r3
 80003a4:	fa21 f304 	lsr.w	r3, r1, r4
 80003a8:	ea45 0103 	orr.w	r1, r5, r3
 80003ac:	bd30      	pop	{r4, r5, pc}
 80003ae:	f1c4 040c 	rsb	r4, r4, #12
 80003b2:	f1c4 0220 	rsb	r2, r4, #32
 80003b6:	fa20 f002 	lsr.w	r0, r0, r2
 80003ba:	fa01 f304 	lsl.w	r3, r1, r4
 80003be:	ea40 0003 	orr.w	r0, r0, r3
 80003c2:	4629      	mov	r1, r5
 80003c4:	bd30      	pop	{r4, r5, pc}
 80003c6:	fa21 f004 	lsr.w	r0, r1, r4
 80003ca:	4629      	mov	r1, r5
 80003cc:	bd30      	pop	{r4, r5, pc}
 80003ce:	f094 0f00 	teq	r4, #0
 80003d2:	f483 1380 	eor.w	r3, r3, #1048576	@ 0x100000
 80003d6:	bf06      	itte	eq
 80003d8:	f481 1180 	eoreq.w	r1, r1, #1048576	@ 0x100000
 80003dc:	3401      	addeq	r4, #1
 80003de:	3d01      	subne	r5, #1
 80003e0:	e74e      	b.n	8000280 <__adddf3+0x8c>
 80003e2:	ea7f 5c64 	mvns.w	ip, r4, asr #21
 80003e6:	bf18      	it	ne
 80003e8:	ea7f 5c65 	mvnsne.w	ip, r5, asr #21
 80003ec:	d029      	beq.n	8000442 <__adddf3+0x24e>
 80003ee:	ea94 0f05 	teq	r4, r5
 80003f2:	bf08      	it	eq
 80003f4:	ea90 0f02 	teqeq	r0, r2
 80003f8:	d005      	beq.n	8000406 <__adddf3+0x212>
 80003fa:	ea54 0c00 	orrs.w	ip, r4, r0
 80003fe:	bf04      	itt	eq
 8000400:	4619      	moveq	r1, r3
 8000402:	4610      	moveq	r0, r2
 8000404:	bd30      	pop	{r4, r5, pc}
 8000406:	ea91 0f03 	teq	r1, r3
 800040a:	bf1e      	ittt	ne
 800040c:	2100      	movne	r1, #0
 800040e:	2000      	movne	r0, #0
 8000410:	bd30      	popne	{r4, r5, pc}
 8000412:	ea5f 5c54 	movs.w	ip, r4, lsr #21
 8000416:	d105      	bne.n	8000424 <__adddf3+0x230>
 8000418:	0040      	lsls	r0, r0, #1
 800041a:	4149      	adcs	r1, r1
 800041c:	bf28      	it	cs
 800041e:	f041 4100 	orrcs.w	r1, r1, #2147483648	@ 0x80000000
 8000422:	bd30      	pop	{r4, r5, pc}
 8000424:	f514 0480 	adds.w	r4, r4, #4194304	@ 0x400000
 8000428:	bf3c      	itt	cc
 800042a:	f501 1180 	addcc.w	r1, r1, #1048576	@ 0x100000
 800042e:	bd30      	popcc	{r4, r5, pc}
 8000430:	f001 4500 	and.w	r5, r1, #2147483648	@ 0x80000000
 8000434:	f045 41fe 	orr.w	r1, r5, #2130706432	@ 0x7f000000
 8000438:	f441 0170 	orr.w	r1, r1, #15728640	@ 0xf00000
 800043c:	f04f 0000 	mov.w	r0, #0
 8000440:	bd30      	pop	{r4, r5, pc}
 8000442:	ea7f 5c64 	mvns.w	ip, r4, asr #21
 8000446:	bf1a      	itte	ne
 8000448:	4619      	movne	r1, r3
 800044a:	4610      	movne	r0, r2
 800044c:	ea7f 5c65 	mvnseq.w	ip, r5, asr #21
 8000450:	bf1c      	itt	ne
 8000452:	460b      	movne	r3, r1
 8000454:	4602      	movne	r2, r0
 8000456:	ea50 3401 	orrs.w	r4, r0, r1, lsl #12
 800045a:	bf06      	itte	eq
 800045c:	ea52 3503 	orrseq.w	r5, r2, r3, lsl #12
 8000460:	ea91 0f03 	teqeq	r1, r3
 8000464:	f441 2100 	orrne.w	r1, r1, #524288	@ 0x80000
 8000468:	bd30      	pop	{r4, r5, pc}
 800046a:	bf00      	nop

0800046c <__aeabi_ui2d>:
 800046c:	f090 0f00 	teq	r0, #0
 8000470:	bf04      	itt	eq
 8000472:	2100      	moveq	r1, #0
 8000474:	4770      	bxeq	lr
 8000476:	b530      	push	{r4, r5, lr}
 8000478:	f44f 6480 	mov.w	r4, #1024	@ 0x400
 800047c:	f104 0432 	add.w	r4, r4, #50	@ 0x32
 8000480:	f04f 0500 	mov.w	r5, #0
 8000484:	f04f 0100 	mov.w	r1, #0
 8000488:	e750      	b.n	800032c <__adddf3+0x138>
 800048a:	bf00      	nop

0800048c <__aeabi_i2d>:
 800048c:	f090 0f00 	teq	r0, #0
 8000490:	bf04      	itt	eq
 8000492:	2100      	moveq	r1, #0
 8000494:	4770      	bxeq	lr
 8000496:	b530      	push	{r4, r5, lr}
 8000498:	f44f 6480 	mov.w	r4, #1024	@ 0x400
 800049c:	f104 0432 	add.w	r4, r4, #50	@ 0x32
 80004a0:	f010 4500 	ands.w	r5, r0, #2147483648	@ 0x80000000
 80004a4:	bf48      	it	mi
 80004a6:	4240      	negmi	r0, r0
 80004a8:	f04f 0100 	mov.w	r1, #0
 80004ac:	e73e      	b.n	800032c <__adddf3+0x138>
 80004ae:	bf00      	nop

080004b0 <__aeabi_f2d>:
 80004b0:	0042      	lsls	r2, r0, #1
 80004b2:	ea4f 01e2 	mov.w	r1, r2, asr #3
 80004b6:	ea4f 0131 	mov.w	r1, r1, rrx
 80004ba:	ea4f 7002 	mov.w	r0, r2, lsl #28
 80004be:	bf1f      	itttt	ne
 80004c0:	f012 437f 	andsne.w	r3, r2, #4278190080	@ 0xff000000
 80004c4:	f093 4f7f 	teqne	r3, #4278190080	@ 0xff000000
 80004c8:	f081 5160 	eorne.w	r1, r1, #939524096	@ 0x38000000
 80004cc:	4770      	bxne	lr
 80004ce:	f032 427f 	bics.w	r2, r2, #4278190080	@ 0xff000000
 80004d2:	bf08      	it	eq
 80004d4:	4770      	bxeq	lr
 80004d6:	f093 4f7f 	teq	r3, #4278190080	@ 0xff000000
 80004da:	bf04      	itt	eq
 80004dc:	f441 2100 	orreq.w	r1, r1, #524288	@ 0x80000
 80004e0:	4770      	bxeq	lr
 80004e2:	b530      	push	{r4, r5, lr}
 80004e4:	f44f 7460 	mov.w	r4, #896	@ 0x380
 80004e8:	f001 4500 	and.w	r5, r1, #2147483648	@ 0x80000000
 80004ec:	f021 4100 	bic.w	r1, r1, #2147483648	@ 0x80000000
 80004f0:	e71c      	b.n	800032c <__adddf3+0x138>
 80004f2:	bf00      	nop

080004f4 <__aeabi_ul2d>:
 80004f4:	ea50 0201 	orrs.w	r2, r0, r1
 80004f8:	bf08      	it	eq
 80004fa:	4770      	bxeq	lr
 80004fc:	b530      	push	{r4, r5, lr}
 80004fe:	f04f 0500 	mov.w	r5, #0
 8000502:	e00a      	b.n	800051a <__aeabi_l2d+0x16>

08000504 <__aeabi_l2d>:
 8000504:	ea50 0201 	orrs.w	r2, r0, r1
 8000508:	bf08      	it	eq
 800050a:	4770      	bxeq	lr
 800050c:	b530      	push	{r4, r5, lr}
 800050e:	f011 4500 	ands.w	r5, r1, #2147483648	@ 0x80000000
 8000512:	d502      	bpl.n	800051a <__aeabi_l2d+0x16>
 8000514:	4240      	negs	r0, r0
 8000516:	eb61 0141 	sbc.w	r1, r1, r1, lsl #1
 800051a:	f44f 6480 	mov.w	r4, #1024	@ 0x400
 800051e:	f104 0432 	add.w	r4, r4, #50	@ 0x32
 8000522:	ea5f 5c91 	movs.w	ip, r1, lsr #22
 8000526:	f43f aed8 	beq.w	80002da <__adddf3+0xe6>
 800052a:	f04f 0203 	mov.w	r2, #3
 800052e:	ea5f 0cdc 	movs.w	ip, ip, lsr #3
 8000532:	bf18      	it	ne
 8000534:	3203      	addne	r2, #3
 8000536:	ea5f 0cdc 	movs.w	ip, ip, lsr #3
 800053a:	bf18      	it	ne
 800053c:	3203      	addne	r2, #3
 800053e:	eb02 02dc 	add.w	r2, r2, ip, lsr #3
 8000542:	f1c2 0320 	rsb	r3, r2, #32
 8000546:	fa00 fc03 	lsl.w	ip, r0, r3
 800054a:	fa20 f002 	lsr.w	r0, r0, r2
 800054e:	fa01 fe03 	lsl.w	lr, r1, r3
 8000552:	ea40 000e 	orr.w	r0, r0, lr
 8000556:	fa21 f102 	lsr.w	r1, r1, r2
 800055a:	4414      	add	r4, r2
 800055c:	e6bd      	b.n	80002da <__adddf3+0xe6>
 800055e:	bf00      	nop

08000560 <__aeabi_uldivmod>:
 8000560:	b953      	cbnz	r3, 8000578 <__aeabi_uldivmod+0x18>
 8000562:	b94a      	cbnz	r2, 8000578 <__aeabi_uldivmod+0x18>
 8000564:	2900      	cmp	r1, #0
 8000566:	bf08      	it	eq
 8000568:	2800      	cmpeq	r0, #0
 800056a:	bf1c      	itt	ne
 800056c:	f04f 31ff 	movne.w	r1, #4294967295
 8000570:	f04f 30ff 	movne.w	r0, #4294967295
 8000574:	f000 b96a 	b.w	800084c <__aeabi_idiv0>
 8000578:	f1ad 0c08 	sub.w	ip, sp, #8
 800057c:	e96d ce04 	strd	ip, lr, [sp, #-16]!
 8000580:	f000 f806 	bl	8000590 <__udivmoddi4>
 8000584:	f8dd e004 	ldr.w	lr, [sp, #4]
 8000588:	e9dd 2302 	ldrd	r2, r3, [sp, #8]
 800058c:	b004      	add	sp, #16
 800058e:	4770      	bx	lr

08000590 <__udivmoddi4>:
 8000590:	e92d 47f0 	stmdb	sp!, {r4, r5, r6, r7, r8, r9, sl, lr}
 8000594:	9d08      	ldr	r5, [sp, #32]
 8000596:	460c      	mov	r4, r1
 8000598:	2b00      	cmp	r3, #0
 800059a:	d14e      	bne.n	800063a <__udivmoddi4+0xaa>
 800059c:	4694      	mov	ip, r2
 800059e:	458c      	cmp	ip, r1
 80005a0:	4686      	mov	lr, r0
 80005a2:	fab2 f282 	clz	r2, r2
 80005a6:	d962      	bls.n	800066e <__udivmoddi4+0xde>
 80005a8:	b14a      	cbz	r2, 80005be <__udivmoddi4+0x2e>
 80005aa:	f1c2 0320 	rsb	r3, r2, #32
 80005ae:	4091      	lsls	r1, r2
 80005b0:	fa20 f303 	lsr.w	r3, r0, r3
 80005b4:	fa0c fc02 	lsl.w	ip, ip, r2
 80005b8:	4319      	orrs	r1, r3
 80005ba:	fa00 fe02 	lsl.w	lr, r0, r2
 80005be:	ea4f 471c 	mov.w	r7, ip, lsr #16
 80005c2:	fa1f f68c 	uxth.w	r6, ip
 80005c6:	fbb1 f4f7 	udiv	r4, r1, r7
 80005ca:	ea4f 431e 	mov.w	r3, lr, lsr #16
 80005ce:	fb07 1114 	mls	r1, r7, r4, r1
 80005d2:	ea43 4301 	orr.w	r3, r3, r1, lsl #16
 80005d6:	fb04 f106 	mul.w	r1, r4, r6
 80005da:	4299      	cmp	r1, r3
 80005dc:	d90a      	bls.n	80005f4 <__udivmoddi4+0x64>
 80005de:	eb1c 0303 	adds.w	r3, ip, r3
 80005e2:	f104 30ff 	add.w	r0, r4, #4294967295
 80005e6:	f080 8112 	bcs.w	800080e <__udivmoddi4+0x27e>
 80005ea:	4299      	cmp	r1, r3
 80005ec:	f240 810f 	bls.w	800080e <__udivmoddi4+0x27e>
 80005f0:	3c02      	subs	r4, #2
 80005f2:	4463      	add	r3, ip
 80005f4:	1a59      	subs	r1, r3, r1
 80005f6:	fa1f f38e 	uxth.w	r3, lr
 80005fa:	fbb1 f0f7 	udiv	r0, r1, r7
 80005fe:	fb07 1110 	mls	r1, r7, r0, r1
 8000602:	ea43 4301 	orr.w	r3, r3, r1, lsl #16
 8000606:	fb00 f606 	mul.w	r6, r0, r6
 800060a:	429e      	cmp	r6, r3
 800060c:	d90a      	bls.n	8000624 <__udivmoddi4+0x94>
 800060e:	eb1c 0303 	adds.w	r3, ip, r3
 8000612:	f100 31ff 	add.w	r1, r0, #4294967295
 8000616:	f080 80fc 	bcs.w	8000812 <__udivmoddi4+0x282>
 800061a:	429e      	cmp	r6, r3
 800061c:	f240 80f9 	bls.w	8000812 <__udivmoddi4+0x282>
 8000620:	4463      	add	r3, ip
 8000622:	3802      	subs	r0, #2
 8000624:	1b9b      	subs	r3, r3, r6
 8000626:	ea40 4004 	orr.w	r0, r0, r4, lsl #16
 800062a:	2100      	movs	r1, #0
 800062c:	b11d      	cbz	r5, 8000636 <__udivmoddi4+0xa6>
 800062e:	40d3      	lsrs	r3, r2
 8000630:	2200      	movs	r2, #0
 8000632:	e9c5 3200 	strd	r3, r2, [r5]
 8000636:	e8bd 87f0 	ldmia.w	sp!, {r4, r5, r6, r7, r8, r9, sl, pc}
 800063a:	428b      	cmp	r3, r1
 800063c:	d905      	bls.n	800064a <__udivmoddi4+0xba>
 800063e:	b10d      	cbz	r5, 8000644 <__udivmoddi4+0xb4>
 8000640:	e9c5 0100 	strd	r0, r1, [r5]
 8000644:	2100      	movs	r1, #0
 8000646:	4608      	mov	r0, r1
 8000648:	e7f5      	b.n	8000636 <__udivmoddi4+0xa6>
 800064a:	fab3 f183 	clz	r1, r3
 800064e:	2900      	cmp	r1, #0
 8000650:	d146      	bne.n	80006e0 <__udivmoddi4+0x150>
 8000652:	42a3      	cmp	r3, r4
 8000654:	d302      	bcc.n	800065c <__udivmoddi4+0xcc>
 8000656:	4290      	cmp	r0, r2
 8000658:	f0c0 80f0 	bcc.w	800083c <__udivmoddi4+0x2ac>
 800065c:	1a86      	subs	r6, r0, r2
 800065e:	eb64 0303 	sbc.w	r3, r4, r3
 8000662:	2001      	movs	r0, #1
 8000664:	2d00      	cmp	r5, #0
 8000666:	d0e6      	beq.n	8000636 <__udivmoddi4+0xa6>
 8000668:	e9c5 6300 	strd	r6, r3, [r5]
 800066c:	e7e3      	b.n	8000636 <__udivmoddi4+0xa6>
 800066e:	2a00      	cmp	r2, #0
 8000670:	f040 8090 	bne.w	8000794 <__udivmoddi4+0x204>
 8000674:	eba1 040c 	sub.w	r4, r1, ip
 8000678:	ea4f 481c 	mov.w	r8, ip, lsr #16
 800067c:	fa1f f78c 	uxth.w	r7, ip
 8000680:	2101      	movs	r1, #1
 8000682:	fbb4 f6f8 	udiv	r6, r4, r8
 8000686:	ea4f 431e 	mov.w	r3, lr, lsr #16
 800068a:	fb08 4416 	mls	r4, r8, r6, r4
 800068e:	ea43 4304 	orr.w	r3, r3, r4, lsl #16
 8000692:	fb07 f006 	mul.w	r0, r7, r6
 8000696:	4298      	cmp	r0, r3
 8000698:	d908      	bls.n	80006ac <__udivmoddi4+0x11c>
 800069a:	eb1c 0303 	adds.w	r3, ip, r3
 800069e:	f106 34ff 	add.w	r4, r6, #4294967295
 80006a2:	d202      	bcs.n	80006aa <__udivmoddi4+0x11a>
 80006a4:	4298      	cmp	r0, r3
 80006a6:	f200 80cd 	bhi.w	8000844 <__udivmoddi4+0x2b4>
 80006aa:	4626      	mov	r6, r4
 80006ac:	1a1c      	subs	r4, r3, r0
 80006ae:	fa1f f38e 	uxth.w	r3, lr
 80006b2:	fbb4 f0f8 	udiv	r0, r4, r8
 80006b6:	fb08 4410 	mls	r4, r8, r0, r4
 80006ba:	ea43 4304 	orr.w	r3, r3, r4, lsl #16
 80006be:	fb00 f707 	mul.w	r7, r0, r7
 80006c2:	429f      	cmp	r7, r3
 80006c4:	d908      	bls.n	80006d8 <__udivmoddi4+0x148>
 80006c6:	eb1c 0303 	adds.w	r3, ip, r3
 80006ca:	f100 34ff 	add.w	r4, r0, #4294967295
 80006ce:	d202      	bcs.n	80006d6 <__udivmoddi4+0x146>
 80006d0:	429f      	cmp	r7, r3
 80006d2:	f200 80b0 	bhi.w	8000836 <__udivmoddi4+0x2a6>
 80006d6:	4620      	mov	r0, r4
 80006d8:	1bdb      	subs	r3, r3, r7
 80006da:	ea40 4006 	orr.w	r0, r0, r6, lsl #16
 80006de:	e7a5      	b.n	800062c <__udivmoddi4+0x9c>
 80006e0:	f1c1 0620 	rsb	r6, r1, #32
 80006e4:	408b      	lsls	r3, r1
 80006e6:	fa22 f706 	lsr.w	r7, r2, r6
 80006ea:	431f      	orrs	r7, r3
 80006ec:	fa20 fc06 	lsr.w	ip, r0, r6
 80006f0:	fa04 f301 	lsl.w	r3, r4, r1
 80006f4:	ea43 030c 	orr.w	r3, r3, ip
 80006f8:	40f4      	lsrs	r4, r6
 80006fa:	fa00 f801 	lsl.w	r8, r0, r1
 80006fe:	0c38      	lsrs	r0, r7, #16
 8000700:	ea4f 4913 	mov.w	r9, r3, lsr #16
 8000704:	fbb4 fef0 	udiv	lr, r4, r0
 8000708:	fa1f fc87 	uxth.w	ip, r7
 800070c:	fb00 441e 	mls	r4, r0, lr, r4
 8000710:	ea49 4404 	orr.w	r4, r9, r4, lsl #16
 8000714:	fb0e f90c 	mul.w	r9, lr, ip
 8000718:	45a1      	cmp	r9, r4
 800071a:	fa02 f201 	lsl.w	r2, r2, r1
 800071e:	d90a      	bls.n	8000736 <__udivmoddi4+0x1a6>
 8000720:	193c      	adds	r4, r7, r4
 8000722:	f10e 3aff 	add.w	sl, lr, #4294967295
 8000726:	f080 8084 	bcs.w	8000832 <__udivmoddi4+0x2a2>
 800072a:	45a1      	cmp	r9, r4
 800072c:	f240 8081 	bls.w	8000832 <__udivmoddi4+0x2a2>
 8000730:	f1ae 0e02 	sub.w	lr, lr, #2
 8000734:	443c      	add	r4, r7
 8000736:	eba4 0409 	sub.w	r4, r4, r9
 800073a:	fa1f f983 	uxth.w	r9, r3
 800073e:	fbb4 f3f0 	udiv	r3, r4, r0
 8000742:	fb00 4413 	mls	r4, r0, r3, r4
 8000746:	ea49 4404 	orr.w	r4, r9, r4, lsl #16
 800074a:	fb03 fc0c 	mul.w	ip, r3, ip
 800074e:	45a4      	cmp	ip, r4
 8000750:	d907      	bls.n	8000762 <__udivmoddi4+0x1d2>
 8000752:	193c      	adds	r4, r7, r4
 8000754:	f103 30ff 	add.w	r0, r3, #4294967295
 8000758:	d267      	bcs.n	800082a <__udivmoddi4+0x29a>
 800075a:	45a4      	cmp	ip, r4
 800075c:	d965      	bls.n	800082a <__udivmoddi4+0x29a>
 800075e:	3b02      	subs	r3, #2
 8000760:	443c      	add	r4, r7
 8000762:	ea43 400e 	orr.w	r0, r3, lr, lsl #16
 8000766:	fba0 9302 	umull	r9, r3, r0, r2
 800076a:	eba4 040c 	sub.w	r4, r4, ip
 800076e:	429c      	cmp	r4, r3
 8000770:	46ce      	mov	lr, r9
 8000772:	469c      	mov	ip, r3
 8000774:	d351      	bcc.n	800081a <__udivmoddi4+0x28a>
 8000776:	d04e      	beq.n	8000816 <__udivmoddi4+0x286>
 8000778:	b155      	cbz	r5, 8000790 <__udivmoddi4+0x200>
 800077a:	ebb8 030e 	subs.w	r3, r8, lr
 800077e:	eb64 040c 	sbc.w	r4, r4, ip
 8000782:	fa04 f606 	lsl.w	r6, r4, r6
 8000786:	40cb      	lsrs	r3, r1
 8000788:	431e      	orrs	r6, r3
 800078a:	40cc      	lsrs	r4, r1
 800078c:	e9c5 6400 	strd	r6, r4, [r5]
 8000790:	2100      	movs	r1, #0
 8000792:	e750      	b.n	8000636 <__udivmoddi4+0xa6>
 8000794:	f1c2 0320 	rsb	r3, r2, #32
 8000798:	fa20 f103 	lsr.w	r1, r0, r3
 800079c:	fa0c fc02 	lsl.w	ip, ip, r2
 80007a0:	fa24 f303 	lsr.w	r3, r4, r3
 80007a4:	4094      	lsls	r4, r2
 80007a6:	430c      	orrs	r4, r1
 80007a8:	ea4f 481c 	mov.w	r8, ip, lsr #16
 80007ac:	fa00 fe02 	lsl.w	lr, r0, r2
 80007b0:	fa1f f78c 	uxth.w	r7, ip
 80007b4:	fbb3 f0f8 	udiv	r0, r3, r8
 80007b8:	fb08 3110 	mls	r1, r8, r0, r3
 80007bc:	0c23      	lsrs	r3, r4, #16
 80007be:	ea43 4301 	orr.w	r3, r3, r1, lsl #16
 80007c2:	fb00 f107 	mul.w	r1, r0, r7
 80007c6:	4299      	cmp	r1, r3
 80007c8:	d908      	bls.n	80007dc <__udivmoddi4+0x24c>
 80007ca:	eb1c 0303 	adds.w	r3, ip, r3
 80007ce:	f100 36ff 	add.w	r6, r0, #4294967295
 80007d2:	d22c      	bcs.n	800082e <__udivmoddi4+0x29e>
 80007d4:	4299      	cmp	r1, r3
 80007d6:	d92a      	bls.n	800082e <__udivmoddi4+0x29e>
 80007d8:	3802      	subs	r0, #2
 80007da:	4463      	add	r3, ip
 80007dc:	1a5b      	subs	r3, r3, r1
 80007de:	b2a4      	uxth	r4, r4
 80007e0:	fbb3 f1f8 	udiv	r1, r3, r8
 80007e4:	fb08 3311 	mls	r3, r8, r1, r3
 80007e8:	ea44 4403 	orr.w	r4, r4, r3, lsl #16
 80007ec:	fb01 f307 	mul.w	r3, r1, r7
 80007f0:	42a3      	cmp	r3, r4
 80007f2:	d908      	bls.n	8000806 <__udivmoddi4+0x276>
 80007f4:	eb1c 0404 	adds.w	r4, ip, r4
 80007f8:	f101 36ff 	add.w	r6, r1, #4294967295
 80007fc:	d213      	bcs.n	8000826 <__udivmoddi4+0x296>
 80007fe:	42a3      	cmp	r3, r4
 8000800:	d911      	bls.n	8000826 <__udivmoddi4+0x296>
 8000802:	3902      	subs	r1, #2
 8000804:	4464      	add	r4, ip
 8000806:	1ae4      	subs	r4, r4, r3
 8000808:	ea41 4100 	orr.w	r1, r1, r0, lsl #16
 800080c:	e739      	b.n	8000682 <__udivmoddi4+0xf2>
 800080e:	4604      	mov	r4, r0
 8000810:	e6f0      	b.n	80005f4 <__udivmoddi4+0x64>
 8000812:	4608      	mov	r0, r1
 8000814:	e706      	b.n	8000624 <__udivmoddi4+0x94>
 8000816:	45c8      	cmp	r8, r9
 8000818:	d2ae      	bcs.n	8000778 <__udivmoddi4+0x1e8>
 800081a:	ebb9 0e02 	subs.w	lr, r9, r2
 800081e:	eb63 0c07 	sbc.w	ip, r3, r7
 8000822:	3801      	subs	r0, #1
 8000824:	e7a8      	b.n	8000778 <__udivmoddi4+0x1e8>
 8000826:	4631      	mov	r1, r6
 8000828:	e7ed      	b.n	8000806 <__udivmoddi4+0x276>
 800082a:	4603      	mov	r3, r0
 800082c:	e799      	b.n	8000762 <__udivmoddi4+0x1d2>
 800082e:	4630      	mov	r0, r6
 8000830:	e7d4      	b.n	80007dc <__udivmoddi4+0x24c>
 8000832:	46d6      	mov	lr, sl
 8000834:	e77f      	b.n	8000736 <__udivmoddi4+0x1a6>
 8000836:	4463      	add	r3, ip
 8000838:	3802      	subs	r0, #2
 800083a:	e74d      	b.n	80006d8 <__udivmoddi4+0x148>
 800083c:	4606      	mov	r6, r0
 800083e:	4623      	mov	r3, r4
 8000840:	4608      	mov	r0, r1
 8000842:	e70f      	b.n	8000664 <__udivmoddi4+0xd4>
 8000844:	3e02      	subs	r6, #2
 8000846:	4463      	add	r3, ip
 8000848:	e730      	b.n	80006ac <__udivmoddi4+0x11c>
 800084a:	bf00      	nop

0800084c <__aeabi_idiv0>:
 800084c:	4770      	bx	lr
 800084e:	bf00      	nop

08000850 <APC1_Init_Sensor>:
  * @brief  Initializes the APC1 sensor.
  * @param  huart Pointer to a UART_HandleTypeDef structure that contains
  *               the configuration information for the specified UART module.
  * @retval APC1 status
  */
enum APC1_Status APC1_Init_Sensor(UART_HandleTypeDef *huart) {
 8000850:	b480      	push	{r7}
 8000852:	b087      	sub	sp, #28
 8000854:	af00      	add	r7, sp, #0
 8000856:	6078      	str	r0, [r7, #4]

	if (huart == NULL) {
 8000858:	687b      	ldr	r3, [r7, #4]
 800085a:	2b00      	cmp	r3, #0
 800085c:	d101      	bne.n	8000862 <APC1_Init_Sensor+0x12>
		return APC1_ERROR_NULL_POINTER;
 800085e:	2382      	movs	r3, #130	@ 0x82
 8000860:	e00c      	b.n	800087c <APC1_Init_Sensor+0x2c>
	}

	dev_settings = (struct APC1_Device_Settings) {
 8000862:	4a09      	ldr	r2, [pc, #36]	@ (8000888 <APC1_Init_Sensor+0x38>)
 8000864:	687b      	ldr	r3, [r7, #4]
 8000866:	6013      	str	r3, [r2, #0]
 8000868:	4b07      	ldr	r3, [pc, #28]	@ (8000888 <APC1_Init_Sensor+0x38>)
 800086a:	2200      	movs	r2, #0
 800086c:	605a      	str	r2, [r3, #4]
 800086e:	4b06      	ldr	r3, [pc, #24]	@ (8000888 <APC1_Init_Sensor+0x38>)
 8000870:	2200      	movs	r2, #0
 8000872:	721a      	strb	r2, [r3, #8]
 8000874:	4b04      	ldr	r3, [pc, #16]	@ (8000888 <APC1_Init_Sensor+0x38>)
 8000876:	2200      	movs	r2, #0
 8000878:	725a      	strb	r2, [r3, #9]
			.mode = APC1_PASSIVE_MODE,
			.fw_vesion = 0,
			.received_response = 0
	};

	return APC1_OK;
 800087a:	2300      	movs	r3, #0

}
 800087c:	4618      	mov	r0, r3
 800087e:	371c      	adds	r7, #28
 8000880:	46bd      	mov	sp, r7
 8000882:	f85d 7b04 	ldr.w	r7, [sp], #4
 8000886:	4770      	bx	lr
 8000888:	200002ac 	.word	0x200002ac

0800088c <APC1_Send_Receive_Command>:
  *               the configuration information for the specified UART module.
  * @param  setting	Struct element describing the command and its parameters.
  * @param  get_response  Indicating to receive or ignore response of executed command.
  * @retval HAL status
  */
HAL_StatusTypeDef APC1_Send_Receive_Command(UART_HandleTypeDef *huart, struct APC1_Command_Settings setting, int get_response) {
 800088c:	b580      	push	{r7, lr}
 800088e:	b086      	sub	sp, #24
 8000890:	af00      	add	r7, sp, #0
 8000892:	60f8      	str	r0, [r7, #12]
 8000894:	4638      	mov	r0, r7
 8000896:	e880 000e 	stmia.w	r0, {r1, r2, r3}

	HAL_StatusTypeDef status;

	memset(buffer, 0, BUFFER_SIZE);
 800089a:	f44f 7280 	mov.w	r2, #256	@ 0x100
 800089e:	2100      	movs	r1, #0
 80008a0:	4812      	ldr	r0, [pc, #72]	@ (80008ec <APC1_Send_Receive_Command+0x60>)
 80008a2:	f002 feb5 	bl	8003610 <memset>
	if (get_response && (status = HAL_UART_Receive_IT(huart, buffer, setting.response_size)) != HAL_OK) {
 80008a6:	6a3b      	ldr	r3, [r7, #32]
 80008a8:	2b00      	cmp	r3, #0
 80008aa:	d00c      	beq.n	80008c6 <APC1_Send_Receive_Command+0x3a>
 80008ac:	7abb      	ldrb	r3, [r7, #10]
 80008ae:	461a      	mov	r2, r3
 80008b0:	490e      	ldr	r1, [pc, #56]	@ (80008ec <APC1_Send_Receive_Command+0x60>)
 80008b2:	68f8      	ldr	r0, [r7, #12]
 80008b4:	f001 ff13 	bl	80026de <HAL_UART_Receive_IT>
 80008b8:	4603      	mov	r3, r0
 80008ba:	75fb      	strb	r3, [r7, #23]
 80008bc:	7dfb      	ldrb	r3, [r7, #23]
 80008be:	2b00      	cmp	r3, #0
 80008c0:	d001      	beq.n	80008c6 <APC1_Send_Receive_Command+0x3a>
		return status;
 80008c2:	7dfb      	ldrb	r3, [r7, #23]
 80008c4:	e00e      	b.n	80008e4 <APC1_Send_Receive_Command+0x58>
	}
	if ((status = HAL_UART_Transmit(huart, setting.cmd, COMMAND_LENGHT, 2000)) != HAL_OK) {
 80008c6:	4639      	mov	r1, r7
 80008c8:	f44f 63fa 	mov.w	r3, #2000	@ 0x7d0
 80008cc:	2207      	movs	r2, #7
 80008ce:	68f8      	ldr	r0, [r7, #12]
 80008d0:	f001 fe73 	bl	80025ba <HAL_UART_Transmit>
 80008d4:	4603      	mov	r3, r0
 80008d6:	75fb      	strb	r3, [r7, #23]
 80008d8:	7dfb      	ldrb	r3, [r7, #23]
 80008da:	2b00      	cmp	r3, #0
 80008dc:	d001      	beq.n	80008e2 <APC1_Send_Receive_Command+0x56>
		return status;
 80008de:	7dfb      	ldrb	r3, [r7, #23]
 80008e0:	e000      	b.n	80008e4 <APC1_Send_Receive_Command+0x58>
	}

	return status;
 80008e2:	7dfb      	ldrb	r3, [r7, #23]

}
 80008e4:	4618      	mov	r0, r3
 80008e6:	3718      	adds	r7, #24
 80008e8:	46bd      	mov	sp, r7
 80008ea:	bd80      	pop	{r7, pc}
 80008ec:	200000ac 	.word	0x200000ac

080008f0 <APC1_Read_Module_Type>:
  * @note	Depending on the firmware version of the sensor this command is supported or not.
  * 		Versions prior to 35 DO NOT support it. In such case, this function will hang
  * 		in the while loop waiting for a response which will not occur.
  * @retval APC1 status
  */
enum APC1_Status APC1_Read_Module_Type(void) {
 80008f0:	b580      	push	{r7, lr}
 80008f2:	b084      	sub	sp, #16
 80008f4:	af02      	add	r7, sp, #8

	enum APC1_Status status;

	if (APC1_Send_Receive_Command(dev_settings.sensor_uart, command[APC1_CMD_READ_MODULE_TYPE], GET_RESPONSE) != HAL_OK) {
 80008f6:	4b1b      	ldr	r3, [pc, #108]	@ (8000964 <APC1_Read_Module_Type+0x74>)
 80008f8:	6818      	ldr	r0, [r3, #0]
 80008fa:	4b1b      	ldr	r3, [pc, #108]	@ (8000968 <APC1_Read_Module_Type+0x78>)
 80008fc:	2201      	movs	r2, #1
 80008fe:	9200      	str	r2, [sp, #0]
 8000900:	cb0e      	ldmia	r3, {r1, r2, r3}
 8000902:	f7ff ffc3 	bl	800088c <APC1_Send_Receive_Command>
 8000906:	4603      	mov	r3, r0
 8000908:	2b00      	cmp	r3, #0
 800090a:	d007      	beq.n	800091c <APC1_Read_Module_Type+0x2c>
		APC1_Error_Buffer_Append(error_buffer, 9);
 800090c:	4b17      	ldr	r3, [pc, #92]	@ (800096c <APC1_Read_Module_Type+0x7c>)
 800090e:	6a5b      	ldr	r3, [r3, #36]	@ 0x24
 8000910:	4619      	mov	r1, r3
 8000912:	4817      	ldr	r0, [pc, #92]	@ (8000970 <APC1_Read_Module_Type+0x80>)
 8000914:	f002 fe84 	bl	8003620 <strcat>
		return APC1_ERROR_CMD;
 8000918:	2381      	movs	r3, #129	@ 0x81
 800091a:	e01e      	b.n	800095a <APC1_Read_Module_Type+0x6a>
	}
	while (dev_settings.received_response == 0);
 800091c:	bf00      	nop
 800091e:	4b11      	ldr	r3, [pc, #68]	@ (8000964 <APC1_Read_Module_Type+0x74>)
 8000920:	685b      	ldr	r3, [r3, #4]
 8000922:	2b00      	cmp	r3, #0
 8000924:	d0fb      	beq.n	800091e <APC1_Read_Module_Type+0x2e>
	dev_settings.received_response = 0;
 8000926:	4b0f      	ldr	r3, [pc, #60]	@ (8000964 <APC1_Read_Module_Type+0x74>)
 8000928:	2200      	movs	r2, #0
 800092a:	605a      	str	r2, [r3, #4]

	if ((status = APC1_Check_Checksum(SUM_OF_VALUES_FW, CHECKSUM_LOW_FW, CHECKSUM_HIGH_FW)) != APC1_OK) {
 800092c:	2216      	movs	r2, #22
 800092e:	2115      	movs	r1, #21
 8000930:	2015      	movs	r0, #21
 8000932:	f000 f8b3 	bl	8000a9c <APC1_Check_Checksum>
 8000936:	4603      	mov	r3, r0
 8000938:	71fb      	strb	r3, [r7, #7]
 800093a:	79fb      	ldrb	r3, [r7, #7]
 800093c:	2b00      	cmp	r3, #0
 800093e:	d007      	beq.n	8000950 <APC1_Read_Module_Type+0x60>
		APC1_Error_Buffer_Append(error_buffer, 8);
 8000940:	4b0a      	ldr	r3, [pc, #40]	@ (800096c <APC1_Read_Module_Type+0x7c>)
 8000942:	6a1b      	ldr	r3, [r3, #32]
 8000944:	4619      	mov	r1, r3
 8000946:	480a      	ldr	r0, [pc, #40]	@ (8000970 <APC1_Read_Module_Type+0x80>)
 8000948:	f002 fe6a 	bl	8003620 <strcat>
		return status;
 800094c:	79fb      	ldrb	r3, [r7, #7]
 800094e:	e004      	b.n	800095a <APC1_Read_Module_Type+0x6a>
	}
	dev_settings.fw_vesion = buffer[FW_ANSWER_FW_VERSION];
 8000950:	4b08      	ldr	r3, [pc, #32]	@ (8000974 <APC1_Read_Module_Type+0x84>)
 8000952:	7cda      	ldrb	r2, [r3, #19]
 8000954:	4b03      	ldr	r3, [pc, #12]	@ (8000964 <APC1_Read_Module_Type+0x74>)
 8000956:	725a      	strb	r2, [r3, #9]

	return status;
 8000958:	79fb      	ldrb	r3, [r7, #7]

}
 800095a:	4618      	mov	r0, r3
 800095c:	3708      	adds	r7, #8
 800095e:	46bd      	mov	sp, r7
 8000960:	bd80      	pop	{r7, pc}
 8000962:	bf00      	nop
 8000964:	200002ac 	.word	0x200002ac
 8000968:	20000000 	.word	0x20000000
 800096c:	20000058 	.word	0x20000058
 8000970:	200001ac 	.word	0x200001ac
 8000974:	200000ac 	.word	0x200000ac

08000978 <APC1_Read_Mea_Data>:
/**
  * @brief  Receives and processes answer for measurement command.
  * @note	This function is to be called when user wishes to get latest measurement from sensor.
  * @retval APC1 status
  */
enum APC1_Status APC1_Read_Mea_Data(void) {
 8000978:	b5b0      	push	{r4, r5, r7, lr}
 800097a:	b082      	sub	sp, #8
 800097c:	af02      	add	r7, sp, #8

	if (APC1_Send_Receive_Command(dev_settings.sensor_uart, command[APC1_CMD_READ_MEA_DATA], GET_RESPONSE) != HAL_OK) {
 800097e:	4b16      	ldr	r3, [pc, #88]	@ (80009d8 <APC1_Read_Mea_Data+0x60>)
 8000980:	6818      	ldr	r0, [r3, #0]
 8000982:	4b16      	ldr	r3, [pc, #88]	@ (80009dc <APC1_Read_Mea_Data+0x64>)
 8000984:	2201      	movs	r2, #1
 8000986:	9200      	str	r2, [sp, #0]
 8000988:	f8d3 200b 	ldr.w	r2, [r3, #11]
 800098c:	4615      	mov	r5, r2
 800098e:	f8d3 200f 	ldr.w	r2, [r3, #15]
 8000992:	4614      	mov	r4, r2
 8000994:	7cda      	ldrb	r2, [r3, #19]
 8000996:	7d19      	ldrb	r1, [r3, #20]
 8000998:	0209      	lsls	r1, r1, #8
 800099a:	430a      	orrs	r2, r1
 800099c:	7d5b      	ldrb	r3, [r3, #21]
 800099e:	041b      	lsls	r3, r3, #16
 80009a0:	431a      	orrs	r2, r3
 80009a2:	2300      	movs	r3, #0
 80009a4:	f362 0317 	bfi	r3, r2, #0, #24
 80009a8:	4629      	mov	r1, r5
 80009aa:	4622      	mov	r2, r4
 80009ac:	f7ff ff6e 	bl	800088c <APC1_Send_Receive_Command>
 80009b0:	4603      	mov	r3, r0
 80009b2:	2b00      	cmp	r3, #0
 80009b4:	d001      	beq.n	80009ba <APC1_Read_Mea_Data+0x42>
		return APC1_ERROR_CMD;
 80009b6:	2381      	movs	r3, #129	@ 0x81
 80009b8:	e00a      	b.n	80009d0 <APC1_Read_Mea_Data+0x58>
	}
	while (dev_settings.received_response == 0);
 80009ba:	bf00      	nop
 80009bc:	4b06      	ldr	r3, [pc, #24]	@ (80009d8 <APC1_Read_Mea_Data+0x60>)
 80009be:	685b      	ldr	r3, [r3, #4]
 80009c0:	2b00      	cmp	r3, #0
 80009c2:	d0fb      	beq.n	80009bc <APC1_Read_Mea_Data+0x44>
	dev_settings.received_response = 0;
 80009c4:	4b04      	ldr	r3, [pc, #16]	@ (80009d8 <APC1_Read_Mea_Data+0x60>)
 80009c6:	2200      	movs	r2, #0
 80009c8:	605a      	str	r2, [r3, #4]

	return APC1_Process_Mea_Data();
 80009ca:	f000 f809 	bl	80009e0 <APC1_Process_Mea_Data>
 80009ce:	4603      	mov	r3, r0

}
 80009d0:	4618      	mov	r0, r3
 80009d2:	46bd      	mov	sp, r7
 80009d4:	bdb0      	pop	{r4, r5, r7, pc}
 80009d6:	bf00      	nop
 80009d8:	200002ac 	.word	0x200002ac
 80009dc:	20000000 	.word	0x20000000

080009e0 <APC1_Process_Mea_Data>:

/**
  * @brief  Processes measurements received from sensor before being sent to user.
  * @retval APC1 status
  */
enum APC1_Status APC1_Process_Mea_Data(void) {
 80009e0:	b580      	push	{r7, lr}
 80009e2:	b084      	sub	sp, #16
 80009e4:	af00      	add	r7, sp, #0

	enum APC1_Status errorStat;

	if ((errorStat = APC1_Check_Checksum(SUM_OF_VALUES_MEA, CHECKSUM_LOW_OUTPUT_REGISTER, CHECKSUM_HIGH_OUTPUT_REGISTER)) != APC1_OK) {
 80009e6:	223f      	movs	r2, #63	@ 0x3f
 80009e8:	213e      	movs	r1, #62	@ 0x3e
 80009ea:	203e      	movs	r0, #62	@ 0x3e
 80009ec:	f000 f856 	bl	8000a9c <APC1_Check_Checksum>
 80009f0:	4603      	mov	r3, r0
 80009f2:	72fb      	strb	r3, [r7, #11]
 80009f4:	7afb      	ldrb	r3, [r7, #11]
 80009f6:	2b00      	cmp	r3, #0
 80009f8:	d007      	beq.n	8000a0a <APC1_Process_Mea_Data+0x2a>
		APC1_Error_Buffer_Append(error_buffer, 8);
 80009fa:	4b23      	ldr	r3, [pc, #140]	@ (8000a88 <APC1_Process_Mea_Data+0xa8>)
 80009fc:	6a1b      	ldr	r3, [r3, #32]
 80009fe:	4619      	mov	r1, r3
 8000a00:	4822      	ldr	r0, [pc, #136]	@ (8000a8c <APC1_Process_Mea_Data+0xac>)
 8000a02:	f002 fe0d 	bl	8003620 <strcat>
		return errorStat;
 8000a06:	7afb      	ldrb	r3, [r7, #11]
 8000a08:	e039      	b.n	8000a7e <APC1_Process_Mea_Data+0x9e>
	}

	if (APC1_Check_For_Error()) {
 8000a0a:	f000 f879 	bl	8000b00 <APC1_Check_For_Error>
 8000a0e:	4603      	mov	r3, r0
 8000a10:	2b00      	cmp	r3, #0
 8000a12:	d001      	beq.n	8000a18 <APC1_Process_Mea_Data+0x38>
		return APC1_ERROR_CMD; // it does not matter which error we return here, as the correct errors are reported in the error buffer
 8000a14:	2381      	movs	r3, #129	@ 0x81
 8000a16:	e032      	b.n	8000a7e <APC1_Process_Mea_Data+0x9e>
	}

	uint16_t index = 4, i = 0;
 8000a18:	2304      	movs	r3, #4
 8000a1a:	81fb      	strh	r3, [r7, #14]
 8000a1c:	2300      	movs	r3, #0
 8000a1e:	81bb      	strh	r3, [r7, #12]
	uint16_t *struct_member = &processed_data.pm1_0;
 8000a20:	4b1b      	ldr	r3, [pc, #108]	@ (8000a90 <APC1_Process_Mea_Data+0xb0>)
 8000a22:	607b      	str	r3, [r7, #4]
	while (index < RS0_OUTPUT_REGISTER) {
 8000a24:	e01c      	b.n	8000a60 <APC1_Process_Mea_Data+0x80>
		if (index == RESERVED_OUTPUT_REGISTER) { // skip reserved two bytes in output data at address 0x20
 8000a26:	89fb      	ldrh	r3, [r7, #14]
 8000a28:	2b20      	cmp	r3, #32
 8000a2a:	d102      	bne.n	8000a32 <APC1_Process_Mea_Data+0x52>
			index += 2;
 8000a2c:	89fb      	ldrh	r3, [r7, #14]
 8000a2e:	3302      	adds	r3, #2
 8000a30:	81fb      	strh	r3, [r7, #14]
		}
		struct_member[i++] = APC1_Convert(buffer[index], buffer[index + 1]);
 8000a32:	89fb      	ldrh	r3, [r7, #14]
 8000a34:	4a17      	ldr	r2, [pc, #92]	@ (8000a94 <APC1_Process_Mea_Data+0xb4>)
 8000a36:	5cd3      	ldrb	r3, [r2, r3]
 8000a38:	021b      	lsls	r3, r3, #8
 8000a3a:	b21a      	sxth	r2, r3
 8000a3c:	89fb      	ldrh	r3, [r7, #14]
 8000a3e:	3301      	adds	r3, #1
 8000a40:	4914      	ldr	r1, [pc, #80]	@ (8000a94 <APC1_Process_Mea_Data+0xb4>)
 8000a42:	5ccb      	ldrb	r3, [r1, r3]
 8000a44:	b21b      	sxth	r3, r3
 8000a46:	4313      	orrs	r3, r2
 8000a48:	b219      	sxth	r1, r3
 8000a4a:	89bb      	ldrh	r3, [r7, #12]
 8000a4c:	1c5a      	adds	r2, r3, #1
 8000a4e:	81ba      	strh	r2, [r7, #12]
 8000a50:	005b      	lsls	r3, r3, #1
 8000a52:	687a      	ldr	r2, [r7, #4]
 8000a54:	4413      	add	r3, r2
 8000a56:	b28a      	uxth	r2, r1
 8000a58:	801a      	strh	r2, [r3, #0]
		index += 2;
 8000a5a:	89fb      	ldrh	r3, [r7, #14]
 8000a5c:	3302      	adds	r3, #2
 8000a5e:	81fb      	strh	r3, [r7, #14]
	while (index < RS0_OUTPUT_REGISTER) {
 8000a60:	89fb      	ldrh	r3, [r7, #14]
 8000a62:	2b29      	cmp	r3, #41	@ 0x29
 8000a64:	d9df      	bls.n	8000a26 <APC1_Process_Mea_Data+0x46>
	}
	processed_data.aqi = buffer[AQI_OUTPUT_REGISTER];
 8000a66:	4b0b      	ldr	r3, [pc, #44]	@ (8000a94 <APC1_Process_Mea_Data+0xb4>)
 8000a68:	f893 203a 	ldrb.w	r2, [r3, #58]	@ 0x3a
 8000a6c:	4b08      	ldr	r3, [pc, #32]	@ (8000a90 <APC1_Process_Mea_Data+0xb0>)
 8000a6e:	f883 2024 	strb.w	r2, [r3, #36]	@ 0x24
	dev_settings.fw_vesion = buffer[VERSION_OUTPUT_REGISTER];
 8000a72:	4b08      	ldr	r3, [pc, #32]	@ (8000a94 <APC1_Process_Mea_Data+0xb4>)
 8000a74:	f893 203c 	ldrb.w	r2, [r3, #60]	@ 0x3c
 8000a78:	4b07      	ldr	r3, [pc, #28]	@ (8000a98 <APC1_Process_Mea_Data+0xb8>)
 8000a7a:	725a      	strb	r2, [r3, #9]

	return APC1_OK;
 8000a7c:	2300      	movs	r3, #0

}
 8000a7e:	4618      	mov	r0, r3
 8000a80:	3710      	adds	r7, #16
 8000a82:	46bd      	mov	sp, r7
 8000a84:	bd80      	pop	{r7, pc}
 8000a86:	bf00      	nop
 8000a88:	20000058 	.word	0x20000058
 8000a8c:	200001ac 	.word	0x200001ac
 8000a90:	200002b8 	.word	0x200002b8
 8000a94:	200000ac 	.word	0x200000ac
 8000a98:	200002ac 	.word	0x200002ac

08000a9c <APC1_Check_Checksum>:
  * @param	limit	Index of the last element + 1 which is to be used from the buffer.
  * @param	low		Lower index of the byte representing checksum in the buffer.
  * @param	high	Higher index of the byte representing checksum in the buffer.
  * @retval APC1 status
  */
enum APC1_Status APC1_Check_Checksum(int limit, int low, int high) {
 8000a9c:	b480      	push	{r7}
 8000a9e:	b087      	sub	sp, #28
 8000aa0:	af00      	add	r7, sp, #0
 8000aa2:	60f8      	str	r0, [r7, #12]
 8000aa4:	60b9      	str	r1, [r7, #8]
 8000aa6:	607a      	str	r2, [r7, #4]

	int sum = 0;
 8000aa8:	2300      	movs	r3, #0
 8000aaa:	617b      	str	r3, [r7, #20]
	for (int i = 0; i<limit; i++) {
 8000aac:	2300      	movs	r3, #0
 8000aae:	613b      	str	r3, [r7, #16]
 8000ab0:	e00a      	b.n	8000ac8 <APC1_Check_Checksum+0x2c>
		sum += buffer[i];
 8000ab2:	4a12      	ldr	r2, [pc, #72]	@ (8000afc <APC1_Check_Checksum+0x60>)
 8000ab4:	693b      	ldr	r3, [r7, #16]
 8000ab6:	4413      	add	r3, r2
 8000ab8:	781b      	ldrb	r3, [r3, #0]
 8000aba:	461a      	mov	r2, r3
 8000abc:	697b      	ldr	r3, [r7, #20]
 8000abe:	4413      	add	r3, r2
 8000ac0:	617b      	str	r3, [r7, #20]
	for (int i = 0; i<limit; i++) {
 8000ac2:	693b      	ldr	r3, [r7, #16]
 8000ac4:	3301      	adds	r3, #1
 8000ac6:	613b      	str	r3, [r7, #16]
 8000ac8:	693a      	ldr	r2, [r7, #16]
 8000aca:	68fb      	ldr	r3, [r7, #12]
 8000acc:	429a      	cmp	r2, r3
 8000ace:	dbf0      	blt.n	8000ab2 <APC1_Check_Checksum+0x16>
	}

	return (APC1_Convert(buffer[low], buffer[high])) == sum ? APC1_OK : APC1_ERROR_CRC;
 8000ad0:	4a0a      	ldr	r2, [pc, #40]	@ (8000afc <APC1_Check_Checksum+0x60>)
 8000ad2:	68bb      	ldr	r3, [r7, #8]
 8000ad4:	4413      	add	r3, r2
 8000ad6:	781b      	ldrb	r3, [r3, #0]
 8000ad8:	021b      	lsls	r3, r3, #8
 8000ada:	4908      	ldr	r1, [pc, #32]	@ (8000afc <APC1_Check_Checksum+0x60>)
 8000adc:	687a      	ldr	r2, [r7, #4]
 8000ade:	440a      	add	r2, r1
 8000ae0:	7812      	ldrb	r2, [r2, #0]
 8000ae2:	4313      	orrs	r3, r2
 8000ae4:	697a      	ldr	r2, [r7, #20]
 8000ae6:	429a      	cmp	r2, r3
 8000ae8:	d101      	bne.n	8000aee <APC1_Check_Checksum+0x52>
 8000aea:	2300      	movs	r3, #0
 8000aec:	e000      	b.n	8000af0 <APC1_Check_Checksum+0x54>
 8000aee:	2380      	movs	r3, #128	@ 0x80

}
 8000af0:	4618      	mov	r0, r3
 8000af2:	371c      	adds	r7, #28
 8000af4:	46bd      	mov	sp, r7
 8000af6:	f85d 7b04 	ldr.w	r7, [sp], #4
 8000afa:	4770      	bx	lr
 8000afc:	200000ac 	.word	0x200000ac

08000b00 <APC1_Check_For_Error>:
  * @note	Returns an integer where 0 indicated no error, 1 indicating one or more errors.
  * 		Registered errors and their descriptions are found in the error buffer. The end
  * 		of the error buffer is always terminated by a '\0' null terminator.
  * @retval int
  */
int APC1_Check_For_Error(void) {
 8000b00:	b580      	push	{r7, lr}
 8000b02:	b082      	sub	sp, #8
 8000b04:	af00      	add	r7, sp, #0

	error_buffer[0] = '\0';
 8000b06:	4b26      	ldr	r3, [pc, #152]	@ (8000ba0 <APC1_Check_For_Error+0xa0>)
 8000b08:	2200      	movs	r2, #0
 8000b0a:	701a      	strb	r2, [r3, #0]
	uint8_t status = buffer[ERROR_OUTPUT_REGISTER];
 8000b0c:	4b25      	ldr	r3, [pc, #148]	@ (8000ba4 <APC1_Check_For_Error+0xa4>)
 8000b0e:	f893 303d 	ldrb.w	r3, [r3, #61]	@ 0x3d
 8000b12:	70fb      	strb	r3, [r7, #3]

	if (status == APC1_OK) {
 8000b14:	78fb      	ldrb	r3, [r7, #3]
 8000b16:	2b00      	cmp	r3, #0
 8000b18:	d10f      	bne.n	8000b3a <APC1_Check_For_Error+0x3a>
		strcat(error_buffer, APC1_Status_Strings[0]);
 8000b1a:	4b23      	ldr	r3, [pc, #140]	@ (8000ba8 <APC1_Check_For_Error+0xa8>)
 8000b1c:	681b      	ldr	r3, [r3, #0]
 8000b1e:	4619      	mov	r1, r3
 8000b20:	481f      	ldr	r0, [pc, #124]	@ (8000ba0 <APC1_Check_For_Error+0xa0>)
 8000b22:	f002 fd7d 	bl	8003620 <strcat>
		error_buffer[strlen(error_buffer) - 1] = '\0';
 8000b26:	481e      	ldr	r0, [pc, #120]	@ (8000ba0 <APC1_Check_For_Error+0xa0>)
 8000b28:	f7ff fb56 	bl	80001d8 <strlen>
 8000b2c:	4603      	mov	r3, r0
 8000b2e:	3b01      	subs	r3, #1
 8000b30:	4a1b      	ldr	r2, [pc, #108]	@ (8000ba0 <APC1_Check_For_Error+0xa0>)
 8000b32:	2100      	movs	r1, #0
 8000b34:	54d1      	strb	r1, [r2, r3]
		error_buffer[strlen(error_buffer) - 1] = '\0';

		return 1;
	}

	return 0;
 8000b36:	2300      	movs	r3, #0
 8000b38:	e02e      	b.n	8000b98 <APC1_Check_For_Error+0x98>
		for (int i = 0; i<NUM_OF_ERRORS; i++) {
 8000b3a:	2300      	movs	r3, #0
 8000b3c:	607b      	str	r3, [r7, #4]
 8000b3e:	e01f      	b.n	8000b80 <APC1_Check_For_Error+0x80>
			if (status & APC1_Error_Masks[i]) {
 8000b40:	4a1a      	ldr	r2, [pc, #104]	@ (8000bac <APC1_Check_For_Error+0xac>)
 8000b42:	687b      	ldr	r3, [r7, #4]
 8000b44:	4413      	add	r3, r2
 8000b46:	781a      	ldrb	r2, [r3, #0]
 8000b48:	78fb      	ldrb	r3, [r7, #3]
 8000b4a:	4013      	ands	r3, r2
 8000b4c:	b2db      	uxtb	r3, r3
 8000b4e:	2b00      	cmp	r3, #0
 8000b50:	d013      	beq.n	8000b7a <APC1_Check_For_Error+0x7a>
				APC1_Error_Buffer_Append(error_buffer, i);
 8000b52:	4a15      	ldr	r2, [pc, #84]	@ (8000ba8 <APC1_Check_For_Error+0xa8>)
 8000b54:	687b      	ldr	r3, [r7, #4]
 8000b56:	f852 3023 	ldr.w	r3, [r2, r3, lsl #2]
 8000b5a:	4619      	mov	r1, r3
 8000b5c:	4810      	ldr	r0, [pc, #64]	@ (8000ba0 <APC1_Check_For_Error+0xa0>)
 8000b5e:	f002 fd5f 	bl	8003620 <strcat>
				strcat(error_buffer, ";");
 8000b62:	480f      	ldr	r0, [pc, #60]	@ (8000ba0 <APC1_Check_For_Error+0xa0>)
 8000b64:	f7ff fb38 	bl	80001d8 <strlen>
 8000b68:	4603      	mov	r3, r0
 8000b6a:	461a      	mov	r2, r3
 8000b6c:	4b0c      	ldr	r3, [pc, #48]	@ (8000ba0 <APC1_Check_For_Error+0xa0>)
 8000b6e:	4413      	add	r3, r2
 8000b70:	490f      	ldr	r1, [pc, #60]	@ (8000bb0 <APC1_Check_For_Error+0xb0>)
 8000b72:	461a      	mov	r2, r3
 8000b74:	460b      	mov	r3, r1
 8000b76:	881b      	ldrh	r3, [r3, #0]
 8000b78:	8013      	strh	r3, [r2, #0]
		for (int i = 0; i<NUM_OF_ERRORS; i++) {
 8000b7a:	687b      	ldr	r3, [r7, #4]
 8000b7c:	3301      	adds	r3, #1
 8000b7e:	607b      	str	r3, [r7, #4]
 8000b80:	687b      	ldr	r3, [r7, #4]
 8000b82:	2b08      	cmp	r3, #8
 8000b84:	dddc      	ble.n	8000b40 <APC1_Check_For_Error+0x40>
		error_buffer[strlen(error_buffer) - 1] = '\0';
 8000b86:	4806      	ldr	r0, [pc, #24]	@ (8000ba0 <APC1_Check_For_Error+0xa0>)
 8000b88:	f7ff fb26 	bl	80001d8 <strlen>
 8000b8c:	4603      	mov	r3, r0
 8000b8e:	3b01      	subs	r3, #1
 8000b90:	4a03      	ldr	r2, [pc, #12]	@ (8000ba0 <APC1_Check_For_Error+0xa0>)
 8000b92:	2100      	movs	r1, #0
 8000b94:	54d1      	strb	r1, [r2, r3]
		return 1;
 8000b96:	2301      	movs	r3, #1

}
 8000b98:	4618      	mov	r0, r3
 8000b9a:	3708      	adds	r7, #8
 8000b9c:	46bd      	mov	sp, r7
 8000b9e:	bd80      	pop	{r7, pc}
 8000ba0:	200001ac 	.word	0x200001ac
 8000ba4:	200000ac 	.word	0x200000ac
 8000ba8:	20000058 	.word	0x20000058
 8000bac:	080037bc 	.word	0x080037bc
 8000bb0:	080037a0 	.word	0x080037a0

08000bb4 <APC1_Get_PM1_0>:

/**
  * @brief  Get PM1.0 mass concentration.
  * @retval unsigned 16 bit value
  */
uint16_t APC1_Get_PM1_0(void) {
 8000bb4:	b480      	push	{r7}
 8000bb6:	af00      	add	r7, sp, #0

	return processed_data.pm1_0;
 8000bb8:	4b03      	ldr	r3, [pc, #12]	@ (8000bc8 <APC1_Get_PM1_0+0x14>)
 8000bba:	881b      	ldrh	r3, [r3, #0]

}
 8000bbc:	4618      	mov	r0, r3
 8000bbe:	46bd      	mov	sp, r7
 8000bc0:	f85d 7b04 	ldr.w	r7, [sp], #4
 8000bc4:	4770      	bx	lr
 8000bc6:	bf00      	nop
 8000bc8:	200002b8 	.word	0x200002b8

08000bcc <APC1_Get_PM2_5>:

/**
  * @brief  Get PM2.5 mass concentration.
  * @retval unsigned 16 bit value
  */
uint16_t APC1_Get_PM2_5(void) {
 8000bcc:	b480      	push	{r7}
 8000bce:	af00      	add	r7, sp, #0

	return processed_data.pm2_5;
 8000bd0:	4b03      	ldr	r3, [pc, #12]	@ (8000be0 <APC1_Get_PM2_5+0x14>)
 8000bd2:	885b      	ldrh	r3, [r3, #2]

}
 8000bd4:	4618      	mov	r0, r3
 8000bd6:	46bd      	mov	sp, r7
 8000bd8:	f85d 7b04 	ldr.w	r7, [sp], #4
 8000bdc:	4770      	bx	lr
 8000bde:	bf00      	nop
 8000be0:	200002b8 	.word	0x200002b8

08000be4 <APC1_Get_PM10>:

/**
  * @brief  Get PM10 mass concentration.
  * @retval unsigned 16 bit value
  */
uint16_t APC1_Get_PM10(void) {
 8000be4:	b480      	push	{r7}
 8000be6:	af00      	add	r7, sp, #0

	return processed_data.pm10;
 8000be8:	4b03      	ldr	r3, [pc, #12]	@ (8000bf8 <APC1_Get_PM10+0x14>)
 8000bea:	889b      	ldrh	r3, [r3, #4]

}
 8000bec:	4618      	mov	r0, r3
 8000bee:	46bd      	mov	sp, r7
 8000bf0:	f85d 7b04 	ldr.w	r7, [sp], #4
 8000bf4:	4770      	bx	lr
 8000bf6:	bf00      	nop
 8000bf8:	200002b8 	.word	0x200002b8

08000bfc <APC1_Get_PM1_0_air>:

/**
  * @brief  Get PM1.0 mass concentration in atmospheric environment.
  * @retval unsigned 16 bit value
  */
uint16_t APC1_Get_PM1_0_air(void) {
 8000bfc:	b480      	push	{r7}
 8000bfe:	af00      	add	r7, sp, #0

	return processed_data.pm1_0_air;
 8000c00:	4b03      	ldr	r3, [pc, #12]	@ (8000c10 <APC1_Get_PM1_0_air+0x14>)
 8000c02:	88db      	ldrh	r3, [r3, #6]

}
 8000c04:	4618      	mov	r0, r3
 8000c06:	46bd      	mov	sp, r7
 8000c08:	f85d 7b04 	ldr.w	r7, [sp], #4
 8000c0c:	4770      	bx	lr
 8000c0e:	bf00      	nop
 8000c10:	200002b8 	.word	0x200002b8

08000c14 <APC1_Get_PM2_5_air>:

/**
  * @brief  Get PM2.5 mass concentration in atmospheric environment.
  * @retval unsigned 16 bit value
  */
uint16_t APC1_Get_PM2_5_air(void) {
 8000c14:	b480      	push	{r7}
 8000c16:	af00      	add	r7, sp, #0

	return processed_data.pm2_5_air;
 8000c18:	4b03      	ldr	r3, [pc, #12]	@ (8000c28 <APC1_Get_PM2_5_air+0x14>)
 8000c1a:	891b      	ldrh	r3, [r3, #8]

}
 8000c1c:	4618      	mov	r0, r3
 8000c1e:	46bd      	mov	sp, r7
 8000c20:	f85d 7b04 	ldr.w	r7, [sp], #4
 8000c24:	4770      	bx	lr
 8000c26:	bf00      	nop
 8000c28:	200002b8 	.word	0x200002b8

08000c2c <APC1_Get_PM10_air>:

/**
  * @brief  Get PM10 mass concentration in atmospheric environment.
  * @retval unsigned 16 bit value
  */
uint16_t APC1_Get_PM10_air(void) {
 8000c2c:	b480      	push	{r7}
 8000c2e:	af00      	add	r7, sp, #0

	return processed_data.pm10_air;
 8000c30:	4b03      	ldr	r3, [pc, #12]	@ (8000c40 <APC1_Get_PM10_air+0x14>)
 8000c32:	895b      	ldrh	r3, [r3, #10]

}
 8000c34:	4618      	mov	r0, r3
 8000c36:	46bd      	mov	sp, r7
 8000c38:	f85d 7b04 	ldr.w	r7, [sp], #4
 8000c3c:	4770      	bx	lr
 8000c3e:	bf00      	nop
 8000c40:	200002b8 	.word	0x200002b8

08000c44 <APC1_Get_Particles_GT_0_3>:

/**
  * @brief  Get number of particles with diameter > 0.3m in 0.1L of air.
  * @retval unsigned 16 bit value
  */
uint16_t APC1_Get_Particles_GT_0_3(void) {
 8000c44:	b480      	push	{r7}
 8000c46:	af00      	add	r7, sp, #0

	return processed_data.particles_0_3;
 8000c48:	4b03      	ldr	r3, [pc, #12]	@ (8000c58 <APC1_Get_Particles_GT_0_3+0x14>)
 8000c4a:	899b      	ldrh	r3, [r3, #12]

}
 8000c4c:	4618      	mov	r0, r3
 8000c4e:	46bd      	mov	sp, r7
 8000c50:	f85d 7b04 	ldr.w	r7, [sp], #4
 8000c54:	4770      	bx	lr
 8000c56:	bf00      	nop
 8000c58:	200002b8 	.word	0x200002b8

08000c5c <APC1_Get_Particles_GT_0_5>:

/**
  * @brief  Get number of particles with diameter > 0.5m in 0.1L of air.
  * @retval unsigned 16 bit value
  */
uint16_t APC1_Get_Particles_GT_0_5(void) {
 8000c5c:	b480      	push	{r7}
 8000c5e:	af00      	add	r7, sp, #0

	return processed_data.particles_0_5 - processed_data.particles_0_3;
 8000c60:	4b05      	ldr	r3, [pc, #20]	@ (8000c78 <APC1_Get_Particles_GT_0_5+0x1c>)
 8000c62:	89da      	ldrh	r2, [r3, #14]
 8000c64:	4b04      	ldr	r3, [pc, #16]	@ (8000c78 <APC1_Get_Particles_GT_0_5+0x1c>)
 8000c66:	899b      	ldrh	r3, [r3, #12]
 8000c68:	1ad3      	subs	r3, r2, r3
 8000c6a:	b29b      	uxth	r3, r3

}
 8000c6c:	4618      	mov	r0, r3
 8000c6e:	46bd      	mov	sp, r7
 8000c70:	f85d 7b04 	ldr.w	r7, [sp], #4
 8000c74:	4770      	bx	lr
 8000c76:	bf00      	nop
 8000c78:	200002b8 	.word	0x200002b8

08000c7c <APC1_Get_Particles_GT_1_0>:

/**
  * @brief  Get number of particles with diameter > 1.0m in 0.1L of air.
  * @retval unsigned 16 bit value
  */
uint16_t APC1_Get_Particles_GT_1_0(void) {
 8000c7c:	b480      	push	{r7}
 8000c7e:	af00      	add	r7, sp, #0

	return processed_data.particles_1_0 - processed_data.particles_0_3;
 8000c80:	4b05      	ldr	r3, [pc, #20]	@ (8000c98 <APC1_Get_Particles_GT_1_0+0x1c>)
 8000c82:	8a1a      	ldrh	r2, [r3, #16]
 8000c84:	4b04      	ldr	r3, [pc, #16]	@ (8000c98 <APC1_Get_Particles_GT_1_0+0x1c>)
 8000c86:	899b      	ldrh	r3, [r3, #12]
 8000c88:	1ad3      	subs	r3, r2, r3
 8000c8a:	b29b      	uxth	r3, r3

}
 8000c8c:	4618      	mov	r0, r3
 8000c8e:	46bd      	mov	sp, r7
 8000c90:	f85d 7b04 	ldr.w	r7, [sp], #4
 8000c94:	4770      	bx	lr
 8000c96:	bf00      	nop
 8000c98:	200002b8 	.word	0x200002b8

08000c9c <APC1_Get_Particles_GT_2_5>:

/**
  * @brief  Get number of particles with diameter > 2.5m in 0.1L of air.
  * @retval unsigned 16 bit value
  */
uint16_t APC1_Get_Particles_GT_2_5(void) {
 8000c9c:	b480      	push	{r7}
 8000c9e:	af00      	add	r7, sp, #0

	return processed_data.particles_2_5 - processed_data.particles_0_3;
 8000ca0:	4b05      	ldr	r3, [pc, #20]	@ (8000cb8 <APC1_Get_Particles_GT_2_5+0x1c>)
 8000ca2:	8a5a      	ldrh	r2, [r3, #18]
 8000ca4:	4b04      	ldr	r3, [pc, #16]	@ (8000cb8 <APC1_Get_Particles_GT_2_5+0x1c>)
 8000ca6:	899b      	ldrh	r3, [r3, #12]
 8000ca8:	1ad3      	subs	r3, r2, r3
 8000caa:	b29b      	uxth	r3, r3

}
 8000cac:	4618      	mov	r0, r3
 8000cae:	46bd      	mov	sp, r7
 8000cb0:	f85d 7b04 	ldr.w	r7, [sp], #4
 8000cb4:	4770      	bx	lr
 8000cb6:	bf00      	nop
 8000cb8:	200002b8 	.word	0x200002b8

08000cbc <APC1_Get_Particles_GT_5_0>:

/**
  * @brief  Get number of particles with diameter > 5.0m in 0.1L of air.
  * @retval unsigned 16 bit value
  */
uint16_t APC1_Get_Particles_GT_5_0(void) {
 8000cbc:	b480      	push	{r7}
 8000cbe:	af00      	add	r7, sp, #0

	return processed_data.particles_5_0 - processed_data.particles_0_3;
 8000cc0:	4b05      	ldr	r3, [pc, #20]	@ (8000cd8 <APC1_Get_Particles_GT_5_0+0x1c>)
 8000cc2:	8a9a      	ldrh	r2, [r3, #20]
 8000cc4:	4b04      	ldr	r3, [pc, #16]	@ (8000cd8 <APC1_Get_Particles_GT_5_0+0x1c>)
 8000cc6:	899b      	ldrh	r3, [r3, #12]
 8000cc8:	1ad3      	subs	r3, r2, r3
 8000cca:	b29b      	uxth	r3, r3

}
 8000ccc:	4618      	mov	r0, r3
 8000cce:	46bd      	mov	sp, r7
 8000cd0:	f85d 7b04 	ldr.w	r7, [sp], #4
 8000cd4:	4770      	bx	lr
 8000cd6:	bf00      	nop
 8000cd8:	200002b8 	.word	0x200002b8

08000cdc <APC1_Get_Particles_GT_10>:

/**
  * @brief  Get number of particles with diameter > 10m in 0.1L of air.
  * @retval unsigned 16 bit value
  */
uint16_t APC1_Get_Particles_GT_10(void) {
 8000cdc:	b480      	push	{r7}
 8000cde:	af00      	add	r7, sp, #0

	return processed_data.particles_10 - processed_data.particles_0_3;
 8000ce0:	4b05      	ldr	r3, [pc, #20]	@ (8000cf8 <APC1_Get_Particles_GT_10+0x1c>)
 8000ce2:	8ada      	ldrh	r2, [r3, #22]
 8000ce4:	4b04      	ldr	r3, [pc, #16]	@ (8000cf8 <APC1_Get_Particles_GT_10+0x1c>)
 8000ce6:	899b      	ldrh	r3, [r3, #12]
 8000ce8:	1ad3      	subs	r3, r2, r3
 8000cea:	b29b      	uxth	r3, r3

}
 8000cec:	4618      	mov	r0, r3
 8000cee:	46bd      	mov	sp, r7
 8000cf0:	f85d 7b04 	ldr.w	r7, [sp], #4
 8000cf4:	4770      	bx	lr
 8000cf6:	bf00      	nop
 8000cf8:	200002b8 	.word	0x200002b8

08000cfc <APC1_Get_TVOC>:

/**
  * @brief  Get TVOC output.
  * @retval unsigned 16 bit value
  */
uint16_t APC1_Get_TVOC(void) {
 8000cfc:	b480      	push	{r7}
 8000cfe:	af00      	add	r7, sp, #0

	return processed_data.TVOC;
 8000d00:	4b03      	ldr	r3, [pc, #12]	@ (8000d10 <APC1_Get_TVOC+0x14>)
 8000d02:	8b1b      	ldrh	r3, [r3, #24]

}
 8000d04:	4618      	mov	r0, r3
 8000d06:	46bd      	mov	sp, r7
 8000d08:	f85d 7b04 	ldr.w	r7, [sp], #4
 8000d0c:	4770      	bx	lr
 8000d0e:	bf00      	nop
 8000d10:	200002b8 	.word	0x200002b8

08000d14 <APC1_Get_eCO2>:

/**
  * @brief  Get output in ppm CO2 equivalents.
  * @retval unsigned 16 bit value
  */
uint16_t APC1_Get_eCO2(void) {
 8000d14:	b480      	push	{r7}
 8000d16:	af00      	add	r7, sp, #0

	return processed_data.eCO2;
 8000d18:	4b03      	ldr	r3, [pc, #12]	@ (8000d28 <APC1_Get_eCO2+0x14>)
 8000d1a:	8b5b      	ldrh	r3, [r3, #26]

}
 8000d1c:	4618      	mov	r0, r3
 8000d1e:	46bd      	mov	sp, r7
 8000d20:	f85d 7b04 	ldr.w	r7, [sp], #4
 8000d24:	4770      	bx	lr
 8000d26:	bf00      	nop
 8000d28:	200002b8 	.word	0x200002b8

08000d2c <APC1_Get_T_Comp>:

/**
  * @brief  Get compensated temperature in C.
  * @retval double
  */
double APC1_Get_T_Comp(void) {
 8000d2c:	b580      	push	{r7, lr}
 8000d2e:	af00      	add	r7, sp, #0

	return processed_data.t_comp * 0.1f;
 8000d30:	4b0b      	ldr	r3, [pc, #44]	@ (8000d60 <APC1_Get_T_Comp+0x34>)
 8000d32:	8b9b      	ldrh	r3, [r3, #28]
 8000d34:	ee07 3a90 	vmov	s15, r3
 8000d38:	eef8 7ae7 	vcvt.f32.s32	s15, s15
 8000d3c:	ed9f 7a09 	vldr	s14, [pc, #36]	@ 8000d64 <APC1_Get_T_Comp+0x38>
 8000d40:	ee67 7a87 	vmul.f32	s15, s15, s14
 8000d44:	ee17 0a90 	vmov	r0, s15
 8000d48:	f7ff fbb2 	bl	80004b0 <__aeabi_f2d>
 8000d4c:	4602      	mov	r2, r0
 8000d4e:	460b      	mov	r3, r1
 8000d50:	ec43 2b17 	vmov	d7, r2, r3

}
 8000d54:	eeb0 0a47 	vmov.f32	s0, s14
 8000d58:	eef0 0a67 	vmov.f32	s1, s15
 8000d5c:	bd80      	pop	{r7, pc}
 8000d5e:	bf00      	nop
 8000d60:	200002b8 	.word	0x200002b8
 8000d64:	3dcccccd 	.word	0x3dcccccd

08000d68 <APC1_Get_RH_Comp>:

/**
  * @brief  Get compensated RH in %.
  * @retval double
  */
double APC1_Get_RH_Comp(void) {
 8000d68:	b580      	push	{r7, lr}
 8000d6a:	af00      	add	r7, sp, #0

	return processed_data.rh_comp * 0.1f;
 8000d6c:	4b0b      	ldr	r3, [pc, #44]	@ (8000d9c <APC1_Get_RH_Comp+0x34>)
 8000d6e:	8bdb      	ldrh	r3, [r3, #30]
 8000d70:	ee07 3a90 	vmov	s15, r3
 8000d74:	eef8 7ae7 	vcvt.f32.s32	s15, s15
 8000d78:	ed9f 7a09 	vldr	s14, [pc, #36]	@ 8000da0 <APC1_Get_RH_Comp+0x38>
 8000d7c:	ee67 7a87 	vmul.f32	s15, s15, s14
 8000d80:	ee17 0a90 	vmov	r0, s15
 8000d84:	f7ff fb94 	bl	80004b0 <__aeabi_f2d>
 8000d88:	4602      	mov	r2, r0
 8000d8a:	460b      	mov	r3, r1
 8000d8c:	ec43 2b17 	vmov	d7, r2, r3

}
 8000d90:	eeb0 0a47 	vmov.f32	s0, s14
 8000d94:	eef0 0a67 	vmov.f32	s1, s15
 8000d98:	bd80      	pop	{r7, pc}
 8000d9a:	bf00      	nop
 8000d9c:	200002b8 	.word	0x200002b8
 8000da0:	3dcccccd 	.word	0x3dcccccd

08000da4 <APC1_Get_T_Raw>:

/**
  * @brief  Get uncompensated temperature in C.
  * @retval double
  */
double APC1_Get_T_Raw(void) {
 8000da4:	b580      	push	{r7, lr}
 8000da6:	af00      	add	r7, sp, #0

	return processed_data.t_raw * 0.1f;
 8000da8:	4b0b      	ldr	r3, [pc, #44]	@ (8000dd8 <APC1_Get_T_Raw+0x34>)
 8000daa:	8c1b      	ldrh	r3, [r3, #32]
 8000dac:	ee07 3a90 	vmov	s15, r3
 8000db0:	eef8 7ae7 	vcvt.f32.s32	s15, s15
 8000db4:	ed9f 7a09 	vldr	s14, [pc, #36]	@ 8000ddc <APC1_Get_T_Raw+0x38>
 8000db8:	ee67 7a87 	vmul.f32	s15, s15, s14
 8000dbc:	ee17 0a90 	vmov	r0, s15
 8000dc0:	f7ff fb76 	bl	80004b0 <__aeabi_f2d>
 8000dc4:	4602      	mov	r2, r0
 8000dc6:	460b      	mov	r3, r1
 8000dc8:	ec43 2b17 	vmov	d7, r2, r3

}
 8000dcc:	eeb0 0a47 	vmov.f32	s0, s14
 8000dd0:	eef0 0a67 	vmov.f32	s1, s15
 8000dd4:	bd80      	pop	{r7, pc}
 8000dd6:	bf00      	nop
 8000dd8:	200002b8 	.word	0x200002b8
 8000ddc:	3dcccccd 	.word	0x3dcccccd

08000de0 <APC1_Get_RH_Raw>:

/**
  * @brief  Get uncompensated RH in %.
  * @retval double
  */
double APC1_Get_RH_Raw(void) {
 8000de0:	b580      	push	{r7, lr}
 8000de2:	af00      	add	r7, sp, #0

	return processed_data.rh_raw * 0.1f;
 8000de4:	4b0b      	ldr	r3, [pc, #44]	@ (8000e14 <APC1_Get_RH_Raw+0x34>)
 8000de6:	8c5b      	ldrh	r3, [r3, #34]	@ 0x22
 8000de8:	ee07 3a90 	vmov	s15, r3
 8000dec:	eef8 7ae7 	vcvt.f32.s32	s15, s15
 8000df0:	ed9f 7a09 	vldr	s14, [pc, #36]	@ 8000e18 <APC1_Get_RH_Raw+0x38>
 8000df4:	ee67 7a87 	vmul.f32	s15, s15, s14
 8000df8:	ee17 0a90 	vmov	r0, s15
 8000dfc:	f7ff fb58 	bl	80004b0 <__aeabi_f2d>
 8000e00:	4602      	mov	r2, r0
 8000e02:	460b      	mov	r3, r1
 8000e04:	ec43 2b17 	vmov	d7, r2, r3

}
 8000e08:	eeb0 0a47 	vmov.f32	s0, s14
 8000e0c:	eef0 0a67 	vmov.f32	s1, s15
 8000e10:	bd80      	pop	{r7, pc}
 8000e12:	bf00      	nop
 8000e14:	200002b8 	.word	0x200002b8
 8000e18:	3dcccccd 	.word	0x3dcccccd

08000e1c <APC1_Get_AQI>:

/**
  * @brief  Get Air Quality Index according to UBA Classification of TVOC value.
  * @retval unsigned 8 bit value
  */
uint8_t	APC1_Get_AQI(void) {
 8000e1c:	b480      	push	{r7}
 8000e1e:	af00      	add	r7, sp, #0

	return processed_data.aqi;
 8000e20:	4b03      	ldr	r3, [pc, #12]	@ (8000e30 <APC1_Get_AQI+0x14>)
 8000e22:	f893 3024 	ldrb.w	r3, [r3, #36]	@ 0x24

}
 8000e26:	4618      	mov	r0, r3
 8000e28:	46bd      	mov	sp, r7
 8000e2a:	f85d 7b04 	ldr.w	r7, [sp], #4
 8000e2e:	4770      	bx	lr
 8000e30:	200002b8 	.word	0x200002b8

08000e34 <APC1_Get_AQI_String>:

/**
  * @brief  Get Air Quality Index according to UBA Classification of TVOC value as describing string.
  * @retval char*
  */
const char *APC1_Get_AQI_String(void) {
 8000e34:	b580      	push	{r7, lr}
 8000e36:	b082      	sub	sp, #8
 8000e38:	af00      	add	r7, sp, #0

	// if somehow we get a wrong index
	uint8_t index = APC1_Get_AQI();
 8000e3a:	f7ff ffef 	bl	8000e1c <APC1_Get_AQI>
 8000e3e:	4603      	mov	r3, r0
 8000e40:	71fb      	strb	r3, [r7, #7]
	return (index <= 5 && index >= 1) ? APC1_AQI_Strings[index - 1] : "Index out of bounds\0";
 8000e42:	79fb      	ldrb	r3, [r7, #7]
 8000e44:	2b05      	cmp	r3, #5
 8000e46:	d808      	bhi.n	8000e5a <APC1_Get_AQI_String+0x26>
 8000e48:	79fb      	ldrb	r3, [r7, #7]
 8000e4a:	2b00      	cmp	r3, #0
 8000e4c:	d005      	beq.n	8000e5a <APC1_Get_AQI_String+0x26>
 8000e4e:	79fb      	ldrb	r3, [r7, #7]
 8000e50:	3b01      	subs	r3, #1
 8000e52:	4a04      	ldr	r2, [pc, #16]	@ (8000e64 <APC1_Get_AQI_String+0x30>)
 8000e54:	f852 3023 	ldr.w	r3, [r2, r3, lsl #2]
 8000e58:	e000      	b.n	8000e5c <APC1_Get_AQI_String+0x28>
 8000e5a:	4b03      	ldr	r3, [pc, #12]	@ (8000e68 <APC1_Get_AQI_String+0x34>)

}
 8000e5c:	4618      	mov	r0, r3
 8000e5e:	3708      	adds	r7, #8
 8000e60:	46bd      	mov	sp, r7
 8000e62:	bd80      	pop	{r7, pc}
 8000e64:	20000044 	.word	0x20000044
 8000e68:	080037a4 	.word	0x080037a4

08000e6c <APC1_Get_Error_String>:

/**
  * @brief  Get error value as describing string.
  * @retval char*
  */
char *APC1_Get_Error_String(void) {
 8000e6c:	b480      	push	{r7}
 8000e6e:	af00      	add	r7, sp, #0

	return error_buffer;
 8000e70:	4b02      	ldr	r3, [pc, #8]	@ (8000e7c <APC1_Get_Error_String+0x10>)

}
 8000e72:	4618      	mov	r0, r3
 8000e74:	46bd      	mov	sp, r7
 8000e76:	f85d 7b04 	ldr.w	r7, [sp], #4
 8000e7a:	4770      	bx	lr
 8000e7c:	200001ac 	.word	0x200001ac

08000e80 <HAL_UART_RxCpltCallback>:

/**
  * @brief  Full callback for USART receive by interrupt.
  * @note	Sets flag indicating a full reception of values from sensor.
  */
void HAL_UART_RxCpltCallback(UART_HandleTypeDef *huart) {
 8000e80:	b480      	push	{r7}
 8000e82:	b083      	sub	sp, #12
 8000e84:	af00      	add	r7, sp, #0
 8000e86:	6078      	str	r0, [r7, #4]

	if (huart == dev_settings.sensor_uart) {
 8000e88:	4b06      	ldr	r3, [pc, #24]	@ (8000ea4 <HAL_UART_RxCpltCallback+0x24>)
 8000e8a:	681b      	ldr	r3, [r3, #0]
 8000e8c:	687a      	ldr	r2, [r7, #4]
 8000e8e:	429a      	cmp	r2, r3
 8000e90:	d102      	bne.n	8000e98 <HAL_UART_RxCpltCallback+0x18>
		dev_settings.received_response = 1;
 8000e92:	4b04      	ldr	r3, [pc, #16]	@ (8000ea4 <HAL_UART_RxCpltCallback+0x24>)
 8000e94:	2201      	movs	r2, #1
 8000e96:	605a      	str	r2, [r3, #4]
	}

}
 8000e98:	bf00      	nop
 8000e9a:	370c      	adds	r7, #12
 8000e9c:	46bd      	mov	sp, r7
 8000e9e:	f85d 7b04 	ldr.w	r7, [sp], #4
 8000ea2:	4770      	bx	lr
 8000ea4:	200002ac 	.word	0x200002ac

08000ea8 <main>:
/**
  * @brief  The application entry point.
  * @retval int
  */
int main(void)
{
 8000ea8:	b580      	push	{r7, lr}
 8000eaa:	af00      	add	r7, sp, #0
  /* USER CODE END 1 */

  /* MCU Configuration--------------------------------------------------------*/

  /* Reset of all peripherals, Initializes the Flash interface and the Systick. */
  HAL_Init();
 8000eac:	f000 fac8 	bl	8001440 <HAL_Init>
  /* USER CODE BEGIN Init */

  /* USER CODE END Init */

  /* Configure the system clock */
  SystemClock_Config();
 8000eb0:	f000 f8ca 	bl	8001048 <SystemClock_Config>
  /* USER CODE BEGIN SysInit */

  /* USER CODE END SysInit */

  /* Initialize all configured peripherals */
  MX_GPIO_Init();
 8000eb4:	f000 f95c 	bl	8001170 <MX_GPIO_Init>
  MX_USART1_UART_Init();
 8000eb8:	f000 f930 	bl	800111c <MX_USART1_UART_Init>
  /* USER CODE BEGIN 2 */

  APC1_Init_Sensor(&huart1);
 8000ebc:	484c      	ldr	r0, [pc, #304]	@ (8000ff0 <main+0x148>)
 8000ebe:	f7ff fcc7 	bl	8000850 <APC1_Init_Sensor>

  APC1_Read_Module_Type();
 8000ec2:	f7ff fd15 	bl	80008f0 <APC1_Read_Module_Type>

  /* Infinite loop */
  /* USER CODE BEGIN WHILE */
  while (1)
  {
	  if (APC1_Read_Mea_Data() != APC1_OK) {
 8000ec6:	f7ff fd57 	bl	8000978 <APC1_Read_Mea_Data>
 8000eca:	4603      	mov	r3, r0
 8000ecc:	2b00      	cmp	r3, #0
 8000ece:	d001      	beq.n	8000ed4 <main+0x2c>
		  Error_Handler();
 8000ed0:	f000 f9bc 	bl	800124c <Error_Handler>
	  }
	  T_pm1_0 = APC1_Get_PM1_0();
 8000ed4:	f7ff fe6e 	bl	8000bb4 <APC1_Get_PM1_0>
 8000ed8:	4603      	mov	r3, r0
 8000eda:	461a      	mov	r2, r3
 8000edc:	4b45      	ldr	r3, [pc, #276]	@ (8000ff4 <main+0x14c>)
 8000ede:	801a      	strh	r2, [r3, #0]
	  T_pm2_5 = APC1_Get_PM2_5();
 8000ee0:	f7ff fe74 	bl	8000bcc <APC1_Get_PM2_5>
 8000ee4:	4603      	mov	r3, r0
 8000ee6:	461a      	mov	r2, r3
 8000ee8:	4b43      	ldr	r3, [pc, #268]	@ (8000ff8 <main+0x150>)
 8000eea:	801a      	strh	r2, [r3, #0]
	  T_pm10 = APC1_Get_PM10();
 8000eec:	f7ff fe7a 	bl	8000be4 <APC1_Get_PM10>
 8000ef0:	4603      	mov	r3, r0
 8000ef2:	461a      	mov	r2, r3
 8000ef4:	4b41      	ldr	r3, [pc, #260]	@ (8000ffc <main+0x154>)
 8000ef6:	801a      	strh	r2, [r3, #0]
	  T_pm1_0_air = APC1_Get_PM1_0_air();
 8000ef8:	f7ff fe80 	bl	8000bfc <APC1_Get_PM1_0_air>
 8000efc:	4603      	mov	r3, r0
 8000efe:	461a      	mov	r2, r3
 8000f00:	4b3f      	ldr	r3, [pc, #252]	@ (8001000 <main+0x158>)
 8000f02:	801a      	strh	r2, [r3, #0]
	  T_pm2_5_air = APC1_Get_PM2_5_air();
 8000f04:	f7ff fe86 	bl	8000c14 <APC1_Get_PM2_5_air>
 8000f08:	4603      	mov	r3, r0
 8000f0a:	461a      	mov	r2, r3
 8000f0c:	4b3d      	ldr	r3, [pc, #244]	@ (8001004 <main+0x15c>)
 8000f0e:	801a      	strh	r2, [r3, #0]
	  T_pm10_air = APC1_Get_PM10_air();
 8000f10:	f7ff fe8c 	bl	8000c2c <APC1_Get_PM10_air>
 8000f14:	4603      	mov	r3, r0
 8000f16:	461a      	mov	r2, r3
 8000f18:	4b3b      	ldr	r3, [pc, #236]	@ (8001008 <main+0x160>)
 8000f1a:	801a      	strh	r2, [r3, #0]
	  T_particles_0_3 = APC1_Get_Particles_GT_0_3();
 8000f1c:	f7ff fe92 	bl	8000c44 <APC1_Get_Particles_GT_0_3>
 8000f20:	4603      	mov	r3, r0
 8000f22:	461a      	mov	r2, r3
 8000f24:	4b39      	ldr	r3, [pc, #228]	@ (800100c <main+0x164>)
 8000f26:	801a      	strh	r2, [r3, #0]
	  T_particles_0_5 = APC1_Get_Particles_GT_0_5();
 8000f28:	f7ff fe98 	bl	8000c5c <APC1_Get_Particles_GT_0_5>
 8000f2c:	4603      	mov	r3, r0
 8000f2e:	461a      	mov	r2, r3
 8000f30:	4b37      	ldr	r3, [pc, #220]	@ (8001010 <main+0x168>)
 8000f32:	801a      	strh	r2, [r3, #0]
	  T_particles_1_0 = APC1_Get_Particles_GT_1_0();
 8000f34:	f7ff fea2 	bl	8000c7c <APC1_Get_Particles_GT_1_0>
 8000f38:	4603      	mov	r3, r0
 8000f3a:	461a      	mov	r2, r3
 8000f3c:	4b35      	ldr	r3, [pc, #212]	@ (8001014 <main+0x16c>)
 8000f3e:	801a      	strh	r2, [r3, #0]
	  T_particles_2_5 = APC1_Get_Particles_GT_2_5();
 8000f40:	f7ff feac 	bl	8000c9c <APC1_Get_Particles_GT_2_5>
 8000f44:	4603      	mov	r3, r0
 8000f46:	461a      	mov	r2, r3
 8000f48:	4b33      	ldr	r3, [pc, #204]	@ (8001018 <main+0x170>)
 8000f4a:	801a      	strh	r2, [r3, #0]
	  T_particles_5_0 = APC1_Get_Particles_GT_5_0();
 8000f4c:	f7ff feb6 	bl	8000cbc <APC1_Get_Particles_GT_5_0>
 8000f50:	4603      	mov	r3, r0
 8000f52:	461a      	mov	r2, r3
 8000f54:	4b31      	ldr	r3, [pc, #196]	@ (800101c <main+0x174>)
 8000f56:	801a      	strh	r2, [r3, #0]
	  T_particles_10 = APC1_Get_Particles_GT_10();
 8000f58:	f7ff fec0 	bl	8000cdc <APC1_Get_Particles_GT_10>
 8000f5c:	4603      	mov	r3, r0
 8000f5e:	461a      	mov	r2, r3
 8000f60:	4b2f      	ldr	r3, [pc, #188]	@ (8001020 <main+0x178>)
 8000f62:	801a      	strh	r2, [r3, #0]
	  T_TVOC = APC1_Get_TVOC();
 8000f64:	f7ff feca 	bl	8000cfc <APC1_Get_TVOC>
 8000f68:	4603      	mov	r3, r0
 8000f6a:	461a      	mov	r2, r3
 8000f6c:	4b2d      	ldr	r3, [pc, #180]	@ (8001024 <main+0x17c>)
 8000f6e:	801a      	strh	r2, [r3, #0]
	  T_eCO2 = APC1_Get_eCO2();
 8000f70:	f7ff fed0 	bl	8000d14 <APC1_Get_eCO2>
 8000f74:	4603      	mov	r3, r0
 8000f76:	461a      	mov	r2, r3
 8000f78:	4b2b      	ldr	r3, [pc, #172]	@ (8001028 <main+0x180>)
 8000f7a:	801a      	strh	r2, [r3, #0]
	  T_t_comp = APC1_Get_T_Comp();
 8000f7c:	f7ff fed6 	bl	8000d2c <APC1_Get_T_Comp>
 8000f80:	eeb0 7a40 	vmov.f32	s14, s0
 8000f84:	eef0 7a60 	vmov.f32	s15, s1
 8000f88:	4b28      	ldr	r3, [pc, #160]	@ (800102c <main+0x184>)
 8000f8a:	ed83 7b00 	vstr	d7, [r3]
	  T_rh_comp = APC1_Get_RH_Comp();
 8000f8e:	f7ff feeb 	bl	8000d68 <APC1_Get_RH_Comp>
 8000f92:	eeb0 7a40 	vmov.f32	s14, s0
 8000f96:	eef0 7a60 	vmov.f32	s15, s1
 8000f9a:	4b25      	ldr	r3, [pc, #148]	@ (8001030 <main+0x188>)
 8000f9c:	ed83 7b00 	vstr	d7, [r3]
	  T_t_raw = APC1_Get_T_Raw();
 8000fa0:	f7ff ff00 	bl	8000da4 <APC1_Get_T_Raw>
 8000fa4:	eeb0 7a40 	vmov.f32	s14, s0
 8000fa8:	eef0 7a60 	vmov.f32	s15, s1
 8000fac:	4b21      	ldr	r3, [pc, #132]	@ (8001034 <main+0x18c>)
 8000fae:	ed83 7b00 	vstr	d7, [r3]
	  T_rh_raw = APC1_Get_RH_Raw();
 8000fb2:	f7ff ff15 	bl	8000de0 <APC1_Get_RH_Raw>
 8000fb6:	eeb0 7a40 	vmov.f32	s14, s0
 8000fba:	eef0 7a60 	vmov.f32	s15, s1
 8000fbe:	4b1e      	ldr	r3, [pc, #120]	@ (8001038 <main+0x190>)
 8000fc0:	ed83 7b00 	vstr	d7, [r3]
	  T_aqi = APC1_Get_AQI();
 8000fc4:	f7ff ff2a 	bl	8000e1c <APC1_Get_AQI>
 8000fc8:	4603      	mov	r3, r0
 8000fca:	461a      	mov	r2, r3
 8000fcc:	4b1b      	ldr	r3, [pc, #108]	@ (800103c <main+0x194>)
 8000fce:	701a      	strb	r2, [r3, #0]
	  aqi_string = APC1_Get_AQI_String();
 8000fd0:	f7ff ff30 	bl	8000e34 <APC1_Get_AQI_String>
 8000fd4:	4603      	mov	r3, r0
 8000fd6:	4a1a      	ldr	r2, [pc, #104]	@ (8001040 <main+0x198>)
 8000fd8:	6013      	str	r3, [r2, #0]
	  error_string = APC1_Get_Error_String();
 8000fda:	f7ff ff47 	bl	8000e6c <APC1_Get_Error_String>
 8000fde:	4603      	mov	r3, r0
 8000fe0:	4a18      	ldr	r2, [pc, #96]	@ (8001044 <main+0x19c>)
 8000fe2:	6013      	str	r3, [r2, #0]
	  HAL_Delay(2000);
 8000fe4:	f44f 60fa 	mov.w	r0, #2000	@ 0x7d0
 8000fe8:	f000 fa9c 	bl	8001524 <HAL_Delay>
	  if (APC1_Read_Mea_Data() != APC1_OK) {
 8000fec:	e76b      	b.n	8000ec6 <main+0x1e>
 8000fee:	bf00      	nop
 8000ff0:	2000032c 	.word	0x2000032c
 8000ff4:	200002de 	.word	0x200002de
 8000ff8:	200002e0 	.word	0x200002e0
 8000ffc:	200002e2 	.word	0x200002e2
 8001000:	200002e4 	.word	0x200002e4
 8001004:	200002e6 	.word	0x200002e6
 8001008:	200002e8 	.word	0x200002e8
 800100c:	200002ea 	.word	0x200002ea
 8001010:	200002ec 	.word	0x200002ec
 8001014:	200002ee 	.word	0x200002ee
 8001018:	200002f0 	.word	0x200002f0
 800101c:	200002f2 	.word	0x200002f2
 8001020:	200002f4 	.word	0x200002f4
 8001024:	200002f6 	.word	0x200002f6
 8001028:	200002f8 	.word	0x200002f8
 800102c:	20000300 	.word	0x20000300
 8001030:	20000308 	.word	0x20000308
 8001034:	20000310 	.word	0x20000310
 8001038:	20000318 	.word	0x20000318
 800103c:	20000328 	.word	0x20000328
 8001040:	20000320 	.word	0x20000320
 8001044:	20000324 	.word	0x20000324

08001048 <SystemClock_Config>:
/**
  * @brief System Clock Configuration
  * @retval None
  */
void SystemClock_Config(void)
{
 8001048:	b580      	push	{r7, lr}
 800104a:	b094      	sub	sp, #80	@ 0x50
 800104c:	af00      	add	r7, sp, #0
  RCC_OscInitTypeDef RCC_OscInitStruct = {0};
 800104e:	f107 0320 	add.w	r3, r7, #32
 8001052:	2230      	movs	r2, #48	@ 0x30
 8001054:	2100      	movs	r1, #0
 8001056:	4618      	mov	r0, r3
 8001058:	f002 fada 	bl	8003610 <memset>
  RCC_ClkInitTypeDef RCC_ClkInitStruct = {0};
 800105c:	f107 030c 	add.w	r3, r7, #12
 8001060:	2200      	movs	r2, #0
 8001062:	601a      	str	r2, [r3, #0]
 8001064:	605a      	str	r2, [r3, #4]
 8001066:	609a      	str	r2, [r3, #8]
 8001068:	60da      	str	r2, [r3, #12]
 800106a:	611a      	str	r2, [r3, #16]

  /** Configure the main internal regulator output voltage
  */
  __HAL_RCC_PWR_CLK_ENABLE();
 800106c:	2300      	movs	r3, #0
 800106e:	60bb      	str	r3, [r7, #8]
 8001070:	4b28      	ldr	r3, [pc, #160]	@ (8001114 <SystemClock_Config+0xcc>)
 8001072:	6c1b      	ldr	r3, [r3, #64]	@ 0x40
 8001074:	4a27      	ldr	r2, [pc, #156]	@ (8001114 <SystemClock_Config+0xcc>)
 8001076:	f043 5380 	orr.w	r3, r3, #268435456	@ 0x10000000
 800107a:	6413      	str	r3, [r2, #64]	@ 0x40
 800107c:	4b25      	ldr	r3, [pc, #148]	@ (8001114 <SystemClock_Config+0xcc>)
 800107e:	6c1b      	ldr	r3, [r3, #64]	@ 0x40
 8001080:	f003 5380 	and.w	r3, r3, #268435456	@ 0x10000000
 8001084:	60bb      	str	r3, [r7, #8]
 8001086:	68bb      	ldr	r3, [r7, #8]
  __HAL_PWR_VOLTAGESCALING_CONFIG(PWR_REGULATOR_VOLTAGE_SCALE1);
 8001088:	2300      	movs	r3, #0
 800108a:	607b      	str	r3, [r7, #4]
 800108c:	4b22      	ldr	r3, [pc, #136]	@ (8001118 <SystemClock_Config+0xd0>)
 800108e:	681b      	ldr	r3, [r3, #0]
 8001090:	4a21      	ldr	r2, [pc, #132]	@ (8001118 <SystemClock_Config+0xd0>)
 8001092:	f443 4340 	orr.w	r3, r3, #49152	@ 0xc000
 8001096:	6013      	str	r3, [r2, #0]
 8001098:	4b1f      	ldr	r3, [pc, #124]	@ (8001118 <SystemClock_Config+0xd0>)
 800109a:	681b      	ldr	r3, [r3, #0]
 800109c:	f403 4340 	and.w	r3, r3, #49152	@ 0xc000
 80010a0:	607b      	str	r3, [r7, #4]
 80010a2:	687b      	ldr	r3, [r7, #4]

  /** Initializes the RCC Oscillators according to the specified parameters
  * in the RCC_OscInitTypeDef structure.
  */
  RCC_OscInitStruct.OscillatorType = RCC_OSCILLATORTYPE_HSI;
 80010a4:	2302      	movs	r3, #2
 80010a6:	623b      	str	r3, [r7, #32]
  RCC_OscInitStruct.HSIState = RCC_HSI_ON;
 80010a8:	2301      	movs	r3, #1
 80010aa:	62fb      	str	r3, [r7, #44]	@ 0x2c
  RCC_OscInitStruct.HSICalibrationValue = RCC_HSICALIBRATION_DEFAULT;
 80010ac:	2310      	movs	r3, #16
 80010ae:	633b      	str	r3, [r7, #48]	@ 0x30
  RCC_OscInitStruct.PLL.PLLState = RCC_PLL_ON;
 80010b0:	2302      	movs	r3, #2
 80010b2:	63bb      	str	r3, [r7, #56]	@ 0x38
  RCC_OscInitStruct.PLL.PLLSource = RCC_PLLSOURCE_HSI;
 80010b4:	2300      	movs	r3, #0
 80010b6:	63fb      	str	r3, [r7, #60]	@ 0x3c
  RCC_OscInitStruct.PLL.PLLM = 16;
 80010b8:	2310      	movs	r3, #16
 80010ba:	643b      	str	r3, [r7, #64]	@ 0x40
  RCC_OscInitStruct.PLL.PLLN = 336;
 80010bc:	f44f 73a8 	mov.w	r3, #336	@ 0x150
 80010c0:	647b      	str	r3, [r7, #68]	@ 0x44
  RCC_OscInitStruct.PLL.PLLP = RCC_PLLP_DIV4;
 80010c2:	2304      	movs	r3, #4
 80010c4:	64bb      	str	r3, [r7, #72]	@ 0x48
  RCC_OscInitStruct.PLL.PLLQ = 4;
 80010c6:	2304      	movs	r3, #4
 80010c8:	64fb      	str	r3, [r7, #76]	@ 0x4c
  if (HAL_RCC_OscConfig(&RCC_OscInitStruct) != HAL_OK)
 80010ca:	f107 0320 	add.w	r3, r7, #32
 80010ce:	4618      	mov	r0, r3
 80010d0:	f000 fd8e 	bl	8001bf0 <HAL_RCC_OscConfig>
 80010d4:	4603      	mov	r3, r0
 80010d6:	2b00      	cmp	r3, #0
 80010d8:	d001      	beq.n	80010de <SystemClock_Config+0x96>
  {
    Error_Handler();
 80010da:	f000 f8b7 	bl	800124c <Error_Handler>
  }

  /** Initializes the CPU, AHB and APB buses clocks
  */
  RCC_ClkInitStruct.ClockType = RCC_CLOCKTYPE_HCLK|RCC_CLOCKTYPE_SYSCLK
 80010de:	230f      	movs	r3, #15
 80010e0:	60fb      	str	r3, [r7, #12]
                              |RCC_CLOCKTYPE_PCLK1|RCC_CLOCKTYPE_PCLK2;
  RCC_ClkInitStruct.SYSCLKSource = RCC_SYSCLKSOURCE_PLLCLK;
 80010e2:	2302      	movs	r3, #2
 80010e4:	613b      	str	r3, [r7, #16]
  RCC_ClkInitStruct.AHBCLKDivider = RCC_SYSCLK_DIV1;
 80010e6:	2300      	movs	r3, #0
 80010e8:	617b      	str	r3, [r7, #20]
  RCC_ClkInitStruct.APB1CLKDivider = RCC_HCLK_DIV2;
 80010ea:	f44f 5380 	mov.w	r3, #4096	@ 0x1000
 80010ee:	61bb      	str	r3, [r7, #24]
  RCC_ClkInitStruct.APB2CLKDivider = RCC_HCLK_DIV1;
 80010f0:	2300      	movs	r3, #0
 80010f2:	61fb      	str	r3, [r7, #28]

  if (HAL_RCC_ClockConfig(&RCC_ClkInitStruct, FLASH_LATENCY_2) != HAL_OK)
 80010f4:	f107 030c 	add.w	r3, r7, #12
 80010f8:	2102      	movs	r1, #2
 80010fa:	4618      	mov	r0, r3
 80010fc:	f000 fff0 	bl	80020e0 <HAL_RCC_ClockConfig>
 8001100:	4603      	mov	r3, r0
 8001102:	2b00      	cmp	r3, #0
 8001104:	d001      	beq.n	800110a <SystemClock_Config+0xc2>
  {
    Error_Handler();
 8001106:	f000 f8a1 	bl	800124c <Error_Handler>
  }
}
 800110a:	bf00      	nop
 800110c:	3750      	adds	r7, #80	@ 0x50
 800110e:	46bd      	mov	sp, r7
 8001110:	bd80      	pop	{r7, pc}
 8001112:	bf00      	nop
 8001114:	40023800 	.word	0x40023800
 8001118:	40007000 	.word	0x40007000

0800111c <MX_USART1_UART_Init>:
  * @brief USART1 Initialization Function
  * @param None
  * @retval None
  */
static void MX_USART1_UART_Init(void)
{
 800111c:	b580      	push	{r7, lr}
 800111e:	af00      	add	r7, sp, #0
  /* USER CODE END USART1_Init 0 */

  /* USER CODE BEGIN USART1_Init 1 */

  /* USER CODE END USART1_Init 1 */
  huart1.Instance = USART1;
 8001120:	4b11      	ldr	r3, [pc, #68]	@ (8001168 <MX_USART1_UART_Init+0x4c>)
 8001122:	4a12      	ldr	r2, [pc, #72]	@ (800116c <MX_USART1_UART_Init+0x50>)
 8001124:	601a      	str	r2, [r3, #0]
  huart1.Init.BaudRate = 9600;
 8001126:	4b10      	ldr	r3, [pc, #64]	@ (8001168 <MX_USART1_UART_Init+0x4c>)
 8001128:	f44f 5216 	mov.w	r2, #9600	@ 0x2580
 800112c:	605a      	str	r2, [r3, #4]
  huart1.Init.WordLength = UART_WORDLENGTH_8B;
 800112e:	4b0e      	ldr	r3, [pc, #56]	@ (8001168 <MX_USART1_UART_Init+0x4c>)
 8001130:	2200      	movs	r2, #0
 8001132:	609a      	str	r2, [r3, #8]
  huart1.Init.StopBits = UART_STOPBITS_1;
 8001134:	4b0c      	ldr	r3, [pc, #48]	@ (8001168 <MX_USART1_UART_Init+0x4c>)
 8001136:	2200      	movs	r2, #0
 8001138:	60da      	str	r2, [r3, #12]
  huart1.Init.Parity = UART_PARITY_NONE;
 800113a:	4b0b      	ldr	r3, [pc, #44]	@ (8001168 <MX_USART1_UART_Init+0x4c>)
 800113c:	2200      	movs	r2, #0
 800113e:	611a      	str	r2, [r3, #16]
  huart1.Init.Mode = UART_MODE_TX_RX;
 8001140:	4b09      	ldr	r3, [pc, #36]	@ (8001168 <MX_USART1_UART_Init+0x4c>)
 8001142:	220c      	movs	r2, #12
 8001144:	615a      	str	r2, [r3, #20]
  huart1.Init.HwFlowCtl = UART_HWCONTROL_NONE;
 8001146:	4b08      	ldr	r3, [pc, #32]	@ (8001168 <MX_USART1_UART_Init+0x4c>)
 8001148:	2200      	movs	r2, #0
 800114a:	619a      	str	r2, [r3, #24]
  huart1.Init.OverSampling = UART_OVERSAMPLING_16;
 800114c:	4b06      	ldr	r3, [pc, #24]	@ (8001168 <MX_USART1_UART_Init+0x4c>)
 800114e:	2200      	movs	r2, #0
 8001150:	61da      	str	r2, [r3, #28]
  if (HAL_UART_Init(&huart1) != HAL_OK)
 8001152:	4805      	ldr	r0, [pc, #20]	@ (8001168 <MX_USART1_UART_Init+0x4c>)
 8001154:	f001 f9e4 	bl	8002520 <HAL_UART_Init>
 8001158:	4603      	mov	r3, r0
 800115a:	2b00      	cmp	r3, #0
 800115c:	d001      	beq.n	8001162 <MX_USART1_UART_Init+0x46>
  {
    Error_Handler();
 800115e:	f000 f875 	bl	800124c <Error_Handler>
  }
  /* USER CODE BEGIN USART1_Init 2 */

  /* USER CODE END USART1_Init 2 */

}
 8001162:	bf00      	nop
 8001164:	bd80      	pop	{r7, pc}
 8001166:	bf00      	nop
 8001168:	2000032c 	.word	0x2000032c
 800116c:	40011000 	.word	0x40011000

08001170 <MX_GPIO_Init>:
/**
  * @param None
  * @retval None
  */
static void MX_GPIO_Init(void)
{
 8001170:	b580      	push	{r7, lr}
 8001172:	b08a      	sub	sp, #40	@ 0x28
 8001174:	af00      	add	r7, sp, #0
  GPIO_InitTypeDef GPIO_InitStruct = {0};
 8001176:	f107 0314 	add.w	r3, r7, #20
 800117a:	2200      	movs	r2, #0
 800117c:	601a      	str	r2, [r3, #0]
 800117e:	605a      	str	r2, [r3, #4]
 8001180:	609a      	str	r2, [r3, #8]
 8001182:	60da      	str	r2, [r3, #12]
 8001184:	611a      	str	r2, [r3, #16]
/* USER CODE BEGIN MX_GPIO_Init_1 */
/* USER CODE END MX_GPIO_Init_1 */

  /* GPIO Ports Clock Enable */
  __HAL_RCC_GPIOC_CLK_ENABLE();
 8001186:	2300      	movs	r3, #0
 8001188:	613b      	str	r3, [r7, #16]
 800118a:	4b2d      	ldr	r3, [pc, #180]	@ (8001240 <MX_GPIO_Init+0xd0>)
 800118c:	6b1b      	ldr	r3, [r3, #48]	@ 0x30
 800118e:	4a2c      	ldr	r2, [pc, #176]	@ (8001240 <MX_GPIO_Init+0xd0>)
 8001190:	f043 0304 	orr.w	r3, r3, #4
 8001194:	6313      	str	r3, [r2, #48]	@ 0x30
 8001196:	4b2a      	ldr	r3, [pc, #168]	@ (8001240 <MX_GPIO_Init+0xd0>)
 8001198:	6b1b      	ldr	r3, [r3, #48]	@ 0x30
 800119a:	f003 0304 	and.w	r3, r3, #4
 800119e:	613b      	str	r3, [r7, #16]
 80011a0:	693b      	ldr	r3, [r7, #16]
  __HAL_RCC_GPIOH_CLK_ENABLE();
 80011a2:	2300      	movs	r3, #0
 80011a4:	60fb      	str	r3, [r7, #12]
 80011a6:	4b26      	ldr	r3, [pc, #152]	@ (8001240 <MX_GPIO_Init+0xd0>)
 80011a8:	6b1b      	ldr	r3, [r3, #48]	@ 0x30
 80011aa:	4a25      	ldr	r2, [pc, #148]	@ (8001240 <MX_GPIO_Init+0xd0>)
 80011ac:	f043 0380 	orr.w	r3, r3, #128	@ 0x80
 80011b0:	6313      	str	r3, [r2, #48]	@ 0x30
 80011b2:	4b23      	ldr	r3, [pc, #140]	@ (8001240 <MX_GPIO_Init+0xd0>)
 80011b4:	6b1b      	ldr	r3, [r3, #48]	@ 0x30
 80011b6:	f003 0380 	and.w	r3, r3, #128	@ 0x80
 80011ba:	60fb      	str	r3, [r7, #12]
 80011bc:	68fb      	ldr	r3, [r7, #12]
  __HAL_RCC_GPIOA_CLK_ENABLE();
 80011be:	2300      	movs	r3, #0
 80011c0:	60bb      	str	r3, [r7, #8]
 80011c2:	4b1f      	ldr	r3, [pc, #124]	@ (8001240 <MX_GPIO_Init+0xd0>)
 80011c4:	6b1b      	ldr	r3, [r3, #48]	@ 0x30
 80011c6:	4a1e      	ldr	r2, [pc, #120]	@ (8001240 <MX_GPIO_Init+0xd0>)
 80011c8:	f043 0301 	orr.w	r3, r3, #1
 80011cc:	6313      	str	r3, [r2, #48]	@ 0x30
 80011ce:	4b1c      	ldr	r3, [pc, #112]	@ (8001240 <MX_GPIO_Init+0xd0>)
 80011d0:	6b1b      	ldr	r3, [r3, #48]	@ 0x30
 80011d2:	f003 0301 	and.w	r3, r3, #1
 80011d6:	60bb      	str	r3, [r7, #8]
 80011d8:	68bb      	ldr	r3, [r7, #8]
  __HAL_RCC_GPIOB_CLK_ENABLE();
 80011da:	2300      	movs	r3, #0
 80011dc:	607b      	str	r3, [r7, #4]
 80011de:	4b18      	ldr	r3, [pc, #96]	@ (8001240 <MX_GPIO_Init+0xd0>)
 80011e0:	6b1b      	ldr	r3, [r3, #48]	@ 0x30
 80011e2:	4a17      	ldr	r2, [pc, #92]	@ (8001240 <MX_GPIO_Init+0xd0>)
 80011e4:	f043 0302 	orr.w	r3, r3, #2
 80011e8:	6313      	str	r3, [r2, #48]	@ 0x30
 80011ea:	4b15      	ldr	r3, [pc, #84]	@ (8001240 <MX_GPIO_Init+0xd0>)
 80011ec:	6b1b      	ldr	r3, [r3, #48]	@ 0x30
 80011ee:	f003 0302 	and.w	r3, r3, #2
 80011f2:	607b      	str	r3, [r7, #4]
 80011f4:	687b      	ldr	r3, [r7, #4]

  /*Configure GPIO pin Output Level */
  HAL_GPIO_WritePin(LD2_GPIO_Port, LD2_Pin, GPIO_PIN_RESET);
 80011f6:	2200      	movs	r2, #0
 80011f8:	2120      	movs	r1, #32
 80011fa:	4812      	ldr	r0, [pc, #72]	@ (8001244 <MX_GPIO_Init+0xd4>)
 80011fc:	f000 fcde 	bl	8001bbc <HAL_GPIO_WritePin>

  /*Configure GPIO pin : B1_Pin */
  GPIO_InitStruct.Pin = B1_Pin;
 8001200:	f44f 5300 	mov.w	r3, #8192	@ 0x2000
 8001204:	617b      	str	r3, [r7, #20]
  GPIO_InitStruct.Mode = GPIO_MODE_IT_FALLING;
 8001206:	f44f 1304 	mov.w	r3, #2162688	@ 0x210000
 800120a:	61bb      	str	r3, [r7, #24]
  GPIO_InitStruct.Pull = GPIO_NOPULL;
 800120c:	2300      	movs	r3, #0
 800120e:	61fb      	str	r3, [r7, #28]
  HAL_GPIO_Init(B1_GPIO_Port, &GPIO_InitStruct);
 8001210:	f107 0314 	add.w	r3, r7, #20
 8001214:	4619      	mov	r1, r3
 8001216:	480c      	ldr	r0, [pc, #48]	@ (8001248 <MX_GPIO_Init+0xd8>)
 8001218:	f000 fb4c 	bl	80018b4 <HAL_GPIO_Init>

  /*Configure GPIO pin : LD2_Pin */
  GPIO_InitStruct.Pin = LD2_Pin;
 800121c:	2320      	movs	r3, #32
 800121e:	617b      	str	r3, [r7, #20]
  GPIO_InitStruct.Mode = GPIO_MODE_OUTPUT_PP;
 8001220:	2301      	movs	r3, #1
 8001222:	61bb      	str	r3, [r7, #24]
  GPIO_InitStruct.Pull = GPIO_NOPULL;
 8001224:	2300      	movs	r3, #0
 8001226:	61fb      	str	r3, [r7, #28]
  GPIO_InitStruct.Speed = GPIO_SPEED_FREQ_LOW;
 8001228:	2300      	movs	r3, #0
 800122a:	623b      	str	r3, [r7, #32]
  HAL_GPIO_Init(LD2_GPIO_Port, &GPIO_InitStruct);
 800122c:	f107 0314 	add.w	r3, r7, #20
 8001230:	4619      	mov	r1, r3
 8001232:	4804      	ldr	r0, [pc, #16]	@ (8001244 <MX_GPIO_Init+0xd4>)
 8001234:	f000 fb3e 	bl	80018b4 <HAL_GPIO_Init>

/* USER CODE BEGIN MX_GPIO_Init_2 */
/* USER CODE END MX_GPIO_Init_2 */
}
 8001238:	bf00      	nop
 800123a:	3728      	adds	r7, #40	@ 0x28
 800123c:	46bd      	mov	sp, r7
 800123e:	bd80      	pop	{r7, pc}
 8001240:	40023800 	.word	0x40023800
 8001244:	40020000 	.word	0x40020000
 8001248:	40020800 	.word	0x40020800

0800124c <Error_Handler>:
/**
  * @brief  This function is executed in case of error occurrence.
  * @retval None
  */
void Error_Handler(void)
{
 800124c:	b580      	push	{r7, lr}
 800124e:	af00      	add	r7, sp, #0
  \details Disables IRQ interrupts by setting the I-bit in the CPSR.
           Can only be executed in Privileged modes.
 */
__STATIC_FORCEINLINE void __disable_irq(void)
{
  __ASM volatile ("cpsid i" : : : "memory");
 8001250:	b672      	cpsid	i
}
 8001252:	bf00      	nop
  /* USER CODE BEGIN Error_Handler_Debug */
  /* User can add his own implementation to report the HAL error return state */
  __disable_irq();
  while (1)
  {
	  error_string = APC1_Get_Error_String();
 8001254:	f7ff fe0a 	bl	8000e6c <APC1_Get_Error_String>
 8001258:	4603      	mov	r3, r0
 800125a:	4a01      	ldr	r2, [pc, #4]	@ (8001260 <Error_Handler+0x14>)
 800125c:	6013      	str	r3, [r2, #0]
 800125e:	e7f9      	b.n	8001254 <Error_Handler+0x8>
 8001260:	20000324 	.word	0x20000324

08001264 <HAL_MspInit>:
/* USER CODE END 0 */
/**
  * Initializes the Global MSP.
  */
void HAL_MspInit(void)
{
 8001264:	b580      	push	{r7, lr}
 8001266:	b082      	sub	sp, #8
 8001268:	af00      	add	r7, sp, #0
  /* USER CODE BEGIN MspInit 0 */

  /* USER CODE END MspInit 0 */

  __HAL_RCC_SYSCFG_CLK_ENABLE();
 800126a:	2300      	movs	r3, #0
 800126c:	607b      	str	r3, [r7, #4]
 800126e:	4b10      	ldr	r3, [pc, #64]	@ (80012b0 <HAL_MspInit+0x4c>)
 8001270:	6c5b      	ldr	r3, [r3, #68]	@ 0x44
 8001272:	4a0f      	ldr	r2, [pc, #60]	@ (80012b0 <HAL_MspInit+0x4c>)
 8001274:	f443 4380 	orr.w	r3, r3, #16384	@ 0x4000
 8001278:	6453      	str	r3, [r2, #68]	@ 0x44
 800127a:	4b0d      	ldr	r3, [pc, #52]	@ (80012b0 <HAL_MspInit+0x4c>)
 800127c:	6c5b      	ldr	r3, [r3, #68]	@ 0x44
 800127e:	f403 4380 	and.w	r3, r3, #16384	@ 0x4000
 8001282:	607b      	str	r3, [r7, #4]
 8001284:	687b      	ldr	r3, [r7, #4]
  __HAL_RCC_PWR_CLK_ENABLE();
 8001286:	2300      	movs	r3, #0
 8001288:	603b      	str	r3, [r7, #0]
 800128a:	4b09      	ldr	r3, [pc, #36]	@ (80012b0 <HAL_MspInit+0x4c>)
 800128c:	6c1b      	ldr	r3, [r3, #64]	@ 0x40
 800128e:	4a08      	ldr	r2, [pc, #32]	@ (80012b0 <HAL_MspInit+0x4c>)
 8001290:	f043 5380 	orr.w	r3, r3, #268435456	@ 0x10000000
 8001294:	6413      	str	r3, [r2, #64]	@ 0x40
 8001296:	4b06      	ldr	r3, [pc, #24]	@ (80012b0 <HAL_MspInit+0x4c>)
 8001298:	6c1b      	ldr	r3, [r3, #64]	@ 0x40
 800129a:	f003 5380 	and.w	r3, r3, #268435456	@ 0x10000000
 800129e:	603b      	str	r3, [r7, #0]
 80012a0:	683b      	ldr	r3, [r7, #0]

  HAL_NVIC_SetPriorityGrouping(NVIC_PRIORITYGROUP_0);
 80012a2:	2007      	movs	r0, #7
 80012a4:	f000 fa32 	bl	800170c <HAL_NVIC_SetPriorityGrouping>
  /* System interrupt init*/

  /* USER CODE BEGIN MspInit 1 */

  /* USER CODE END MspInit 1 */
}
 80012a8:	bf00      	nop
 80012aa:	3708      	adds	r7, #8
 80012ac:	46bd      	mov	sp, r7
 80012ae:	bd80      	pop	{r7, pc}
 80012b0:	40023800 	.word	0x40023800

080012b4 <HAL_UART_MspInit>:
* This function configures the hardware resources used in this example
* @param huart: UART handle pointer
* @retval None
*/
void HAL_UART_MspInit(UART_HandleTypeDef* huart)
{
 80012b4:	b580      	push	{r7, lr}
 80012b6:	b08a      	sub	sp, #40	@ 0x28
 80012b8:	af00      	add	r7, sp, #0
 80012ba:	6078      	str	r0, [r7, #4]
  GPIO_InitTypeDef GPIO_InitStruct = {0};
 80012bc:	f107 0314 	add.w	r3, r7, #20
 80012c0:	2200      	movs	r2, #0
 80012c2:	601a      	str	r2, [r3, #0]
 80012c4:	605a      	str	r2, [r3, #4]
 80012c6:	609a      	str	r2, [r3, #8]
 80012c8:	60da      	str	r2, [r3, #12]
 80012ca:	611a      	str	r2, [r3, #16]
  if(huart->Instance==USART1)
 80012cc:	687b      	ldr	r3, [r7, #4]
 80012ce:	681b      	ldr	r3, [r3, #0]
 80012d0:	4a1d      	ldr	r2, [pc, #116]	@ (8001348 <HAL_UART_MspInit+0x94>)
 80012d2:	4293      	cmp	r3, r2
 80012d4:	d134      	bne.n	8001340 <HAL_UART_MspInit+0x8c>
  {
  /* USER CODE BEGIN USART1_MspInit 0 */

  /* USER CODE END USART1_MspInit 0 */
    /* Peripheral clock enable */
    __HAL_RCC_USART1_CLK_ENABLE();
 80012d6:	2300      	movs	r3, #0
 80012d8:	613b      	str	r3, [r7, #16]
 80012da:	4b1c      	ldr	r3, [pc, #112]	@ (800134c <HAL_UART_MspInit+0x98>)
 80012dc:	6c5b      	ldr	r3, [r3, #68]	@ 0x44
 80012de:	4a1b      	ldr	r2, [pc, #108]	@ (800134c <HAL_UART_MspInit+0x98>)
 80012e0:	f043 0310 	orr.w	r3, r3, #16
 80012e4:	6453      	str	r3, [r2, #68]	@ 0x44
 80012e6:	4b19      	ldr	r3, [pc, #100]	@ (800134c <HAL_UART_MspInit+0x98>)
 80012e8:	6c5b      	ldr	r3, [r3, #68]	@ 0x44
 80012ea:	f003 0310 	and.w	r3, r3, #16
 80012ee:	613b      	str	r3, [r7, #16]
 80012f0:	693b      	ldr	r3, [r7, #16]

    __HAL_RCC_GPIOA_CLK_ENABLE();
 80012f2:	2300      	movs	r3, #0
 80012f4:	60fb      	str	r3, [r7, #12]
 80012f6:	4b15      	ldr	r3, [pc, #84]	@ (800134c <HAL_UART_MspInit+0x98>)
 80012f8:	6b1b      	ldr	r3, [r3, #48]	@ 0x30
 80012fa:	4a14      	ldr	r2, [pc, #80]	@ (800134c <HAL_UART_MspInit+0x98>)
 80012fc:	f043 0301 	orr.w	r3, r3, #1
 8001300:	6313      	str	r3, [r2, #48]	@ 0x30
 8001302:	4b12      	ldr	r3, [pc, #72]	@ (800134c <HAL_UART_MspInit+0x98>)
 8001304:	6b1b      	ldr	r3, [r3, #48]	@ 0x30
 8001306:	f003 0301 	and.w	r3, r3, #1
 800130a:	60fb      	str	r3, [r7, #12]
 800130c:	68fb      	ldr	r3, [r7, #12]
    /**USART1 GPIO Configuration
    PA9     ------> USART1_TX
    PA10     ------> USART1_RX
    */
    GPIO_InitStruct.Pin = GPIO_PIN_9|GPIO_PIN_10;
 800130e:	f44f 63c0 	mov.w	r3, #1536	@ 0x600
 8001312:	617b      	str	r3, [r7, #20]
    GPIO_InitStruct.Mode = GPIO_MODE_AF_PP;
 8001314:	2302      	movs	r3, #2
 8001316:	61bb      	str	r3, [r7, #24]
    GPIO_InitStruct.Pull = GPIO_NOPULL;
 8001318:	2300      	movs	r3, #0
 800131a:	61fb      	str	r3, [r7, #28]
    GPIO_InitStruct.Speed = GPIO_SPEED_FREQ_VERY_HIGH;
 800131c:	2303      	movs	r3, #3
 800131e:	623b      	str	r3, [r7, #32]
    GPIO_InitStruct.Alternate = GPIO_AF7_USART1;
 8001320:	2307      	movs	r3, #7
 8001322:	627b      	str	r3, [r7, #36]	@ 0x24
    HAL_GPIO_Init(GPIOA, &GPIO_InitStruct);
 8001324:	f107 0314 	add.w	r3, r7, #20
 8001328:	4619      	mov	r1, r3
 800132a:	4809      	ldr	r0, [pc, #36]	@ (8001350 <HAL_UART_MspInit+0x9c>)
 800132c:	f000 fac2 	bl	80018b4 <HAL_GPIO_Init>

    /* USART1 interrupt Init */
    HAL_NVIC_SetPriority(USART1_IRQn, 0, 0);
 8001330:	2200      	movs	r2, #0
 8001332:	2100      	movs	r1, #0
 8001334:	2025      	movs	r0, #37	@ 0x25
 8001336:	f000 f9f4 	bl	8001722 <HAL_NVIC_SetPriority>
    HAL_NVIC_EnableIRQ(USART1_IRQn);
 800133a:	2025      	movs	r0, #37	@ 0x25
 800133c:	f000 fa0d 	bl	800175a <HAL_NVIC_EnableIRQ>
  /* USER CODE BEGIN USART1_MspInit 1 */

  /* USER CODE END USART1_MspInit 1 */
  }

}
 8001340:	bf00      	nop
 8001342:	3728      	adds	r7, #40	@ 0x28
 8001344:	46bd      	mov	sp, r7
 8001346:	bd80      	pop	{r7, pc}
 8001348:	40011000 	.word	0x40011000
 800134c:	40023800 	.word	0x40023800
 8001350:	40020000 	.word	0x40020000

08001354 <NMI_Handler>:
/******************************************************************************/
/**
  * @brief This function handles Non maskable interrupt.
  */
void NMI_Handler(void)
{
 8001354:	b480      	push	{r7}
 8001356:	af00      	add	r7, sp, #0
  /* USER CODE BEGIN NonMaskableInt_IRQn 0 */

  /* USER CODE END NonMaskableInt_IRQn 0 */
  /* USER CODE BEGIN NonMaskableInt_IRQn 1 */
  while (1)
 8001358:	bf00      	nop
 800135a:	e7fd      	b.n	8001358 <NMI_Handler+0x4>

0800135c <HardFault_Handler>:

/**
  * @brief This function handles Hard fault interrupt.
  */
void HardFault_Handler(void)
{
 800135c:	b480      	push	{r7}
 800135e:	af00      	add	r7, sp, #0
  /* USER CODE BEGIN HardFault_IRQn 0 */

  /* USER CODE END HardFault_IRQn 0 */
  while (1)
 8001360:	bf00      	nop
 8001362:	e7fd      	b.n	8001360 <HardFault_Handler+0x4>

08001364 <MemManage_Handler>:

/**
  * @brief This function handles Memory management fault.
  */
void MemManage_Handler(void)
{
 8001364:	b480      	push	{r7}
 8001366:	af00      	add	r7, sp, #0
  /* USER CODE BEGIN MemoryManagement_IRQn 0 */

  /* USER CODE END MemoryManagement_IRQn 0 */
  while (1)
 8001368:	bf00      	nop
 800136a:	e7fd      	b.n	8001368 <MemManage_Handler+0x4>

0800136c <BusFault_Handler>:

/**
  * @brief This function handles Pre-fetch fault, memory access fault.
  */
void BusFault_Handler(void)
{
 800136c:	b480      	push	{r7}
 800136e:	af00      	add	r7, sp, #0
  /* USER CODE BEGIN BusFault_IRQn 0 */

  /* USER CODE END BusFault_IRQn 0 */
  while (1)
 8001370:	bf00      	nop
 8001372:	e7fd      	b.n	8001370 <BusFault_Handler+0x4>

08001374 <UsageFault_Handler>:

/**
  * @brief This function handles Undefined instruction or illegal state.
  */
void UsageFault_Handler(void)
{
 8001374:	b480      	push	{r7}
 8001376:	af00      	add	r7, sp, #0
  /* USER CODE BEGIN UsageFault_IRQn 0 */

  /* USER CODE END UsageFault_IRQn 0 */
  while (1)
 8001378:	bf00      	nop
 800137a:	e7fd      	b.n	8001378 <UsageFault_Handler+0x4>

0800137c <SVC_Handler>:

/**
  * @brief This function handles System service call via SWI instruction.
  */
void SVC_Handler(void)
{
 800137c:	b480      	push	{r7}
 800137e:	af00      	add	r7, sp, #0

  /* USER CODE END SVCall_IRQn 0 */
  /* USER CODE BEGIN SVCall_IRQn 1 */

  /* USER CODE END SVCall_IRQn 1 */
}
 8001380:	bf00      	nop
 8001382:	46bd      	mov	sp, r7
 8001384:	f85d 7b04 	ldr.w	r7, [sp], #4
 8001388:	4770      	bx	lr

0800138a <DebugMon_Handler>:

/**
  * @brief This function handles Debug monitor.
  */
void DebugMon_Handler(void)
{
 800138a:	b480      	push	{r7}
 800138c:	af00      	add	r7, sp, #0

  /* USER CODE END DebugMonitor_IRQn 0 */
  /* USER CODE BEGIN DebugMonitor_IRQn 1 */

  /* USER CODE END DebugMonitor_IRQn 1 */
}
 800138e:	bf00      	nop
 8001390:	46bd      	mov	sp, r7
 8001392:	f85d 7b04 	ldr.w	r7, [sp], #4
 8001396:	4770      	bx	lr

08001398 <PendSV_Handler>:

/**
  * @brief This function handles Pendable request for system service.
  */
void PendSV_Handler(void)
{
 8001398:	b480      	push	{r7}
 800139a:	af00      	add	r7, sp, #0

  /* USER CODE END PendSV_IRQn 0 */
  /* USER CODE BEGIN PendSV_IRQn 1 */

  /* USER CODE END PendSV_IRQn 1 */
}
 800139c:	bf00      	nop
 800139e:	46bd      	mov	sp, r7
 80013a0:	f85d 7b04 	ldr.w	r7, [sp], #4
 80013a4:	4770      	bx	lr

080013a6 <SysTick_Handler>:

/**
  * @brief This function handles System tick timer.
  */
void SysTick_Handler(void)
{
 80013a6:	b580      	push	{r7, lr}
 80013a8:	af00      	add	r7, sp, #0
  /* USER CODE BEGIN SysTick_IRQn 0 */

  /* USER CODE END SysTick_IRQn 0 */
  HAL_IncTick();
 80013aa:	f000 f89b 	bl	80014e4 <HAL_IncTick>
  /* USER CODE BEGIN SysTick_IRQn 1 */

  /* USER CODE END SysTick_IRQn 1 */
}
 80013ae:	bf00      	nop
 80013b0:	bd80      	pop	{r7, pc}
	...

080013b4 <USART1_IRQHandler>:

/**
  * @brief This function handles USART1 global interrupt.
  */
void USART1_IRQHandler(void)
{
 80013b4:	b580      	push	{r7, lr}
 80013b6:	af00      	add	r7, sp, #0
	//	// uint8_t new_c = USART1->DR;
	//	rx[my_index++] = USART1->DR;
	//}

  /* USER CODE END USART1_IRQn 0 */
  HAL_UART_IRQHandler(&huart1);
 80013b8:	4802      	ldr	r0, [pc, #8]	@ (80013c4 <USART1_IRQHandler+0x10>)
 80013ba:	f001 f9c1 	bl	8002740 <HAL_UART_IRQHandler>
  /* USER CODE BEGIN USART1_IRQn 1 */

  /* USER CODE END USART1_IRQn 1 */
}
 80013be:	bf00      	nop
 80013c0:	bd80      	pop	{r7, pc}
 80013c2:	bf00      	nop
 80013c4:	2000032c 	.word	0x2000032c

080013c8 <SystemInit>:
  *         configuration.
  * @param  None
  * @retval None
  */
void SystemInit(void)
{
 80013c8:	b480      	push	{r7}
 80013ca:	af00      	add	r7, sp, #0
  /* FPU settings ------------------------------------------------------------*/
  #if (__FPU_PRESENT == 1) && (__FPU_USED == 1)
    SCB->CPACR |= ((3UL << 10*2)|(3UL << 11*2));  /* set CP10 and CP11 Full Access */
 80013cc:	4b06      	ldr	r3, [pc, #24]	@ (80013e8 <SystemInit+0x20>)
 80013ce:	f8d3 3088 	ldr.w	r3, [r3, #136]	@ 0x88
 80013d2:	4a05      	ldr	r2, [pc, #20]	@ (80013e8 <SystemInit+0x20>)
 80013d4:	f443 0370 	orr.w	r3, r3, #15728640	@ 0xf00000
 80013d8:	f8c2 3088 	str.w	r3, [r2, #136]	@ 0x88

  /* Configure the Vector Table location -------------------------------------*/
#if defined(USER_VECT_TAB_ADDRESS)
  SCB->VTOR = VECT_TAB_BASE_ADDRESS | VECT_TAB_OFFSET; /* Vector Table Relocation in Internal SRAM */
#endif /* USER_VECT_TAB_ADDRESS */
}
 80013dc:	bf00      	nop
 80013de:	46bd      	mov	sp, r7
 80013e0:	f85d 7b04 	ldr.w	r7, [sp], #4
 80013e4:	4770      	bx	lr
 80013e6:	bf00      	nop
 80013e8:	e000ed00 	.word	0xe000ed00

080013ec <Reset_Handler>:

    .section  .text.Reset_Handler
  .weak  Reset_Handler
  .type  Reset_Handler, %function
Reset_Handler:  
  ldr   sp, =_estack    		 /* set stack pointer */
 80013ec:	f8df d034 	ldr.w	sp, [pc, #52]	@ 8001424 <LoopFillZerobss+0x12>

/* Copy the data segment initializers from flash to SRAM */  
  ldr r0, =_sdata
 80013f0:	480d      	ldr	r0, [pc, #52]	@ (8001428 <LoopFillZerobss+0x16>)
  ldr r1, =_edata
 80013f2:	490e      	ldr	r1, [pc, #56]	@ (800142c <LoopFillZerobss+0x1a>)
  ldr r2, =_sidata
 80013f4:	4a0e      	ldr	r2, [pc, #56]	@ (8001430 <LoopFillZerobss+0x1e>)
  movs r3, #0
 80013f6:	2300      	movs	r3, #0
  b LoopCopyDataInit
 80013f8:	e002      	b.n	8001400 <LoopCopyDataInit>

080013fa <CopyDataInit>:

CopyDataInit:
  ldr r4, [r2, r3]
 80013fa:	58d4      	ldr	r4, [r2, r3]
  str r4, [r0, r3]
 80013fc:	50c4      	str	r4, [r0, r3]
  adds r3, r3, #4
 80013fe:	3304      	adds	r3, #4

08001400 <LoopCopyDataInit>:

LoopCopyDataInit:
  adds r4, r0, r3
 8001400:	18c4      	adds	r4, r0, r3
  cmp r4, r1
 8001402:	428c      	cmp	r4, r1
  bcc CopyDataInit
 8001404:	d3f9      	bcc.n	80013fa <CopyDataInit>
  
/* Zero fill the bss segment. */
  ldr r2, =_sbss
 8001406:	4a0b      	ldr	r2, [pc, #44]	@ (8001434 <LoopFillZerobss+0x22>)
  ldr r4, =_ebss
 8001408:	4c0b      	ldr	r4, [pc, #44]	@ (8001438 <LoopFillZerobss+0x26>)
  movs r3, #0
 800140a:	2300      	movs	r3, #0
  b LoopFillZerobss
 800140c:	e001      	b.n	8001412 <LoopFillZerobss>

0800140e <FillZerobss>:

FillZerobss:
  str  r3, [r2]
 800140e:	6013      	str	r3, [r2, #0]
  adds r2, r2, #4
 8001410:	3204      	adds	r2, #4

08001412 <LoopFillZerobss>:

LoopFillZerobss:
  cmp r2, r4
 8001412:	42a2      	cmp	r2, r4
  bcc FillZerobss
 8001414:	d3fb      	bcc.n	800140e <FillZerobss>

/* Call the clock system initialization function.*/
  bl  SystemInit   
 8001416:	f7ff ffd7 	bl	80013c8 <SystemInit>
/* Call static constructors */
    bl __libc_init_array
 800141a:	f002 f911 	bl	8003640 <__libc_init_array>
/* Call the application's entry point.*/
  bl  main
 800141e:	f7ff fd43 	bl	8000ea8 <main>
  bx  lr    
 8001422:	4770      	bx	lr
  ldr   sp, =_estack    		 /* set stack pointer */
 8001424:	20020000 	.word	0x20020000
  ldr r0, =_sdata
 8001428:	20000000 	.word	0x20000000
  ldr r1, =_edata
 800142c:	2000008c 	.word	0x2000008c
  ldr r2, =_sidata
 8001430:	080037f0 	.word	0x080037f0
  ldr r2, =_sbss
 8001434:	20000090 	.word	0x20000090
  ldr r4, =_ebss
 8001438:	20000374 	.word	0x20000374

0800143c <ADC_IRQHandler>:
 * @retval None       
*/
    .section  .text.Default_Handler,"ax",%progbits
Default_Handler:
Infinite_Loop:
  b  Infinite_Loop
 800143c:	e7fe      	b.n	800143c <ADC_IRQHandler>
	...

08001440 <HAL_Init>:
  *         need to ensure that the SysTick time base is always set to 1 millisecond
  *         to have correct HAL operation.
  * @retval HAL status
  */
HAL_StatusTypeDef HAL_Init(void)
{
 8001440:	b580      	push	{r7, lr}
 8001442:	af00      	add	r7, sp, #0
  /* Configure Flash prefetch, Instruction cache, Data cache */ 
#if (INSTRUCTION_CACHE_ENABLE != 0U)
  __HAL_FLASH_INSTRUCTION_CACHE_ENABLE();
 8001444:	4b0e      	ldr	r3, [pc, #56]	@ (8001480 <HAL_Init+0x40>)
 8001446:	681b      	ldr	r3, [r3, #0]
 8001448:	4a0d      	ldr	r2, [pc, #52]	@ (8001480 <HAL_Init+0x40>)
 800144a:	f443 7300 	orr.w	r3, r3, #512	@ 0x200
 800144e:	6013      	str	r3, [r2, #0]
#endif /* INSTRUCTION_CACHE_ENABLE */

#if (DATA_CACHE_ENABLE != 0U)
  __HAL_FLASH_DATA_CACHE_ENABLE();
 8001450:	4b0b      	ldr	r3, [pc, #44]	@ (8001480 <HAL_Init+0x40>)
 8001452:	681b      	ldr	r3, [r3, #0]
 8001454:	4a0a      	ldr	r2, [pc, #40]	@ (8001480 <HAL_Init+0x40>)
 8001456:	f443 6380 	orr.w	r3, r3, #1024	@ 0x400
 800145a:	6013      	str	r3, [r2, #0]
#endif /* DATA_CACHE_ENABLE */

#if (PREFETCH_ENABLE != 0U)
  __HAL_FLASH_PREFETCH_BUFFER_ENABLE();
 800145c:	4b08      	ldr	r3, [pc, #32]	@ (8001480 <HAL_Init+0x40>)
 800145e:	681b      	ldr	r3, [r3, #0]
 8001460:	4a07      	ldr	r2, [pc, #28]	@ (8001480 <HAL_Init+0x40>)
 8001462:	f443 7380 	orr.w	r3, r3, #256	@ 0x100
 8001466:	6013      	str	r3, [r2, #0]
#endif /* PREFETCH_ENABLE */

  /* Set Interrupt Group Priority */
  HAL_NVIC_SetPriorityGrouping(NVIC_PRIORITYGROUP_4);
 8001468:	2003      	movs	r0, #3
 800146a:	f000 f94f 	bl	800170c <HAL_NVIC_SetPriorityGrouping>

  /* Use systick as time base source and configure 1ms tick (default clock after Reset is HSI) */
  HAL_InitTick(TICK_INT_PRIORITY);
 800146e:	2000      	movs	r0, #0
 8001470:	f000 f808 	bl	8001484 <HAL_InitTick>

  /* Init the low level hardware */
  HAL_MspInit();
 8001474:	f7ff fef6 	bl	8001264 <HAL_MspInit>

  /* Return function status */
  return HAL_OK;
 8001478:	2300      	movs	r3, #0
}
 800147a:	4618      	mov	r0, r3
 800147c:	bd80      	pop	{r7, pc}
 800147e:	bf00      	nop
 8001480:	40023c00 	.word	0x40023c00

08001484 <HAL_InitTick>:
  *       implementation  in user file.
  * @param TickPriority Tick interrupt priority.
  * @retval HAL status
  */
__weak HAL_StatusTypeDef HAL_InitTick(uint32_t TickPriority)
{
 8001484:	b580      	push	{r7, lr}
 8001486:	b082      	sub	sp, #8
 8001488:	af00      	add	r7, sp, #0
 800148a:	6078      	str	r0, [r7, #4]
  /* Configure the SysTick to have interrupt in 1ms time basis*/
  if (HAL_SYSTICK_Config(SystemCoreClock / (1000U / uwTickFreq)) > 0U)
 800148c:	4b12      	ldr	r3, [pc, #72]	@ (80014d8 <HAL_InitTick+0x54>)
 800148e:	681a      	ldr	r2, [r3, #0]
 8001490:	4b12      	ldr	r3, [pc, #72]	@ (80014dc <HAL_InitTick+0x58>)
 8001492:	781b      	ldrb	r3, [r3, #0]
 8001494:	4619      	mov	r1, r3
 8001496:	f44f 737a 	mov.w	r3, #1000	@ 0x3e8
 800149a:	fbb3 f3f1 	udiv	r3, r3, r1
 800149e:	fbb2 f3f3 	udiv	r3, r2, r3
 80014a2:	4618      	mov	r0, r3
 80014a4:	f000 f967 	bl	8001776 <HAL_SYSTICK_Config>
 80014a8:	4603      	mov	r3, r0
 80014aa:	2b00      	cmp	r3, #0
 80014ac:	d001      	beq.n	80014b2 <HAL_InitTick+0x2e>
  {
    return HAL_ERROR;
 80014ae:	2301      	movs	r3, #1
 80014b0:	e00e      	b.n	80014d0 <HAL_InitTick+0x4c>
  }

  /* Configure the SysTick IRQ priority */
  if (TickPriority < (1UL << __NVIC_PRIO_BITS))
 80014b2:	687b      	ldr	r3, [r7, #4]
 80014b4:	2b0f      	cmp	r3, #15
 80014b6:	d80a      	bhi.n	80014ce <HAL_InitTick+0x4a>
  {
    HAL_NVIC_SetPriority(SysTick_IRQn, TickPriority, 0U);
 80014b8:	2200      	movs	r2, #0
 80014ba:	6879      	ldr	r1, [r7, #4]
 80014bc:	f04f 30ff 	mov.w	r0, #4294967295
 80014c0:	f000 f92f 	bl	8001722 <HAL_NVIC_SetPriority>
    uwTickPrio = TickPriority;
 80014c4:	4a06      	ldr	r2, [pc, #24]	@ (80014e0 <HAL_InitTick+0x5c>)
 80014c6:	687b      	ldr	r3, [r7, #4]
 80014c8:	6013      	str	r3, [r2, #0]
  {
    return HAL_ERROR;
  }

  /* Return function status */
  return HAL_OK;
 80014ca:	2300      	movs	r3, #0
 80014cc:	e000      	b.n	80014d0 <HAL_InitTick+0x4c>
    return HAL_ERROR;
 80014ce:	2301      	movs	r3, #1
}
 80014d0:	4618      	mov	r0, r3
 80014d2:	3708      	adds	r7, #8
 80014d4:	46bd      	mov	sp, r7
 80014d6:	bd80      	pop	{r7, pc}
 80014d8:	20000080 	.word	0x20000080
 80014dc:	20000088 	.word	0x20000088
 80014e0:	20000084 	.word	0x20000084

080014e4 <HAL_IncTick>:
 * @note This function is declared as __weak to be overwritten in case of other 
  *      implementations in user file.
  * @retval None
  */
__weak void HAL_IncTick(void)
{
 80014e4:	b480      	push	{r7}
 80014e6:	af00      	add	r7, sp, #0
  uwTick += uwTickFreq;
 80014e8:	4b06      	ldr	r3, [pc, #24]	@ (8001504 <HAL_IncTick+0x20>)
 80014ea:	781b      	ldrb	r3, [r3, #0]
 80014ec:	461a      	mov	r2, r3
 80014ee:	4b06      	ldr	r3, [pc, #24]	@ (8001508 <HAL_IncTick+0x24>)
 80014f0:	681b      	ldr	r3, [r3, #0]
 80014f2:	4413      	add	r3, r2
 80014f4:	4a04      	ldr	r2, [pc, #16]	@ (8001508 <HAL_IncTick+0x24>)
 80014f6:	6013      	str	r3, [r2, #0]
}
 80014f8:	bf00      	nop
 80014fa:	46bd      	mov	sp, r7
 80014fc:	f85d 7b04 	ldr.w	r7, [sp], #4
 8001500:	4770      	bx	lr
 8001502:	bf00      	nop
 8001504:	20000088 	.word	0x20000088
 8001508:	20000370 	.word	0x20000370

0800150c <HAL_GetTick>:
  * @note This function is declared as __weak to be overwritten in case of other 
  *       implementations in user file.
  * @retval tick value
  */
__weak uint32_t HAL_GetTick(void)
{
 800150c:	b480      	push	{r7}
 800150e:	af00      	add	r7, sp, #0
  return uwTick;
 8001510:	4b03      	ldr	r3, [pc, #12]	@ (8001520 <HAL_GetTick+0x14>)
 8001512:	681b      	ldr	r3, [r3, #0]
}
 8001514:	4618      	mov	r0, r3
 8001516:	46bd      	mov	sp, r7
 8001518:	f85d 7b04 	ldr.w	r7, [sp], #4
 800151c:	4770      	bx	lr
 800151e:	bf00      	nop
 8001520:	20000370 	.word	0x20000370

08001524 <HAL_Delay>:
  *       implementations in user file.
  * @param Delay specifies the delay time length, in milliseconds.
  * @retval None
  */
__weak void HAL_Delay(uint32_t Delay)
{
 8001524:	b580      	push	{r7, lr}
 8001526:	b084      	sub	sp, #16
 8001528:	af00      	add	r7, sp, #0
 800152a:	6078      	str	r0, [r7, #4]
  uint32_t tickstart = HAL_GetTick();
 800152c:	f7ff ffee 	bl	800150c <HAL_GetTick>
 8001530:	60b8      	str	r0, [r7, #8]
  uint32_t wait = Delay;
 8001532:	687b      	ldr	r3, [r7, #4]
 8001534:	60fb      	str	r3, [r7, #12]

  /* Add a freq to guarantee minimum wait */
  if (wait < HAL_MAX_DELAY)
 8001536:	68fb      	ldr	r3, [r7, #12]
 8001538:	f1b3 3fff 	cmp.w	r3, #4294967295
 800153c:	d005      	beq.n	800154a <HAL_Delay+0x26>
  {
    wait += (uint32_t)(uwTickFreq);
 800153e:	4b0a      	ldr	r3, [pc, #40]	@ (8001568 <HAL_Delay+0x44>)
 8001540:	781b      	ldrb	r3, [r3, #0]
 8001542:	461a      	mov	r2, r3
 8001544:	68fb      	ldr	r3, [r7, #12]
 8001546:	4413      	add	r3, r2
 8001548:	60fb      	str	r3, [r7, #12]
  }

  while((HAL_GetTick() - tickstart) < wait)
 800154a:	bf00      	nop
 800154c:	f7ff ffde 	bl	800150c <HAL_GetTick>
 8001550:	4602      	mov	r2, r0
 8001552:	68bb      	ldr	r3, [r7, #8]
 8001554:	1ad3      	subs	r3, r2, r3
 8001556:	68fa      	ldr	r2, [r7, #12]
 8001558:	429a      	cmp	r2, r3
 800155a:	d8f7      	bhi.n	800154c <HAL_Delay+0x28>
  {
  }
}
 800155c:	bf00      	nop
 800155e:	bf00      	nop
 8001560:	3710      	adds	r7, #16
 8001562:	46bd      	mov	sp, r7
 8001564:	bd80      	pop	{r7, pc}
 8001566:	bf00      	nop
 8001568:	20000088 	.word	0x20000088

0800156c <__NVIC_SetPriorityGrouping>:
           In case of a conflict between priority grouping and available
           priority bits (__NVIC_PRIO_BITS), the smallest possible priority group is set.
  \param [in]      PriorityGroup  Priority grouping field.
 */
__STATIC_INLINE void __NVIC_SetPriorityGrouping(uint32_t PriorityGroup)
{
 800156c:	b480      	push	{r7}
 800156e:	b085      	sub	sp, #20
 8001570:	af00      	add	r7, sp, #0
 8001572:	6078      	str	r0, [r7, #4]
  uint32_t reg_value;
  uint32_t PriorityGroupTmp = (PriorityGroup & (uint32_t)0x07UL);             /* only values 0..7 are used          */
 8001574:	687b      	ldr	r3, [r7, #4]
 8001576:	f003 0307 	and.w	r3, r3, #7
 800157a:	60fb      	str	r3, [r7, #12]

  reg_value  =  SCB->AIRCR;                                                   /* read old register configuration    */
 800157c:	4b0c      	ldr	r3, [pc, #48]	@ (80015b0 <__NVIC_SetPriorityGrouping+0x44>)
 800157e:	68db      	ldr	r3, [r3, #12]
 8001580:	60bb      	str	r3, [r7, #8]
  reg_value &= ~((uint32_t)(SCB_AIRCR_VECTKEY_Msk | SCB_AIRCR_PRIGROUP_Msk)); /* clear bits to change               */
 8001582:	68ba      	ldr	r2, [r7, #8]
 8001584:	f64f 03ff 	movw	r3, #63743	@ 0xf8ff
 8001588:	4013      	ands	r3, r2
 800158a:	60bb      	str	r3, [r7, #8]
  reg_value  =  (reg_value                                   |
                ((uint32_t)0x5FAUL << SCB_AIRCR_VECTKEY_Pos) |
                (PriorityGroupTmp << SCB_AIRCR_PRIGROUP_Pos)  );              /* Insert write key and priority group */
 800158c:	68fb      	ldr	r3, [r7, #12]
 800158e:	021a      	lsls	r2, r3, #8
                ((uint32_t)0x5FAUL << SCB_AIRCR_VECTKEY_Pos) |
 8001590:	68bb      	ldr	r3, [r7, #8]
 8001592:	4313      	orrs	r3, r2
  reg_value  =  (reg_value                                   |
 8001594:	f043 63bf 	orr.w	r3, r3, #100139008	@ 0x5f80000
 8001598:	f443 3300 	orr.w	r3, r3, #131072	@ 0x20000
 800159c:	60bb      	str	r3, [r7, #8]
  SCB->AIRCR =  reg_value;
 800159e:	4a04      	ldr	r2, [pc, #16]	@ (80015b0 <__NVIC_SetPriorityGrouping+0x44>)
 80015a0:	68bb      	ldr	r3, [r7, #8]
 80015a2:	60d3      	str	r3, [r2, #12]
}
 80015a4:	bf00      	nop
 80015a6:	3714      	adds	r7, #20
 80015a8:	46bd      	mov	sp, r7
 80015aa:	f85d 7b04 	ldr.w	r7, [sp], #4
 80015ae:	4770      	bx	lr
 80015b0:	e000ed00 	.word	0xe000ed00

080015b4 <__NVIC_GetPriorityGrouping>:
  \brief   Get Priority Grouping
  \details Reads the priority grouping field from the NVIC Interrupt Controller.
  \return                Priority grouping field (SCB->AIRCR [10:8] PRIGROUP field).
 */
__STATIC_INLINE uint32_t __NVIC_GetPriorityGrouping(void)
{
 80015b4:	b480      	push	{r7}
 80015b6:	af00      	add	r7, sp, #0
  return ((uint32_t)((SCB->AIRCR & SCB_AIRCR_PRIGROUP_Msk) >> SCB_AIRCR_PRIGROUP_Pos));
 80015b8:	4b04      	ldr	r3, [pc, #16]	@ (80015cc <__NVIC_GetPriorityGrouping+0x18>)
 80015ba:	68db      	ldr	r3, [r3, #12]
 80015bc:	0a1b      	lsrs	r3, r3, #8
 80015be:	f003 0307 	and.w	r3, r3, #7
}
 80015c2:	4618      	mov	r0, r3
 80015c4:	46bd      	mov	sp, r7
 80015c6:	f85d 7b04 	ldr.w	r7, [sp], #4
 80015ca:	4770      	bx	lr
 80015cc:	e000ed00 	.word	0xe000ed00

080015d0 <__NVIC_EnableIRQ>:
  \details Enables a device specific interrupt in the NVIC interrupt controller.
  \param [in]      IRQn  Device specific interrupt number.
  \note    IRQn must not be negative.
 */
__STATIC_INLINE void __NVIC_EnableIRQ(IRQn_Type IRQn)
{
 80015d0:	b480      	push	{r7}
 80015d2:	b083      	sub	sp, #12
 80015d4:	af00      	add	r7, sp, #0
 80015d6:	4603      	mov	r3, r0
 80015d8:	71fb      	strb	r3, [r7, #7]
  if ((int32_t)(IRQn) >= 0)
 80015da:	f997 3007 	ldrsb.w	r3, [r7, #7]
 80015de:	2b00      	cmp	r3, #0
 80015e0:	db0b      	blt.n	80015fa <__NVIC_EnableIRQ+0x2a>
  {
    NVIC->ISER[(((uint32_t)IRQn) >> 5UL)] = (uint32_t)(1UL << (((uint32_t)IRQn) & 0x1FUL));
 80015e2:	79fb      	ldrb	r3, [r7, #7]
 80015e4:	f003 021f 	and.w	r2, r3, #31
 80015e8:	4907      	ldr	r1, [pc, #28]	@ (8001608 <__NVIC_EnableIRQ+0x38>)
 80015ea:	f997 3007 	ldrsb.w	r3, [r7, #7]
 80015ee:	095b      	lsrs	r3, r3, #5
 80015f0:	2001      	movs	r0, #1
 80015f2:	fa00 f202 	lsl.w	r2, r0, r2
 80015f6:	f841 2023 	str.w	r2, [r1, r3, lsl #2]
  }
}
 80015fa:	bf00      	nop
 80015fc:	370c      	adds	r7, #12
 80015fe:	46bd      	mov	sp, r7
 8001600:	f85d 7b04 	ldr.w	r7, [sp], #4
 8001604:	4770      	bx	lr
 8001606:	bf00      	nop
 8001608:	e000e100 	.word	0xe000e100

0800160c <__NVIC_SetPriority>:
  \param [in]      IRQn  Interrupt number.
  \param [in]  priority  Priority to set.
  \note    The priority cannot be set for every processor exception.
 */
__STATIC_INLINE void __NVIC_SetPriority(IRQn_Type IRQn, uint32_t priority)
{
 800160c:	b480      	push	{r7}
 800160e:	b083      	sub	sp, #12
 8001610:	af00      	add	r7, sp, #0
 8001612:	4603      	mov	r3, r0
 8001614:	6039      	str	r1, [r7, #0]
 8001616:	71fb      	strb	r3, [r7, #7]
  if ((int32_t)(IRQn) >= 0)
 8001618:	f997 3007 	ldrsb.w	r3, [r7, #7]
 800161c:	2b00      	cmp	r3, #0
 800161e:	db0a      	blt.n	8001636 <__NVIC_SetPriority+0x2a>
  {
    NVIC->IP[((uint32_t)IRQn)]               = (uint8_t)((priority << (8U - __NVIC_PRIO_BITS)) & (uint32_t)0xFFUL);
 8001620:	683b      	ldr	r3, [r7, #0]
 8001622:	b2da      	uxtb	r2, r3
 8001624:	490c      	ldr	r1, [pc, #48]	@ (8001658 <__NVIC_SetPriority+0x4c>)
 8001626:	f997 3007 	ldrsb.w	r3, [r7, #7]
 800162a:	0112      	lsls	r2, r2, #4
 800162c:	b2d2      	uxtb	r2, r2
 800162e:	440b      	add	r3, r1
 8001630:	f883 2300 	strb.w	r2, [r3, #768]	@ 0x300
  }
  else
  {
    SCB->SHP[(((uint32_t)IRQn) & 0xFUL)-4UL] = (uint8_t)((priority << (8U - __NVIC_PRIO_BITS)) & (uint32_t)0xFFUL);
  }
}
 8001634:	e00a      	b.n	800164c <__NVIC_SetPriority+0x40>
    SCB->SHP[(((uint32_t)IRQn) & 0xFUL)-4UL] = (uint8_t)((priority << (8U - __NVIC_PRIO_BITS)) & (uint32_t)0xFFUL);
 8001636:	683b      	ldr	r3, [r7, #0]
 8001638:	b2da      	uxtb	r2, r3
 800163a:	4908      	ldr	r1, [pc, #32]	@ (800165c <__NVIC_SetPriority+0x50>)
 800163c:	79fb      	ldrb	r3, [r7, #7]
 800163e:	f003 030f 	and.w	r3, r3, #15
 8001642:	3b04      	subs	r3, #4
 8001644:	0112      	lsls	r2, r2, #4
 8001646:	b2d2      	uxtb	r2, r2
 8001648:	440b      	add	r3, r1
 800164a:	761a      	strb	r2, [r3, #24]
}
 800164c:	bf00      	nop
 800164e:	370c      	adds	r7, #12
 8001650:	46bd      	mov	sp, r7
 8001652:	f85d 7b04 	ldr.w	r7, [sp], #4
 8001656:	4770      	bx	lr
 8001658:	e000e100 	.word	0xe000e100
 800165c:	e000ed00 	.word	0xe000ed00

08001660 <NVIC_EncodePriority>:
  \param [in]   PreemptPriority  Preemptive priority value (starting from 0).
  \param [in]       SubPriority  Subpriority value (starting from 0).
  \return                        Encoded priority. Value can be used in the function \ref NVIC_SetPriority().
 */
__STATIC_INLINE uint32_t NVIC_EncodePriority (uint32_t PriorityGroup, uint32_t PreemptPriority, uint32_t SubPriority)
{
 8001660:	b480      	push	{r7}
 8001662:	b089      	sub	sp, #36	@ 0x24
 8001664:	af00      	add	r7, sp, #0
 8001666:	60f8      	str	r0, [r7, #12]
 8001668:	60b9      	str	r1, [r7, #8]
 800166a:	607a      	str	r2, [r7, #4]
  uint32_t PriorityGroupTmp = (PriorityGroup & (uint32_t)0x07UL);   /* only values 0..7 are used          */
 800166c:	68fb      	ldr	r3, [r7, #12]
 800166e:	f003 0307 	and.w	r3, r3, #7
 8001672:	61fb      	str	r3, [r7, #28]
  uint32_t PreemptPriorityBits;
  uint32_t SubPriorityBits;

  PreemptPriorityBits = ((7UL - PriorityGroupTmp) > (uint32_t)(__NVIC_PRIO_BITS)) ? (uint32_t)(__NVIC_PRIO_BITS) : (uint32_t)(7UL - PriorityGroupTmp);
 8001674:	69fb      	ldr	r3, [r7, #28]
 8001676:	f1c3 0307 	rsb	r3, r3, #7
 800167a:	2b04      	cmp	r3, #4
 800167c:	bf28      	it	cs
 800167e:	2304      	movcs	r3, #4
 8001680:	61bb      	str	r3, [r7, #24]
  SubPriorityBits     = ((PriorityGroupTmp + (uint32_t)(__NVIC_PRIO_BITS)) < (uint32_t)7UL) ? (uint32_t)0UL : (uint32_t)((PriorityGroupTmp - 7UL) + (uint32_t)(__NVIC_PRIO_BITS));
 8001682:	69fb      	ldr	r3, [r7, #28]
 8001684:	3304      	adds	r3, #4
 8001686:	2b06      	cmp	r3, #6
 8001688:	d902      	bls.n	8001690 <NVIC_EncodePriority+0x30>
 800168a:	69fb      	ldr	r3, [r7, #28]
 800168c:	3b03      	subs	r3, #3
 800168e:	e000      	b.n	8001692 <NVIC_EncodePriority+0x32>
 8001690:	2300      	movs	r3, #0
 8001692:	617b      	str	r3, [r7, #20]

  return (
           ((PreemptPriority & (uint32_t)((1UL << (PreemptPriorityBits)) - 1UL)) << SubPriorityBits) |
 8001694:	f04f 32ff 	mov.w	r2, #4294967295
 8001698:	69bb      	ldr	r3, [r7, #24]
 800169a:	fa02 f303 	lsl.w	r3, r2, r3
 800169e:	43da      	mvns	r2, r3
 80016a0:	68bb      	ldr	r3, [r7, #8]
 80016a2:	401a      	ands	r2, r3
 80016a4:	697b      	ldr	r3, [r7, #20]
 80016a6:	409a      	lsls	r2, r3
           ((SubPriority     & (uint32_t)((1UL << (SubPriorityBits    )) - 1UL)))
 80016a8:	f04f 31ff 	mov.w	r1, #4294967295
 80016ac:	697b      	ldr	r3, [r7, #20]
 80016ae:	fa01 f303 	lsl.w	r3, r1, r3
 80016b2:	43d9      	mvns	r1, r3
 80016b4:	687b      	ldr	r3, [r7, #4]
 80016b6:	400b      	ands	r3, r1
           ((PreemptPriority & (uint32_t)((1UL << (PreemptPriorityBits)) - 1UL)) << SubPriorityBits) |
 80016b8:	4313      	orrs	r3, r2
         );
}
 80016ba:	4618      	mov	r0, r3
 80016bc:	3724      	adds	r7, #36	@ 0x24
 80016be:	46bd      	mov	sp, r7
 80016c0:	f85d 7b04 	ldr.w	r7, [sp], #4
 80016c4:	4770      	bx	lr
	...

080016c8 <SysTick_Config>:
  \note    When the variable <b>__Vendor_SysTickConfig</b> is set to 1, then the
           function <b>SysTick_Config</b> is not included. In this case, the file <b><i>device</i>.h</b>
           must contain a vendor-specific implementation of this function.
 */
__STATIC_INLINE uint32_t SysTick_Config(uint32_t ticks)
{
 80016c8:	b580      	push	{r7, lr}
 80016ca:	b082      	sub	sp, #8
 80016cc:	af00      	add	r7, sp, #0
 80016ce:	6078      	str	r0, [r7, #4]
  if ((ticks - 1UL) > SysTick_LOAD_RELOAD_Msk)
 80016d0:	687b      	ldr	r3, [r7, #4]
 80016d2:	3b01      	subs	r3, #1
 80016d4:	f1b3 7f80 	cmp.w	r3, #16777216	@ 0x1000000
 80016d8:	d301      	bcc.n	80016de <SysTick_Config+0x16>
  {
    return (1UL);                                                   /* Reload value impossible */
 80016da:	2301      	movs	r3, #1
 80016dc:	e00f      	b.n	80016fe <SysTick_Config+0x36>
  }

  SysTick->LOAD  = (uint32_t)(ticks - 1UL);                         /* set reload register */
 80016de:	4a0a      	ldr	r2, [pc, #40]	@ (8001708 <SysTick_Config+0x40>)
 80016e0:	687b      	ldr	r3, [r7, #4]
 80016e2:	3b01      	subs	r3, #1
 80016e4:	6053      	str	r3, [r2, #4]
  NVIC_SetPriority (SysTick_IRQn, (1UL << __NVIC_PRIO_BITS) - 1UL); /* set Priority for Systick Interrupt */
 80016e6:	210f      	movs	r1, #15
 80016e8:	f04f 30ff 	mov.w	r0, #4294967295
 80016ec:	f7ff ff8e 	bl	800160c <__NVIC_SetPriority>
  SysTick->VAL   = 0UL;                                             /* Load the SysTick Counter Value */
 80016f0:	4b05      	ldr	r3, [pc, #20]	@ (8001708 <SysTick_Config+0x40>)
 80016f2:	2200      	movs	r2, #0
 80016f4:	609a      	str	r2, [r3, #8]
  SysTick->CTRL  = SysTick_CTRL_CLKSOURCE_Msk |
 80016f6:	4b04      	ldr	r3, [pc, #16]	@ (8001708 <SysTick_Config+0x40>)
 80016f8:	2207      	movs	r2, #7
 80016fa:	601a      	str	r2, [r3, #0]
                   SysTick_CTRL_TICKINT_Msk   |
                   SysTick_CTRL_ENABLE_Msk;                         /* Enable SysTick IRQ and SysTick Timer */
  return (0UL);                                                     /* Function successful */
 80016fc:	2300      	movs	r3, #0
}
 80016fe:	4618      	mov	r0, r3
 8001700:	3708      	adds	r7, #8
 8001702:	46bd      	mov	sp, r7
 8001704:	bd80      	pop	{r7, pc}
 8001706:	bf00      	nop
 8001708:	e000e010 	.word	0xe000e010

0800170c <HAL_NVIC_SetPriorityGrouping>:
  * @note   When the NVIC_PriorityGroup_0 is selected, IRQ preemption is no more possible. 
  *         The pending IRQ priority will be managed only by the subpriority. 
  * @retval None
  */
void HAL_NVIC_SetPriorityGrouping(uint32_t PriorityGroup)
{
 800170c:	b580      	push	{r7, lr}
 800170e:	b082      	sub	sp, #8
 8001710:	af00      	add	r7, sp, #0
 8001712:	6078      	str	r0, [r7, #4]
  /* Check the parameters */
  assert_param(IS_NVIC_PRIORITY_GROUP(PriorityGroup));
  
  /* Set the PRIGROUP[10:8] bits according to the PriorityGroup parameter value */
  NVIC_SetPriorityGrouping(PriorityGroup);
 8001714:	6878      	ldr	r0, [r7, #4]
 8001716:	f7ff ff29 	bl	800156c <__NVIC_SetPriorityGrouping>
}
 800171a:	bf00      	nop
 800171c:	3708      	adds	r7, #8
 800171e:	46bd      	mov	sp, r7
 8001720:	bd80      	pop	{r7, pc}

08001722 <HAL_NVIC_SetPriority>:
  *         This parameter can be a value between 0 and 15
  *         A lower priority value indicates a higher priority.          
  * @retval None
  */
void HAL_NVIC_SetPriority(IRQn_Type IRQn, uint32_t PreemptPriority, uint32_t SubPriority)
{ 
 8001722:	b580      	push	{r7, lr}
 8001724:	b086      	sub	sp, #24
 8001726:	af00      	add	r7, sp, #0
 8001728:	4603      	mov	r3, r0
 800172a:	60b9      	str	r1, [r7, #8]
 800172c:	607a      	str	r2, [r7, #4]
 800172e:	73fb      	strb	r3, [r7, #15]
  uint32_t prioritygroup = 0x00U;
 8001730:	2300      	movs	r3, #0
 8001732:	617b      	str	r3, [r7, #20]
  
  /* Check the parameters */
  assert_param(IS_NVIC_SUB_PRIORITY(SubPriority));
  assert_param(IS_NVIC_PREEMPTION_PRIORITY(PreemptPriority));
  
  prioritygroup = NVIC_GetPriorityGrouping();
 8001734:	f7ff ff3e 	bl	80015b4 <__NVIC_GetPriorityGrouping>
 8001738:	6178      	str	r0, [r7, #20]
  
  NVIC_SetPriority(IRQn, NVIC_EncodePriority(prioritygroup, PreemptPriority, SubPriority));
 800173a:	687a      	ldr	r2, [r7, #4]
 800173c:	68b9      	ldr	r1, [r7, #8]
 800173e:	6978      	ldr	r0, [r7, #20]
 8001740:	f7ff ff8e 	bl	8001660 <NVIC_EncodePriority>
 8001744:	4602      	mov	r2, r0
 8001746:	f997 300f 	ldrsb.w	r3, [r7, #15]
 800174a:	4611      	mov	r1, r2
 800174c:	4618      	mov	r0, r3
 800174e:	f7ff ff5d 	bl	800160c <__NVIC_SetPriority>
}
 8001752:	bf00      	nop
 8001754:	3718      	adds	r7, #24
 8001756:	46bd      	mov	sp, r7
 8001758:	bd80      	pop	{r7, pc}

0800175a <HAL_NVIC_EnableIRQ>:
  *         This parameter can be an enumerator of IRQn_Type enumeration
  *         (For the complete STM32 Devices IRQ Channels list, please refer to the appropriate CMSIS device file (stm32f4xxxx.h))
  * @retval None
  */
void HAL_NVIC_EnableIRQ(IRQn_Type IRQn)
{
 800175a:	b580      	push	{r7, lr}
 800175c:	b082      	sub	sp, #8
 800175e:	af00      	add	r7, sp, #0
 8001760:	4603      	mov	r3, r0
 8001762:	71fb      	strb	r3, [r7, #7]
  /* Check the parameters */
  assert_param(IS_NVIC_DEVICE_IRQ(IRQn));
  
  /* Enable interrupt */
  NVIC_EnableIRQ(IRQn);
 8001764:	f997 3007 	ldrsb.w	r3, [r7, #7]
 8001768:	4618      	mov	r0, r3
 800176a:	f7ff ff31 	bl	80015d0 <__NVIC_EnableIRQ>
}
 800176e:	bf00      	nop
 8001770:	3708      	adds	r7, #8
 8001772:	46bd      	mov	sp, r7
 8001774:	bd80      	pop	{r7, pc}

08001776 <HAL_SYSTICK_Config>:
  * @param  TicksNumb Specifies the ticks Number of ticks between two interrupts.
  * @retval status:  - 0  Function succeeded.
  *                  - 1  Function failed.
  */
uint32_t HAL_SYSTICK_Config(uint32_t TicksNumb)
{
 8001776:	b580      	push	{r7, lr}
 8001778:	b082      	sub	sp, #8
 800177a:	af00      	add	r7, sp, #0
 800177c:	6078      	str	r0, [r7, #4]
   return SysTick_Config(TicksNumb);
 800177e:	6878      	ldr	r0, [r7, #4]
 8001780:	f7ff ffa2 	bl	80016c8 <SysTick_Config>
 8001784:	4603      	mov	r3, r0
}
 8001786:	4618      	mov	r0, r3
 8001788:	3708      	adds	r7, #8
 800178a:	46bd      	mov	sp, r7
 800178c:	bd80      	pop	{r7, pc}

0800178e <HAL_DMA_Abort>:
  *        and the Stream will be effectively disabled only after the transfer of
  *        this single data is finished.  
  * @retval HAL status
  */
HAL_StatusTypeDef HAL_DMA_Abort(DMA_HandleTypeDef *hdma)
{
 800178e:	b580      	push	{r7, lr}
 8001790:	b084      	sub	sp, #16
 8001792:	af00      	add	r7, sp, #0
 8001794:	6078      	str	r0, [r7, #4]
  /* calculate DMA base and stream number */
  DMA_Base_Registers *regs = (DMA_Base_Registers *)hdma->StreamBaseAddress;
 8001796:	687b      	ldr	r3, [r7, #4]
 8001798:	6d9b      	ldr	r3, [r3, #88]	@ 0x58
 800179a:	60fb      	str	r3, [r7, #12]
  
  uint32_t tickstart = HAL_GetTick();
 800179c:	f7ff feb6 	bl	800150c <HAL_GetTick>
 80017a0:	60b8      	str	r0, [r7, #8]
  
  if(hdma->State != HAL_DMA_STATE_BUSY)
 80017a2:	687b      	ldr	r3, [r7, #4]
 80017a4:	f893 3035 	ldrb.w	r3, [r3, #53]	@ 0x35
 80017a8:	b2db      	uxtb	r3, r3
 80017aa:	2b02      	cmp	r3, #2
 80017ac:	d008      	beq.n	80017c0 <HAL_DMA_Abort+0x32>
  {
    hdma->ErrorCode = HAL_DMA_ERROR_NO_XFER;
 80017ae:	687b      	ldr	r3, [r7, #4]
 80017b0:	2280      	movs	r2, #128	@ 0x80
 80017b2:	655a      	str	r2, [r3, #84]	@ 0x54
    
    /* Process Unlocked */
    __HAL_UNLOCK(hdma);
 80017b4:	687b      	ldr	r3, [r7, #4]
 80017b6:	2200      	movs	r2, #0
 80017b8:	f883 2034 	strb.w	r2, [r3, #52]	@ 0x34
    
    return HAL_ERROR;
 80017bc:	2301      	movs	r3, #1
 80017be:	e052      	b.n	8001866 <HAL_DMA_Abort+0xd8>
  }
  else
  {
    /* Disable all the transfer interrupts */
    hdma->Instance->CR  &= ~(DMA_IT_TC | DMA_IT_TE | DMA_IT_DME);
 80017c0:	687b      	ldr	r3, [r7, #4]
 80017c2:	681b      	ldr	r3, [r3, #0]
 80017c4:	681a      	ldr	r2, [r3, #0]
 80017c6:	687b      	ldr	r3, [r7, #4]
 80017c8:	681b      	ldr	r3, [r3, #0]
 80017ca:	f022 0216 	bic.w	r2, r2, #22
 80017ce:	601a      	str	r2, [r3, #0]
    hdma->Instance->FCR &= ~(DMA_IT_FE);
 80017d0:	687b      	ldr	r3, [r7, #4]
 80017d2:	681b      	ldr	r3, [r3, #0]
 80017d4:	695a      	ldr	r2, [r3, #20]
 80017d6:	687b      	ldr	r3, [r7, #4]
 80017d8:	681b      	ldr	r3, [r3, #0]
 80017da:	f022 0280 	bic.w	r2, r2, #128	@ 0x80
 80017de:	615a      	str	r2, [r3, #20]
    
    if((hdma->XferHalfCpltCallback != NULL) || (hdma->XferM1HalfCpltCallback != NULL))
 80017e0:	687b      	ldr	r3, [r7, #4]
 80017e2:	6c1b      	ldr	r3, [r3, #64]	@ 0x40
 80017e4:	2b00      	cmp	r3, #0
 80017e6:	d103      	bne.n	80017f0 <HAL_DMA_Abort+0x62>
 80017e8:	687b      	ldr	r3, [r7, #4]
 80017ea:	6c9b      	ldr	r3, [r3, #72]	@ 0x48
 80017ec:	2b00      	cmp	r3, #0
 80017ee:	d007      	beq.n	8001800 <HAL_DMA_Abort+0x72>
    {
      hdma->Instance->CR  &= ~(DMA_IT_HT);
 80017f0:	687b      	ldr	r3, [r7, #4]
 80017f2:	681b      	ldr	r3, [r3, #0]
 80017f4:	681a      	ldr	r2, [r3, #0]
 80017f6:	687b      	ldr	r3, [r7, #4]
 80017f8:	681b      	ldr	r3, [r3, #0]
 80017fa:	f022 0208 	bic.w	r2, r2, #8
 80017fe:	601a      	str	r2, [r3, #0]
    }
    
    /* Disable the stream */
    __HAL_DMA_DISABLE(hdma);
 8001800:	687b      	ldr	r3, [r7, #4]
 8001802:	681b      	ldr	r3, [r3, #0]
 8001804:	681a      	ldr	r2, [r3, #0]
 8001806:	687b      	ldr	r3, [r7, #4]
 8001808:	681b      	ldr	r3, [r3, #0]
 800180a:	f022 0201 	bic.w	r2, r2, #1
 800180e:	601a      	str	r2, [r3, #0]
    
    /* Check if the DMA Stream is effectively disabled */
    while((hdma->Instance->CR & DMA_SxCR_EN) != RESET)
 8001810:	e013      	b.n	800183a <HAL_DMA_Abort+0xac>
    {
      /* Check for the Timeout */
      if((HAL_GetTick() - tickstart ) > HAL_TIMEOUT_DMA_ABORT)
 8001812:	f7ff fe7b 	bl	800150c <HAL_GetTick>
 8001816:	4602      	mov	r2, r0
 8001818:	68bb      	ldr	r3, [r7, #8]
 800181a:	1ad3      	subs	r3, r2, r3
 800181c:	2b05      	cmp	r3, #5
 800181e:	d90c      	bls.n	800183a <HAL_DMA_Abort+0xac>
      {
        /* Update error code */
        hdma->ErrorCode = HAL_DMA_ERROR_TIMEOUT;
 8001820:	687b      	ldr	r3, [r7, #4]
 8001822:	2220      	movs	r2, #32
 8001824:	655a      	str	r2, [r3, #84]	@ 0x54
        
        /* Change the DMA state */
        hdma->State = HAL_DMA_STATE_TIMEOUT;
 8001826:	687b      	ldr	r3, [r7, #4]
 8001828:	2203      	movs	r2, #3
 800182a:	f883 2035 	strb.w	r2, [r3, #53]	@ 0x35
        
        /* Process Unlocked */
        __HAL_UNLOCK(hdma);
 800182e:	687b      	ldr	r3, [r7, #4]
 8001830:	2200      	movs	r2, #0
 8001832:	f883 2034 	strb.w	r2, [r3, #52]	@ 0x34
        
        return HAL_TIMEOUT;
 8001836:	2303      	movs	r3, #3
 8001838:	e015      	b.n	8001866 <HAL_DMA_Abort+0xd8>
    while((hdma->Instance->CR & DMA_SxCR_EN) != RESET)
 800183a:	687b      	ldr	r3, [r7, #4]
 800183c:	681b      	ldr	r3, [r3, #0]
 800183e:	681b      	ldr	r3, [r3, #0]
 8001840:	f003 0301 	and.w	r3, r3, #1
 8001844:	2b00      	cmp	r3, #0
 8001846:	d1e4      	bne.n	8001812 <HAL_DMA_Abort+0x84>
      }
    }
    
    /* Clear all interrupt flags at correct offset within the register */
    regs->IFCR = 0x3FU << hdma->StreamIndex;
 8001848:	687b      	ldr	r3, [r7, #4]
 800184a:	6ddb      	ldr	r3, [r3, #92]	@ 0x5c
 800184c:	223f      	movs	r2, #63	@ 0x3f
 800184e:	409a      	lsls	r2, r3
 8001850:	68fb      	ldr	r3, [r7, #12]
 8001852:	609a      	str	r2, [r3, #8]
    
    /* Change the DMA state*/
    hdma->State = HAL_DMA_STATE_READY;
 8001854:	687b      	ldr	r3, [r7, #4]
 8001856:	2201      	movs	r2, #1
 8001858:	f883 2035 	strb.w	r2, [r3, #53]	@ 0x35
    
    /* Process Unlocked */
    __HAL_UNLOCK(hdma);
 800185c:	687b      	ldr	r3, [r7, #4]
 800185e:	2200      	movs	r2, #0
 8001860:	f883 2034 	strb.w	r2, [r3, #52]	@ 0x34
  }
  return HAL_OK;
 8001864:	2300      	movs	r3, #0
}
 8001866:	4618      	mov	r0, r3
 8001868:	3710      	adds	r7, #16
 800186a:	46bd      	mov	sp, r7
 800186c:	bd80      	pop	{r7, pc}

0800186e <HAL_DMA_Abort_IT>:
  * @param  hdma   pointer to a DMA_HandleTypeDef structure that contains
  *                 the configuration information for the specified DMA Stream.
  * @retval HAL status
  */
HAL_StatusTypeDef HAL_DMA_Abort_IT(DMA_HandleTypeDef *hdma)
{
 800186e:	b480      	push	{r7}
 8001870:	b083      	sub	sp, #12
 8001872:	af00      	add	r7, sp, #0
 8001874:	6078      	str	r0, [r7, #4]
  if(hdma->State != HAL_DMA_STATE_BUSY)
 8001876:	687b      	ldr	r3, [r7, #4]
 8001878:	f893 3035 	ldrb.w	r3, [r3, #53]	@ 0x35
 800187c:	b2db      	uxtb	r3, r3
 800187e:	2b02      	cmp	r3, #2
 8001880:	d004      	beq.n	800188c <HAL_DMA_Abort_IT+0x1e>
  {
    hdma->ErrorCode = HAL_DMA_ERROR_NO_XFER;
 8001882:	687b      	ldr	r3, [r7, #4]
 8001884:	2280      	movs	r2, #128	@ 0x80
 8001886:	655a      	str	r2, [r3, #84]	@ 0x54
    return HAL_ERROR;
 8001888:	2301      	movs	r3, #1
 800188a:	e00c      	b.n	80018a6 <HAL_DMA_Abort_IT+0x38>
  }
  else
  {
    /* Set Abort State  */
    hdma->State = HAL_DMA_STATE_ABORT;
 800188c:	687b      	ldr	r3, [r7, #4]
 800188e:	2205      	movs	r2, #5
 8001890:	f883 2035 	strb.w	r2, [r3, #53]	@ 0x35
    
    /* Disable the stream */
    __HAL_DMA_DISABLE(hdma);
 8001894:	687b      	ldr	r3, [r7, #4]
 8001896:	681b      	ldr	r3, [r3, #0]
 8001898:	681a      	ldr	r2, [r3, #0]
 800189a:	687b      	ldr	r3, [r7, #4]
 800189c:	681b      	ldr	r3, [r3, #0]
 800189e:	f022 0201 	bic.w	r2, r2, #1
 80018a2:	601a      	str	r2, [r3, #0]
  }

  return HAL_OK;
 80018a4:	2300      	movs	r3, #0
}
 80018a6:	4618      	mov	r0, r3
 80018a8:	370c      	adds	r7, #12
 80018aa:	46bd      	mov	sp, r7
 80018ac:	f85d 7b04 	ldr.w	r7, [sp], #4
 80018b0:	4770      	bx	lr
	...

080018b4 <HAL_GPIO_Init>:
  * @param  GPIO_Init pointer to a GPIO_InitTypeDef structure that contains
  *         the configuration information for the specified GPIO peripheral.
  * @retval None
  */
void HAL_GPIO_Init(GPIO_TypeDef  *GPIOx, GPIO_InitTypeDef *GPIO_Init)
{
 80018b4:	b480      	push	{r7}
 80018b6:	b089      	sub	sp, #36	@ 0x24
 80018b8:	af00      	add	r7, sp, #0
 80018ba:	6078      	str	r0, [r7, #4]
 80018bc:	6039      	str	r1, [r7, #0]
  uint32_t position;
  uint32_t ioposition = 0x00U;
 80018be:	2300      	movs	r3, #0
 80018c0:	617b      	str	r3, [r7, #20]
  uint32_t iocurrent = 0x00U;
 80018c2:	2300      	movs	r3, #0
 80018c4:	613b      	str	r3, [r7, #16]
  uint32_t temp = 0x00U;
 80018c6:	2300      	movs	r3, #0
 80018c8:	61bb      	str	r3, [r7, #24]
  assert_param(IS_GPIO_ALL_INSTANCE(GPIOx));
  assert_param(IS_GPIO_PIN(GPIO_Init->Pin));
  assert_param(IS_GPIO_MODE(GPIO_Init->Mode));

  /* Configure the port pins */
  for(position = 0U; position < GPIO_NUMBER; position++)
 80018ca:	2300      	movs	r3, #0
 80018cc:	61fb      	str	r3, [r7, #28]
 80018ce:	e159      	b.n	8001b84 <HAL_GPIO_Init+0x2d0>
  {
    /* Get the IO position */
    ioposition = 0x01U << position;
 80018d0:	2201      	movs	r2, #1
 80018d2:	69fb      	ldr	r3, [r7, #28]
 80018d4:	fa02 f303 	lsl.w	r3, r2, r3
 80018d8:	617b      	str	r3, [r7, #20]
    /* Get the current IO position */
    iocurrent = (uint32_t)(GPIO_Init->Pin) & ioposition;
 80018da:	683b      	ldr	r3, [r7, #0]
 80018dc:	681b      	ldr	r3, [r3, #0]
 80018de:	697a      	ldr	r2, [r7, #20]
 80018e0:	4013      	ands	r3, r2
 80018e2:	613b      	str	r3, [r7, #16]

    if(iocurrent == ioposition)
 80018e4:	693a      	ldr	r2, [r7, #16]
 80018e6:	697b      	ldr	r3, [r7, #20]
 80018e8:	429a      	cmp	r2, r3
 80018ea:	f040 8148 	bne.w	8001b7e <HAL_GPIO_Init+0x2ca>
    {
      /*--------------------- GPIO Mode Configuration ------------------------*/
      /* In case of Output or Alternate function mode selection */
      if(((GPIO_Init->Mode & GPIO_MODE) == MODE_OUTPUT) || \
 80018ee:	683b      	ldr	r3, [r7, #0]
 80018f0:	685b      	ldr	r3, [r3, #4]
 80018f2:	f003 0303 	and.w	r3, r3, #3
 80018f6:	2b01      	cmp	r3, #1
 80018f8:	d005      	beq.n	8001906 <HAL_GPIO_Init+0x52>
          (GPIO_Init->Mode & GPIO_MODE) == MODE_AF)
 80018fa:	683b      	ldr	r3, [r7, #0]
 80018fc:	685b      	ldr	r3, [r3, #4]
 80018fe:	f003 0303 	and.w	r3, r3, #3
      if(((GPIO_Init->Mode & GPIO_MODE) == MODE_OUTPUT) || \
 8001902:	2b02      	cmp	r3, #2
 8001904:	d130      	bne.n	8001968 <HAL_GPIO_Init+0xb4>
      {
        /* Check the Speed parameter */
        assert_param(IS_GPIO_SPEED(GPIO_Init->Speed));
        /* Configure the IO Speed */
        temp = GPIOx->OSPEEDR; 
 8001906:	687b      	ldr	r3, [r7, #4]
 8001908:	689b      	ldr	r3, [r3, #8]
 800190a:	61bb      	str	r3, [r7, #24]
        temp &= ~(GPIO_OSPEEDER_OSPEEDR0 << (position * 2U));
 800190c:	69fb      	ldr	r3, [r7, #28]
 800190e:	005b      	lsls	r3, r3, #1
 8001910:	2203      	movs	r2, #3
 8001912:	fa02 f303 	lsl.w	r3, r2, r3
 8001916:	43db      	mvns	r3, r3
 8001918:	69ba      	ldr	r2, [r7, #24]
 800191a:	4013      	ands	r3, r2
 800191c:	61bb      	str	r3, [r7, #24]
        temp |= (GPIO_Init->Speed << (position * 2U));
 800191e:	683b      	ldr	r3, [r7, #0]
 8001920:	68da      	ldr	r2, [r3, #12]
 8001922:	69fb      	ldr	r3, [r7, #28]
 8001924:	005b      	lsls	r3, r3, #1
 8001926:	fa02 f303 	lsl.w	r3, r2, r3
 800192a:	69ba      	ldr	r2, [r7, #24]
 800192c:	4313      	orrs	r3, r2
 800192e:	61bb      	str	r3, [r7, #24]
        GPIOx->OSPEEDR = temp;
 8001930:	687b      	ldr	r3, [r7, #4]
 8001932:	69ba      	ldr	r2, [r7, #24]
 8001934:	609a      	str	r2, [r3, #8]

        /* Configure the IO Output Type */
        temp = GPIOx->OTYPER;
 8001936:	687b      	ldr	r3, [r7, #4]
 8001938:	685b      	ldr	r3, [r3, #4]
 800193a:	61bb      	str	r3, [r7, #24]
        temp &= ~(GPIO_OTYPER_OT_0 << position) ;
 800193c:	2201      	movs	r2, #1
 800193e:	69fb      	ldr	r3, [r7, #28]
 8001940:	fa02 f303 	lsl.w	r3, r2, r3
 8001944:	43db      	mvns	r3, r3
 8001946:	69ba      	ldr	r2, [r7, #24]
 8001948:	4013      	ands	r3, r2
 800194a:	61bb      	str	r3, [r7, #24]
        temp |= (((GPIO_Init->Mode & OUTPUT_TYPE) >> OUTPUT_TYPE_Pos) << position);
 800194c:	683b      	ldr	r3, [r7, #0]
 800194e:	685b      	ldr	r3, [r3, #4]
 8001950:	091b      	lsrs	r3, r3, #4
 8001952:	f003 0201 	and.w	r2, r3, #1
 8001956:	69fb      	ldr	r3, [r7, #28]
 8001958:	fa02 f303 	lsl.w	r3, r2, r3
 800195c:	69ba      	ldr	r2, [r7, #24]
 800195e:	4313      	orrs	r3, r2
 8001960:	61bb      	str	r3, [r7, #24]
        GPIOx->OTYPER = temp;
 8001962:	687b      	ldr	r3, [r7, #4]
 8001964:	69ba      	ldr	r2, [r7, #24]
 8001966:	605a      	str	r2, [r3, #4]
       }

      if((GPIO_Init->Mode & GPIO_MODE) != MODE_ANALOG)
 8001968:	683b      	ldr	r3, [r7, #0]
 800196a:	685b      	ldr	r3, [r3, #4]
 800196c:	f003 0303 	and.w	r3, r3, #3
 8001970:	2b03      	cmp	r3, #3
 8001972:	d017      	beq.n	80019a4 <HAL_GPIO_Init+0xf0>
      {
        /* Check the parameters */
        assert_param(IS_GPIO_PULL(GPIO_Init->Pull));
        
        /* Activate the Pull-up or Pull down resistor for the current IO */
        temp = GPIOx->PUPDR;
 8001974:	687b      	ldr	r3, [r7, #4]
 8001976:	68db      	ldr	r3, [r3, #12]
 8001978:	61bb      	str	r3, [r7, #24]
        temp &= ~(GPIO_PUPDR_PUPDR0 << (position * 2U));
 800197a:	69fb      	ldr	r3, [r7, #28]
 800197c:	005b      	lsls	r3, r3, #1
 800197e:	2203      	movs	r2, #3
 8001980:	fa02 f303 	lsl.w	r3, r2, r3
 8001984:	43db      	mvns	r3, r3
 8001986:	69ba      	ldr	r2, [r7, #24]
 8001988:	4013      	ands	r3, r2
 800198a:	61bb      	str	r3, [r7, #24]
        temp |= ((GPIO_Init->Pull) << (position * 2U));
 800198c:	683b      	ldr	r3, [r7, #0]
 800198e:	689a      	ldr	r2, [r3, #8]
 8001990:	69fb      	ldr	r3, [r7, #28]
 8001992:	005b      	lsls	r3, r3, #1
 8001994:	fa02 f303 	lsl.w	r3, r2, r3
 8001998:	69ba      	ldr	r2, [r7, #24]
 800199a:	4313      	orrs	r3, r2
 800199c:	61bb      	str	r3, [r7, #24]
        GPIOx->PUPDR = temp;
 800199e:	687b      	ldr	r3, [r7, #4]
 80019a0:	69ba      	ldr	r2, [r7, #24]
 80019a2:	60da      	str	r2, [r3, #12]
      }

      /* In case of Alternate function mode selection */
      if((GPIO_Init->Mode & GPIO_MODE) == MODE_AF)
 80019a4:	683b      	ldr	r3, [r7, #0]
 80019a6:	685b      	ldr	r3, [r3, #4]
 80019a8:	f003 0303 	and.w	r3, r3, #3
 80019ac:	2b02      	cmp	r3, #2
 80019ae:	d123      	bne.n	80019f8 <HAL_GPIO_Init+0x144>
      {
        /* Check the Alternate function parameter */
        assert_param(IS_GPIO_AF(GPIO_Init->Alternate));
        /* Configure Alternate function mapped with the current IO */
        temp = GPIOx->AFR[position >> 3U];
 80019b0:	69fb      	ldr	r3, [r7, #28]
 80019b2:	08da      	lsrs	r2, r3, #3
 80019b4:	687b      	ldr	r3, [r7, #4]
 80019b6:	3208      	adds	r2, #8
 80019b8:	f853 3022 	ldr.w	r3, [r3, r2, lsl #2]
 80019bc:	61bb      	str	r3, [r7, #24]
        temp &= ~(0xFU << ((uint32_t)(position & 0x07U) * 4U)) ;
 80019be:	69fb      	ldr	r3, [r7, #28]
 80019c0:	f003 0307 	and.w	r3, r3, #7
 80019c4:	009b      	lsls	r3, r3, #2
 80019c6:	220f      	movs	r2, #15
 80019c8:	fa02 f303 	lsl.w	r3, r2, r3
 80019cc:	43db      	mvns	r3, r3
 80019ce:	69ba      	ldr	r2, [r7, #24]
 80019d0:	4013      	ands	r3, r2
 80019d2:	61bb      	str	r3, [r7, #24]
        temp |= ((uint32_t)(GPIO_Init->Alternate) << (((uint32_t)position & 0x07U) * 4U));
 80019d4:	683b      	ldr	r3, [r7, #0]
 80019d6:	691a      	ldr	r2, [r3, #16]
 80019d8:	69fb      	ldr	r3, [r7, #28]
 80019da:	f003 0307 	and.w	r3, r3, #7
 80019de:	009b      	lsls	r3, r3, #2
 80019e0:	fa02 f303 	lsl.w	r3, r2, r3
 80019e4:	69ba      	ldr	r2, [r7, #24]
 80019e6:	4313      	orrs	r3, r2
 80019e8:	61bb      	str	r3, [r7, #24]
        GPIOx->AFR[position >> 3U] = temp;
 80019ea:	69fb      	ldr	r3, [r7, #28]
 80019ec:	08da      	lsrs	r2, r3, #3
 80019ee:	687b      	ldr	r3, [r7, #4]
 80019f0:	3208      	adds	r2, #8
 80019f2:	69b9      	ldr	r1, [r7, #24]
 80019f4:	f843 1022 	str.w	r1, [r3, r2, lsl #2]
      }

      /* Configure IO Direction mode (Input, Output, Alternate or Analog) */
      temp = GPIOx->MODER;
 80019f8:	687b      	ldr	r3, [r7, #4]
 80019fa:	681b      	ldr	r3, [r3, #0]
 80019fc:	61bb      	str	r3, [r7, #24]
      temp &= ~(GPIO_MODER_MODER0 << (position * 2U));
 80019fe:	69fb      	ldr	r3, [r7, #28]
 8001a00:	005b      	lsls	r3, r3, #1
 8001a02:	2203      	movs	r2, #3
 8001a04:	fa02 f303 	lsl.w	r3, r2, r3
 8001a08:	43db      	mvns	r3, r3
 8001a0a:	69ba      	ldr	r2, [r7, #24]
 8001a0c:	4013      	ands	r3, r2
 8001a0e:	61bb      	str	r3, [r7, #24]
      temp |= ((GPIO_Init->Mode & GPIO_MODE) << (position * 2U));
 8001a10:	683b      	ldr	r3, [r7, #0]
 8001a12:	685b      	ldr	r3, [r3, #4]
 8001a14:	f003 0203 	and.w	r2, r3, #3
 8001a18:	69fb      	ldr	r3, [r7, #28]
 8001a1a:	005b      	lsls	r3, r3, #1
 8001a1c:	fa02 f303 	lsl.w	r3, r2, r3
 8001a20:	69ba      	ldr	r2, [r7, #24]
 8001a22:	4313      	orrs	r3, r2
 8001a24:	61bb      	str	r3, [r7, #24]
      GPIOx->MODER = temp;
 8001a26:	687b      	ldr	r3, [r7, #4]
 8001a28:	69ba      	ldr	r2, [r7, #24]
 8001a2a:	601a      	str	r2, [r3, #0]

      /*--------------------- EXTI Mode Configuration ------------------------*/
      /* Configure the External Interrupt or event for the current IO */
      if((GPIO_Init->Mode & EXTI_MODE) != 0x00U)
 8001a2c:	683b      	ldr	r3, [r7, #0]
 8001a2e:	685b      	ldr	r3, [r3, #4]
 8001a30:	f403 3340 	and.w	r3, r3, #196608	@ 0x30000
 8001a34:	2b00      	cmp	r3, #0
 8001a36:	f000 80a2 	beq.w	8001b7e <HAL_GPIO_Init+0x2ca>
      {
        /* Enable SYSCFG Clock */
        __HAL_RCC_SYSCFG_CLK_ENABLE();
 8001a3a:	2300      	movs	r3, #0
 8001a3c:	60fb      	str	r3, [r7, #12]
 8001a3e:	4b57      	ldr	r3, [pc, #348]	@ (8001b9c <HAL_GPIO_Init+0x2e8>)
 8001a40:	6c5b      	ldr	r3, [r3, #68]	@ 0x44
 8001a42:	4a56      	ldr	r2, [pc, #344]	@ (8001b9c <HAL_GPIO_Init+0x2e8>)
 8001a44:	f443 4380 	orr.w	r3, r3, #16384	@ 0x4000
 8001a48:	6453      	str	r3, [r2, #68]	@ 0x44
 8001a4a:	4b54      	ldr	r3, [pc, #336]	@ (8001b9c <HAL_GPIO_Init+0x2e8>)
 8001a4c:	6c5b      	ldr	r3, [r3, #68]	@ 0x44
 8001a4e:	f403 4380 	and.w	r3, r3, #16384	@ 0x4000
 8001a52:	60fb      	str	r3, [r7, #12]
 8001a54:	68fb      	ldr	r3, [r7, #12]

        temp = SYSCFG->EXTICR[position >> 2U];
 8001a56:	4a52      	ldr	r2, [pc, #328]	@ (8001ba0 <HAL_GPIO_Init+0x2ec>)
 8001a58:	69fb      	ldr	r3, [r7, #28]
 8001a5a:	089b      	lsrs	r3, r3, #2
 8001a5c:	3302      	adds	r3, #2
 8001a5e:	f852 3023 	ldr.w	r3, [r2, r3, lsl #2]
 8001a62:	61bb      	str	r3, [r7, #24]
        temp &= ~(0x0FU << (4U * (position & 0x03U)));
 8001a64:	69fb      	ldr	r3, [r7, #28]
 8001a66:	f003 0303 	and.w	r3, r3, #3
 8001a6a:	009b      	lsls	r3, r3, #2
 8001a6c:	220f      	movs	r2, #15
 8001a6e:	fa02 f303 	lsl.w	r3, r2, r3
 8001a72:	43db      	mvns	r3, r3
 8001a74:	69ba      	ldr	r2, [r7, #24]
 8001a76:	4013      	ands	r3, r2
 8001a78:	61bb      	str	r3, [r7, #24]
        temp |= ((uint32_t)(GPIO_GET_INDEX(GPIOx)) << (4U * (position & 0x03U)));
 8001a7a:	687b      	ldr	r3, [r7, #4]
 8001a7c:	4a49      	ldr	r2, [pc, #292]	@ (8001ba4 <HAL_GPIO_Init+0x2f0>)
 8001a7e:	4293      	cmp	r3, r2
 8001a80:	d019      	beq.n	8001ab6 <HAL_GPIO_Init+0x202>
 8001a82:	687b      	ldr	r3, [r7, #4]
 8001a84:	4a48      	ldr	r2, [pc, #288]	@ (8001ba8 <HAL_GPIO_Init+0x2f4>)
 8001a86:	4293      	cmp	r3, r2
 8001a88:	d013      	beq.n	8001ab2 <HAL_GPIO_Init+0x1fe>
 8001a8a:	687b      	ldr	r3, [r7, #4]
 8001a8c:	4a47      	ldr	r2, [pc, #284]	@ (8001bac <HAL_GPIO_Init+0x2f8>)
 8001a8e:	4293      	cmp	r3, r2
 8001a90:	d00d      	beq.n	8001aae <HAL_GPIO_Init+0x1fa>
 8001a92:	687b      	ldr	r3, [r7, #4]
 8001a94:	4a46      	ldr	r2, [pc, #280]	@ (8001bb0 <HAL_GPIO_Init+0x2fc>)
 8001a96:	4293      	cmp	r3, r2
 8001a98:	d007      	beq.n	8001aaa <HAL_GPIO_Init+0x1f6>
 8001a9a:	687b      	ldr	r3, [r7, #4]
 8001a9c:	4a45      	ldr	r2, [pc, #276]	@ (8001bb4 <HAL_GPIO_Init+0x300>)
 8001a9e:	4293      	cmp	r3, r2
 8001aa0:	d101      	bne.n	8001aa6 <HAL_GPIO_Init+0x1f2>
 8001aa2:	2304      	movs	r3, #4
 8001aa4:	e008      	b.n	8001ab8 <HAL_GPIO_Init+0x204>
 8001aa6:	2307      	movs	r3, #7
 8001aa8:	e006      	b.n	8001ab8 <HAL_GPIO_Init+0x204>
 8001aaa:	2303      	movs	r3, #3
 8001aac:	e004      	b.n	8001ab8 <HAL_GPIO_Init+0x204>
 8001aae:	2302      	movs	r3, #2
 8001ab0:	e002      	b.n	8001ab8 <HAL_GPIO_Init+0x204>
 8001ab2:	2301      	movs	r3, #1
 8001ab4:	e000      	b.n	8001ab8 <HAL_GPIO_Init+0x204>
 8001ab6:	2300      	movs	r3, #0
 8001ab8:	69fa      	ldr	r2, [r7, #28]
 8001aba:	f002 0203 	and.w	r2, r2, #3
 8001abe:	0092      	lsls	r2, r2, #2
 8001ac0:	4093      	lsls	r3, r2
 8001ac2:	69ba      	ldr	r2, [r7, #24]
 8001ac4:	4313      	orrs	r3, r2
 8001ac6:	61bb      	str	r3, [r7, #24]
        SYSCFG->EXTICR[position >> 2U] = temp;
 8001ac8:	4935      	ldr	r1, [pc, #212]	@ (8001ba0 <HAL_GPIO_Init+0x2ec>)
 8001aca:	69fb      	ldr	r3, [r7, #28]
 8001acc:	089b      	lsrs	r3, r3, #2
 8001ace:	3302      	adds	r3, #2
 8001ad0:	69ba      	ldr	r2, [r7, #24]
 8001ad2:	f841 2023 	str.w	r2, [r1, r3, lsl #2]

        /* Clear Rising Falling edge configuration */
        temp = EXTI->RTSR;
 8001ad6:	4b38      	ldr	r3, [pc, #224]	@ (8001bb8 <HAL_GPIO_Init+0x304>)
 8001ad8:	689b      	ldr	r3, [r3, #8]
 8001ada:	61bb      	str	r3, [r7, #24]
        temp &= ~((uint32_t)iocurrent);
 8001adc:	693b      	ldr	r3, [r7, #16]
 8001ade:	43db      	mvns	r3, r3
 8001ae0:	69ba      	ldr	r2, [r7, #24]
 8001ae2:	4013      	ands	r3, r2
 8001ae4:	61bb      	str	r3, [r7, #24]
        if((GPIO_Init->Mode & TRIGGER_RISING) != 0x00U)
 8001ae6:	683b      	ldr	r3, [r7, #0]
 8001ae8:	685b      	ldr	r3, [r3, #4]
 8001aea:	f403 1380 	and.w	r3, r3, #1048576	@ 0x100000
 8001aee:	2b00      	cmp	r3, #0
 8001af0:	d003      	beq.n	8001afa <HAL_GPIO_Init+0x246>
        {
          temp |= iocurrent;
 8001af2:	69ba      	ldr	r2, [r7, #24]
 8001af4:	693b      	ldr	r3, [r7, #16]
 8001af6:	4313      	orrs	r3, r2
 8001af8:	61bb      	str	r3, [r7, #24]
        }
        EXTI->RTSR = temp;
 8001afa:	4a2f      	ldr	r2, [pc, #188]	@ (8001bb8 <HAL_GPIO_Init+0x304>)
 8001afc:	69bb      	ldr	r3, [r7, #24]
 8001afe:	6093      	str	r3, [r2, #8]

        temp = EXTI->FTSR;
 8001b00:	4b2d      	ldr	r3, [pc, #180]	@ (8001bb8 <HAL_GPIO_Init+0x304>)
 8001b02:	68db      	ldr	r3, [r3, #12]
 8001b04:	61bb      	str	r3, [r7, #24]
        temp &= ~((uint32_t)iocurrent);
 8001b06:	693b      	ldr	r3, [r7, #16]
 8001b08:	43db      	mvns	r3, r3
 8001b0a:	69ba      	ldr	r2, [r7, #24]
 8001b0c:	4013      	ands	r3, r2
 8001b0e:	61bb      	str	r3, [r7, #24]
        if((GPIO_Init->Mode & TRIGGER_FALLING) != 0x00U)
 8001b10:	683b      	ldr	r3, [r7, #0]
 8001b12:	685b      	ldr	r3, [r3, #4]
 8001b14:	f403 1300 	and.w	r3, r3, #2097152	@ 0x200000
 8001b18:	2b00      	cmp	r3, #0
 8001b1a:	d003      	beq.n	8001b24 <HAL_GPIO_Init+0x270>
        {
          temp |= iocurrent;
 8001b1c:	69ba      	ldr	r2, [r7, #24]
 8001b1e:	693b      	ldr	r3, [r7, #16]
 8001b20:	4313      	orrs	r3, r2
 8001b22:	61bb      	str	r3, [r7, #24]
        }
        EXTI->FTSR = temp;
 8001b24:	4a24      	ldr	r2, [pc, #144]	@ (8001bb8 <HAL_GPIO_Init+0x304>)
 8001b26:	69bb      	ldr	r3, [r7, #24]
 8001b28:	60d3      	str	r3, [r2, #12]

        temp = EXTI->EMR;
 8001b2a:	4b23      	ldr	r3, [pc, #140]	@ (8001bb8 <HAL_GPIO_Init+0x304>)
 8001b2c:	685b      	ldr	r3, [r3, #4]
 8001b2e:	61bb      	str	r3, [r7, #24]
        temp &= ~((uint32_t)iocurrent);
 8001b30:	693b      	ldr	r3, [r7, #16]
 8001b32:	43db      	mvns	r3, r3
 8001b34:	69ba      	ldr	r2, [r7, #24]
 8001b36:	4013      	ands	r3, r2
 8001b38:	61bb      	str	r3, [r7, #24]
        if((GPIO_Init->Mode & EXTI_EVT) != 0x00U)
 8001b3a:	683b      	ldr	r3, [r7, #0]
 8001b3c:	685b      	ldr	r3, [r3, #4]
 8001b3e:	f403 3300 	and.w	r3, r3, #131072	@ 0x20000
 8001b42:	2b00      	cmp	r3, #0
 8001b44:	d003      	beq.n	8001b4e <HAL_GPIO_Init+0x29a>
        {
          temp |= iocurrent;
 8001b46:	69ba      	ldr	r2, [r7, #24]
 8001b48:	693b      	ldr	r3, [r7, #16]
 8001b4a:	4313      	orrs	r3, r2
 8001b4c:	61bb      	str	r3, [r7, #24]
        }
        EXTI->EMR = temp;
 8001b4e:	4a1a      	ldr	r2, [pc, #104]	@ (8001bb8 <HAL_GPIO_Init+0x304>)
 8001b50:	69bb      	ldr	r3, [r7, #24]
 8001b52:	6053      	str	r3, [r2, #4]

        /* Clear EXTI line configuration */
        temp = EXTI->IMR;
 8001b54:	4b18      	ldr	r3, [pc, #96]	@ (8001bb8 <HAL_GPIO_Init+0x304>)
 8001b56:	681b      	ldr	r3, [r3, #0]
 8001b58:	61bb      	str	r3, [r7, #24]
        temp &= ~((uint32_t)iocurrent);
 8001b5a:	693b      	ldr	r3, [r7, #16]
 8001b5c:	43db      	mvns	r3, r3
 8001b5e:	69ba      	ldr	r2, [r7, #24]
 8001b60:	4013      	ands	r3, r2
 8001b62:	61bb      	str	r3, [r7, #24]
        if((GPIO_Init->Mode & EXTI_IT) != 0x00U)
 8001b64:	683b      	ldr	r3, [r7, #0]
 8001b66:	685b      	ldr	r3, [r3, #4]
 8001b68:	f403 3380 	and.w	r3, r3, #65536	@ 0x10000
 8001b6c:	2b00      	cmp	r3, #0
 8001b6e:	d003      	beq.n	8001b78 <HAL_GPIO_Init+0x2c4>
        {
          temp |= iocurrent;
 8001b70:	69ba      	ldr	r2, [r7, #24]
 8001b72:	693b      	ldr	r3, [r7, #16]
 8001b74:	4313      	orrs	r3, r2
 8001b76:	61bb      	str	r3, [r7, #24]
        }
        EXTI->IMR = temp;
 8001b78:	4a0f      	ldr	r2, [pc, #60]	@ (8001bb8 <HAL_GPIO_Init+0x304>)
 8001b7a:	69bb      	ldr	r3, [r7, #24]
 8001b7c:	6013      	str	r3, [r2, #0]
  for(position = 0U; position < GPIO_NUMBER; position++)
 8001b7e:	69fb      	ldr	r3, [r7, #28]
 8001b80:	3301      	adds	r3, #1
 8001b82:	61fb      	str	r3, [r7, #28]
 8001b84:	69fb      	ldr	r3, [r7, #28]
 8001b86:	2b0f      	cmp	r3, #15
 8001b88:	f67f aea2 	bls.w	80018d0 <HAL_GPIO_Init+0x1c>
      }
    }
  }
}
 8001b8c:	bf00      	nop
 8001b8e:	bf00      	nop
 8001b90:	3724      	adds	r7, #36	@ 0x24
 8001b92:	46bd      	mov	sp, r7
 8001b94:	f85d 7b04 	ldr.w	r7, [sp], #4
 8001b98:	4770      	bx	lr
 8001b9a:	bf00      	nop
 8001b9c:	40023800 	.word	0x40023800
 8001ba0:	40013800 	.word	0x40013800
 8001ba4:	40020000 	.word	0x40020000
 8001ba8:	40020400 	.word	0x40020400
 8001bac:	40020800 	.word	0x40020800
 8001bb0:	40020c00 	.word	0x40020c00
 8001bb4:	40021000 	.word	0x40021000
 8001bb8:	40013c00 	.word	0x40013c00

08001bbc <HAL_GPIO_WritePin>:
  *            @arg GPIO_PIN_RESET: to clear the port pin
  *            @arg GPIO_PIN_SET: to set the port pin
  * @retval None
  */
void HAL_GPIO_WritePin(GPIO_TypeDef* GPIOx, uint16_t GPIO_Pin, GPIO_PinState PinState)
{
 8001bbc:	b480      	push	{r7}
 8001bbe:	b083      	sub	sp, #12
 8001bc0:	af00      	add	r7, sp, #0
 8001bc2:	6078      	str	r0, [r7, #4]
 8001bc4:	460b      	mov	r3, r1
 8001bc6:	807b      	strh	r3, [r7, #2]
 8001bc8:	4613      	mov	r3, r2
 8001bca:	707b      	strb	r3, [r7, #1]
  /* Check the parameters */
  assert_param(IS_GPIO_PIN(GPIO_Pin));
  assert_param(IS_GPIO_PIN_ACTION(PinState));

  if(PinState != GPIO_PIN_RESET)
 8001bcc:	787b      	ldrb	r3, [r7, #1]
 8001bce:	2b00      	cmp	r3, #0
 8001bd0:	d003      	beq.n	8001bda <HAL_GPIO_WritePin+0x1e>
  {
    GPIOx->BSRR = GPIO_Pin;
 8001bd2:	887a      	ldrh	r2, [r7, #2]
 8001bd4:	687b      	ldr	r3, [r7, #4]
 8001bd6:	619a      	str	r2, [r3, #24]
  }
  else
  {
    GPIOx->BSRR = (uint32_t)GPIO_Pin << 16U;
  }
}
 8001bd8:	e003      	b.n	8001be2 <HAL_GPIO_WritePin+0x26>
    GPIOx->BSRR = (uint32_t)GPIO_Pin << 16U;
 8001bda:	887b      	ldrh	r3, [r7, #2]
 8001bdc:	041a      	lsls	r2, r3, #16
 8001bde:	687b      	ldr	r3, [r7, #4]
 8001be0:	619a      	str	r2, [r3, #24]
}
 8001be2:	bf00      	nop
 8001be4:	370c      	adds	r7, #12
 8001be6:	46bd      	mov	sp, r7
 8001be8:	f85d 7b04 	ldr.w	r7, [sp], #4
 8001bec:	4770      	bx	lr
	...

08001bf0 <HAL_RCC_OscConfig>:
  *         supported by this API. User should request a transition to HSE Off
  *         first and then HSE On or HSE Bypass.
  * @retval HAL status
  */
__weak HAL_StatusTypeDef HAL_RCC_OscConfig(RCC_OscInitTypeDef  *RCC_OscInitStruct)
{
 8001bf0:	b580      	push	{r7, lr}
 8001bf2:	b086      	sub	sp, #24
 8001bf4:	af00      	add	r7, sp, #0
 8001bf6:	6078      	str	r0, [r7, #4]
  uint32_t tickstart, pll_config;

  /* Check Null pointer */
  if(RCC_OscInitStruct == NULL)
 8001bf8:	687b      	ldr	r3, [r7, #4]
 8001bfa:	2b00      	cmp	r3, #0
 8001bfc:	d101      	bne.n	8001c02 <HAL_RCC_OscConfig+0x12>
  {
    return HAL_ERROR;
 8001bfe:	2301      	movs	r3, #1
 8001c00:	e267      	b.n	80020d2 <HAL_RCC_OscConfig+0x4e2>
  }

  /* Check the parameters */
  assert_param(IS_RCC_OSCILLATORTYPE(RCC_OscInitStruct->OscillatorType));
  /*------------------------------- HSE Configuration ------------------------*/
  if(((RCC_OscInitStruct->OscillatorType) & RCC_OSCILLATORTYPE_HSE) == RCC_OSCILLATORTYPE_HSE)
 8001c02:	687b      	ldr	r3, [r7, #4]
 8001c04:	681b      	ldr	r3, [r3, #0]
 8001c06:	f003 0301 	and.w	r3, r3, #1
 8001c0a:	2b00      	cmp	r3, #0
 8001c0c:	d075      	beq.n	8001cfa <HAL_RCC_OscConfig+0x10a>
  {
    /* Check the parameters */
    assert_param(IS_RCC_HSE(RCC_OscInitStruct->HSEState));
    /* When the HSE is used as system clock or clock source for PLL in these cases HSE will not disabled */
    if((__HAL_RCC_GET_SYSCLK_SOURCE() == RCC_CFGR_SWS_HSE) ||\
 8001c0e:	4b88      	ldr	r3, [pc, #544]	@ (8001e30 <HAL_RCC_OscConfig+0x240>)
 8001c10:	689b      	ldr	r3, [r3, #8]
 8001c12:	f003 030c 	and.w	r3, r3, #12
 8001c16:	2b04      	cmp	r3, #4
 8001c18:	d00c      	beq.n	8001c34 <HAL_RCC_OscConfig+0x44>
      ((__HAL_RCC_GET_SYSCLK_SOURCE() == RCC_CFGR_SWS_PLL) && ((RCC->PLLCFGR & RCC_PLLCFGR_PLLSRC) == RCC_PLLCFGR_PLLSRC_HSE)))
 8001c1a:	4b85      	ldr	r3, [pc, #532]	@ (8001e30 <HAL_RCC_OscConfig+0x240>)
 8001c1c:	689b      	ldr	r3, [r3, #8]
 8001c1e:	f003 030c 	and.w	r3, r3, #12
    if((__HAL_RCC_GET_SYSCLK_SOURCE() == RCC_CFGR_SWS_HSE) ||\
 8001c22:	2b08      	cmp	r3, #8
 8001c24:	d112      	bne.n	8001c4c <HAL_RCC_OscConfig+0x5c>
      ((__HAL_RCC_GET_SYSCLK_SOURCE() == RCC_CFGR_SWS_PLL) && ((RCC->PLLCFGR & RCC_PLLCFGR_PLLSRC) == RCC_PLLCFGR_PLLSRC_HSE)))
 8001c26:	4b82      	ldr	r3, [pc, #520]	@ (8001e30 <HAL_RCC_OscConfig+0x240>)
 8001c28:	685b      	ldr	r3, [r3, #4]
 8001c2a:	f403 0380 	and.w	r3, r3, #4194304	@ 0x400000
 8001c2e:	f5b3 0f80 	cmp.w	r3, #4194304	@ 0x400000
 8001c32:	d10b      	bne.n	8001c4c <HAL_RCC_OscConfig+0x5c>
    {
      if((__HAL_RCC_GET_FLAG(RCC_FLAG_HSERDY) != RESET) && (RCC_OscInitStruct->HSEState == RCC_HSE_OFF))
 8001c34:	4b7e      	ldr	r3, [pc, #504]	@ (8001e30 <HAL_RCC_OscConfig+0x240>)
 8001c36:	681b      	ldr	r3, [r3, #0]
 8001c38:	f403 3300 	and.w	r3, r3, #131072	@ 0x20000
 8001c3c:	2b00      	cmp	r3, #0
 8001c3e:	d05b      	beq.n	8001cf8 <HAL_RCC_OscConfig+0x108>
 8001c40:	687b      	ldr	r3, [r7, #4]
 8001c42:	685b      	ldr	r3, [r3, #4]
 8001c44:	2b00      	cmp	r3, #0
 8001c46:	d157      	bne.n	8001cf8 <HAL_RCC_OscConfig+0x108>
      {
        return HAL_ERROR;
 8001c48:	2301      	movs	r3, #1
 8001c4a:	e242      	b.n	80020d2 <HAL_RCC_OscConfig+0x4e2>
      }
    }
    else
    {
      /* Set the new HSE configuration ---------------------------------------*/
      __HAL_RCC_HSE_CONFIG(RCC_OscInitStruct->HSEState);
 8001c4c:	687b      	ldr	r3, [r7, #4]
 8001c4e:	685b      	ldr	r3, [r3, #4]
 8001c50:	f5b3 3f80 	cmp.w	r3, #65536	@ 0x10000
 8001c54:	d106      	bne.n	8001c64 <HAL_RCC_OscConfig+0x74>
 8001c56:	4b76      	ldr	r3, [pc, #472]	@ (8001e30 <HAL_RCC_OscConfig+0x240>)
 8001c58:	681b      	ldr	r3, [r3, #0]
 8001c5a:	4a75      	ldr	r2, [pc, #468]	@ (8001e30 <HAL_RCC_OscConfig+0x240>)
 8001c5c:	f443 3380 	orr.w	r3, r3, #65536	@ 0x10000
 8001c60:	6013      	str	r3, [r2, #0]
 8001c62:	e01d      	b.n	8001ca0 <HAL_RCC_OscConfig+0xb0>
 8001c64:	687b      	ldr	r3, [r7, #4]
 8001c66:	685b      	ldr	r3, [r3, #4]
 8001c68:	f5b3 2fa0 	cmp.w	r3, #327680	@ 0x50000
 8001c6c:	d10c      	bne.n	8001c88 <HAL_RCC_OscConfig+0x98>
 8001c6e:	4b70      	ldr	r3, [pc, #448]	@ (8001e30 <HAL_RCC_OscConfig+0x240>)
 8001c70:	681b      	ldr	r3, [r3, #0]
 8001c72:	4a6f      	ldr	r2, [pc, #444]	@ (8001e30 <HAL_RCC_OscConfig+0x240>)
 8001c74:	f443 2380 	orr.w	r3, r3, #262144	@ 0x40000
 8001c78:	6013      	str	r3, [r2, #0]
 8001c7a:	4b6d      	ldr	r3, [pc, #436]	@ (8001e30 <HAL_RCC_OscConfig+0x240>)
 8001c7c:	681b      	ldr	r3, [r3, #0]
 8001c7e:	4a6c      	ldr	r2, [pc, #432]	@ (8001e30 <HAL_RCC_OscConfig+0x240>)
 8001c80:	f443 3380 	orr.w	r3, r3, #65536	@ 0x10000
 8001c84:	6013      	str	r3, [r2, #0]
 8001c86:	e00b      	b.n	8001ca0 <HAL_RCC_OscConfig+0xb0>
 8001c88:	4b69      	ldr	r3, [pc, #420]	@ (8001e30 <HAL_RCC_OscConfig+0x240>)
 8001c8a:	681b      	ldr	r3, [r3, #0]
 8001c8c:	4a68      	ldr	r2, [pc, #416]	@ (8001e30 <HAL_RCC_OscConfig+0x240>)
 8001c8e:	f423 3380 	bic.w	r3, r3, #65536	@ 0x10000
 8001c92:	6013      	str	r3, [r2, #0]
 8001c94:	4b66      	ldr	r3, [pc, #408]	@ (8001e30 <HAL_RCC_OscConfig+0x240>)
 8001c96:	681b      	ldr	r3, [r3, #0]
 8001c98:	4a65      	ldr	r2, [pc, #404]	@ (8001e30 <HAL_RCC_OscConfig+0x240>)
 8001c9a:	f423 2380 	bic.w	r3, r3, #262144	@ 0x40000
 8001c9e:	6013      	str	r3, [r2, #0]

      /* Check the HSE State */
      if((RCC_OscInitStruct->HSEState) != RCC_HSE_OFF)
 8001ca0:	687b      	ldr	r3, [r7, #4]
 8001ca2:	685b      	ldr	r3, [r3, #4]
 8001ca4:	2b00      	cmp	r3, #0
 8001ca6:	d013      	beq.n	8001cd0 <HAL_RCC_OscConfig+0xe0>
      {
        /* Get Start Tick */
        tickstart = HAL_GetTick();
 8001ca8:	f7ff fc30 	bl	800150c <HAL_GetTick>
 8001cac:	6138      	str	r0, [r7, #16]

        /* Wait till HSE is ready */
        while(__HAL_RCC_GET_FLAG(RCC_FLAG_HSERDY) == RESET)
 8001cae:	e008      	b.n	8001cc2 <HAL_RCC_OscConfig+0xd2>
        {
          if((HAL_GetTick() - tickstart ) > HSE_TIMEOUT_VALUE)
 8001cb0:	f7ff fc2c 	bl	800150c <HAL_GetTick>
 8001cb4:	4602      	mov	r2, r0
 8001cb6:	693b      	ldr	r3, [r7, #16]
 8001cb8:	1ad3      	subs	r3, r2, r3
 8001cba:	2b64      	cmp	r3, #100	@ 0x64
 8001cbc:	d901      	bls.n	8001cc2 <HAL_RCC_OscConfig+0xd2>
          {
            return HAL_TIMEOUT;
 8001cbe:	2303      	movs	r3, #3
 8001cc0:	e207      	b.n	80020d2 <HAL_RCC_OscConfig+0x4e2>
        while(__HAL_RCC_GET_FLAG(RCC_FLAG_HSERDY) == RESET)
 8001cc2:	4b5b      	ldr	r3, [pc, #364]	@ (8001e30 <HAL_RCC_OscConfig+0x240>)
 8001cc4:	681b      	ldr	r3, [r3, #0]
 8001cc6:	f403 3300 	and.w	r3, r3, #131072	@ 0x20000
 8001cca:	2b00      	cmp	r3, #0
 8001ccc:	d0f0      	beq.n	8001cb0 <HAL_RCC_OscConfig+0xc0>
 8001cce:	e014      	b.n	8001cfa <HAL_RCC_OscConfig+0x10a>
        }
      }
      else
      {
        /* Get Start Tick */
        tickstart = HAL_GetTick();
 8001cd0:	f7ff fc1c 	bl	800150c <HAL_GetTick>
 8001cd4:	6138      	str	r0, [r7, #16]

        /* Wait till HSE is bypassed or disabled */
        while(__HAL_RCC_GET_FLAG(RCC_FLAG_HSERDY) != RESET)
 8001cd6:	e008      	b.n	8001cea <HAL_RCC_OscConfig+0xfa>
        {
          if((HAL_GetTick() - tickstart ) > HSE_TIMEOUT_VALUE)
 8001cd8:	f7ff fc18 	bl	800150c <HAL_GetTick>
 8001cdc:	4602      	mov	r2, r0
 8001cde:	693b      	ldr	r3, [r7, #16]
 8001ce0:	1ad3      	subs	r3, r2, r3
 8001ce2:	2b64      	cmp	r3, #100	@ 0x64
 8001ce4:	d901      	bls.n	8001cea <HAL_RCC_OscConfig+0xfa>
          {
            return HAL_TIMEOUT;
 8001ce6:	2303      	movs	r3, #3
 8001ce8:	e1f3      	b.n	80020d2 <HAL_RCC_OscConfig+0x4e2>
        while(__HAL_RCC_GET_FLAG(RCC_FLAG_HSERDY) != RESET)
 8001cea:	4b51      	ldr	r3, [pc, #324]	@ (8001e30 <HAL_RCC_OscConfig+0x240>)
 8001cec:	681b      	ldr	r3, [r3, #0]
 8001cee:	f403 3300 	and.w	r3, r3, #131072	@ 0x20000
 8001cf2:	2b00      	cmp	r3, #0
 8001cf4:	d1f0      	bne.n	8001cd8 <HAL_RCC_OscConfig+0xe8>
 8001cf6:	e000      	b.n	8001cfa <HAL_RCC_OscConfig+0x10a>
      if((__HAL_RCC_GET_FLAG(RCC_FLAG_HSERDY) != RESET) && (RCC_OscInitStruct->HSEState == RCC_HSE_OFF))
 8001cf8:	bf00      	nop
        }
      }
    }
  }
  /*----------------------------- HSI Configuration --------------------------*/
  if(((RCC_OscInitStruct->OscillatorType) & RCC_OSCILLATORTYPE_HSI) == RCC_OSCILLATORTYPE_HSI)
 8001cfa:	687b      	ldr	r3, [r7, #4]
 8001cfc:	681b      	ldr	r3, [r3, #0]
 8001cfe:	f003 0302 	and.w	r3, r3, #2
 8001d02:	2b00      	cmp	r3, #0
 8001d04:	d063      	beq.n	8001dce <HAL_RCC_OscConfig+0x1de>
    /* Check the parameters */
    assert_param(IS_RCC_HSI(RCC_OscInitStruct->HSIState));
    assert_param(IS_RCC_CALIBRATION_VALUE(RCC_OscInitStruct->HSICalibrationValue));

    /* Check if HSI is used as system clock or as PLL source when PLL is selected as system clock */
    if((__HAL_RCC_GET_SYSCLK_SOURCE() == RCC_CFGR_SWS_HSI) ||\
 8001d06:	4b4a      	ldr	r3, [pc, #296]	@ (8001e30 <HAL_RCC_OscConfig+0x240>)
 8001d08:	689b      	ldr	r3, [r3, #8]
 8001d0a:	f003 030c 	and.w	r3, r3, #12
 8001d0e:	2b00      	cmp	r3, #0
 8001d10:	d00b      	beq.n	8001d2a <HAL_RCC_OscConfig+0x13a>
      ((__HAL_RCC_GET_SYSCLK_SOURCE() == RCC_CFGR_SWS_PLL) && ((RCC->PLLCFGR & RCC_PLLCFGR_PLLSRC) == RCC_PLLCFGR_PLLSRC_HSI)))
 8001d12:	4b47      	ldr	r3, [pc, #284]	@ (8001e30 <HAL_RCC_OscConfig+0x240>)
 8001d14:	689b      	ldr	r3, [r3, #8]
 8001d16:	f003 030c 	and.w	r3, r3, #12
    if((__HAL_RCC_GET_SYSCLK_SOURCE() == RCC_CFGR_SWS_HSI) ||\
 8001d1a:	2b08      	cmp	r3, #8
 8001d1c:	d11c      	bne.n	8001d58 <HAL_RCC_OscConfig+0x168>
      ((__HAL_RCC_GET_SYSCLK_SOURCE() == RCC_CFGR_SWS_PLL) && ((RCC->PLLCFGR & RCC_PLLCFGR_PLLSRC) == RCC_PLLCFGR_PLLSRC_HSI)))
 8001d1e:	4b44      	ldr	r3, [pc, #272]	@ (8001e30 <HAL_RCC_OscConfig+0x240>)
 8001d20:	685b      	ldr	r3, [r3, #4]
 8001d22:	f403 0380 	and.w	r3, r3, #4194304	@ 0x400000
 8001d26:	2b00      	cmp	r3, #0
 8001d28:	d116      	bne.n	8001d58 <HAL_RCC_OscConfig+0x168>
    {
      /* When HSI is used as system clock it will not disabled */
      if((__HAL_RCC_GET_FLAG(RCC_FLAG_HSIRDY) != RESET) && (RCC_OscInitStruct->HSIState != RCC_HSI_ON))
 8001d2a:	4b41      	ldr	r3, [pc, #260]	@ (8001e30 <HAL_RCC_OscConfig+0x240>)
 8001d2c:	681b      	ldr	r3, [r3, #0]
 8001d2e:	f003 0302 	and.w	r3, r3, #2
 8001d32:	2b00      	cmp	r3, #0
 8001d34:	d005      	beq.n	8001d42 <HAL_RCC_OscConfig+0x152>
 8001d36:	687b      	ldr	r3, [r7, #4]
 8001d38:	68db      	ldr	r3, [r3, #12]
 8001d3a:	2b01      	cmp	r3, #1
 8001d3c:	d001      	beq.n	8001d42 <HAL_RCC_OscConfig+0x152>
      {
        return HAL_ERROR;
 8001d3e:	2301      	movs	r3, #1
 8001d40:	e1c7      	b.n	80020d2 <HAL_RCC_OscConfig+0x4e2>
      }
      /* Otherwise, just the calibration is allowed */
      else
      {
        /* Adjusts the Internal High Speed oscillator (HSI) calibration value.*/
        __HAL_RCC_HSI_CALIBRATIONVALUE_ADJUST(RCC_OscInitStruct->HSICalibrationValue);
 8001d42:	4b3b      	ldr	r3, [pc, #236]	@ (8001e30 <HAL_RCC_OscConfig+0x240>)
 8001d44:	681b      	ldr	r3, [r3, #0]
 8001d46:	f023 02f8 	bic.w	r2, r3, #248	@ 0xf8
 8001d4a:	687b      	ldr	r3, [r7, #4]
 8001d4c:	691b      	ldr	r3, [r3, #16]
 8001d4e:	00db      	lsls	r3, r3, #3
 8001d50:	4937      	ldr	r1, [pc, #220]	@ (8001e30 <HAL_RCC_OscConfig+0x240>)
 8001d52:	4313      	orrs	r3, r2
 8001d54:	600b      	str	r3, [r1, #0]
      if((__HAL_RCC_GET_FLAG(RCC_FLAG_HSIRDY) != RESET) && (RCC_OscInitStruct->HSIState != RCC_HSI_ON))
 8001d56:	e03a      	b.n	8001dce <HAL_RCC_OscConfig+0x1de>
      }
    }
    else
    {
      /* Check the HSI State */
      if((RCC_OscInitStruct->HSIState)!= RCC_HSI_OFF)
 8001d58:	687b      	ldr	r3, [r7, #4]
 8001d5a:	68db      	ldr	r3, [r3, #12]
 8001d5c:	2b00      	cmp	r3, #0
 8001d5e:	d020      	beq.n	8001da2 <HAL_RCC_OscConfig+0x1b2>
      {
        /* Enable the Internal High Speed oscillator (HSI). */
        __HAL_RCC_HSI_ENABLE();
 8001d60:	4b34      	ldr	r3, [pc, #208]	@ (8001e34 <HAL_RCC_OscConfig+0x244>)
 8001d62:	2201      	movs	r2, #1
 8001d64:	601a      	str	r2, [r3, #0]

        /* Get Start Tick*/
        tickstart = HAL_GetTick();
 8001d66:	f7ff fbd1 	bl	800150c <HAL_GetTick>
 8001d6a:	6138      	str	r0, [r7, #16]

        /* Wait till HSI is ready */
        while(__HAL_RCC_GET_FLAG(RCC_FLAG_HSIRDY) == RESET)
 8001d6c:	e008      	b.n	8001d80 <HAL_RCC_OscConfig+0x190>
        {
          if((HAL_GetTick() - tickstart ) > HSI_TIMEOUT_VALUE)
 8001d6e:	f7ff fbcd 	bl	800150c <HAL_GetTick>
 8001d72:	4602      	mov	r2, r0
 8001d74:	693b      	ldr	r3, [r7, #16]
 8001d76:	1ad3      	subs	r3, r2, r3
 8001d78:	2b02      	cmp	r3, #2
 8001d7a:	d901      	bls.n	8001d80 <HAL_RCC_OscConfig+0x190>
          {
            return HAL_TIMEOUT;
 8001d7c:	2303      	movs	r3, #3
 8001d7e:	e1a8      	b.n	80020d2 <HAL_RCC_OscConfig+0x4e2>
        while(__HAL_RCC_GET_FLAG(RCC_FLAG_HSIRDY) == RESET)
 8001d80:	4b2b      	ldr	r3, [pc, #172]	@ (8001e30 <HAL_RCC_OscConfig+0x240>)
 8001d82:	681b      	ldr	r3, [r3, #0]
 8001d84:	f003 0302 	and.w	r3, r3, #2
 8001d88:	2b00      	cmp	r3, #0
 8001d8a:	d0f0      	beq.n	8001d6e <HAL_RCC_OscConfig+0x17e>
          }
        }

        /* Adjusts the Internal High Speed oscillator (HSI) calibration value. */
        __HAL_RCC_HSI_CALIBRATIONVALUE_ADJUST(RCC_OscInitStruct->HSICalibrationValue);
 8001d8c:	4b28      	ldr	r3, [pc, #160]	@ (8001e30 <HAL_RCC_OscConfig+0x240>)
 8001d8e:	681b      	ldr	r3, [r3, #0]
 8001d90:	f023 02f8 	bic.w	r2, r3, #248	@ 0xf8
 8001d94:	687b      	ldr	r3, [r7, #4]
 8001d96:	691b      	ldr	r3, [r3, #16]
 8001d98:	00db      	lsls	r3, r3, #3
 8001d9a:	4925      	ldr	r1, [pc, #148]	@ (8001e30 <HAL_RCC_OscConfig+0x240>)
 8001d9c:	4313      	orrs	r3, r2
 8001d9e:	600b      	str	r3, [r1, #0]
 8001da0:	e015      	b.n	8001dce <HAL_RCC_OscConfig+0x1de>
      }
      else
      {
        /* Disable the Internal High Speed oscillator (HSI). */
        __HAL_RCC_HSI_DISABLE();
 8001da2:	4b24      	ldr	r3, [pc, #144]	@ (8001e34 <HAL_RCC_OscConfig+0x244>)
 8001da4:	2200      	movs	r2, #0
 8001da6:	601a      	str	r2, [r3, #0]

        /* Get Start Tick*/
        tickstart = HAL_GetTick();
 8001da8:	f7ff fbb0 	bl	800150c <HAL_GetTick>
 8001dac:	6138      	str	r0, [r7, #16]

        /* Wait till HSI is ready */
        while(__HAL_RCC_GET_FLAG(RCC_FLAG_HSIRDY) != RESET)
 8001dae:	e008      	b.n	8001dc2 <HAL_RCC_OscConfig+0x1d2>
        {
          if((HAL_GetTick() - tickstart ) > HSI_TIMEOUT_VALUE)
 8001db0:	f7ff fbac 	bl	800150c <HAL_GetTick>
 8001db4:	4602      	mov	r2, r0
 8001db6:	693b      	ldr	r3, [r7, #16]
 8001db8:	1ad3      	subs	r3, r2, r3
 8001dba:	2b02      	cmp	r3, #2
 8001dbc:	d901      	bls.n	8001dc2 <HAL_RCC_OscConfig+0x1d2>
          {
            return HAL_TIMEOUT;
 8001dbe:	2303      	movs	r3, #3
 8001dc0:	e187      	b.n	80020d2 <HAL_RCC_OscConfig+0x4e2>
        while(__HAL_RCC_GET_FLAG(RCC_FLAG_HSIRDY) != RESET)
 8001dc2:	4b1b      	ldr	r3, [pc, #108]	@ (8001e30 <HAL_RCC_OscConfig+0x240>)
 8001dc4:	681b      	ldr	r3, [r3, #0]
 8001dc6:	f003 0302 	and.w	r3, r3, #2
 8001dca:	2b00      	cmp	r3, #0
 8001dcc:	d1f0      	bne.n	8001db0 <HAL_RCC_OscConfig+0x1c0>
        }
      }
    }
  }
  /*------------------------------ LSI Configuration -------------------------*/
  if(((RCC_OscInitStruct->OscillatorType) & RCC_OSCILLATORTYPE_LSI) == RCC_OSCILLATORTYPE_LSI)
 8001dce:	687b      	ldr	r3, [r7, #4]
 8001dd0:	681b      	ldr	r3, [r3, #0]
 8001dd2:	f003 0308 	and.w	r3, r3, #8
 8001dd6:	2b00      	cmp	r3, #0
 8001dd8:	d036      	beq.n	8001e48 <HAL_RCC_OscConfig+0x258>
  {
    /* Check the parameters */
    assert_param(IS_RCC_LSI(RCC_OscInitStruct->LSIState));

    /* Check the LSI State */
    if((RCC_OscInitStruct->LSIState)!= RCC_LSI_OFF)
 8001dda:	687b      	ldr	r3, [r7, #4]
 8001ddc:	695b      	ldr	r3, [r3, #20]
 8001dde:	2b00      	cmp	r3, #0
 8001de0:	d016      	beq.n	8001e10 <HAL_RCC_OscConfig+0x220>
    {
      /* Enable the Internal Low Speed oscillator (LSI). */
      __HAL_RCC_LSI_ENABLE();
 8001de2:	4b15      	ldr	r3, [pc, #84]	@ (8001e38 <HAL_RCC_OscConfig+0x248>)
 8001de4:	2201      	movs	r2, #1
 8001de6:	601a      	str	r2, [r3, #0]

      /* Get Start Tick*/
      tickstart = HAL_GetTick();
 8001de8:	f7ff fb90 	bl	800150c <HAL_GetTick>
 8001dec:	6138      	str	r0, [r7, #16]

      /* Wait till LSI is ready */
      while(__HAL_RCC_GET_FLAG(RCC_FLAG_LSIRDY) == RESET)
 8001dee:	e008      	b.n	8001e02 <HAL_RCC_OscConfig+0x212>
      {
        if((HAL_GetTick() - tickstart ) > LSI_TIMEOUT_VALUE)
 8001df0:	f7ff fb8c 	bl	800150c <HAL_GetTick>
 8001df4:	4602      	mov	r2, r0
 8001df6:	693b      	ldr	r3, [r7, #16]
 8001df8:	1ad3      	subs	r3, r2, r3
 8001dfa:	2b02      	cmp	r3, #2
 8001dfc:	d901      	bls.n	8001e02 <HAL_RCC_OscConfig+0x212>
        {
          return HAL_TIMEOUT;
 8001dfe:	2303      	movs	r3, #3
 8001e00:	e167      	b.n	80020d2 <HAL_RCC_OscConfig+0x4e2>
      while(__HAL_RCC_GET_FLAG(RCC_FLAG_LSIRDY) == RESET)
 8001e02:	4b0b      	ldr	r3, [pc, #44]	@ (8001e30 <HAL_RCC_OscConfig+0x240>)
 8001e04:	6f5b      	ldr	r3, [r3, #116]	@ 0x74
 8001e06:	f003 0302 	and.w	r3, r3, #2
 8001e0a:	2b00      	cmp	r3, #0
 8001e0c:	d0f0      	beq.n	8001df0 <HAL_RCC_OscConfig+0x200>
 8001e0e:	e01b      	b.n	8001e48 <HAL_RCC_OscConfig+0x258>
      }
    }
    else
    {
      /* Disable the Internal Low Speed oscillator (LSI). */
      __HAL_RCC_LSI_DISABLE();
 8001e10:	4b09      	ldr	r3, [pc, #36]	@ (8001e38 <HAL_RCC_OscConfig+0x248>)
 8001e12:	2200      	movs	r2, #0
 8001e14:	601a      	str	r2, [r3, #0]

      /* Get Start Tick */
      tickstart = HAL_GetTick();
 8001e16:	f7ff fb79 	bl	800150c <HAL_GetTick>
 8001e1a:	6138      	str	r0, [r7, #16]

      /* Wait till LSI is ready */
      while(__HAL_RCC_GET_FLAG(RCC_FLAG_LSIRDY) != RESET)
 8001e1c:	e00e      	b.n	8001e3c <HAL_RCC_OscConfig+0x24c>
      {
        if((HAL_GetTick() - tickstart ) > LSI_TIMEOUT_VALUE)
 8001e1e:	f7ff fb75 	bl	800150c <HAL_GetTick>
 8001e22:	4602      	mov	r2, r0
 8001e24:	693b      	ldr	r3, [r7, #16]
 8001e26:	1ad3      	subs	r3, r2, r3
 8001e28:	2b02      	cmp	r3, #2
 8001e2a:	d907      	bls.n	8001e3c <HAL_RCC_OscConfig+0x24c>
        {
          return HAL_TIMEOUT;
 8001e2c:	2303      	movs	r3, #3
 8001e2e:	e150      	b.n	80020d2 <HAL_RCC_OscConfig+0x4e2>
 8001e30:	40023800 	.word	0x40023800
 8001e34:	42470000 	.word	0x42470000
 8001e38:	42470e80 	.word	0x42470e80
      while(__HAL_RCC_GET_FLAG(RCC_FLAG_LSIRDY) != RESET)
 8001e3c:	4b88      	ldr	r3, [pc, #544]	@ (8002060 <HAL_RCC_OscConfig+0x470>)
 8001e3e:	6f5b      	ldr	r3, [r3, #116]	@ 0x74
 8001e40:	f003 0302 	and.w	r3, r3, #2
 8001e44:	2b00      	cmp	r3, #0
 8001e46:	d1ea      	bne.n	8001e1e <HAL_RCC_OscConfig+0x22e>
        }
      }
    }
  }
  /*------------------------------ LSE Configuration -------------------------*/
  if(((RCC_OscInitStruct->OscillatorType) & RCC_OSCILLATORTYPE_LSE) == RCC_OSCILLATORTYPE_LSE)
 8001e48:	687b      	ldr	r3, [r7, #4]
 8001e4a:	681b      	ldr	r3, [r3, #0]
 8001e4c:	f003 0304 	and.w	r3, r3, #4
 8001e50:	2b00      	cmp	r3, #0
 8001e52:	f000 8097 	beq.w	8001f84 <HAL_RCC_OscConfig+0x394>
  {
    FlagStatus       pwrclkchanged = RESET;
 8001e56:	2300      	movs	r3, #0
 8001e58:	75fb      	strb	r3, [r7, #23]
    /* Check the parameters */
    assert_param(IS_RCC_LSE(RCC_OscInitStruct->LSEState));

    /* Update LSE configuration in Backup Domain control register    */
    /* Requires to enable write access to Backup Domain of necessary */
    if(__HAL_RCC_PWR_IS_CLK_DISABLED())
 8001e5a:	4b81      	ldr	r3, [pc, #516]	@ (8002060 <HAL_RCC_OscConfig+0x470>)
 8001e5c:	6c1b      	ldr	r3, [r3, #64]	@ 0x40
 8001e5e:	f003 5380 	and.w	r3, r3, #268435456	@ 0x10000000
 8001e62:	2b00      	cmp	r3, #0
 8001e64:	d10f      	bne.n	8001e86 <HAL_RCC_OscConfig+0x296>
    {
      __HAL_RCC_PWR_CLK_ENABLE();
 8001e66:	2300      	movs	r3, #0
 8001e68:	60bb      	str	r3, [r7, #8]
 8001e6a:	4b7d      	ldr	r3, [pc, #500]	@ (8002060 <HAL_RCC_OscConfig+0x470>)
 8001e6c:	6c1b      	ldr	r3, [r3, #64]	@ 0x40
 8001e6e:	4a7c      	ldr	r2, [pc, #496]	@ (8002060 <HAL_RCC_OscConfig+0x470>)
 8001e70:	f043 5380 	orr.w	r3, r3, #268435456	@ 0x10000000
 8001e74:	6413      	str	r3, [r2, #64]	@ 0x40
 8001e76:	4b7a      	ldr	r3, [pc, #488]	@ (8002060 <HAL_RCC_OscConfig+0x470>)
 8001e78:	6c1b      	ldr	r3, [r3, #64]	@ 0x40
 8001e7a:	f003 5380 	and.w	r3, r3, #268435456	@ 0x10000000
 8001e7e:	60bb      	str	r3, [r7, #8]
 8001e80:	68bb      	ldr	r3, [r7, #8]
      pwrclkchanged = SET;
 8001e82:	2301      	movs	r3, #1
 8001e84:	75fb      	strb	r3, [r7, #23]
    }

    if(HAL_IS_BIT_CLR(PWR->CR, PWR_CR_DBP))
 8001e86:	4b77      	ldr	r3, [pc, #476]	@ (8002064 <HAL_RCC_OscConfig+0x474>)
 8001e88:	681b      	ldr	r3, [r3, #0]
 8001e8a:	f403 7380 	and.w	r3, r3, #256	@ 0x100
 8001e8e:	2b00      	cmp	r3, #0
 8001e90:	d118      	bne.n	8001ec4 <HAL_RCC_OscConfig+0x2d4>
    {
      /* Enable write access to Backup domain */
      SET_BIT(PWR->CR, PWR_CR_DBP);
 8001e92:	4b74      	ldr	r3, [pc, #464]	@ (8002064 <HAL_RCC_OscConfig+0x474>)
 8001e94:	681b      	ldr	r3, [r3, #0]
 8001e96:	4a73      	ldr	r2, [pc, #460]	@ (8002064 <HAL_RCC_OscConfig+0x474>)
 8001e98:	f443 7380 	orr.w	r3, r3, #256	@ 0x100
 8001e9c:	6013      	str	r3, [r2, #0]

      /* Wait for Backup domain Write protection disable */
      tickstart = HAL_GetTick();
 8001e9e:	f7ff fb35 	bl	800150c <HAL_GetTick>
 8001ea2:	6138      	str	r0, [r7, #16]

      while(HAL_IS_BIT_CLR(PWR->CR, PWR_CR_DBP))
 8001ea4:	e008      	b.n	8001eb8 <HAL_RCC_OscConfig+0x2c8>
      {
        if((HAL_GetTick() - tickstart) > RCC_DBP_TIMEOUT_VALUE)
 8001ea6:	f7ff fb31 	bl	800150c <HAL_GetTick>
 8001eaa:	4602      	mov	r2, r0
 8001eac:	693b      	ldr	r3, [r7, #16]
 8001eae:	1ad3      	subs	r3, r2, r3
 8001eb0:	2b02      	cmp	r3, #2
 8001eb2:	d901      	bls.n	8001eb8 <HAL_RCC_OscConfig+0x2c8>
        {
          return HAL_TIMEOUT;
 8001eb4:	2303      	movs	r3, #3
 8001eb6:	e10c      	b.n	80020d2 <HAL_RCC_OscConfig+0x4e2>
      while(HAL_IS_BIT_CLR(PWR->CR, PWR_CR_DBP))
 8001eb8:	4b6a      	ldr	r3, [pc, #424]	@ (8002064 <HAL_RCC_OscConfig+0x474>)
 8001eba:	681b      	ldr	r3, [r3, #0]
 8001ebc:	f403 7380 	and.w	r3, r3, #256	@ 0x100
 8001ec0:	2b00      	cmp	r3, #0
 8001ec2:	d0f0      	beq.n	8001ea6 <HAL_RCC_OscConfig+0x2b6>
        }
      }
    }

    /* Set the new LSE configuration -----------------------------------------*/
    __HAL_RCC_LSE_CONFIG(RCC_OscInitStruct->LSEState);
 8001ec4:	687b      	ldr	r3, [r7, #4]
 8001ec6:	689b      	ldr	r3, [r3, #8]
 8001ec8:	2b01      	cmp	r3, #1
 8001eca:	d106      	bne.n	8001eda <HAL_RCC_OscConfig+0x2ea>
 8001ecc:	4b64      	ldr	r3, [pc, #400]	@ (8002060 <HAL_RCC_OscConfig+0x470>)
 8001ece:	6f1b      	ldr	r3, [r3, #112]	@ 0x70
 8001ed0:	4a63      	ldr	r2, [pc, #396]	@ (8002060 <HAL_RCC_OscConfig+0x470>)
 8001ed2:	f043 0301 	orr.w	r3, r3, #1
 8001ed6:	6713      	str	r3, [r2, #112]	@ 0x70
 8001ed8:	e01c      	b.n	8001f14 <HAL_RCC_OscConfig+0x324>
 8001eda:	687b      	ldr	r3, [r7, #4]
 8001edc:	689b      	ldr	r3, [r3, #8]
 8001ede:	2b05      	cmp	r3, #5
 8001ee0:	d10c      	bne.n	8001efc <HAL_RCC_OscConfig+0x30c>
 8001ee2:	4b5f      	ldr	r3, [pc, #380]	@ (8002060 <HAL_RCC_OscConfig+0x470>)
 8001ee4:	6f1b      	ldr	r3, [r3, #112]	@ 0x70
 8001ee6:	4a5e      	ldr	r2, [pc, #376]	@ (8002060 <HAL_RCC_OscConfig+0x470>)
 8001ee8:	f043 0304 	orr.w	r3, r3, #4
 8001eec:	6713      	str	r3, [r2, #112]	@ 0x70
 8001eee:	4b5c      	ldr	r3, [pc, #368]	@ (8002060 <HAL_RCC_OscConfig+0x470>)
 8001ef0:	6f1b      	ldr	r3, [r3, #112]	@ 0x70
 8001ef2:	4a5b      	ldr	r2, [pc, #364]	@ (8002060 <HAL_RCC_OscConfig+0x470>)
 8001ef4:	f043 0301 	orr.w	r3, r3, #1
 8001ef8:	6713      	str	r3, [r2, #112]	@ 0x70
 8001efa:	e00b      	b.n	8001f14 <HAL_RCC_OscConfig+0x324>
 8001efc:	4b58      	ldr	r3, [pc, #352]	@ (8002060 <HAL_RCC_OscConfig+0x470>)
 8001efe:	6f1b      	ldr	r3, [r3, #112]	@ 0x70
 8001f00:	4a57      	ldr	r2, [pc, #348]	@ (8002060 <HAL_RCC_OscConfig+0x470>)
 8001f02:	f023 0301 	bic.w	r3, r3, #1
 8001f06:	6713      	str	r3, [r2, #112]	@ 0x70
 8001f08:	4b55      	ldr	r3, [pc, #340]	@ (8002060 <HAL_RCC_OscConfig+0x470>)
 8001f0a:	6f1b      	ldr	r3, [r3, #112]	@ 0x70
 8001f0c:	4a54      	ldr	r2, [pc, #336]	@ (8002060 <HAL_RCC_OscConfig+0x470>)
 8001f0e:	f023 0304 	bic.w	r3, r3, #4
 8001f12:	6713      	str	r3, [r2, #112]	@ 0x70
    /* Check the LSE State */
    if((RCC_OscInitStruct->LSEState) != RCC_LSE_OFF)
 8001f14:	687b      	ldr	r3, [r7, #4]
 8001f16:	689b      	ldr	r3, [r3, #8]
 8001f18:	2b00      	cmp	r3, #0
 8001f1a:	d015      	beq.n	8001f48 <HAL_RCC_OscConfig+0x358>
    {
      /* Get Start Tick*/
      tickstart = HAL_GetTick();
 8001f1c:	f7ff faf6 	bl	800150c <HAL_GetTick>
 8001f20:	6138      	str	r0, [r7, #16]

      /* Wait till LSE is ready */
      while(__HAL_RCC_GET_FLAG(RCC_FLAG_LSERDY) == RESET)
 8001f22:	e00a      	b.n	8001f3a <HAL_RCC_OscConfig+0x34a>
      {
        if((HAL_GetTick() - tickstart ) > RCC_LSE_TIMEOUT_VALUE)
 8001f24:	f7ff faf2 	bl	800150c <HAL_GetTick>
 8001f28:	4602      	mov	r2, r0
 8001f2a:	693b      	ldr	r3, [r7, #16]
 8001f2c:	1ad3      	subs	r3, r2, r3
 8001f2e:	f241 3288 	movw	r2, #5000	@ 0x1388
 8001f32:	4293      	cmp	r3, r2
 8001f34:	d901      	bls.n	8001f3a <HAL_RCC_OscConfig+0x34a>
        {
          return HAL_TIMEOUT;
 8001f36:	2303      	movs	r3, #3
 8001f38:	e0cb      	b.n	80020d2 <HAL_RCC_OscConfig+0x4e2>
      while(__HAL_RCC_GET_FLAG(RCC_FLAG_LSERDY) == RESET)
 8001f3a:	4b49      	ldr	r3, [pc, #292]	@ (8002060 <HAL_RCC_OscConfig+0x470>)
 8001f3c:	6f1b      	ldr	r3, [r3, #112]	@ 0x70
 8001f3e:	f003 0302 	and.w	r3, r3, #2
 8001f42:	2b00      	cmp	r3, #0
 8001f44:	d0ee      	beq.n	8001f24 <HAL_RCC_OscConfig+0x334>
 8001f46:	e014      	b.n	8001f72 <HAL_RCC_OscConfig+0x382>
      }
    }
    else
    {
      /* Get Start Tick */
      tickstart = HAL_GetTick();
 8001f48:	f7ff fae0 	bl	800150c <HAL_GetTick>
 8001f4c:	6138      	str	r0, [r7, #16]

      /* Wait till LSE is ready */
      while(__HAL_RCC_GET_FLAG(RCC_FLAG_LSERDY) != RESET)
 8001f4e:	e00a      	b.n	8001f66 <HAL_RCC_OscConfig+0x376>
      {
        if((HAL_GetTick() - tickstart ) > RCC_LSE_TIMEOUT_VALUE)
 8001f50:	f7ff fadc 	bl	800150c <HAL_GetTick>
 8001f54:	4602      	mov	r2, r0
 8001f56:	693b      	ldr	r3, [r7, #16]
 8001f58:	1ad3      	subs	r3, r2, r3
 8001f5a:	f241 3288 	movw	r2, #5000	@ 0x1388
 8001f5e:	4293      	cmp	r3, r2
 8001f60:	d901      	bls.n	8001f66 <HAL_RCC_OscConfig+0x376>
        {
          return HAL_TIMEOUT;
 8001f62:	2303      	movs	r3, #3
 8001f64:	e0b5      	b.n	80020d2 <HAL_RCC_OscConfig+0x4e2>
      while(__HAL_RCC_GET_FLAG(RCC_FLAG_LSERDY) != RESET)
 8001f66:	4b3e      	ldr	r3, [pc, #248]	@ (8002060 <HAL_RCC_OscConfig+0x470>)
 8001f68:	6f1b      	ldr	r3, [r3, #112]	@ 0x70
 8001f6a:	f003 0302 	and.w	r3, r3, #2
 8001f6e:	2b00      	cmp	r3, #0
 8001f70:	d1ee      	bne.n	8001f50 <HAL_RCC_OscConfig+0x360>
        }
      }
    }

    /* Restore clock configuration if changed */
    if(pwrclkchanged == SET)
 8001f72:	7dfb      	ldrb	r3, [r7, #23]
 8001f74:	2b01      	cmp	r3, #1
 8001f76:	d105      	bne.n	8001f84 <HAL_RCC_OscConfig+0x394>
    {
      __HAL_RCC_PWR_CLK_DISABLE();
 8001f78:	4b39      	ldr	r3, [pc, #228]	@ (8002060 <HAL_RCC_OscConfig+0x470>)
 8001f7a:	6c1b      	ldr	r3, [r3, #64]	@ 0x40
 8001f7c:	4a38      	ldr	r2, [pc, #224]	@ (8002060 <HAL_RCC_OscConfig+0x470>)
 8001f7e:	f023 5380 	bic.w	r3, r3, #268435456	@ 0x10000000
 8001f82:	6413      	str	r3, [r2, #64]	@ 0x40
    }
  }
  /*-------------------------------- PLL Configuration -----------------------*/
  /* Check the parameters */
  assert_param(IS_RCC_PLL(RCC_OscInitStruct->PLL.PLLState));
  if ((RCC_OscInitStruct->PLL.PLLState) != RCC_PLL_NONE)
 8001f84:	687b      	ldr	r3, [r7, #4]
 8001f86:	699b      	ldr	r3, [r3, #24]
 8001f88:	2b00      	cmp	r3, #0
 8001f8a:	f000 80a1 	beq.w	80020d0 <HAL_RCC_OscConfig+0x4e0>
  {
    /* Check if the PLL is used as system clock or not */
    if(__HAL_RCC_GET_SYSCLK_SOURCE() != RCC_CFGR_SWS_PLL)
 8001f8e:	4b34      	ldr	r3, [pc, #208]	@ (8002060 <HAL_RCC_OscConfig+0x470>)
 8001f90:	689b      	ldr	r3, [r3, #8]
 8001f92:	f003 030c 	and.w	r3, r3, #12
 8001f96:	2b08      	cmp	r3, #8
 8001f98:	d05c      	beq.n	8002054 <HAL_RCC_OscConfig+0x464>
    {
      if((RCC_OscInitStruct->PLL.PLLState) == RCC_PLL_ON)
 8001f9a:	687b      	ldr	r3, [r7, #4]
 8001f9c:	699b      	ldr	r3, [r3, #24]
 8001f9e:	2b02      	cmp	r3, #2
 8001fa0:	d141      	bne.n	8002026 <HAL_RCC_OscConfig+0x436>
        assert_param(IS_RCC_PLLN_VALUE(RCC_OscInitStruct->PLL.PLLN));
        assert_param(IS_RCC_PLLP_VALUE(RCC_OscInitStruct->PLL.PLLP));
        assert_param(IS_RCC_PLLQ_VALUE(RCC_OscInitStruct->PLL.PLLQ));

        /* Disable the main PLL. */
        __HAL_RCC_PLL_DISABLE();
 8001fa2:	4b31      	ldr	r3, [pc, #196]	@ (8002068 <HAL_RCC_OscConfig+0x478>)
 8001fa4:	2200      	movs	r2, #0
 8001fa6:	601a      	str	r2, [r3, #0]

        /* Get Start Tick */
        tickstart = HAL_GetTick();
 8001fa8:	f7ff fab0 	bl	800150c <HAL_GetTick>
 8001fac:	6138      	str	r0, [r7, #16]

        /* Wait till PLL is ready */
        while(__HAL_RCC_GET_FLAG(RCC_FLAG_PLLRDY) != RESET)
 8001fae:	e008      	b.n	8001fc2 <HAL_RCC_OscConfig+0x3d2>
        {
          if((HAL_GetTick() - tickstart ) > PLL_TIMEOUT_VALUE)
 8001fb0:	f7ff faac 	bl	800150c <HAL_GetTick>
 8001fb4:	4602      	mov	r2, r0
 8001fb6:	693b      	ldr	r3, [r7, #16]
 8001fb8:	1ad3      	subs	r3, r2, r3
 8001fba:	2b02      	cmp	r3, #2
 8001fbc:	d901      	bls.n	8001fc2 <HAL_RCC_OscConfig+0x3d2>
          {
            return HAL_TIMEOUT;
 8001fbe:	2303      	movs	r3, #3
 8001fc0:	e087      	b.n	80020d2 <HAL_RCC_OscConfig+0x4e2>
        while(__HAL_RCC_GET_FLAG(RCC_FLAG_PLLRDY) != RESET)
 8001fc2:	4b27      	ldr	r3, [pc, #156]	@ (8002060 <HAL_RCC_OscConfig+0x470>)
 8001fc4:	681b      	ldr	r3, [r3, #0]
 8001fc6:	f003 7300 	and.w	r3, r3, #33554432	@ 0x2000000
 8001fca:	2b00      	cmp	r3, #0
 8001fcc:	d1f0      	bne.n	8001fb0 <HAL_RCC_OscConfig+0x3c0>
          }
        }

        /* Configure the main PLL clock source, multiplication and division factors. */
        WRITE_REG(RCC->PLLCFGR, (RCC_OscInitStruct->PLL.PLLSource                                            | \
 8001fce:	687b      	ldr	r3, [r7, #4]
 8001fd0:	69da      	ldr	r2, [r3, #28]
 8001fd2:	687b      	ldr	r3, [r7, #4]
 8001fd4:	6a1b      	ldr	r3, [r3, #32]
 8001fd6:	431a      	orrs	r2, r3
 8001fd8:	687b      	ldr	r3, [r7, #4]
 8001fda:	6a5b      	ldr	r3, [r3, #36]	@ 0x24
 8001fdc:	019b      	lsls	r3, r3, #6
 8001fde:	431a      	orrs	r2, r3
 8001fe0:	687b      	ldr	r3, [r7, #4]
 8001fe2:	6a9b      	ldr	r3, [r3, #40]	@ 0x28
 8001fe4:	085b      	lsrs	r3, r3, #1
 8001fe6:	3b01      	subs	r3, #1
 8001fe8:	041b      	lsls	r3, r3, #16
 8001fea:	431a      	orrs	r2, r3
 8001fec:	687b      	ldr	r3, [r7, #4]
 8001fee:	6adb      	ldr	r3, [r3, #44]	@ 0x2c
 8001ff0:	061b      	lsls	r3, r3, #24
 8001ff2:	491b      	ldr	r1, [pc, #108]	@ (8002060 <HAL_RCC_OscConfig+0x470>)
 8001ff4:	4313      	orrs	r3, r2
 8001ff6:	604b      	str	r3, [r1, #4]
                                 RCC_OscInitStruct->PLL.PLLM                                                 | \
                                 (RCC_OscInitStruct->PLL.PLLN << RCC_PLLCFGR_PLLN_Pos)             | \
                                 (((RCC_OscInitStruct->PLL.PLLP >> 1U) - 1U) << RCC_PLLCFGR_PLLP_Pos) | \
                                 (RCC_OscInitStruct->PLL.PLLQ << RCC_PLLCFGR_PLLQ_Pos)));
        /* Enable the main PLL. */
        __HAL_RCC_PLL_ENABLE();
 8001ff8:	4b1b      	ldr	r3, [pc, #108]	@ (8002068 <HAL_RCC_OscConfig+0x478>)
 8001ffa:	2201      	movs	r2, #1
 8001ffc:	601a      	str	r2, [r3, #0]

        /* Get Start Tick */
        tickstart = HAL_GetTick();
 8001ffe:	f7ff fa85 	bl	800150c <HAL_GetTick>
 8002002:	6138      	str	r0, [r7, #16]

        /* Wait till PLL is ready */
        while(__HAL_RCC_GET_FLAG(RCC_FLAG_PLLRDY) == RESET)
 8002004:	e008      	b.n	8002018 <HAL_RCC_OscConfig+0x428>
        {
          if((HAL_GetTick() - tickstart ) > PLL_TIMEOUT_VALUE)
 8002006:	f7ff fa81 	bl	800150c <HAL_GetTick>
 800200a:	4602      	mov	r2, r0
 800200c:	693b      	ldr	r3, [r7, #16]
 800200e:	1ad3      	subs	r3, r2, r3
 8002010:	2b02      	cmp	r3, #2
 8002012:	d901      	bls.n	8002018 <HAL_RCC_OscConfig+0x428>
          {
            return HAL_TIMEOUT;
 8002014:	2303      	movs	r3, #3
 8002016:	e05c      	b.n	80020d2 <HAL_RCC_OscConfig+0x4e2>
        while(__HAL_RCC_GET_FLAG(RCC_FLAG_PLLRDY) == RESET)
 8002018:	4b11      	ldr	r3, [pc, #68]	@ (8002060 <HAL_RCC_OscConfig+0x470>)
 800201a:	681b      	ldr	r3, [r3, #0]
 800201c:	f003 7300 	and.w	r3, r3, #33554432	@ 0x2000000
 8002020:	2b00      	cmp	r3, #0
 8002022:	d0f0      	beq.n	8002006 <HAL_RCC_OscConfig+0x416>
 8002024:	e054      	b.n	80020d0 <HAL_RCC_OscConfig+0x4e0>
        }
      }
      else
      {
        /* Disable the main PLL. */
        __HAL_RCC_PLL_DISABLE();
 8002026:	4b10      	ldr	r3, [pc, #64]	@ (8002068 <HAL_RCC_OscConfig+0x478>)
 8002028:	2200      	movs	r2, #0
 800202a:	601a      	str	r2, [r3, #0]

        /* Get Start Tick */
        tickstart = HAL_GetTick();
 800202c:	f7ff fa6e 	bl	800150c <HAL_GetTick>
 8002030:	6138      	str	r0, [r7, #16]

        /* Wait till PLL is ready */
        while(__HAL_RCC_GET_FLAG(RCC_FLAG_PLLRDY) != RESET)
 8002032:	e008      	b.n	8002046 <HAL_RCC_OscConfig+0x456>
        {
          if((HAL_GetTick() - tickstart ) > PLL_TIMEOUT_VALUE)
 8002034:	f7ff fa6a 	bl	800150c <HAL_GetTick>
 8002038:	4602      	mov	r2, r0
 800203a:	693b      	ldr	r3, [r7, #16]
 800203c:	1ad3      	subs	r3, r2, r3
 800203e:	2b02      	cmp	r3, #2
 8002040:	d901      	bls.n	8002046 <HAL_RCC_OscConfig+0x456>
          {
            return HAL_TIMEOUT;
 8002042:	2303      	movs	r3, #3
 8002044:	e045      	b.n	80020d2 <HAL_RCC_OscConfig+0x4e2>
        while(__HAL_RCC_GET_FLAG(RCC_FLAG_PLLRDY) != RESET)
 8002046:	4b06      	ldr	r3, [pc, #24]	@ (8002060 <HAL_RCC_OscConfig+0x470>)
 8002048:	681b      	ldr	r3, [r3, #0]
 800204a:	f003 7300 	and.w	r3, r3, #33554432	@ 0x2000000
 800204e:	2b00      	cmp	r3, #0
 8002050:	d1f0      	bne.n	8002034 <HAL_RCC_OscConfig+0x444>
 8002052:	e03d      	b.n	80020d0 <HAL_RCC_OscConfig+0x4e0>
      }
    }
    else
    {
      /* Check if there is a request to disable the PLL used as System clock source */
      if((RCC_OscInitStruct->PLL.PLLState) == RCC_PLL_OFF)
 8002054:	687b      	ldr	r3, [r7, #4]
 8002056:	699b      	ldr	r3, [r3, #24]
 8002058:	2b01      	cmp	r3, #1
 800205a:	d107      	bne.n	800206c <HAL_RCC_OscConfig+0x47c>
      {
        return HAL_ERROR;
 800205c:	2301      	movs	r3, #1
 800205e:	e038      	b.n	80020d2 <HAL_RCC_OscConfig+0x4e2>
 8002060:	40023800 	.word	0x40023800
 8002064:	40007000 	.word	0x40007000
 8002068:	42470060 	.word	0x42470060
      }
      else
      {
        /* Do not return HAL_ERROR if request repeats the current configuration */
        pll_config = RCC->PLLCFGR;
 800206c:	4b1b      	ldr	r3, [pc, #108]	@ (80020dc <HAL_RCC_OscConfig+0x4ec>)
 800206e:	685b      	ldr	r3, [r3, #4]
 8002070:	60fb      	str	r3, [r7, #12]
            (READ_BIT(pll_config, RCC_PLLCFGR_PLLN) != (RCC_OscInitStruct->PLL.PLLN) << RCC_PLLCFGR_PLLN_Pos) ||
            (READ_BIT(pll_config, RCC_PLLCFGR_PLLP) != (((RCC_OscInitStruct->PLL.PLLP >> 1U) - 1U)) << RCC_PLLCFGR_PLLP_Pos) ||
            (READ_BIT(pll_config, RCC_PLLCFGR_PLLQ) != (RCC_OscInitStruct->PLL.PLLQ << RCC_PLLCFGR_PLLQ_Pos)) ||
            (READ_BIT(pll_config, RCC_PLLCFGR_PLLR) != (RCC_OscInitStruct->PLL.PLLR << RCC_PLLCFGR_PLLR_Pos)))
#else
        if (((RCC_OscInitStruct->PLL.PLLState) == RCC_PLL_OFF) ||
 8002072:	687b      	ldr	r3, [r7, #4]
 8002074:	699b      	ldr	r3, [r3, #24]
 8002076:	2b01      	cmp	r3, #1
 8002078:	d028      	beq.n	80020cc <HAL_RCC_OscConfig+0x4dc>
            (READ_BIT(pll_config, RCC_PLLCFGR_PLLSRC) != RCC_OscInitStruct->PLL.PLLSource) ||
 800207a:	68fb      	ldr	r3, [r7, #12]
 800207c:	f403 0280 	and.w	r2, r3, #4194304	@ 0x400000
 8002080:	687b      	ldr	r3, [r7, #4]
 8002082:	69db      	ldr	r3, [r3, #28]
        if (((RCC_OscInitStruct->PLL.PLLState) == RCC_PLL_OFF) ||
 8002084:	429a      	cmp	r2, r3
 8002086:	d121      	bne.n	80020cc <HAL_RCC_OscConfig+0x4dc>
            (READ_BIT(pll_config, RCC_PLLCFGR_PLLM) != (RCC_OscInitStruct->PLL.PLLM) << RCC_PLLCFGR_PLLM_Pos) ||
 8002088:	68fb      	ldr	r3, [r7, #12]
 800208a:	f003 023f 	and.w	r2, r3, #63	@ 0x3f
 800208e:	687b      	ldr	r3, [r7, #4]
 8002090:	6a1b      	ldr	r3, [r3, #32]
            (READ_BIT(pll_config, RCC_PLLCFGR_PLLSRC) != RCC_OscInitStruct->PLL.PLLSource) ||
 8002092:	429a      	cmp	r2, r3
 8002094:	d11a      	bne.n	80020cc <HAL_RCC_OscConfig+0x4dc>
            (READ_BIT(pll_config, RCC_PLLCFGR_PLLN) != (RCC_OscInitStruct->PLL.PLLN) << RCC_PLLCFGR_PLLN_Pos) ||
 8002096:	68fa      	ldr	r2, [r7, #12]
 8002098:	f647 73c0 	movw	r3, #32704	@ 0x7fc0
 800209c:	4013      	ands	r3, r2
 800209e:	687a      	ldr	r2, [r7, #4]
 80020a0:	6a52      	ldr	r2, [r2, #36]	@ 0x24
 80020a2:	0192      	lsls	r2, r2, #6
            (READ_BIT(pll_config, RCC_PLLCFGR_PLLM) != (RCC_OscInitStruct->PLL.PLLM) << RCC_PLLCFGR_PLLM_Pos) ||
 80020a4:	4293      	cmp	r3, r2
 80020a6:	d111      	bne.n	80020cc <HAL_RCC_OscConfig+0x4dc>
            (READ_BIT(pll_config, RCC_PLLCFGR_PLLP) != (((RCC_OscInitStruct->PLL.PLLP >> 1U) - 1U)) << RCC_PLLCFGR_PLLP_Pos) ||
 80020a8:	68fb      	ldr	r3, [r7, #12]
 80020aa:	f403 3240 	and.w	r2, r3, #196608	@ 0x30000
 80020ae:	687b      	ldr	r3, [r7, #4]
 80020b0:	6a9b      	ldr	r3, [r3, #40]	@ 0x28
 80020b2:	085b      	lsrs	r3, r3, #1
 80020b4:	3b01      	subs	r3, #1
 80020b6:	041b      	lsls	r3, r3, #16
            (READ_BIT(pll_config, RCC_PLLCFGR_PLLN) != (RCC_OscInitStruct->PLL.PLLN) << RCC_PLLCFGR_PLLN_Pos) ||
 80020b8:	429a      	cmp	r2, r3
 80020ba:	d107      	bne.n	80020cc <HAL_RCC_OscConfig+0x4dc>
            (READ_BIT(pll_config, RCC_PLLCFGR_PLLQ) != (RCC_OscInitStruct->PLL.PLLQ << RCC_PLLCFGR_PLLQ_Pos)))
 80020bc:	68fb      	ldr	r3, [r7, #12]
 80020be:	f003 6270 	and.w	r2, r3, #251658240	@ 0xf000000
 80020c2:	687b      	ldr	r3, [r7, #4]
 80020c4:	6adb      	ldr	r3, [r3, #44]	@ 0x2c
 80020c6:	061b      	lsls	r3, r3, #24
            (READ_BIT(pll_config, RCC_PLLCFGR_PLLP) != (((RCC_OscInitStruct->PLL.PLLP >> 1U) - 1U)) << RCC_PLLCFGR_PLLP_Pos) ||
 80020c8:	429a      	cmp	r2, r3
 80020ca:	d001      	beq.n	80020d0 <HAL_RCC_OscConfig+0x4e0>
#endif
        {
          return HAL_ERROR;
 80020cc:	2301      	movs	r3, #1
 80020ce:	e000      	b.n	80020d2 <HAL_RCC_OscConfig+0x4e2>
        }
      }
    }
  }
  return HAL_OK;
 80020d0:	2300      	movs	r3, #0
}
 80020d2:	4618      	mov	r0, r3
 80020d4:	3718      	adds	r7, #24
 80020d6:	46bd      	mov	sp, r7
 80020d8:	bd80      	pop	{r7, pc}
 80020da:	bf00      	nop
 80020dc:	40023800 	.word	0x40023800

080020e0 <HAL_RCC_ClockConfig>:
  *         HPRE[3:0] bits to ensure that HCLK not exceed the maximum allowed frequency
  *         (for more details refer to section above "Initialization/de-initialization functions")
  * @retval None
  */
HAL_StatusTypeDef HAL_RCC_ClockConfig(RCC_ClkInitTypeDef  *RCC_ClkInitStruct, uint32_t FLatency)
{
 80020e0:	b580      	push	{r7, lr}
 80020e2:	b084      	sub	sp, #16
 80020e4:	af00      	add	r7, sp, #0
 80020e6:	6078      	str	r0, [r7, #4]
 80020e8:	6039      	str	r1, [r7, #0]
  uint32_t tickstart;

  /* Check Null pointer */
  if(RCC_ClkInitStruct == NULL)
 80020ea:	687b      	ldr	r3, [r7, #4]
 80020ec:	2b00      	cmp	r3, #0
 80020ee:	d101      	bne.n	80020f4 <HAL_RCC_ClockConfig+0x14>
  {
    return HAL_ERROR;
 80020f0:	2301      	movs	r3, #1
 80020f2:	e0cc      	b.n	800228e <HAL_RCC_ClockConfig+0x1ae>
  /* To correctly read data from FLASH memory, the number of wait states (LATENCY)
    must be correctly programmed according to the frequency of the CPU clock
    (HCLK) and the supply voltage of the device. */

  /* Increasing the number of wait states because of higher CPU frequency */
  if(FLatency > __HAL_FLASH_GET_LATENCY())
 80020f4:	4b68      	ldr	r3, [pc, #416]	@ (8002298 <HAL_RCC_ClockConfig+0x1b8>)
 80020f6:	681b      	ldr	r3, [r3, #0]
 80020f8:	f003 0307 	and.w	r3, r3, #7
 80020fc:	683a      	ldr	r2, [r7, #0]
 80020fe:	429a      	cmp	r2, r3
 8002100:	d90c      	bls.n	800211c <HAL_RCC_ClockConfig+0x3c>
  {
    /* Program the new number of wait states to the LATENCY bits in the FLASH_ACR register */
    __HAL_FLASH_SET_LATENCY(FLatency);
 8002102:	4b65      	ldr	r3, [pc, #404]	@ (8002298 <HAL_RCC_ClockConfig+0x1b8>)
 8002104:	683a      	ldr	r2, [r7, #0]
 8002106:	b2d2      	uxtb	r2, r2
 8002108:	701a      	strb	r2, [r3, #0]

    /* Check that the new number of wait states is taken into account to access the Flash
    memory by reading the FLASH_ACR register */
    if(__HAL_FLASH_GET_LATENCY() != FLatency)
 800210a:	4b63      	ldr	r3, [pc, #396]	@ (8002298 <HAL_RCC_ClockConfig+0x1b8>)
 800210c:	681b      	ldr	r3, [r3, #0]
 800210e:	f003 0307 	and.w	r3, r3, #7
 8002112:	683a      	ldr	r2, [r7, #0]
 8002114:	429a      	cmp	r2, r3
 8002116:	d001      	beq.n	800211c <HAL_RCC_ClockConfig+0x3c>
    {
      return HAL_ERROR;
 8002118:	2301      	movs	r3, #1
 800211a:	e0b8      	b.n	800228e <HAL_RCC_ClockConfig+0x1ae>
    }
  }

  /*-------------------------- HCLK Configuration --------------------------*/
  if(((RCC_ClkInitStruct->ClockType) & RCC_CLOCKTYPE_HCLK) == RCC_CLOCKTYPE_HCLK)
 800211c:	687b      	ldr	r3, [r7, #4]
 800211e:	681b      	ldr	r3, [r3, #0]
 8002120:	f003 0302 	and.w	r3, r3, #2
 8002124:	2b00      	cmp	r3, #0
 8002126:	d020      	beq.n	800216a <HAL_RCC_ClockConfig+0x8a>
  {
    /* Set the highest APBx dividers in order to ensure that we do not go through
       a non-spec phase whatever we decrease or increase HCLK. */
    if(((RCC_ClkInitStruct->ClockType) & RCC_CLOCKTYPE_PCLK1) == RCC_CLOCKTYPE_PCLK1)
 8002128:	687b      	ldr	r3, [r7, #4]
 800212a:	681b      	ldr	r3, [r3, #0]
 800212c:	f003 0304 	and.w	r3, r3, #4
 8002130:	2b00      	cmp	r3, #0
 8002132:	d005      	beq.n	8002140 <HAL_RCC_ClockConfig+0x60>
    {
      MODIFY_REG(RCC->CFGR, RCC_CFGR_PPRE1, RCC_HCLK_DIV16);
 8002134:	4b59      	ldr	r3, [pc, #356]	@ (800229c <HAL_RCC_ClockConfig+0x1bc>)
 8002136:	689b      	ldr	r3, [r3, #8]
 8002138:	4a58      	ldr	r2, [pc, #352]	@ (800229c <HAL_RCC_ClockConfig+0x1bc>)
 800213a:	f443 53e0 	orr.w	r3, r3, #7168	@ 0x1c00
 800213e:	6093      	str	r3, [r2, #8]
    }

    if(((RCC_ClkInitStruct->ClockType) & RCC_CLOCKTYPE_PCLK2) == RCC_CLOCKTYPE_PCLK2)
 8002140:	687b      	ldr	r3, [r7, #4]
 8002142:	681b      	ldr	r3, [r3, #0]
 8002144:	f003 0308 	and.w	r3, r3, #8
 8002148:	2b00      	cmp	r3, #0
 800214a:	d005      	beq.n	8002158 <HAL_RCC_ClockConfig+0x78>
    {
      MODIFY_REG(RCC->CFGR, RCC_CFGR_PPRE2, (RCC_HCLK_DIV16 << 3));
 800214c:	4b53      	ldr	r3, [pc, #332]	@ (800229c <HAL_RCC_ClockConfig+0x1bc>)
 800214e:	689b      	ldr	r3, [r3, #8]
 8002150:	4a52      	ldr	r2, [pc, #328]	@ (800229c <HAL_RCC_ClockConfig+0x1bc>)
 8002152:	f443 4360 	orr.w	r3, r3, #57344	@ 0xe000
 8002156:	6093      	str	r3, [r2, #8]
    }

    assert_param(IS_RCC_HCLK(RCC_ClkInitStruct->AHBCLKDivider));
    MODIFY_REG(RCC->CFGR, RCC_CFGR_HPRE, RCC_ClkInitStruct->AHBCLKDivider);
 8002158:	4b50      	ldr	r3, [pc, #320]	@ (800229c <HAL_RCC_ClockConfig+0x1bc>)
 800215a:	689b      	ldr	r3, [r3, #8]
 800215c:	f023 02f0 	bic.w	r2, r3, #240	@ 0xf0
 8002160:	687b      	ldr	r3, [r7, #4]
 8002162:	689b      	ldr	r3, [r3, #8]
 8002164:	494d      	ldr	r1, [pc, #308]	@ (800229c <HAL_RCC_ClockConfig+0x1bc>)
 8002166:	4313      	orrs	r3, r2
 8002168:	608b      	str	r3, [r1, #8]
  }

  /*------------------------- SYSCLK Configuration ---------------------------*/
  if(((RCC_ClkInitStruct->ClockType) & RCC_CLOCKTYPE_SYSCLK) == RCC_CLOCKTYPE_SYSCLK)
 800216a:	687b      	ldr	r3, [r7, #4]
 800216c:	681b      	ldr	r3, [r3, #0]
 800216e:	f003 0301 	and.w	r3, r3, #1
 8002172:	2b00      	cmp	r3, #0
 8002174:	d044      	beq.n	8002200 <HAL_RCC_ClockConfig+0x120>
  {
    assert_param(IS_RCC_SYSCLKSOURCE(RCC_ClkInitStruct->SYSCLKSource));

    /* HSE is selected as System Clock Source */
    if(RCC_ClkInitStruct->SYSCLKSource == RCC_SYSCLKSOURCE_HSE)
 8002176:	687b      	ldr	r3, [r7, #4]
 8002178:	685b      	ldr	r3, [r3, #4]
 800217a:	2b01      	cmp	r3, #1
 800217c:	d107      	bne.n	800218e <HAL_RCC_ClockConfig+0xae>
    {
      /* Check the HSE ready flag */
      if(__HAL_RCC_GET_FLAG(RCC_FLAG_HSERDY) == RESET)
 800217e:	4b47      	ldr	r3, [pc, #284]	@ (800229c <HAL_RCC_ClockConfig+0x1bc>)
 8002180:	681b      	ldr	r3, [r3, #0]
 8002182:	f403 3300 	and.w	r3, r3, #131072	@ 0x20000
 8002186:	2b00      	cmp	r3, #0
 8002188:	d119      	bne.n	80021be <HAL_RCC_ClockConfig+0xde>
      {
        return HAL_ERROR;
 800218a:	2301      	movs	r3, #1
 800218c:	e07f      	b.n	800228e <HAL_RCC_ClockConfig+0x1ae>
      }
    }
    /* PLL is selected as System Clock Source */
    else if((RCC_ClkInitStruct->SYSCLKSource == RCC_SYSCLKSOURCE_PLLCLK)   ||
 800218e:	687b      	ldr	r3, [r7, #4]
 8002190:	685b      	ldr	r3, [r3, #4]
 8002192:	2b02      	cmp	r3, #2
 8002194:	d003      	beq.n	800219e <HAL_RCC_ClockConfig+0xbe>
            (RCC_ClkInitStruct->SYSCLKSource == RCC_SYSCLKSOURCE_PLLRCLK))
 8002196:	687b      	ldr	r3, [r7, #4]
 8002198:	685b      	ldr	r3, [r3, #4]
    else if((RCC_ClkInitStruct->SYSCLKSource == RCC_SYSCLKSOURCE_PLLCLK)   ||
 800219a:	2b03      	cmp	r3, #3
 800219c:	d107      	bne.n	80021ae <HAL_RCC_ClockConfig+0xce>
    {
      /* Check the PLL ready flag */
      if(__HAL_RCC_GET_FLAG(RCC_FLAG_PLLRDY) == RESET)
 800219e:	4b3f      	ldr	r3, [pc, #252]	@ (800229c <HAL_RCC_ClockConfig+0x1bc>)
 80021a0:	681b      	ldr	r3, [r3, #0]
 80021a2:	f003 7300 	and.w	r3, r3, #33554432	@ 0x2000000
 80021a6:	2b00      	cmp	r3, #0
 80021a8:	d109      	bne.n	80021be <HAL_RCC_ClockConfig+0xde>
      {
        return HAL_ERROR;
 80021aa:	2301      	movs	r3, #1
 80021ac:	e06f      	b.n	800228e <HAL_RCC_ClockConfig+0x1ae>
    }
    /* HSI is selected as System Clock Source */
    else
    {
      /* Check the HSI ready flag */
      if(__HAL_RCC_GET_FLAG(RCC_FLAG_HSIRDY) == RESET)
 80021ae:	4b3b      	ldr	r3, [pc, #236]	@ (800229c <HAL_RCC_ClockConfig+0x1bc>)
 80021b0:	681b      	ldr	r3, [r3, #0]
 80021b2:	f003 0302 	and.w	r3, r3, #2
 80021b6:	2b00      	cmp	r3, #0
 80021b8:	d101      	bne.n	80021be <HAL_RCC_ClockConfig+0xde>
      {
        return HAL_ERROR;
 80021ba:	2301      	movs	r3, #1
 80021bc:	e067      	b.n	800228e <HAL_RCC_ClockConfig+0x1ae>
      }
    }

    __HAL_RCC_SYSCLK_CONFIG(RCC_ClkInitStruct->SYSCLKSource);
 80021be:	4b37      	ldr	r3, [pc, #220]	@ (800229c <HAL_RCC_ClockConfig+0x1bc>)
 80021c0:	689b      	ldr	r3, [r3, #8]
 80021c2:	f023 0203 	bic.w	r2, r3, #3
 80021c6:	687b      	ldr	r3, [r7, #4]
 80021c8:	685b      	ldr	r3, [r3, #4]
 80021ca:	4934      	ldr	r1, [pc, #208]	@ (800229c <HAL_RCC_ClockConfig+0x1bc>)
 80021cc:	4313      	orrs	r3, r2
 80021ce:	608b      	str	r3, [r1, #8]

    /* Get Start Tick */
    tickstart = HAL_GetTick();
 80021d0:	f7ff f99c 	bl	800150c <HAL_GetTick>
 80021d4:	60f8      	str	r0, [r7, #12]

    while (__HAL_RCC_GET_SYSCLK_SOURCE() != (RCC_ClkInitStruct->SYSCLKSource << RCC_CFGR_SWS_Pos))
 80021d6:	e00a      	b.n	80021ee <HAL_RCC_ClockConfig+0x10e>
    {
      if ((HAL_GetTick() - tickstart) > CLOCKSWITCH_TIMEOUT_VALUE)
 80021d8:	f7ff f998 	bl	800150c <HAL_GetTick>
 80021dc:	4602      	mov	r2, r0
 80021de:	68fb      	ldr	r3, [r7, #12]
 80021e0:	1ad3      	subs	r3, r2, r3
 80021e2:	f241 3288 	movw	r2, #5000	@ 0x1388
 80021e6:	4293      	cmp	r3, r2
 80021e8:	d901      	bls.n	80021ee <HAL_RCC_ClockConfig+0x10e>
      {
        return HAL_TIMEOUT;
 80021ea:	2303      	movs	r3, #3
 80021ec:	e04f      	b.n	800228e <HAL_RCC_ClockConfig+0x1ae>
    while (__HAL_RCC_GET_SYSCLK_SOURCE() != (RCC_ClkInitStruct->SYSCLKSource << RCC_CFGR_SWS_Pos))
 80021ee:	4b2b      	ldr	r3, [pc, #172]	@ (800229c <HAL_RCC_ClockConfig+0x1bc>)
 80021f0:	689b      	ldr	r3, [r3, #8]
 80021f2:	f003 020c 	and.w	r2, r3, #12
 80021f6:	687b      	ldr	r3, [r7, #4]
 80021f8:	685b      	ldr	r3, [r3, #4]
 80021fa:	009b      	lsls	r3, r3, #2
 80021fc:	429a      	cmp	r2, r3
 80021fe:	d1eb      	bne.n	80021d8 <HAL_RCC_ClockConfig+0xf8>
      }
    }
  }

  /* Decreasing the number of wait states because of lower CPU frequency */
  if(FLatency < __HAL_FLASH_GET_LATENCY())
 8002200:	4b25      	ldr	r3, [pc, #148]	@ (8002298 <HAL_RCC_ClockConfig+0x1b8>)
 8002202:	681b      	ldr	r3, [r3, #0]
 8002204:	f003 0307 	and.w	r3, r3, #7
 8002208:	683a      	ldr	r2, [r7, #0]
 800220a:	429a      	cmp	r2, r3
 800220c:	d20c      	bcs.n	8002228 <HAL_RCC_ClockConfig+0x148>
  {
     /* Program the new number of wait states to the LATENCY bits in the FLASH_ACR register */
    __HAL_FLASH_SET_LATENCY(FLatency);
 800220e:	4b22      	ldr	r3, [pc, #136]	@ (8002298 <HAL_RCC_ClockConfig+0x1b8>)
 8002210:	683a      	ldr	r2, [r7, #0]
 8002212:	b2d2      	uxtb	r2, r2
 8002214:	701a      	strb	r2, [r3, #0]

    /* Check that the new number of wait states is taken into account to access the Flash
    memory by reading the FLASH_ACR register */
    if(__HAL_FLASH_GET_LATENCY() != FLatency)
 8002216:	4b20      	ldr	r3, [pc, #128]	@ (8002298 <HAL_RCC_ClockConfig+0x1b8>)
 8002218:	681b      	ldr	r3, [r3, #0]
 800221a:	f003 0307 	and.w	r3, r3, #7
 800221e:	683a      	ldr	r2, [r7, #0]
 8002220:	429a      	cmp	r2, r3
 8002222:	d001      	beq.n	8002228 <HAL_RCC_ClockConfig+0x148>
    {
      return HAL_ERROR;
 8002224:	2301      	movs	r3, #1
 8002226:	e032      	b.n	800228e <HAL_RCC_ClockConfig+0x1ae>
    }
  }

  /*-------------------------- PCLK1 Configuration ---------------------------*/
  if(((RCC_ClkInitStruct->ClockType) & RCC_CLOCKTYPE_PCLK1) == RCC_CLOCKTYPE_PCLK1)
 8002228:	687b      	ldr	r3, [r7, #4]
 800222a:	681b      	ldr	r3, [r3, #0]
 800222c:	f003 0304 	and.w	r3, r3, #4
 8002230:	2b00      	cmp	r3, #0
 8002232:	d008      	beq.n	8002246 <HAL_RCC_ClockConfig+0x166>
  {
    assert_param(IS_RCC_PCLK(RCC_ClkInitStruct->APB1CLKDivider));
    MODIFY_REG(RCC->CFGR, RCC_CFGR_PPRE1, RCC_ClkInitStruct->APB1CLKDivider);
 8002234:	4b19      	ldr	r3, [pc, #100]	@ (800229c <HAL_RCC_ClockConfig+0x1bc>)
 8002236:	689b      	ldr	r3, [r3, #8]
 8002238:	f423 52e0 	bic.w	r2, r3, #7168	@ 0x1c00
 800223c:	687b      	ldr	r3, [r7, #4]
 800223e:	68db      	ldr	r3, [r3, #12]
 8002240:	4916      	ldr	r1, [pc, #88]	@ (800229c <HAL_RCC_ClockConfig+0x1bc>)
 8002242:	4313      	orrs	r3, r2
 8002244:	608b      	str	r3, [r1, #8]
  }

  /*-------------------------- PCLK2 Configuration ---------------------------*/
  if(((RCC_ClkInitStruct->ClockType) & RCC_CLOCKTYPE_PCLK2) == RCC_CLOCKTYPE_PCLK2)
 8002246:	687b      	ldr	r3, [r7, #4]
 8002248:	681b      	ldr	r3, [r3, #0]
 800224a:	f003 0308 	and.w	r3, r3, #8
 800224e:	2b00      	cmp	r3, #0
 8002250:	d009      	beq.n	8002266 <HAL_RCC_ClockConfig+0x186>
  {
    assert_param(IS_RCC_PCLK(RCC_ClkInitStruct->APB2CLKDivider));
    MODIFY_REG(RCC->CFGR, RCC_CFGR_PPRE2, ((RCC_ClkInitStruct->APB2CLKDivider) << 3U));
 8002252:	4b12      	ldr	r3, [pc, #72]	@ (800229c <HAL_RCC_ClockConfig+0x1bc>)
 8002254:	689b      	ldr	r3, [r3, #8]
 8002256:	f423 4260 	bic.w	r2, r3, #57344	@ 0xe000
 800225a:	687b      	ldr	r3, [r7, #4]
 800225c:	691b      	ldr	r3, [r3, #16]
 800225e:	00db      	lsls	r3, r3, #3
 8002260:	490e      	ldr	r1, [pc, #56]	@ (800229c <HAL_RCC_ClockConfig+0x1bc>)
 8002262:	4313      	orrs	r3, r2
 8002264:	608b      	str	r3, [r1, #8]
  }

  /* Update the SystemCoreClock global variable */
  SystemCoreClock = HAL_RCC_GetSysClockFreq() >> AHBPrescTable[(RCC->CFGR & RCC_CFGR_HPRE)>> RCC_CFGR_HPRE_Pos];
 8002266:	f000 f821 	bl	80022ac <HAL_RCC_GetSysClockFreq>
 800226a:	4602      	mov	r2, r0
 800226c:	4b0b      	ldr	r3, [pc, #44]	@ (800229c <HAL_RCC_ClockConfig+0x1bc>)
 800226e:	689b      	ldr	r3, [r3, #8]
 8002270:	091b      	lsrs	r3, r3, #4
 8002272:	f003 030f 	and.w	r3, r3, #15
 8002276:	490a      	ldr	r1, [pc, #40]	@ (80022a0 <HAL_RCC_ClockConfig+0x1c0>)
 8002278:	5ccb      	ldrb	r3, [r1, r3]
 800227a:	fa22 f303 	lsr.w	r3, r2, r3
 800227e:	4a09      	ldr	r2, [pc, #36]	@ (80022a4 <HAL_RCC_ClockConfig+0x1c4>)
 8002280:	6013      	str	r3, [r2, #0]

  /* Configure the source of time base considering new system clocks settings */
  HAL_InitTick (uwTickPrio);
 8002282:	4b09      	ldr	r3, [pc, #36]	@ (80022a8 <HAL_RCC_ClockConfig+0x1c8>)
 8002284:	681b      	ldr	r3, [r3, #0]
 8002286:	4618      	mov	r0, r3
 8002288:	f7ff f8fc 	bl	8001484 <HAL_InitTick>

  return HAL_OK;
 800228c:	2300      	movs	r3, #0
}
 800228e:	4618      	mov	r0, r3
 8002290:	3710      	adds	r7, #16
 8002292:	46bd      	mov	sp, r7
 8002294:	bd80      	pop	{r7, pc}
 8002296:	bf00      	nop
 8002298:	40023c00 	.word	0x40023c00
 800229c:	40023800 	.word	0x40023800
 80022a0:	080037c8 	.word	0x080037c8
 80022a4:	20000080 	.word	0x20000080
 80022a8:	20000084 	.word	0x20000084

080022ac <HAL_RCC_GetSysClockFreq>:
  *
  *
  * @retval SYSCLK frequency
  */
__weak uint32_t HAL_RCC_GetSysClockFreq(void)
{
 80022ac:	e92d 4fb0 	stmdb	sp!, {r4, r5, r7, r8, r9, sl, fp, lr}
 80022b0:	b094      	sub	sp, #80	@ 0x50
 80022b2:	af00      	add	r7, sp, #0
  uint32_t pllm = 0U, pllvco = 0U, pllp = 0U;
 80022b4:	2300      	movs	r3, #0
 80022b6:	647b      	str	r3, [r7, #68]	@ 0x44
 80022b8:	2300      	movs	r3, #0
 80022ba:	64fb      	str	r3, [r7, #76]	@ 0x4c
 80022bc:	2300      	movs	r3, #0
 80022be:	643b      	str	r3, [r7, #64]	@ 0x40
  uint32_t sysclockfreq = 0U;
 80022c0:	2300      	movs	r3, #0
 80022c2:	64bb      	str	r3, [r7, #72]	@ 0x48

  /* Get SYSCLK source -------------------------------------------------------*/
  switch (RCC->CFGR & RCC_CFGR_SWS)
 80022c4:	4b79      	ldr	r3, [pc, #484]	@ (80024ac <HAL_RCC_GetSysClockFreq+0x200>)
 80022c6:	689b      	ldr	r3, [r3, #8]
 80022c8:	f003 030c 	and.w	r3, r3, #12
 80022cc:	2b08      	cmp	r3, #8
 80022ce:	d00d      	beq.n	80022ec <HAL_RCC_GetSysClockFreq+0x40>
 80022d0:	2b08      	cmp	r3, #8
 80022d2:	f200 80e1 	bhi.w	8002498 <HAL_RCC_GetSysClockFreq+0x1ec>
 80022d6:	2b00      	cmp	r3, #0
 80022d8:	d002      	beq.n	80022e0 <HAL_RCC_GetSysClockFreq+0x34>
 80022da:	2b04      	cmp	r3, #4
 80022dc:	d003      	beq.n	80022e6 <HAL_RCC_GetSysClockFreq+0x3a>
 80022de:	e0db      	b.n	8002498 <HAL_RCC_GetSysClockFreq+0x1ec>
  {
    case RCC_CFGR_SWS_HSI:  /* HSI used as system clock source */
    {
      sysclockfreq = HSI_VALUE;
 80022e0:	4b73      	ldr	r3, [pc, #460]	@ (80024b0 <HAL_RCC_GetSysClockFreq+0x204>)
 80022e2:	64bb      	str	r3, [r7, #72]	@ 0x48
       break;
 80022e4:	e0db      	b.n	800249e <HAL_RCC_GetSysClockFreq+0x1f2>
    }
    case RCC_CFGR_SWS_HSE:  /* HSE used as system clock  source */
    {
      sysclockfreq = HSE_VALUE;
 80022e6:	4b73      	ldr	r3, [pc, #460]	@ (80024b4 <HAL_RCC_GetSysClockFreq+0x208>)
 80022e8:	64bb      	str	r3, [r7, #72]	@ 0x48
      break;
 80022ea:	e0d8      	b.n	800249e <HAL_RCC_GetSysClockFreq+0x1f2>
    }
    case RCC_CFGR_SWS_PLL:  /* PLL used as system clock  source */
    {
      /* PLL_VCO = (HSE_VALUE or HSI_VALUE / PLLM) * PLLN
      SYSCLK = PLL_VCO / PLLP */
      pllm = RCC->PLLCFGR & RCC_PLLCFGR_PLLM;
 80022ec:	4b6f      	ldr	r3, [pc, #444]	@ (80024ac <HAL_RCC_GetSysClockFreq+0x200>)
 80022ee:	685b      	ldr	r3, [r3, #4]
 80022f0:	f003 033f 	and.w	r3, r3, #63	@ 0x3f
 80022f4:	647b      	str	r3, [r7, #68]	@ 0x44
      if(__HAL_RCC_GET_PLL_OSCSOURCE() != RCC_PLLSOURCE_HSI)
 80022f6:	4b6d      	ldr	r3, [pc, #436]	@ (80024ac <HAL_RCC_GetSysClockFreq+0x200>)
 80022f8:	685b      	ldr	r3, [r3, #4]
 80022fa:	f403 0380 	and.w	r3, r3, #4194304	@ 0x400000
 80022fe:	2b00      	cmp	r3, #0
 8002300:	d063      	beq.n	80023ca <HAL_RCC_GetSysClockFreq+0x11e>
      {
        /* HSE used as PLL clock source */
        pllvco = (uint32_t) ((((uint64_t) HSE_VALUE * ((uint64_t) ((RCC->PLLCFGR & RCC_PLLCFGR_PLLN) >> RCC_PLLCFGR_PLLN_Pos)))) / (uint64_t)pllm);
 8002302:	4b6a      	ldr	r3, [pc, #424]	@ (80024ac <HAL_RCC_GetSysClockFreq+0x200>)
 8002304:	685b      	ldr	r3, [r3, #4]
 8002306:	099b      	lsrs	r3, r3, #6
 8002308:	2200      	movs	r2, #0
 800230a:	63bb      	str	r3, [r7, #56]	@ 0x38
 800230c:	63fa      	str	r2, [r7, #60]	@ 0x3c
 800230e:	6bbb      	ldr	r3, [r7, #56]	@ 0x38
 8002310:	f3c3 0308 	ubfx	r3, r3, #0, #9
 8002314:	633b      	str	r3, [r7, #48]	@ 0x30
 8002316:	2300      	movs	r3, #0
 8002318:	637b      	str	r3, [r7, #52]	@ 0x34
 800231a:	e9d7 450c 	ldrd	r4, r5, [r7, #48]	@ 0x30
 800231e:	4622      	mov	r2, r4
 8002320:	462b      	mov	r3, r5
 8002322:	f04f 0000 	mov.w	r0, #0
 8002326:	f04f 0100 	mov.w	r1, #0
 800232a:	0159      	lsls	r1, r3, #5
 800232c:	ea41 61d2 	orr.w	r1, r1, r2, lsr #27
 8002330:	0150      	lsls	r0, r2, #5
 8002332:	4602      	mov	r2, r0
 8002334:	460b      	mov	r3, r1
 8002336:	4621      	mov	r1, r4
 8002338:	1a51      	subs	r1, r2, r1
 800233a:	6139      	str	r1, [r7, #16]
 800233c:	4629      	mov	r1, r5
 800233e:	eb63 0301 	sbc.w	r3, r3, r1
 8002342:	617b      	str	r3, [r7, #20]
 8002344:	f04f 0200 	mov.w	r2, #0
 8002348:	f04f 0300 	mov.w	r3, #0
 800234c:	e9d7 ab04 	ldrd	sl, fp, [r7, #16]
 8002350:	4659      	mov	r1, fp
 8002352:	018b      	lsls	r3, r1, #6
 8002354:	4651      	mov	r1, sl
 8002356:	ea43 6391 	orr.w	r3, r3, r1, lsr #26
 800235a:	4651      	mov	r1, sl
 800235c:	018a      	lsls	r2, r1, #6
 800235e:	4651      	mov	r1, sl
 8002360:	ebb2 0801 	subs.w	r8, r2, r1
 8002364:	4659      	mov	r1, fp
 8002366:	eb63 0901 	sbc.w	r9, r3, r1
 800236a:	f04f 0200 	mov.w	r2, #0
 800236e:	f04f 0300 	mov.w	r3, #0
 8002372:	ea4f 03c9 	mov.w	r3, r9, lsl #3
 8002376:	ea43 7358 	orr.w	r3, r3, r8, lsr #29
 800237a:	ea4f 02c8 	mov.w	r2, r8, lsl #3
 800237e:	4690      	mov	r8, r2
 8002380:	4699      	mov	r9, r3
 8002382:	4623      	mov	r3, r4
 8002384:	eb18 0303 	adds.w	r3, r8, r3
 8002388:	60bb      	str	r3, [r7, #8]
 800238a:	462b      	mov	r3, r5
 800238c:	eb49 0303 	adc.w	r3, r9, r3
 8002390:	60fb      	str	r3, [r7, #12]
 8002392:	f04f 0200 	mov.w	r2, #0
 8002396:	f04f 0300 	mov.w	r3, #0
 800239a:	e9d7 4502 	ldrd	r4, r5, [r7, #8]
 800239e:	4629      	mov	r1, r5
 80023a0:	024b      	lsls	r3, r1, #9
 80023a2:	4621      	mov	r1, r4
 80023a4:	ea43 53d1 	orr.w	r3, r3, r1, lsr #23
 80023a8:	4621      	mov	r1, r4
 80023aa:	024a      	lsls	r2, r1, #9
 80023ac:	4610      	mov	r0, r2
 80023ae:	4619      	mov	r1, r3
 80023b0:	6c7b      	ldr	r3, [r7, #68]	@ 0x44
 80023b2:	2200      	movs	r2, #0
 80023b4:	62bb      	str	r3, [r7, #40]	@ 0x28
 80023b6:	62fa      	str	r2, [r7, #44]	@ 0x2c
 80023b8:	e9d7 230a 	ldrd	r2, r3, [r7, #40]	@ 0x28
 80023bc:	f7fe f8d0 	bl	8000560 <__aeabi_uldivmod>
 80023c0:	4602      	mov	r2, r0
 80023c2:	460b      	mov	r3, r1
 80023c4:	4613      	mov	r3, r2
 80023c6:	64fb      	str	r3, [r7, #76]	@ 0x4c
 80023c8:	e058      	b.n	800247c <HAL_RCC_GetSysClockFreq+0x1d0>
      }
      else
      {
        /* HSI used as PLL clock source */
        pllvco = (uint32_t) ((((uint64_t) HSI_VALUE * ((uint64_t) ((RCC->PLLCFGR & RCC_PLLCFGR_PLLN) >> RCC_PLLCFGR_PLLN_Pos)))) / (uint64_t)pllm);
 80023ca:	4b38      	ldr	r3, [pc, #224]	@ (80024ac <HAL_RCC_GetSysClockFreq+0x200>)
 80023cc:	685b      	ldr	r3, [r3, #4]
 80023ce:	099b      	lsrs	r3, r3, #6
 80023d0:	2200      	movs	r2, #0
 80023d2:	4618      	mov	r0, r3
 80023d4:	4611      	mov	r1, r2
 80023d6:	f3c0 0308 	ubfx	r3, r0, #0, #9
 80023da:	623b      	str	r3, [r7, #32]
 80023dc:	2300      	movs	r3, #0
 80023de:	627b      	str	r3, [r7, #36]	@ 0x24
 80023e0:	e9d7 8908 	ldrd	r8, r9, [r7, #32]
 80023e4:	4642      	mov	r2, r8
 80023e6:	464b      	mov	r3, r9
 80023e8:	f04f 0000 	mov.w	r0, #0
 80023ec:	f04f 0100 	mov.w	r1, #0
 80023f0:	0159      	lsls	r1, r3, #5
 80023f2:	ea41 61d2 	orr.w	r1, r1, r2, lsr #27
 80023f6:	0150      	lsls	r0, r2, #5
 80023f8:	4602      	mov	r2, r0
 80023fa:	460b      	mov	r3, r1
 80023fc:	4641      	mov	r1, r8
 80023fe:	ebb2 0a01 	subs.w	sl, r2, r1
 8002402:	4649      	mov	r1, r9
 8002404:	eb63 0b01 	sbc.w	fp, r3, r1
 8002408:	f04f 0200 	mov.w	r2, #0
 800240c:	f04f 0300 	mov.w	r3, #0
 8002410:	ea4f 138b 	mov.w	r3, fp, lsl #6
 8002414:	ea43 639a 	orr.w	r3, r3, sl, lsr #26
 8002418:	ea4f 128a 	mov.w	r2, sl, lsl #6
 800241c:	ebb2 040a 	subs.w	r4, r2, sl
 8002420:	eb63 050b 	sbc.w	r5, r3, fp
 8002424:	f04f 0200 	mov.w	r2, #0
 8002428:	f04f 0300 	mov.w	r3, #0
 800242c:	00eb      	lsls	r3, r5, #3
 800242e:	ea43 7354 	orr.w	r3, r3, r4, lsr #29
 8002432:	00e2      	lsls	r2, r4, #3
 8002434:	4614      	mov	r4, r2
 8002436:	461d      	mov	r5, r3
 8002438:	4643      	mov	r3, r8
 800243a:	18e3      	adds	r3, r4, r3
 800243c:	603b      	str	r3, [r7, #0]
 800243e:	464b      	mov	r3, r9
 8002440:	eb45 0303 	adc.w	r3, r5, r3
 8002444:	607b      	str	r3, [r7, #4]
 8002446:	f04f 0200 	mov.w	r2, #0
 800244a:	f04f 0300 	mov.w	r3, #0
 800244e:	e9d7 4500 	ldrd	r4, r5, [r7]
 8002452:	4629      	mov	r1, r5
 8002454:	028b      	lsls	r3, r1, #10
 8002456:	4621      	mov	r1, r4
 8002458:	ea43 5391 	orr.w	r3, r3, r1, lsr #22
 800245c:	4621      	mov	r1, r4
 800245e:	028a      	lsls	r2, r1, #10
 8002460:	4610      	mov	r0, r2
 8002462:	4619      	mov	r1, r3
 8002464:	6c7b      	ldr	r3, [r7, #68]	@ 0x44
 8002466:	2200      	movs	r2, #0
 8002468:	61bb      	str	r3, [r7, #24]
 800246a:	61fa      	str	r2, [r7, #28]
 800246c:	e9d7 2306 	ldrd	r2, r3, [r7, #24]
 8002470:	f7fe f876 	bl	8000560 <__aeabi_uldivmod>
 8002474:	4602      	mov	r2, r0
 8002476:	460b      	mov	r3, r1
 8002478:	4613      	mov	r3, r2
 800247a:	64fb      	str	r3, [r7, #76]	@ 0x4c
      }
      pllp = ((((RCC->PLLCFGR & RCC_PLLCFGR_PLLP) >> RCC_PLLCFGR_PLLP_Pos) + 1U) *2U);
 800247c:	4b0b      	ldr	r3, [pc, #44]	@ (80024ac <HAL_RCC_GetSysClockFreq+0x200>)
 800247e:	685b      	ldr	r3, [r3, #4]
 8002480:	0c1b      	lsrs	r3, r3, #16
 8002482:	f003 0303 	and.w	r3, r3, #3
 8002486:	3301      	adds	r3, #1
 8002488:	005b      	lsls	r3, r3, #1
 800248a:	643b      	str	r3, [r7, #64]	@ 0x40

      sysclockfreq = pllvco/pllp;
 800248c:	6cfa      	ldr	r2, [r7, #76]	@ 0x4c
 800248e:	6c3b      	ldr	r3, [r7, #64]	@ 0x40
 8002490:	fbb2 f3f3 	udiv	r3, r2, r3
 8002494:	64bb      	str	r3, [r7, #72]	@ 0x48
      break;
 8002496:	e002      	b.n	800249e <HAL_RCC_GetSysClockFreq+0x1f2>
    }
    default:
    {
      sysclockfreq = HSI_VALUE;
 8002498:	4b05      	ldr	r3, [pc, #20]	@ (80024b0 <HAL_RCC_GetSysClockFreq+0x204>)
 800249a:	64bb      	str	r3, [r7, #72]	@ 0x48
      break;
 800249c:	bf00      	nop
    }
  }
  return sysclockfreq;
 800249e:	6cbb      	ldr	r3, [r7, #72]	@ 0x48
}
 80024a0:	4618      	mov	r0, r3
 80024a2:	3750      	adds	r7, #80	@ 0x50
 80024a4:	46bd      	mov	sp, r7
 80024a6:	e8bd 8fb0 	ldmia.w	sp!, {r4, r5, r7, r8, r9, sl, fp, pc}
 80024aa:	bf00      	nop
 80024ac:	40023800 	.word	0x40023800
 80024b0:	00f42400 	.word	0x00f42400
 80024b4:	007a1200 	.word	0x007a1200

080024b8 <HAL_RCC_GetHCLKFreq>:
  * @note   The SystemCoreClock CMSIS variable is used to store System Clock Frequency
  *         and updated within this function
  * @retval HCLK frequency
  */
uint32_t HAL_RCC_GetHCLKFreq(void)
{
 80024b8:	b480      	push	{r7}
 80024ba:	af00      	add	r7, sp, #0
  return SystemCoreClock;
 80024bc:	4b03      	ldr	r3, [pc, #12]	@ (80024cc <HAL_RCC_GetHCLKFreq+0x14>)
 80024be:	681b      	ldr	r3, [r3, #0]
}
 80024c0:	4618      	mov	r0, r3
 80024c2:	46bd      	mov	sp, r7
 80024c4:	f85d 7b04 	ldr.w	r7, [sp], #4
 80024c8:	4770      	bx	lr
 80024ca:	bf00      	nop
 80024cc:	20000080 	.word	0x20000080

080024d0 <HAL_RCC_GetPCLK1Freq>:
  * @note   Each time PCLK1 changes, this function must be called to update the
  *         right PCLK1 value. Otherwise, any configuration based on this function will be incorrect.
  * @retval PCLK1 frequency
  */
uint32_t HAL_RCC_GetPCLK1Freq(void)
{
 80024d0:	b580      	push	{r7, lr}
 80024d2:	af00      	add	r7, sp, #0
  /* Get HCLK source and Compute PCLK1 frequency ---------------------------*/
  return (HAL_RCC_GetHCLKFreq() >> APBPrescTable[(RCC->CFGR & RCC_CFGR_PPRE1)>> RCC_CFGR_PPRE1_Pos]);
 80024d4:	f7ff fff0 	bl	80024b8 <HAL_RCC_GetHCLKFreq>
 80024d8:	4602      	mov	r2, r0
 80024da:	4b05      	ldr	r3, [pc, #20]	@ (80024f0 <HAL_RCC_GetPCLK1Freq+0x20>)
 80024dc:	689b      	ldr	r3, [r3, #8]
 80024de:	0a9b      	lsrs	r3, r3, #10
 80024e0:	f003 0307 	and.w	r3, r3, #7
 80024e4:	4903      	ldr	r1, [pc, #12]	@ (80024f4 <HAL_RCC_GetPCLK1Freq+0x24>)
 80024e6:	5ccb      	ldrb	r3, [r1, r3]
 80024e8:	fa22 f303 	lsr.w	r3, r2, r3
}
 80024ec:	4618      	mov	r0, r3
 80024ee:	bd80      	pop	{r7, pc}
 80024f0:	40023800 	.word	0x40023800
 80024f4:	080037d8 	.word	0x080037d8

080024f8 <HAL_RCC_GetPCLK2Freq>:
  * @note   Each time PCLK2 changes, this function must be called to update the
  *         right PCLK2 value. Otherwise, any configuration based on this function will be incorrect.
  * @retval PCLK2 frequency
  */
uint32_t HAL_RCC_GetPCLK2Freq(void)
{
 80024f8:	b580      	push	{r7, lr}
 80024fa:	af00      	add	r7, sp, #0
  /* Get HCLK source and Compute PCLK2 frequency ---------------------------*/
  return (HAL_RCC_GetHCLKFreq()>> APBPrescTable[(RCC->CFGR & RCC_CFGR_PPRE2)>> RCC_CFGR_PPRE2_Pos]);
 80024fc:	f7ff ffdc 	bl	80024b8 <HAL_RCC_GetHCLKFreq>
 8002500:	4602      	mov	r2, r0
 8002502:	4b05      	ldr	r3, [pc, #20]	@ (8002518 <HAL_RCC_GetPCLK2Freq+0x20>)
 8002504:	689b      	ldr	r3, [r3, #8]
 8002506:	0b5b      	lsrs	r3, r3, #13
 8002508:	f003 0307 	and.w	r3, r3, #7
 800250c:	4903      	ldr	r1, [pc, #12]	@ (800251c <HAL_RCC_GetPCLK2Freq+0x24>)
 800250e:	5ccb      	ldrb	r3, [r1, r3]
 8002510:	fa22 f303 	lsr.w	r3, r2, r3
}
 8002514:	4618      	mov	r0, r3
 8002516:	bd80      	pop	{r7, pc}
 8002518:	40023800 	.word	0x40023800
 800251c:	080037d8 	.word	0x080037d8

08002520 <HAL_UART_Init>:
  * @param  huart  Pointer to a UART_HandleTypeDef structure that contains
  *                the configuration information for the specified UART module.
  * @retval HAL status
  */
HAL_StatusTypeDef HAL_UART_Init(UART_HandleTypeDef *huart)
{
 8002520:	b580      	push	{r7, lr}
 8002522:	b082      	sub	sp, #8
 8002524:	af00      	add	r7, sp, #0
 8002526:	6078      	str	r0, [r7, #4]
  /* Check the UART handle allocation */
  if (huart == NULL)
 8002528:	687b      	ldr	r3, [r7, #4]
 800252a:	2b00      	cmp	r3, #0
 800252c:	d101      	bne.n	8002532 <HAL_UART_Init+0x12>
  {
    return HAL_ERROR;
 800252e:	2301      	movs	r3, #1
 8002530:	e03f      	b.n	80025b2 <HAL_UART_Init+0x92>
    assert_param(IS_UART_INSTANCE(huart->Instance));
  }
  assert_param(IS_UART_WORD_LENGTH(huart->Init.WordLength));
  assert_param(IS_UART_OVERSAMPLING(huart->Init.OverSampling));

  if (huart->gState == HAL_UART_STATE_RESET)
 8002532:	687b      	ldr	r3, [r7, #4]
 8002534:	f893 303d 	ldrb.w	r3, [r3, #61]	@ 0x3d
 8002538:	b2db      	uxtb	r3, r3
 800253a:	2b00      	cmp	r3, #0
 800253c:	d106      	bne.n	800254c <HAL_UART_Init+0x2c>
  {
    /* Allocate lock resource and initialize it */
    huart->Lock = HAL_UNLOCKED;
 800253e:	687b      	ldr	r3, [r7, #4]
 8002540:	2200      	movs	r2, #0
 8002542:	f883 203c 	strb.w	r2, [r3, #60]	@ 0x3c

    /* Init the low level hardware */
    huart->MspInitCallback(huart);
#else
    /* Init the low level hardware : GPIO, CLOCK */
    HAL_UART_MspInit(huart);
 8002546:	6878      	ldr	r0, [r7, #4]
 8002548:	f7fe feb4 	bl	80012b4 <HAL_UART_MspInit>
#endif /* (USE_HAL_UART_REGISTER_CALLBACKS) */
  }

  huart->gState = HAL_UART_STATE_BUSY;
 800254c:	687b      	ldr	r3, [r7, #4]
 800254e:	2224      	movs	r2, #36	@ 0x24
 8002550:	f883 203d 	strb.w	r2, [r3, #61]	@ 0x3d

  /* Disable the peripheral */
  __HAL_UART_DISABLE(huart);
 8002554:	687b      	ldr	r3, [r7, #4]
 8002556:	681b      	ldr	r3, [r3, #0]
 8002558:	68da      	ldr	r2, [r3, #12]
 800255a:	687b      	ldr	r3, [r7, #4]
 800255c:	681b      	ldr	r3, [r3, #0]
 800255e:	f422 5200 	bic.w	r2, r2, #8192	@ 0x2000
 8002562:	60da      	str	r2, [r3, #12]

  /* Set the UART Communication parameters */
  UART_SetConfig(huart);
 8002564:	6878      	ldr	r0, [r7, #4]
 8002566:	f000 fddf 	bl	8003128 <UART_SetConfig>

  /* In asynchronous mode, the following bits must be kept cleared:
     - LINEN and CLKEN bits in the USART_CR2 register,
     - SCEN, HDSEL and IREN  bits in the USART_CR3 register.*/
  CLEAR_BIT(huart->Instance->CR2, (USART_CR2_LINEN | USART_CR2_CLKEN));
 800256a:	687b      	ldr	r3, [r7, #4]
 800256c:	681b      	ldr	r3, [r3, #0]
 800256e:	691a      	ldr	r2, [r3, #16]
 8002570:	687b      	ldr	r3, [r7, #4]
 8002572:	681b      	ldr	r3, [r3, #0]
 8002574:	f422 4290 	bic.w	r2, r2, #18432	@ 0x4800
 8002578:	611a      	str	r2, [r3, #16]
  CLEAR_BIT(huart->Instance->CR3, (USART_CR3_SCEN | USART_CR3_HDSEL | USART_CR3_IREN));
 800257a:	687b      	ldr	r3, [r7, #4]
 800257c:	681b      	ldr	r3, [r3, #0]
 800257e:	695a      	ldr	r2, [r3, #20]
 8002580:	687b      	ldr	r3, [r7, #4]
 8002582:	681b      	ldr	r3, [r3, #0]
 8002584:	f022 022a 	bic.w	r2, r2, #42	@ 0x2a
 8002588:	615a      	str	r2, [r3, #20]

  /* Enable the peripheral */
  __HAL_UART_ENABLE(huart);
 800258a:	687b      	ldr	r3, [r7, #4]
 800258c:	681b      	ldr	r3, [r3, #0]
 800258e:	68da      	ldr	r2, [r3, #12]
 8002590:	687b      	ldr	r3, [r7, #4]
 8002592:	681b      	ldr	r3, [r3, #0]
 8002594:	f442 5200 	orr.w	r2, r2, #8192	@ 0x2000
 8002598:	60da      	str	r2, [r3, #12]

  /* Initialize the UART state */
  huart->ErrorCode = HAL_UART_ERROR_NONE;
 800259a:	687b      	ldr	r3, [r7, #4]
 800259c:	2200      	movs	r2, #0
 800259e:	641a      	str	r2, [r3, #64]	@ 0x40
  huart->gState = HAL_UART_STATE_READY;
 80025a0:	687b      	ldr	r3, [r7, #4]
 80025a2:	2220      	movs	r2, #32
 80025a4:	f883 203d 	strb.w	r2, [r3, #61]	@ 0x3d
  huart->RxState = HAL_UART_STATE_READY;
 80025a8:	687b      	ldr	r3, [r7, #4]
 80025aa:	2220      	movs	r2, #32
 80025ac:	f883 203e 	strb.w	r2, [r3, #62]	@ 0x3e

  return HAL_OK;
 80025b0:	2300      	movs	r3, #0
}
 80025b2:	4618      	mov	r0, r3
 80025b4:	3708      	adds	r7, #8
 80025b6:	46bd      	mov	sp, r7
 80025b8:	bd80      	pop	{r7, pc}

080025ba <HAL_UART_Transmit>:
  * @param  Size  Amount of data elements (u8 or u16) to be sent
  * @param  Timeout Timeout duration
  * @retval HAL status
  */
HAL_StatusTypeDef HAL_UART_Transmit(UART_HandleTypeDef *huart, const uint8_t *pData, uint16_t Size, uint32_t Timeout)
{
 80025ba:	b580      	push	{r7, lr}
 80025bc:	b08a      	sub	sp, #40	@ 0x28
 80025be:	af02      	add	r7, sp, #8
 80025c0:	60f8      	str	r0, [r7, #12]
 80025c2:	60b9      	str	r1, [r7, #8]
 80025c4:	603b      	str	r3, [r7, #0]
 80025c6:	4613      	mov	r3, r2
 80025c8:	80fb      	strh	r3, [r7, #6]
  const uint8_t  *pdata8bits;
  const uint16_t *pdata16bits;
  uint32_t tickstart = 0U;
 80025ca:	2300      	movs	r3, #0
 80025cc:	617b      	str	r3, [r7, #20]

  /* Check that a Tx process is not already ongoing */
  if (huart->gState == HAL_UART_STATE_READY)
 80025ce:	68fb      	ldr	r3, [r7, #12]
 80025d0:	f893 303d 	ldrb.w	r3, [r3, #61]	@ 0x3d
 80025d4:	b2db      	uxtb	r3, r3
 80025d6:	2b20      	cmp	r3, #32
 80025d8:	d17c      	bne.n	80026d4 <HAL_UART_Transmit+0x11a>
  {
    if ((pData == NULL) || (Size == 0U))
 80025da:	68bb      	ldr	r3, [r7, #8]
 80025dc:	2b00      	cmp	r3, #0
 80025de:	d002      	beq.n	80025e6 <HAL_UART_Transmit+0x2c>
 80025e0:	88fb      	ldrh	r3, [r7, #6]
 80025e2:	2b00      	cmp	r3, #0
 80025e4:	d101      	bne.n	80025ea <HAL_UART_Transmit+0x30>
    {
      return  HAL_ERROR;
 80025e6:	2301      	movs	r3, #1
 80025e8:	e075      	b.n	80026d6 <HAL_UART_Transmit+0x11c>
    }

    /* Process Locked */
    __HAL_LOCK(huart);
 80025ea:	68fb      	ldr	r3, [r7, #12]
 80025ec:	f893 303c 	ldrb.w	r3, [r3, #60]	@ 0x3c
 80025f0:	2b01      	cmp	r3, #1
 80025f2:	d101      	bne.n	80025f8 <HAL_UART_Transmit+0x3e>
 80025f4:	2302      	movs	r3, #2
 80025f6:	e06e      	b.n	80026d6 <HAL_UART_Transmit+0x11c>
 80025f8:	68fb      	ldr	r3, [r7, #12]
 80025fa:	2201      	movs	r2, #1
 80025fc:	f883 203c 	strb.w	r2, [r3, #60]	@ 0x3c

    huart->ErrorCode = HAL_UART_ERROR_NONE;
 8002600:	68fb      	ldr	r3, [r7, #12]
 8002602:	2200      	movs	r2, #0
 8002604:	641a      	str	r2, [r3, #64]	@ 0x40
    huart->gState = HAL_UART_STATE_BUSY_TX;
 8002606:	68fb      	ldr	r3, [r7, #12]
 8002608:	2221      	movs	r2, #33	@ 0x21
 800260a:	f883 203d 	strb.w	r2, [r3, #61]	@ 0x3d

    /* Init tickstart for timeout management */
    tickstart = HAL_GetTick();
 800260e:	f7fe ff7d 	bl	800150c <HAL_GetTick>
 8002612:	6178      	str	r0, [r7, #20]

    huart->TxXferSize = Size;
 8002614:	68fb      	ldr	r3, [r7, #12]
 8002616:	88fa      	ldrh	r2, [r7, #6]
 8002618:	849a      	strh	r2, [r3, #36]	@ 0x24
    huart->TxXferCount = Size;
 800261a:	68fb      	ldr	r3, [r7, #12]
 800261c:	88fa      	ldrh	r2, [r7, #6]
 800261e:	84da      	strh	r2, [r3, #38]	@ 0x26

    /* In case of 9bits/No Parity transfer, pData needs to be handled as a uint16_t pointer */
    if ((huart->Init.WordLength == UART_WORDLENGTH_9B) && (huart->Init.Parity == UART_PARITY_NONE))
 8002620:	68fb      	ldr	r3, [r7, #12]
 8002622:	689b      	ldr	r3, [r3, #8]
 8002624:	f5b3 5f80 	cmp.w	r3, #4096	@ 0x1000
 8002628:	d108      	bne.n	800263c <HAL_UART_Transmit+0x82>
 800262a:	68fb      	ldr	r3, [r7, #12]
 800262c:	691b      	ldr	r3, [r3, #16]
 800262e:	2b00      	cmp	r3, #0
 8002630:	d104      	bne.n	800263c <HAL_UART_Transmit+0x82>
    {
      pdata8bits  = NULL;
 8002632:	2300      	movs	r3, #0
 8002634:	61fb      	str	r3, [r7, #28]
      pdata16bits = (const uint16_t *) pData;
 8002636:	68bb      	ldr	r3, [r7, #8]
 8002638:	61bb      	str	r3, [r7, #24]
 800263a:	e003      	b.n	8002644 <HAL_UART_Transmit+0x8a>
    }
    else
    {
      pdata8bits  = pData;
 800263c:	68bb      	ldr	r3, [r7, #8]
 800263e:	61fb      	str	r3, [r7, #28]
      pdata16bits = NULL;
 8002640:	2300      	movs	r3, #0
 8002642:	61bb      	str	r3, [r7, #24]
    }

    /* Process Unlocked */
    __HAL_UNLOCK(huart);
 8002644:	68fb      	ldr	r3, [r7, #12]
 8002646:	2200      	movs	r2, #0
 8002648:	f883 203c 	strb.w	r2, [r3, #60]	@ 0x3c

    while (huart->TxXferCount > 0U)
 800264c:	e02a      	b.n	80026a4 <HAL_UART_Transmit+0xea>
    {
      if (UART_WaitOnFlagUntilTimeout(huart, UART_FLAG_TXE, RESET, tickstart, Timeout) != HAL_OK)
 800264e:	683b      	ldr	r3, [r7, #0]
 8002650:	9300      	str	r3, [sp, #0]
 8002652:	697b      	ldr	r3, [r7, #20]
 8002654:	2200      	movs	r2, #0
 8002656:	2180      	movs	r1, #128	@ 0x80
 8002658:	68f8      	ldr	r0, [r7, #12]
 800265a:	f000 fb1f 	bl	8002c9c <UART_WaitOnFlagUntilTimeout>
 800265e:	4603      	mov	r3, r0
 8002660:	2b00      	cmp	r3, #0
 8002662:	d001      	beq.n	8002668 <HAL_UART_Transmit+0xae>
      {
        return HAL_TIMEOUT;
 8002664:	2303      	movs	r3, #3
 8002666:	e036      	b.n	80026d6 <HAL_UART_Transmit+0x11c>
      }
      if (pdata8bits == NULL)
 8002668:	69fb      	ldr	r3, [r7, #28]
 800266a:	2b00      	cmp	r3, #0
 800266c:	d10b      	bne.n	8002686 <HAL_UART_Transmit+0xcc>
      {
        huart->Instance->DR = (uint16_t)(*pdata16bits & 0x01FFU);
 800266e:	69bb      	ldr	r3, [r7, #24]
 8002670:	881b      	ldrh	r3, [r3, #0]
 8002672:	461a      	mov	r2, r3
 8002674:	68fb      	ldr	r3, [r7, #12]
 8002676:	681b      	ldr	r3, [r3, #0]
 8002678:	f3c2 0208 	ubfx	r2, r2, #0, #9
 800267c:	605a      	str	r2, [r3, #4]
        pdata16bits++;
 800267e:	69bb      	ldr	r3, [r7, #24]
 8002680:	3302      	adds	r3, #2
 8002682:	61bb      	str	r3, [r7, #24]
 8002684:	e007      	b.n	8002696 <HAL_UART_Transmit+0xdc>
      }
      else
      {
        huart->Instance->DR = (uint8_t)(*pdata8bits & 0xFFU);
 8002686:	69fb      	ldr	r3, [r7, #28]
 8002688:	781a      	ldrb	r2, [r3, #0]
 800268a:	68fb      	ldr	r3, [r7, #12]
 800268c:	681b      	ldr	r3, [r3, #0]
 800268e:	605a      	str	r2, [r3, #4]
        pdata8bits++;
 8002690:	69fb      	ldr	r3, [r7, #28]
 8002692:	3301      	adds	r3, #1
 8002694:	61fb      	str	r3, [r7, #28]
      }
      huart->TxXferCount--;
 8002696:	68fb      	ldr	r3, [r7, #12]
 8002698:	8cdb      	ldrh	r3, [r3, #38]	@ 0x26
 800269a:	b29b      	uxth	r3, r3
 800269c:	3b01      	subs	r3, #1
 800269e:	b29a      	uxth	r2, r3
 80026a0:	68fb      	ldr	r3, [r7, #12]
 80026a2:	84da      	strh	r2, [r3, #38]	@ 0x26
    while (huart->TxXferCount > 0U)
 80026a4:	68fb      	ldr	r3, [r7, #12]
 80026a6:	8cdb      	ldrh	r3, [r3, #38]	@ 0x26
 80026a8:	b29b      	uxth	r3, r3
 80026aa:	2b00      	cmp	r3, #0
 80026ac:	d1cf      	bne.n	800264e <HAL_UART_Transmit+0x94>
    }

    if (UART_WaitOnFlagUntilTimeout(huart, UART_FLAG_TC, RESET, tickstart, Timeout) != HAL_OK)
 80026ae:	683b      	ldr	r3, [r7, #0]
 80026b0:	9300      	str	r3, [sp, #0]
 80026b2:	697b      	ldr	r3, [r7, #20]
 80026b4:	2200      	movs	r2, #0
 80026b6:	2140      	movs	r1, #64	@ 0x40
 80026b8:	68f8      	ldr	r0, [r7, #12]
 80026ba:	f000 faef 	bl	8002c9c <UART_WaitOnFlagUntilTimeout>
 80026be:	4603      	mov	r3, r0
 80026c0:	2b00      	cmp	r3, #0
 80026c2:	d001      	beq.n	80026c8 <HAL_UART_Transmit+0x10e>
    {
      return HAL_TIMEOUT;
 80026c4:	2303      	movs	r3, #3
 80026c6:	e006      	b.n	80026d6 <HAL_UART_Transmit+0x11c>
    }

    /* At end of Tx process, restore huart->gState to Ready */
    huart->gState = HAL_UART_STATE_READY;
 80026c8:	68fb      	ldr	r3, [r7, #12]
 80026ca:	2220      	movs	r2, #32
 80026cc:	f883 203d 	strb.w	r2, [r3, #61]	@ 0x3d

    return HAL_OK;
 80026d0:	2300      	movs	r3, #0
 80026d2:	e000      	b.n	80026d6 <HAL_UART_Transmit+0x11c>
  }
  else
  {
    return HAL_BUSY;
 80026d4:	2302      	movs	r3, #2
  }
}
 80026d6:	4618      	mov	r0, r3
 80026d8:	3720      	adds	r7, #32
 80026da:	46bd      	mov	sp, r7
 80026dc:	bd80      	pop	{r7, pc}

080026de <HAL_UART_Receive_IT>:
  * @param  pData Pointer to data buffer (u8 or u16 data elements).
  * @param  Size  Amount of data elements (u8 or u16) to be received.
  * @retval HAL status
  */
HAL_StatusTypeDef HAL_UART_Receive_IT(UART_HandleTypeDef *huart, uint8_t *pData, uint16_t Size)
{
 80026de:	b580      	push	{r7, lr}
 80026e0:	b084      	sub	sp, #16
 80026e2:	af00      	add	r7, sp, #0
 80026e4:	60f8      	str	r0, [r7, #12]
 80026e6:	60b9      	str	r1, [r7, #8]
 80026e8:	4613      	mov	r3, r2
 80026ea:	80fb      	strh	r3, [r7, #6]
  /* Check that a Rx process is not already ongoing */
  if (huart->RxState == HAL_UART_STATE_READY)
 80026ec:	68fb      	ldr	r3, [r7, #12]
 80026ee:	f893 303e 	ldrb.w	r3, [r3, #62]	@ 0x3e
 80026f2:	b2db      	uxtb	r3, r3
 80026f4:	2b20      	cmp	r3, #32
 80026f6:	d11d      	bne.n	8002734 <HAL_UART_Receive_IT+0x56>
  {
    if ((pData == NULL) || (Size == 0U))
 80026f8:	68bb      	ldr	r3, [r7, #8]
 80026fa:	2b00      	cmp	r3, #0
 80026fc:	d002      	beq.n	8002704 <HAL_UART_Receive_IT+0x26>
 80026fe:	88fb      	ldrh	r3, [r7, #6]
 8002700:	2b00      	cmp	r3, #0
 8002702:	d101      	bne.n	8002708 <HAL_UART_Receive_IT+0x2a>
    {
      return HAL_ERROR;
 8002704:	2301      	movs	r3, #1
 8002706:	e016      	b.n	8002736 <HAL_UART_Receive_IT+0x58>
    }

    /* Process Locked */
    __HAL_LOCK(huart);
 8002708:	68fb      	ldr	r3, [r7, #12]
 800270a:	f893 303c 	ldrb.w	r3, [r3, #60]	@ 0x3c
 800270e:	2b01      	cmp	r3, #1
 8002710:	d101      	bne.n	8002716 <HAL_UART_Receive_IT+0x38>
 8002712:	2302      	movs	r3, #2
 8002714:	e00f      	b.n	8002736 <HAL_UART_Receive_IT+0x58>
 8002716:	68fb      	ldr	r3, [r7, #12]
 8002718:	2201      	movs	r2, #1
 800271a:	f883 203c 	strb.w	r2, [r3, #60]	@ 0x3c

    /* Set Reception type to Standard reception */
    huart->ReceptionType = HAL_UART_RECEPTION_STANDARD;
 800271e:	68fb      	ldr	r3, [r7, #12]
 8002720:	2200      	movs	r2, #0
 8002722:	631a      	str	r2, [r3, #48]	@ 0x30

    return (UART_Start_Receive_IT(huart, pData, Size));
 8002724:	88fb      	ldrh	r3, [r7, #6]
 8002726:	461a      	mov	r2, r3
 8002728:	68b9      	ldr	r1, [r7, #8]
 800272a:	68f8      	ldr	r0, [r7, #12]
 800272c:	f000 fb24 	bl	8002d78 <UART_Start_Receive_IT>
 8002730:	4603      	mov	r3, r0
 8002732:	e000      	b.n	8002736 <HAL_UART_Receive_IT+0x58>
  }
  else
  {
    return HAL_BUSY;
 8002734:	2302      	movs	r3, #2
  }
}
 8002736:	4618      	mov	r0, r3
 8002738:	3710      	adds	r7, #16
 800273a:	46bd      	mov	sp, r7
 800273c:	bd80      	pop	{r7, pc}
	...

08002740 <HAL_UART_IRQHandler>:
  * @param  huart  Pointer to a UART_HandleTypeDef structure that contains
  *                the configuration information for the specified UART module.
  * @retval None
  */
void HAL_UART_IRQHandler(UART_HandleTypeDef *huart)
{
 8002740:	b580      	push	{r7, lr}
 8002742:	b0ba      	sub	sp, #232	@ 0xe8
 8002744:	af00      	add	r7, sp, #0
 8002746:	6078      	str	r0, [r7, #4]
  uint32_t isrflags   = READ_REG(huart->Instance->SR);
 8002748:	687b      	ldr	r3, [r7, #4]
 800274a:	681b      	ldr	r3, [r3, #0]
 800274c:	681b      	ldr	r3, [r3, #0]
 800274e:	f8c7 30e4 	str.w	r3, [r7, #228]	@ 0xe4
  uint32_t cr1its     = READ_REG(huart->Instance->CR1);
 8002752:	687b      	ldr	r3, [r7, #4]
 8002754:	681b      	ldr	r3, [r3, #0]
 8002756:	68db      	ldr	r3, [r3, #12]
 8002758:	f8c7 30e0 	str.w	r3, [r7, #224]	@ 0xe0
  uint32_t cr3its     = READ_REG(huart->Instance->CR3);
 800275c:	687b      	ldr	r3, [r7, #4]
 800275e:	681b      	ldr	r3, [r3, #0]
 8002760:	695b      	ldr	r3, [r3, #20]
 8002762:	f8c7 30dc 	str.w	r3, [r7, #220]	@ 0xdc
  uint32_t errorflags = 0x00U;
 8002766:	2300      	movs	r3, #0
 8002768:	f8c7 30d8 	str.w	r3, [r7, #216]	@ 0xd8
  uint32_t dmarequest = 0x00U;
 800276c:	2300      	movs	r3, #0
 800276e:	f8c7 30d4 	str.w	r3, [r7, #212]	@ 0xd4

  /* If no error occurs */
  errorflags = (isrflags & (uint32_t)(USART_SR_PE | USART_SR_FE | USART_SR_ORE | USART_SR_NE));
 8002772:	f8d7 30e4 	ldr.w	r3, [r7, #228]	@ 0xe4
 8002776:	f003 030f 	and.w	r3, r3, #15
 800277a:	f8c7 30d8 	str.w	r3, [r7, #216]	@ 0xd8
  if (errorflags == RESET)
 800277e:	f8d7 30d8 	ldr.w	r3, [r7, #216]	@ 0xd8
 8002782:	2b00      	cmp	r3, #0
 8002784:	d10f      	bne.n	80027a6 <HAL_UART_IRQHandler+0x66>
  {
    /* UART in mode Receiver -------------------------------------------------*/
    if (((isrflags & USART_SR_RXNE) != RESET) && ((cr1its & USART_CR1_RXNEIE) != RESET))
 8002786:	f8d7 30e4 	ldr.w	r3, [r7, #228]	@ 0xe4
 800278a:	f003 0320 	and.w	r3, r3, #32
 800278e:	2b00      	cmp	r3, #0
 8002790:	d009      	beq.n	80027a6 <HAL_UART_IRQHandler+0x66>
 8002792:	f8d7 30e0 	ldr.w	r3, [r7, #224]	@ 0xe0
 8002796:	f003 0320 	and.w	r3, r3, #32
 800279a:	2b00      	cmp	r3, #0
 800279c:	d003      	beq.n	80027a6 <HAL_UART_IRQHandler+0x66>
    {
      UART_Receive_IT(huart);
 800279e:	6878      	ldr	r0, [r7, #4]
 80027a0:	f000 fc07 	bl	8002fb2 <UART_Receive_IT>
      return;
 80027a4:	e256      	b.n	8002c54 <HAL_UART_IRQHandler+0x514>
    }
  }

  /* If some errors occur */
  if ((errorflags != RESET) && (((cr3its & USART_CR3_EIE) != RESET)
 80027a6:	f8d7 30d8 	ldr.w	r3, [r7, #216]	@ 0xd8
 80027aa:	2b00      	cmp	r3, #0
 80027ac:	f000 80de 	beq.w	800296c <HAL_UART_IRQHandler+0x22c>
 80027b0:	f8d7 30dc 	ldr.w	r3, [r7, #220]	@ 0xdc
 80027b4:	f003 0301 	and.w	r3, r3, #1
 80027b8:	2b00      	cmp	r3, #0
 80027ba:	d106      	bne.n	80027ca <HAL_UART_IRQHandler+0x8a>
                                || ((cr1its & (USART_CR1_RXNEIE | USART_CR1_PEIE)) != RESET)))
 80027bc:	f8d7 30e0 	ldr.w	r3, [r7, #224]	@ 0xe0
 80027c0:	f403 7390 	and.w	r3, r3, #288	@ 0x120
 80027c4:	2b00      	cmp	r3, #0
 80027c6:	f000 80d1 	beq.w	800296c <HAL_UART_IRQHandler+0x22c>
  {
    /* UART parity error interrupt occurred ----------------------------------*/
    if (((isrflags & USART_SR_PE) != RESET) && ((cr1its & USART_CR1_PEIE) != RESET))
 80027ca:	f8d7 30e4 	ldr.w	r3, [r7, #228]	@ 0xe4
 80027ce:	f003 0301 	and.w	r3, r3, #1
 80027d2:	2b00      	cmp	r3, #0
 80027d4:	d00b      	beq.n	80027ee <HAL_UART_IRQHandler+0xae>
 80027d6:	f8d7 30e0 	ldr.w	r3, [r7, #224]	@ 0xe0
 80027da:	f403 7380 	and.w	r3, r3, #256	@ 0x100
 80027de:	2b00      	cmp	r3, #0
 80027e0:	d005      	beq.n	80027ee <HAL_UART_IRQHandler+0xae>
    {
      huart->ErrorCode |= HAL_UART_ERROR_PE;
 80027e2:	687b      	ldr	r3, [r7, #4]
 80027e4:	6c1b      	ldr	r3, [r3, #64]	@ 0x40
 80027e6:	f043 0201 	orr.w	r2, r3, #1
 80027ea:	687b      	ldr	r3, [r7, #4]
 80027ec:	641a      	str	r2, [r3, #64]	@ 0x40
    }

    /* UART noise error interrupt occurred -----------------------------------*/
    if (((isrflags & USART_SR_NE) != RESET) && ((cr3its & USART_CR3_EIE) != RESET))
 80027ee:	f8d7 30e4 	ldr.w	r3, [r7, #228]	@ 0xe4
 80027f2:	f003 0304 	and.w	r3, r3, #4
 80027f6:	2b00      	cmp	r3, #0
 80027f8:	d00b      	beq.n	8002812 <HAL_UART_IRQHandler+0xd2>
 80027fa:	f8d7 30dc 	ldr.w	r3, [r7, #220]	@ 0xdc
 80027fe:	f003 0301 	and.w	r3, r3, #1
 8002802:	2b00      	cmp	r3, #0
 8002804:	d005      	beq.n	8002812 <HAL_UART_IRQHandler+0xd2>
    {
      huart->ErrorCode |= HAL_UART_ERROR_NE;
 8002806:	687b      	ldr	r3, [r7, #4]
 8002808:	6c1b      	ldr	r3, [r3, #64]	@ 0x40
 800280a:	f043 0202 	orr.w	r2, r3, #2
 800280e:	687b      	ldr	r3, [r7, #4]
 8002810:	641a      	str	r2, [r3, #64]	@ 0x40
    }

    /* UART frame error interrupt occurred -----------------------------------*/
    if (((isrflags & USART_SR_FE) != RESET) && ((cr3its & USART_CR3_EIE) != RESET))
 8002812:	f8d7 30e4 	ldr.w	r3, [r7, #228]	@ 0xe4
 8002816:	f003 0302 	and.w	r3, r3, #2
 800281a:	2b00      	cmp	r3, #0
 800281c:	d00b      	beq.n	8002836 <HAL_UART_IRQHandler+0xf6>
 800281e:	f8d7 30dc 	ldr.w	r3, [r7, #220]	@ 0xdc
 8002822:	f003 0301 	and.w	r3, r3, #1
 8002826:	2b00      	cmp	r3, #0
 8002828:	d005      	beq.n	8002836 <HAL_UART_IRQHandler+0xf6>
    {
      huart->ErrorCode |= HAL_UART_ERROR_FE;
 800282a:	687b      	ldr	r3, [r7, #4]
 800282c:	6c1b      	ldr	r3, [r3, #64]	@ 0x40
 800282e:	f043 0204 	orr.w	r2, r3, #4
 8002832:	687b      	ldr	r3, [r7, #4]
 8002834:	641a      	str	r2, [r3, #64]	@ 0x40
    }

    /* UART Over-Run interrupt occurred --------------------------------------*/
    if (((isrflags & USART_SR_ORE) != RESET) && (((cr1its & USART_CR1_RXNEIE) != RESET)
 8002836:	f8d7 30e4 	ldr.w	r3, [r7, #228]	@ 0xe4
 800283a:	f003 0308 	and.w	r3, r3, #8
 800283e:	2b00      	cmp	r3, #0
 8002840:	d011      	beq.n	8002866 <HAL_UART_IRQHandler+0x126>
 8002842:	f8d7 30e0 	ldr.w	r3, [r7, #224]	@ 0xe0
 8002846:	f003 0320 	and.w	r3, r3, #32
 800284a:	2b00      	cmp	r3, #0
 800284c:	d105      	bne.n	800285a <HAL_UART_IRQHandler+0x11a>
                                                 || ((cr3its & USART_CR3_EIE) != RESET)))
 800284e:	f8d7 30dc 	ldr.w	r3, [r7, #220]	@ 0xdc
 8002852:	f003 0301 	and.w	r3, r3, #1
 8002856:	2b00      	cmp	r3, #0
 8002858:	d005      	beq.n	8002866 <HAL_UART_IRQHandler+0x126>
    {
      huart->ErrorCode |= HAL_UART_ERROR_ORE;
 800285a:	687b      	ldr	r3, [r7, #4]
 800285c:	6c1b      	ldr	r3, [r3, #64]	@ 0x40
 800285e:	f043 0208 	orr.w	r2, r3, #8
 8002862:	687b      	ldr	r3, [r7, #4]
 8002864:	641a      	str	r2, [r3, #64]	@ 0x40
    }

    /* Call UART Error Call back function if need be --------------------------*/
    if (huart->ErrorCode != HAL_UART_ERROR_NONE)
 8002866:	687b      	ldr	r3, [r7, #4]
 8002868:	6c1b      	ldr	r3, [r3, #64]	@ 0x40
 800286a:	2b00      	cmp	r3, #0
 800286c:	f000 81ed 	beq.w	8002c4a <HAL_UART_IRQHandler+0x50a>
    {
      /* UART in mode Receiver -----------------------------------------------*/
      if (((isrflags & USART_SR_RXNE) != RESET) && ((cr1its & USART_CR1_RXNEIE) != RESET))
 8002870:	f8d7 30e4 	ldr.w	r3, [r7, #228]	@ 0xe4
 8002874:	f003 0320 	and.w	r3, r3, #32
 8002878:	2b00      	cmp	r3, #0
 800287a:	d008      	beq.n	800288e <HAL_UART_IRQHandler+0x14e>
 800287c:	f8d7 30e0 	ldr.w	r3, [r7, #224]	@ 0xe0
 8002880:	f003 0320 	and.w	r3, r3, #32
 8002884:	2b00      	cmp	r3, #0
 8002886:	d002      	beq.n	800288e <HAL_UART_IRQHandler+0x14e>
      {
        UART_Receive_IT(huart);
 8002888:	6878      	ldr	r0, [r7, #4]
 800288a:	f000 fb92 	bl	8002fb2 <UART_Receive_IT>
      }

      /* If Overrun error occurs, or if any error occurs in DMA mode reception,
         consider error as blocking */
      dmarequest = HAL_IS_BIT_SET(huart->Instance->CR3, USART_CR3_DMAR);
 800288e:	687b      	ldr	r3, [r7, #4]
 8002890:	681b      	ldr	r3, [r3, #0]
 8002892:	695b      	ldr	r3, [r3, #20]
 8002894:	f003 0340 	and.w	r3, r3, #64	@ 0x40
 8002898:	2b40      	cmp	r3, #64	@ 0x40
 800289a:	bf0c      	ite	eq
 800289c:	2301      	moveq	r3, #1
 800289e:	2300      	movne	r3, #0
 80028a0:	b2db      	uxtb	r3, r3
 80028a2:	f8c7 30d4 	str.w	r3, [r7, #212]	@ 0xd4
      if (((huart->ErrorCode & HAL_UART_ERROR_ORE) != RESET) || dmarequest)
 80028a6:	687b      	ldr	r3, [r7, #4]
 80028a8:	6c1b      	ldr	r3, [r3, #64]	@ 0x40
 80028aa:	f003 0308 	and.w	r3, r3, #8
 80028ae:	2b00      	cmp	r3, #0
 80028b0:	d103      	bne.n	80028ba <HAL_UART_IRQHandler+0x17a>
 80028b2:	f8d7 30d4 	ldr.w	r3, [r7, #212]	@ 0xd4
 80028b6:	2b00      	cmp	r3, #0
 80028b8:	d04f      	beq.n	800295a <HAL_UART_IRQHandler+0x21a>
      {
        /* Blocking error : transfer is aborted
           Set the UART state ready to be able to start again the process,
           Disable Rx Interrupts, and disable Rx DMA request, if ongoing */
        UART_EndRxTransfer(huart);
 80028ba:	6878      	ldr	r0, [r7, #4]
 80028bc:	f000 fa9a 	bl	8002df4 <UART_EndRxTransfer>

        /* Disable the UART DMA Rx request if enabled */
        if (HAL_IS_BIT_SET(huart->Instance->CR3, USART_CR3_DMAR))
 80028c0:	687b      	ldr	r3, [r7, #4]
 80028c2:	681b      	ldr	r3, [r3, #0]
 80028c4:	695b      	ldr	r3, [r3, #20]
 80028c6:	f003 0340 	and.w	r3, r3, #64	@ 0x40
 80028ca:	2b40      	cmp	r3, #64	@ 0x40
 80028cc:	d141      	bne.n	8002952 <HAL_UART_IRQHandler+0x212>
        {
          ATOMIC_CLEAR_BIT(huart->Instance->CR3, USART_CR3_DMAR);
 80028ce:	687b      	ldr	r3, [r7, #4]
 80028d0:	681b      	ldr	r3, [r3, #0]
 80028d2:	3314      	adds	r3, #20
 80028d4:	f8c7 309c 	str.w	r3, [r7, #156]	@ 0x9c
 */
__STATIC_FORCEINLINE uint32_t __LDREXW(volatile uint32_t *addr)
{
    uint32_t result;

   __ASM volatile ("ldrex %0, %1" : "=r" (result) : "Q" (*addr) );
 80028d8:	f8d7 309c 	ldr.w	r3, [r7, #156]	@ 0x9c
 80028dc:	e853 3f00 	ldrex	r3, [r3]
 80028e0:	f8c7 3098 	str.w	r3, [r7, #152]	@ 0x98
   return(result);
 80028e4:	f8d7 3098 	ldr.w	r3, [r7, #152]	@ 0x98
 80028e8:	f023 0340 	bic.w	r3, r3, #64	@ 0x40
 80028ec:	f8c7 30d0 	str.w	r3, [r7, #208]	@ 0xd0
 80028f0:	687b      	ldr	r3, [r7, #4]
 80028f2:	681b      	ldr	r3, [r3, #0]
 80028f4:	3314      	adds	r3, #20
 80028f6:	f8d7 20d0 	ldr.w	r2, [r7, #208]	@ 0xd0
 80028fa:	f8c7 20a8 	str.w	r2, [r7, #168]	@ 0xa8
 80028fe:	f8c7 30a4 	str.w	r3, [r7, #164]	@ 0xa4
 */
__STATIC_FORCEINLINE uint32_t __STREXW(uint32_t value, volatile uint32_t *addr)
{
   uint32_t result;

   __ASM volatile ("strex %0, %2, %1" : "=&r" (result), "=Q" (*addr) : "r" (value) );
 8002902:	f8d7 10a4 	ldr.w	r1, [r7, #164]	@ 0xa4
 8002906:	f8d7 20a8 	ldr.w	r2, [r7, #168]	@ 0xa8
 800290a:	e841 2300 	strex	r3, r2, [r1]
 800290e:	f8c7 30a0 	str.w	r3, [r7, #160]	@ 0xa0
   return(result);
 8002912:	f8d7 30a0 	ldr.w	r3, [r7, #160]	@ 0xa0
 8002916:	2b00      	cmp	r3, #0
 8002918:	d1d9      	bne.n	80028ce <HAL_UART_IRQHandler+0x18e>

          /* Abort the UART DMA Rx stream */
          if (huart->hdmarx != NULL)
 800291a:	687b      	ldr	r3, [r7, #4]
 800291c:	6b9b      	ldr	r3, [r3, #56]	@ 0x38
 800291e:	2b00      	cmp	r3, #0
 8002920:	d013      	beq.n	800294a <HAL_UART_IRQHandler+0x20a>
          {
            /* Set the UART DMA Abort callback :
               will lead to call HAL_UART_ErrorCallback() at end of DMA abort procedure */
            huart->hdmarx->XferAbortCallback = UART_DMAAbortOnError;
 8002922:	687b      	ldr	r3, [r7, #4]
 8002924:	6b9b      	ldr	r3, [r3, #56]	@ 0x38
 8002926:	4a7d      	ldr	r2, [pc, #500]	@ (8002b1c <HAL_UART_IRQHandler+0x3dc>)
 8002928:	651a      	str	r2, [r3, #80]	@ 0x50
            if (HAL_DMA_Abort_IT(huart->hdmarx) != HAL_OK)
 800292a:	687b      	ldr	r3, [r7, #4]
 800292c:	6b9b      	ldr	r3, [r3, #56]	@ 0x38
 800292e:	4618      	mov	r0, r3
 8002930:	f7fe ff9d 	bl	800186e <HAL_DMA_Abort_IT>
 8002934:	4603      	mov	r3, r0
 8002936:	2b00      	cmp	r3, #0
 8002938:	d016      	beq.n	8002968 <HAL_UART_IRQHandler+0x228>
            {
              /* Call Directly XferAbortCallback function in case of error */
              huart->hdmarx->XferAbortCallback(huart->hdmarx);
 800293a:	687b      	ldr	r3, [r7, #4]
 800293c:	6b9b      	ldr	r3, [r3, #56]	@ 0x38
 800293e:	6d1b      	ldr	r3, [r3, #80]	@ 0x50
 8002940:	687a      	ldr	r2, [r7, #4]
 8002942:	6b92      	ldr	r2, [r2, #56]	@ 0x38
 8002944:	4610      	mov	r0, r2
 8002946:	4798      	blx	r3
        if (HAL_IS_BIT_SET(huart->Instance->CR3, USART_CR3_DMAR))
 8002948:	e00e      	b.n	8002968 <HAL_UART_IRQHandler+0x228>
#if (USE_HAL_UART_REGISTER_CALLBACKS == 1)
            /*Call registered error callback*/
            huart->ErrorCallback(huart);
#else
            /*Call legacy weak error callback*/
            HAL_UART_ErrorCallback(huart);
 800294a:	6878      	ldr	r0, [r7, #4]
 800294c:	f000 f990 	bl	8002c70 <HAL_UART_ErrorCallback>
        if (HAL_IS_BIT_SET(huart->Instance->CR3, USART_CR3_DMAR))
 8002950:	e00a      	b.n	8002968 <HAL_UART_IRQHandler+0x228>
#if (USE_HAL_UART_REGISTER_CALLBACKS == 1)
          /*Call registered error callback*/
          huart->ErrorCallback(huart);
#else
          /*Call legacy weak error callback*/
          HAL_UART_ErrorCallback(huart);
 8002952:	6878      	ldr	r0, [r7, #4]
 8002954:	f000 f98c 	bl	8002c70 <HAL_UART_ErrorCallback>
        if (HAL_IS_BIT_SET(huart->Instance->CR3, USART_CR3_DMAR))
 8002958:	e006      	b.n	8002968 <HAL_UART_IRQHandler+0x228>
#if (USE_HAL_UART_REGISTER_CALLBACKS == 1)
        /*Call registered error callback*/
        huart->ErrorCallback(huart);
#else
        /*Call legacy weak error callback*/
        HAL_UART_ErrorCallback(huart);
 800295a:	6878      	ldr	r0, [r7, #4]
 800295c:	f000 f988 	bl	8002c70 <HAL_UART_ErrorCallback>
#endif /* USE_HAL_UART_REGISTER_CALLBACKS */

        huart->ErrorCode = HAL_UART_ERROR_NONE;
 8002960:	687b      	ldr	r3, [r7, #4]
 8002962:	2200      	movs	r2, #0
 8002964:	641a      	str	r2, [r3, #64]	@ 0x40
      }
    }
    return;
 8002966:	e170      	b.n	8002c4a <HAL_UART_IRQHandler+0x50a>
        if (HAL_IS_BIT_SET(huart->Instance->CR3, USART_CR3_DMAR))
 8002968:	bf00      	nop
    return;
 800296a:	e16e      	b.n	8002c4a <HAL_UART_IRQHandler+0x50a>
  } /* End if some error occurs */

  /* Check current reception Mode :
     If Reception till IDLE event has been selected : */
  if ((huart->ReceptionType == HAL_UART_RECEPTION_TOIDLE)
 800296c:	687b      	ldr	r3, [r7, #4]
 800296e:	6b1b      	ldr	r3, [r3, #48]	@ 0x30
 8002970:	2b01      	cmp	r3, #1
 8002972:	f040 814a 	bne.w	8002c0a <HAL_UART_IRQHandler+0x4ca>
      && ((isrflags & USART_SR_IDLE) != 0U)
 8002976:	f8d7 30e4 	ldr.w	r3, [r7, #228]	@ 0xe4
 800297a:	f003 0310 	and.w	r3, r3, #16
 800297e:	2b00      	cmp	r3, #0
 8002980:	f000 8143 	beq.w	8002c0a <HAL_UART_IRQHandler+0x4ca>
      && ((cr1its & USART_SR_IDLE) != 0U))
 8002984:	f8d7 30e0 	ldr.w	r3, [r7, #224]	@ 0xe0
 8002988:	f003 0310 	and.w	r3, r3, #16
 800298c:	2b00      	cmp	r3, #0
 800298e:	f000 813c 	beq.w	8002c0a <HAL_UART_IRQHandler+0x4ca>
  {
    __HAL_UART_CLEAR_IDLEFLAG(huart);
 8002992:	2300      	movs	r3, #0
 8002994:	60bb      	str	r3, [r7, #8]
 8002996:	687b      	ldr	r3, [r7, #4]
 8002998:	681b      	ldr	r3, [r3, #0]
 800299a:	681b      	ldr	r3, [r3, #0]
 800299c:	60bb      	str	r3, [r7, #8]
 800299e:	687b      	ldr	r3, [r7, #4]
 80029a0:	681b      	ldr	r3, [r3, #0]
 80029a2:	685b      	ldr	r3, [r3, #4]
 80029a4:	60bb      	str	r3, [r7, #8]
 80029a6:	68bb      	ldr	r3, [r7, #8]

    /* Check if DMA mode is enabled in UART */
    if (HAL_IS_BIT_SET(huart->Instance->CR3, USART_CR3_DMAR))
 80029a8:	687b      	ldr	r3, [r7, #4]
 80029aa:	681b      	ldr	r3, [r3, #0]
 80029ac:	695b      	ldr	r3, [r3, #20]
 80029ae:	f003 0340 	and.w	r3, r3, #64	@ 0x40
 80029b2:	2b40      	cmp	r3, #64	@ 0x40
 80029b4:	f040 80b4 	bne.w	8002b20 <HAL_UART_IRQHandler+0x3e0>
    {
      /* DMA mode enabled */
      /* Check received length : If all expected data are received, do nothing,
         (DMA cplt callback will be called).
         Otherwise, if at least one data has already been received, IDLE event is to be notified to user */
      uint16_t nb_remaining_rx_data = (uint16_t) __HAL_DMA_GET_COUNTER(huart->hdmarx);
 80029b8:	687b      	ldr	r3, [r7, #4]
 80029ba:	6b9b      	ldr	r3, [r3, #56]	@ 0x38
 80029bc:	681b      	ldr	r3, [r3, #0]
 80029be:	685b      	ldr	r3, [r3, #4]
 80029c0:	f8a7 30be 	strh.w	r3, [r7, #190]	@ 0xbe
      if ((nb_remaining_rx_data > 0U)
 80029c4:	f8b7 30be 	ldrh.w	r3, [r7, #190]	@ 0xbe
 80029c8:	2b00      	cmp	r3, #0
 80029ca:	f000 8140 	beq.w	8002c4e <HAL_UART_IRQHandler+0x50e>
          && (nb_remaining_rx_data < huart->RxXferSize))
 80029ce:	687b      	ldr	r3, [r7, #4]
 80029d0:	8d9b      	ldrh	r3, [r3, #44]	@ 0x2c
 80029d2:	f8b7 20be 	ldrh.w	r2, [r7, #190]	@ 0xbe
 80029d6:	429a      	cmp	r2, r3
 80029d8:	f080 8139 	bcs.w	8002c4e <HAL_UART_IRQHandler+0x50e>
      {
        /* Reception is not complete */
        huart->RxXferCount = nb_remaining_rx_data;
 80029dc:	687b      	ldr	r3, [r7, #4]
 80029de:	f8b7 20be 	ldrh.w	r2, [r7, #190]	@ 0xbe
 80029e2:	85da      	strh	r2, [r3, #46]	@ 0x2e

        /* In Normal mode, end DMA xfer and HAL UART Rx process*/
        if (huart->hdmarx->Init.Mode != DMA_CIRCULAR)
 80029e4:	687b      	ldr	r3, [r7, #4]
 80029e6:	6b9b      	ldr	r3, [r3, #56]	@ 0x38
 80029e8:	69db      	ldr	r3, [r3, #28]
 80029ea:	f5b3 7f80 	cmp.w	r3, #256	@ 0x100
 80029ee:	f000 8088 	beq.w	8002b02 <HAL_UART_IRQHandler+0x3c2>
        {
          /* Disable PE and ERR (Frame error, noise error, overrun error) interrupts */
          ATOMIC_CLEAR_BIT(huart->Instance->CR1, USART_CR1_PEIE);
 80029f2:	687b      	ldr	r3, [r7, #4]
 80029f4:	681b      	ldr	r3, [r3, #0]
 80029f6:	330c      	adds	r3, #12
 80029f8:	f8c7 3088 	str.w	r3, [r7, #136]	@ 0x88
   __ASM volatile ("ldrex %0, %1" : "=r" (result) : "Q" (*addr) );
 80029fc:	f8d7 3088 	ldr.w	r3, [r7, #136]	@ 0x88
 8002a00:	e853 3f00 	ldrex	r3, [r3]
 8002a04:	f8c7 3084 	str.w	r3, [r7, #132]	@ 0x84
   return(result);
 8002a08:	f8d7 3084 	ldr.w	r3, [r7, #132]	@ 0x84
 8002a0c:	f423 7380 	bic.w	r3, r3, #256	@ 0x100
 8002a10:	f8c7 30b8 	str.w	r3, [r7, #184]	@ 0xb8
 8002a14:	687b      	ldr	r3, [r7, #4]
 8002a16:	681b      	ldr	r3, [r3, #0]
 8002a18:	330c      	adds	r3, #12
 8002a1a:	f8d7 20b8 	ldr.w	r2, [r7, #184]	@ 0xb8
 8002a1e:	f8c7 2094 	str.w	r2, [r7, #148]	@ 0x94
 8002a22:	f8c7 3090 	str.w	r3, [r7, #144]	@ 0x90
   __ASM volatile ("strex %0, %2, %1" : "=&r" (result), "=Q" (*addr) : "r" (value) );
 8002a26:	f8d7 1090 	ldr.w	r1, [r7, #144]	@ 0x90
 8002a2a:	f8d7 2094 	ldr.w	r2, [r7, #148]	@ 0x94
 8002a2e:	e841 2300 	strex	r3, r2, [r1]
 8002a32:	f8c7 308c 	str.w	r3, [r7, #140]	@ 0x8c
   return(result);
 8002a36:	f8d7 308c 	ldr.w	r3, [r7, #140]	@ 0x8c
 8002a3a:	2b00      	cmp	r3, #0
 8002a3c:	d1d9      	bne.n	80029f2 <HAL_UART_IRQHandler+0x2b2>
          ATOMIC_CLEAR_BIT(huart->Instance->CR3, USART_CR3_EIE);
 8002a3e:	687b      	ldr	r3, [r7, #4]
 8002a40:	681b      	ldr	r3, [r3, #0]
 8002a42:	3314      	adds	r3, #20
 8002a44:	677b      	str	r3, [r7, #116]	@ 0x74
   __ASM volatile ("ldrex %0, %1" : "=r" (result) : "Q" (*addr) );
 8002a46:	6f7b      	ldr	r3, [r7, #116]	@ 0x74
 8002a48:	e853 3f00 	ldrex	r3, [r3]
 8002a4c:	673b      	str	r3, [r7, #112]	@ 0x70
   return(result);
 8002a4e:	6f3b      	ldr	r3, [r7, #112]	@ 0x70
 8002a50:	f023 0301 	bic.w	r3, r3, #1
 8002a54:	f8c7 30b4 	str.w	r3, [r7, #180]	@ 0xb4
 8002a58:	687b      	ldr	r3, [r7, #4]
 8002a5a:	681b      	ldr	r3, [r3, #0]
 8002a5c:	3314      	adds	r3, #20
 8002a5e:	f8d7 20b4 	ldr.w	r2, [r7, #180]	@ 0xb4
 8002a62:	f8c7 2080 	str.w	r2, [r7, #128]	@ 0x80
 8002a66:	67fb      	str	r3, [r7, #124]	@ 0x7c
   __ASM volatile ("strex %0, %2, %1" : "=&r" (result), "=Q" (*addr) : "r" (value) );
 8002a68:	6ff9      	ldr	r1, [r7, #124]	@ 0x7c
 8002a6a:	f8d7 2080 	ldr.w	r2, [r7, #128]	@ 0x80
 8002a6e:	e841 2300 	strex	r3, r2, [r1]
 8002a72:	67bb      	str	r3, [r7, #120]	@ 0x78
   return(result);
 8002a74:	6fbb      	ldr	r3, [r7, #120]	@ 0x78
 8002a76:	2b00      	cmp	r3, #0
 8002a78:	d1e1      	bne.n	8002a3e <HAL_UART_IRQHandler+0x2fe>

          /* Disable the DMA transfer for the receiver request by resetting the DMAR bit
             in the UART CR3 register */
          ATOMIC_CLEAR_BIT(huart->Instance->CR3, USART_CR3_DMAR);
 8002a7a:	687b      	ldr	r3, [r7, #4]
 8002a7c:	681b      	ldr	r3, [r3, #0]
 8002a7e:	3314      	adds	r3, #20
 8002a80:	663b      	str	r3, [r7, #96]	@ 0x60
   __ASM volatile ("ldrex %0, %1" : "=r" (result) : "Q" (*addr) );
 8002a82:	6e3b      	ldr	r3, [r7, #96]	@ 0x60
 8002a84:	e853 3f00 	ldrex	r3, [r3]
 8002a88:	65fb      	str	r3, [r7, #92]	@ 0x5c
   return(result);
 8002a8a:	6dfb      	ldr	r3, [r7, #92]	@ 0x5c
 8002a8c:	f023 0340 	bic.w	r3, r3, #64	@ 0x40
 8002a90:	f8c7 30b0 	str.w	r3, [r7, #176]	@ 0xb0
 8002a94:	687b      	ldr	r3, [r7, #4]
 8002a96:	681b      	ldr	r3, [r3, #0]
 8002a98:	3314      	adds	r3, #20
 8002a9a:	f8d7 20b0 	ldr.w	r2, [r7, #176]	@ 0xb0
 8002a9e:	66fa      	str	r2, [r7, #108]	@ 0x6c
 8002aa0:	66bb      	str	r3, [r7, #104]	@ 0x68
   __ASM volatile ("strex %0, %2, %1" : "=&r" (result), "=Q" (*addr) : "r" (value) );
 8002aa2:	6eb9      	ldr	r1, [r7, #104]	@ 0x68
 8002aa4:	6efa      	ldr	r2, [r7, #108]	@ 0x6c
 8002aa6:	e841 2300 	strex	r3, r2, [r1]
 8002aaa:	667b      	str	r3, [r7, #100]	@ 0x64
   return(result);
 8002aac:	6e7b      	ldr	r3, [r7, #100]	@ 0x64
 8002aae:	2b00      	cmp	r3, #0
 8002ab0:	d1e3      	bne.n	8002a7a <HAL_UART_IRQHandler+0x33a>

          /* At end of Rx process, restore huart->RxState to Ready */
          huart->RxState = HAL_UART_STATE_READY;
 8002ab2:	687b      	ldr	r3, [r7, #4]
 8002ab4:	2220      	movs	r2, #32
 8002ab6:	f883 203e 	strb.w	r2, [r3, #62]	@ 0x3e
          huart->ReceptionType = HAL_UART_RECEPTION_STANDARD;
 8002aba:	687b      	ldr	r3, [r7, #4]
 8002abc:	2200      	movs	r2, #0
 8002abe:	631a      	str	r2, [r3, #48]	@ 0x30

          ATOMIC_CLEAR_BIT(huart->Instance->CR1, USART_CR1_IDLEIE);
 8002ac0:	687b      	ldr	r3, [r7, #4]
 8002ac2:	681b      	ldr	r3, [r3, #0]
 8002ac4:	330c      	adds	r3, #12
 8002ac6:	64fb      	str	r3, [r7, #76]	@ 0x4c
   __ASM volatile ("ldrex %0, %1" : "=r" (result) : "Q" (*addr) );
 8002ac8:	6cfb      	ldr	r3, [r7, #76]	@ 0x4c
 8002aca:	e853 3f00 	ldrex	r3, [r3]
 8002ace:	64bb      	str	r3, [r7, #72]	@ 0x48
   return(result);
 8002ad0:	6cbb      	ldr	r3, [r7, #72]	@ 0x48
 8002ad2:	f023 0310 	bic.w	r3, r3, #16
 8002ad6:	f8c7 30ac 	str.w	r3, [r7, #172]	@ 0xac
 8002ada:	687b      	ldr	r3, [r7, #4]
 8002adc:	681b      	ldr	r3, [r3, #0]
 8002ade:	330c      	adds	r3, #12
 8002ae0:	f8d7 20ac 	ldr.w	r2, [r7, #172]	@ 0xac
 8002ae4:	65ba      	str	r2, [r7, #88]	@ 0x58
 8002ae6:	657b      	str	r3, [r7, #84]	@ 0x54
   __ASM volatile ("strex %0, %2, %1" : "=&r" (result), "=Q" (*addr) : "r" (value) );
 8002ae8:	6d79      	ldr	r1, [r7, #84]	@ 0x54
 8002aea:	6dba      	ldr	r2, [r7, #88]	@ 0x58
 8002aec:	e841 2300 	strex	r3, r2, [r1]
 8002af0:	653b      	str	r3, [r7, #80]	@ 0x50
   return(result);
 8002af2:	6d3b      	ldr	r3, [r7, #80]	@ 0x50
 8002af4:	2b00      	cmp	r3, #0
 8002af6:	d1e3      	bne.n	8002ac0 <HAL_UART_IRQHandler+0x380>

          /* Last bytes received, so no need as the abort is immediate */
          (void)HAL_DMA_Abort(huart->hdmarx);
 8002af8:	687b      	ldr	r3, [r7, #4]
 8002afa:	6b9b      	ldr	r3, [r3, #56]	@ 0x38
 8002afc:	4618      	mov	r0, r3
 8002afe:	f7fe fe46 	bl	800178e <HAL_DMA_Abort>
#if (USE_HAL_UART_REGISTER_CALLBACKS == 1)
        /*Call registered Rx Event callback*/
        huart->RxEventCallback(huart, (huart->RxXferSize - huart->RxXferCount));
#else
        /*Call legacy weak Rx Event callback*/
        HAL_UARTEx_RxEventCallback(huart, (huart->RxXferSize - huart->RxXferCount));
 8002b02:	687b      	ldr	r3, [r7, #4]
 8002b04:	8d9a      	ldrh	r2, [r3, #44]	@ 0x2c
 8002b06:	687b      	ldr	r3, [r7, #4]
 8002b08:	8ddb      	ldrh	r3, [r3, #46]	@ 0x2e
 8002b0a:	b29b      	uxth	r3, r3
 8002b0c:	1ad3      	subs	r3, r2, r3
 8002b0e:	b29b      	uxth	r3, r3
 8002b10:	4619      	mov	r1, r3
 8002b12:	6878      	ldr	r0, [r7, #4]
 8002b14:	f000 f8b6 	bl	8002c84 <HAL_UARTEx_RxEventCallback>
#endif /* USE_HAL_UART_REGISTER_CALLBACKS */
      }
      return;
 8002b18:	e099      	b.n	8002c4e <HAL_UART_IRQHandler+0x50e>
 8002b1a:	bf00      	nop
 8002b1c:	08002ebb 	.word	0x08002ebb
    else
    {
      /* DMA mode not enabled */
      /* Check received length : If all expected data are received, do nothing.
         Otherwise, if at least one data has already been received, IDLE event is to be notified to user */
      uint16_t nb_rx_data = huart->RxXferSize - huart->RxXferCount;
 8002b20:	687b      	ldr	r3, [r7, #4]
 8002b22:	8d9a      	ldrh	r2, [r3, #44]	@ 0x2c
 8002b24:	687b      	ldr	r3, [r7, #4]
 8002b26:	8ddb      	ldrh	r3, [r3, #46]	@ 0x2e
 8002b28:	b29b      	uxth	r3, r3
 8002b2a:	1ad3      	subs	r3, r2, r3
 8002b2c:	f8a7 30ce 	strh.w	r3, [r7, #206]	@ 0xce
      if ((huart->RxXferCount > 0U)
 8002b30:	687b      	ldr	r3, [r7, #4]
 8002b32:	8ddb      	ldrh	r3, [r3, #46]	@ 0x2e
 8002b34:	b29b      	uxth	r3, r3
 8002b36:	2b00      	cmp	r3, #0
 8002b38:	f000 808b 	beq.w	8002c52 <HAL_UART_IRQHandler+0x512>
          && (nb_rx_data > 0U))
 8002b3c:	f8b7 30ce 	ldrh.w	r3, [r7, #206]	@ 0xce
 8002b40:	2b00      	cmp	r3, #0
 8002b42:	f000 8086 	beq.w	8002c52 <HAL_UART_IRQHandler+0x512>
      {
        /* Disable the UART Parity Error Interrupt and RXNE interrupts */
        ATOMIC_CLEAR_BIT(huart->Instance->CR1, (USART_CR1_RXNEIE | USART_CR1_PEIE));
 8002b46:	687b      	ldr	r3, [r7, #4]
 8002b48:	681b      	ldr	r3, [r3, #0]
 8002b4a:	330c      	adds	r3, #12
 8002b4c:	63bb      	str	r3, [r7, #56]	@ 0x38
   __ASM volatile ("ldrex %0, %1" : "=r" (result) : "Q" (*addr) );
 8002b4e:	6bbb      	ldr	r3, [r7, #56]	@ 0x38
 8002b50:	e853 3f00 	ldrex	r3, [r3]
 8002b54:	637b      	str	r3, [r7, #52]	@ 0x34
   return(result);
 8002b56:	6b7b      	ldr	r3, [r7, #52]	@ 0x34
 8002b58:	f423 7390 	bic.w	r3, r3, #288	@ 0x120
 8002b5c:	f8c7 30c8 	str.w	r3, [r7, #200]	@ 0xc8
 8002b60:	687b      	ldr	r3, [r7, #4]
 8002b62:	681b      	ldr	r3, [r3, #0]
 8002b64:	330c      	adds	r3, #12
 8002b66:	f8d7 20c8 	ldr.w	r2, [r7, #200]	@ 0xc8
 8002b6a:	647a      	str	r2, [r7, #68]	@ 0x44
 8002b6c:	643b      	str	r3, [r7, #64]	@ 0x40
   __ASM volatile ("strex %0, %2, %1" : "=&r" (result), "=Q" (*addr) : "r" (value) );
 8002b6e:	6c39      	ldr	r1, [r7, #64]	@ 0x40
 8002b70:	6c7a      	ldr	r2, [r7, #68]	@ 0x44
 8002b72:	e841 2300 	strex	r3, r2, [r1]
 8002b76:	63fb      	str	r3, [r7, #60]	@ 0x3c
   return(result);
 8002b78:	6bfb      	ldr	r3, [r7, #60]	@ 0x3c
 8002b7a:	2b00      	cmp	r3, #0
 8002b7c:	d1e3      	bne.n	8002b46 <HAL_UART_IRQHandler+0x406>

        /* Disable the UART Error Interrupt: (Frame error, noise error, overrun error) */
        ATOMIC_CLEAR_BIT(huart->Instance->CR3, USART_CR3_EIE);
 8002b7e:	687b      	ldr	r3, [r7, #4]
 8002b80:	681b      	ldr	r3, [r3, #0]
 8002b82:	3314      	adds	r3, #20
 8002b84:	627b      	str	r3, [r7, #36]	@ 0x24
   __ASM volatile ("ldrex %0, %1" : "=r" (result) : "Q" (*addr) );
 8002b86:	6a7b      	ldr	r3, [r7, #36]	@ 0x24
 8002b88:	e853 3f00 	ldrex	r3, [r3]
 8002b8c:	623b      	str	r3, [r7, #32]
   return(result);
 8002b8e:	6a3b      	ldr	r3, [r7, #32]
 8002b90:	f023 0301 	bic.w	r3, r3, #1
 8002b94:	f8c7 30c4 	str.w	r3, [r7, #196]	@ 0xc4
 8002b98:	687b      	ldr	r3, [r7, #4]
 8002b9a:	681b      	ldr	r3, [r3, #0]
 8002b9c:	3314      	adds	r3, #20
 8002b9e:	f8d7 20c4 	ldr.w	r2, [r7, #196]	@ 0xc4
 8002ba2:	633a      	str	r2, [r7, #48]	@ 0x30
 8002ba4:	62fb      	str	r3, [r7, #44]	@ 0x2c
   __ASM volatile ("strex %0, %2, %1" : "=&r" (result), "=Q" (*addr) : "r" (value) );
 8002ba6:	6af9      	ldr	r1, [r7, #44]	@ 0x2c
 8002ba8:	6b3a      	ldr	r2, [r7, #48]	@ 0x30
 8002baa:	e841 2300 	strex	r3, r2, [r1]
 8002bae:	62bb      	str	r3, [r7, #40]	@ 0x28
   return(result);
 8002bb0:	6abb      	ldr	r3, [r7, #40]	@ 0x28
 8002bb2:	2b00      	cmp	r3, #0
 8002bb4:	d1e3      	bne.n	8002b7e <HAL_UART_IRQHandler+0x43e>

        /* Rx process is completed, restore huart->RxState to Ready */
        huart->RxState = HAL_UART_STATE_READY;
 8002bb6:	687b      	ldr	r3, [r7, #4]
 8002bb8:	2220      	movs	r2, #32
 8002bba:	f883 203e 	strb.w	r2, [r3, #62]	@ 0x3e
        huart->ReceptionType = HAL_UART_RECEPTION_STANDARD;
 8002bbe:	687b      	ldr	r3, [r7, #4]
 8002bc0:	2200      	movs	r2, #0
 8002bc2:	631a      	str	r2, [r3, #48]	@ 0x30

        ATOMIC_CLEAR_BIT(huart->Instance->CR1, USART_CR1_IDLEIE);
 8002bc4:	687b      	ldr	r3, [r7, #4]
 8002bc6:	681b      	ldr	r3, [r3, #0]
 8002bc8:	330c      	adds	r3, #12
 8002bca:	613b      	str	r3, [r7, #16]
   __ASM volatile ("ldrex %0, %1" : "=r" (result) : "Q" (*addr) );
 8002bcc:	693b      	ldr	r3, [r7, #16]
 8002bce:	e853 3f00 	ldrex	r3, [r3]
 8002bd2:	60fb      	str	r3, [r7, #12]
   return(result);
 8002bd4:	68fb      	ldr	r3, [r7, #12]
 8002bd6:	f023 0310 	bic.w	r3, r3, #16
 8002bda:	f8c7 30c0 	str.w	r3, [r7, #192]	@ 0xc0
 8002bde:	687b      	ldr	r3, [r7, #4]
 8002be0:	681b      	ldr	r3, [r3, #0]
 8002be2:	330c      	adds	r3, #12
 8002be4:	f8d7 20c0 	ldr.w	r2, [r7, #192]	@ 0xc0
 8002be8:	61fa      	str	r2, [r7, #28]
 8002bea:	61bb      	str	r3, [r7, #24]
   __ASM volatile ("strex %0, %2, %1" : "=&r" (result), "=Q" (*addr) : "r" (value) );
 8002bec:	69b9      	ldr	r1, [r7, #24]
 8002bee:	69fa      	ldr	r2, [r7, #28]
 8002bf0:	e841 2300 	strex	r3, r2, [r1]
 8002bf4:	617b      	str	r3, [r7, #20]
   return(result);
 8002bf6:	697b      	ldr	r3, [r7, #20]
 8002bf8:	2b00      	cmp	r3, #0
 8002bfa:	d1e3      	bne.n	8002bc4 <HAL_UART_IRQHandler+0x484>
#if (USE_HAL_UART_REGISTER_CALLBACKS == 1)
        /*Call registered Rx complete callback*/
        huart->RxEventCallback(huart, nb_rx_data);
#else
        /*Call legacy weak Rx Event callback*/
        HAL_UARTEx_RxEventCallback(huart, nb_rx_data);
 8002bfc:	f8b7 30ce 	ldrh.w	r3, [r7, #206]	@ 0xce
 8002c00:	4619      	mov	r1, r3
 8002c02:	6878      	ldr	r0, [r7, #4]
 8002c04:	f000 f83e 	bl	8002c84 <HAL_UARTEx_RxEventCallback>
#endif /* USE_HAL_UART_REGISTER_CALLBACKS */
      }
      return;
 8002c08:	e023      	b.n	8002c52 <HAL_UART_IRQHandler+0x512>
    }
  }

  /* UART in mode Transmitter ------------------------------------------------*/
  if (((isrflags & USART_SR_TXE) != RESET) && ((cr1its & USART_CR1_TXEIE) != RESET))
 8002c0a:	f8d7 30e4 	ldr.w	r3, [r7, #228]	@ 0xe4
 8002c0e:	f003 0380 	and.w	r3, r3, #128	@ 0x80
 8002c12:	2b00      	cmp	r3, #0
 8002c14:	d009      	beq.n	8002c2a <HAL_UART_IRQHandler+0x4ea>
 8002c16:	f8d7 30e0 	ldr.w	r3, [r7, #224]	@ 0xe0
 8002c1a:	f003 0380 	and.w	r3, r3, #128	@ 0x80
 8002c1e:	2b00      	cmp	r3, #0
 8002c20:	d003      	beq.n	8002c2a <HAL_UART_IRQHandler+0x4ea>
  {
    UART_Transmit_IT(huart);
 8002c22:	6878      	ldr	r0, [r7, #4]
 8002c24:	f000 f95d 	bl	8002ee2 <UART_Transmit_IT>
    return;
 8002c28:	e014      	b.n	8002c54 <HAL_UART_IRQHandler+0x514>
  }

  /* UART in mode Transmitter end --------------------------------------------*/
  if (((isrflags & USART_SR_TC) != RESET) && ((cr1its & USART_CR1_TCIE) != RESET))
 8002c2a:	f8d7 30e4 	ldr.w	r3, [r7, #228]	@ 0xe4
 8002c2e:	f003 0340 	and.w	r3, r3, #64	@ 0x40
 8002c32:	2b00      	cmp	r3, #0
 8002c34:	d00e      	beq.n	8002c54 <HAL_UART_IRQHandler+0x514>
 8002c36:	f8d7 30e0 	ldr.w	r3, [r7, #224]	@ 0xe0
 8002c3a:	f003 0340 	and.w	r3, r3, #64	@ 0x40
 8002c3e:	2b00      	cmp	r3, #0
 8002c40:	d008      	beq.n	8002c54 <HAL_UART_IRQHandler+0x514>
  {
    UART_EndTransmit_IT(huart);
 8002c42:	6878      	ldr	r0, [r7, #4]
 8002c44:	f000 f99d 	bl	8002f82 <UART_EndTransmit_IT>
    return;
 8002c48:	e004      	b.n	8002c54 <HAL_UART_IRQHandler+0x514>
    return;
 8002c4a:	bf00      	nop
 8002c4c:	e002      	b.n	8002c54 <HAL_UART_IRQHandler+0x514>
      return;
 8002c4e:	bf00      	nop
 8002c50:	e000      	b.n	8002c54 <HAL_UART_IRQHandler+0x514>
      return;
 8002c52:	bf00      	nop
  }
}
 8002c54:	37e8      	adds	r7, #232	@ 0xe8
 8002c56:	46bd      	mov	sp, r7
 8002c58:	bd80      	pop	{r7, pc}
 8002c5a:	bf00      	nop

08002c5c <HAL_UART_TxCpltCallback>:
  * @param  huart  Pointer to a UART_HandleTypeDef structure that contains
  *                the configuration information for the specified UART module.
  * @retval None
  */
__weak void HAL_UART_TxCpltCallback(UART_HandleTypeDef *huart)
{
 8002c5c:	b480      	push	{r7}
 8002c5e:	b083      	sub	sp, #12
 8002c60:	af00      	add	r7, sp, #0
 8002c62:	6078      	str	r0, [r7, #4]
  /* Prevent unused argument(s) compilation warning */
  UNUSED(huart);
  /* NOTE: This function should not be modified, when the callback is needed,
           the HAL_UART_TxCpltCallback could be implemented in the user file
   */
}
 8002c64:	bf00      	nop
 8002c66:	370c      	adds	r7, #12
 8002c68:	46bd      	mov	sp, r7
 8002c6a:	f85d 7b04 	ldr.w	r7, [sp], #4
 8002c6e:	4770      	bx	lr

08002c70 <HAL_UART_ErrorCallback>:
  * @param  huart  Pointer to a UART_HandleTypeDef structure that contains
  *                the configuration information for the specified UART module.
  * @retval None
  */
__weak void HAL_UART_ErrorCallback(UART_HandleTypeDef *huart)
{
 8002c70:	b480      	push	{r7}
 8002c72:	b083      	sub	sp, #12
 8002c74:	af00      	add	r7, sp, #0
 8002c76:	6078      	str	r0, [r7, #4]
  /* Prevent unused argument(s) compilation warning */
  UNUSED(huart);
  /* NOTE: This function should not be modified, when the callback is needed,
           the HAL_UART_ErrorCallback could be implemented in the user file
   */
}
 8002c78:	bf00      	nop
 8002c7a:	370c      	adds	r7, #12
 8002c7c:	46bd      	mov	sp, r7
 8002c7e:	f85d 7b04 	ldr.w	r7, [sp], #4
 8002c82:	4770      	bx	lr

08002c84 <HAL_UARTEx_RxEventCallback>:
  * @param  Size  Number of data available in application reception buffer (indicates a position in
  *               reception buffer until which, data are available)
  * @retval None
  */
__weak void HAL_UARTEx_RxEventCallback(UART_HandleTypeDef *huart, uint16_t Size)
{
 8002c84:	b480      	push	{r7}
 8002c86:	b083      	sub	sp, #12
 8002c88:	af00      	add	r7, sp, #0
 8002c8a:	6078      	str	r0, [r7, #4]
 8002c8c:	460b      	mov	r3, r1
 8002c8e:	807b      	strh	r3, [r7, #2]
  UNUSED(Size);

  /* NOTE : This function should not be modified, when the callback is needed,
            the HAL_UARTEx_RxEventCallback can be implemented in the user file.
   */
}
 8002c90:	bf00      	nop
 8002c92:	370c      	adds	r7, #12
 8002c94:	46bd      	mov	sp, r7
 8002c96:	f85d 7b04 	ldr.w	r7, [sp], #4
 8002c9a:	4770      	bx	lr

08002c9c <UART_WaitOnFlagUntilTimeout>:
  * @param  Timeout Timeout duration
  * @retval HAL status
  */
static HAL_StatusTypeDef UART_WaitOnFlagUntilTimeout(UART_HandleTypeDef *huart, uint32_t Flag, FlagStatus Status,
                                                     uint32_t Tickstart, uint32_t Timeout)
{
 8002c9c:	b580      	push	{r7, lr}
 8002c9e:	b090      	sub	sp, #64	@ 0x40
 8002ca0:	af00      	add	r7, sp, #0
 8002ca2:	60f8      	str	r0, [r7, #12]
 8002ca4:	60b9      	str	r1, [r7, #8]
 8002ca6:	603b      	str	r3, [r7, #0]
 8002ca8:	4613      	mov	r3, r2
 8002caa:	71fb      	strb	r3, [r7, #7]
  /* Wait until flag is set */
  while ((__HAL_UART_GET_FLAG(huart, Flag) ? SET : RESET) == Status)
 8002cac:	e050      	b.n	8002d50 <UART_WaitOnFlagUntilTimeout+0xb4>
  {
    /* Check for the Timeout */
    if (Timeout != HAL_MAX_DELAY)
 8002cae:	6cbb      	ldr	r3, [r7, #72]	@ 0x48
 8002cb0:	f1b3 3fff 	cmp.w	r3, #4294967295
 8002cb4:	d04c      	beq.n	8002d50 <UART_WaitOnFlagUntilTimeout+0xb4>
    {
      if ((Timeout == 0U) || ((HAL_GetTick() - Tickstart) > Timeout))
 8002cb6:	6cbb      	ldr	r3, [r7, #72]	@ 0x48
 8002cb8:	2b00      	cmp	r3, #0
 8002cba:	d007      	beq.n	8002ccc <UART_WaitOnFlagUntilTimeout+0x30>
 8002cbc:	f7fe fc26 	bl	800150c <HAL_GetTick>
 8002cc0:	4602      	mov	r2, r0
 8002cc2:	683b      	ldr	r3, [r7, #0]
 8002cc4:	1ad3      	subs	r3, r2, r3
 8002cc6:	6cba      	ldr	r2, [r7, #72]	@ 0x48
 8002cc8:	429a      	cmp	r2, r3
 8002cca:	d241      	bcs.n	8002d50 <UART_WaitOnFlagUntilTimeout+0xb4>
      {
        /* Disable TXE, RXNE, PE and ERR (Frame error, noise error, overrun error) interrupts for the interrupt process */
        ATOMIC_CLEAR_BIT(huart->Instance->CR1, (USART_CR1_RXNEIE | USART_CR1_PEIE | USART_CR1_TXEIE));
 8002ccc:	68fb      	ldr	r3, [r7, #12]
 8002cce:	681b      	ldr	r3, [r3, #0]
 8002cd0:	330c      	adds	r3, #12
 8002cd2:	62bb      	str	r3, [r7, #40]	@ 0x28
   __ASM volatile ("ldrex %0, %1" : "=r" (result) : "Q" (*addr) );
 8002cd4:	6abb      	ldr	r3, [r7, #40]	@ 0x28
 8002cd6:	e853 3f00 	ldrex	r3, [r3]
 8002cda:	627b      	str	r3, [r7, #36]	@ 0x24
   return(result);
 8002cdc:	6a7b      	ldr	r3, [r7, #36]	@ 0x24
 8002cde:	f423 73d0 	bic.w	r3, r3, #416	@ 0x1a0
 8002ce2:	63fb      	str	r3, [r7, #60]	@ 0x3c
 8002ce4:	68fb      	ldr	r3, [r7, #12]
 8002ce6:	681b      	ldr	r3, [r3, #0]
 8002ce8:	330c      	adds	r3, #12
 8002cea:	6bfa      	ldr	r2, [r7, #60]	@ 0x3c
 8002cec:	637a      	str	r2, [r7, #52]	@ 0x34
 8002cee:	633b      	str	r3, [r7, #48]	@ 0x30
   __ASM volatile ("strex %0, %2, %1" : "=&r" (result), "=Q" (*addr) : "r" (value) );
 8002cf0:	6b39      	ldr	r1, [r7, #48]	@ 0x30
 8002cf2:	6b7a      	ldr	r2, [r7, #52]	@ 0x34
 8002cf4:	e841 2300 	strex	r3, r2, [r1]
 8002cf8:	62fb      	str	r3, [r7, #44]	@ 0x2c
   return(result);
 8002cfa:	6afb      	ldr	r3, [r7, #44]	@ 0x2c
 8002cfc:	2b00      	cmp	r3, #0
 8002cfe:	d1e5      	bne.n	8002ccc <UART_WaitOnFlagUntilTimeout+0x30>
        ATOMIC_CLEAR_BIT(huart->Instance->CR3, USART_CR3_EIE);
 8002d00:	68fb      	ldr	r3, [r7, #12]
 8002d02:	681b      	ldr	r3, [r3, #0]
 8002d04:	3314      	adds	r3, #20
 8002d06:	617b      	str	r3, [r7, #20]
   __ASM volatile ("ldrex %0, %1" : "=r" (result) : "Q" (*addr) );
 8002d08:	697b      	ldr	r3, [r7, #20]
 8002d0a:	e853 3f00 	ldrex	r3, [r3]
 8002d0e:	613b      	str	r3, [r7, #16]
   return(result);
 8002d10:	693b      	ldr	r3, [r7, #16]
 8002d12:	f023 0301 	bic.w	r3, r3, #1
 8002d16:	63bb      	str	r3, [r7, #56]	@ 0x38
 8002d18:	68fb      	ldr	r3, [r7, #12]
 8002d1a:	681b      	ldr	r3, [r3, #0]
 8002d1c:	3314      	adds	r3, #20
 8002d1e:	6bba      	ldr	r2, [r7, #56]	@ 0x38
 8002d20:	623a      	str	r2, [r7, #32]
 8002d22:	61fb      	str	r3, [r7, #28]
   __ASM volatile ("strex %0, %2, %1" : "=&r" (result), "=Q" (*addr) : "r" (value) );
 8002d24:	69f9      	ldr	r1, [r7, #28]
 8002d26:	6a3a      	ldr	r2, [r7, #32]
 8002d28:	e841 2300 	strex	r3, r2, [r1]
 8002d2c:	61bb      	str	r3, [r7, #24]
   return(result);
 8002d2e:	69bb      	ldr	r3, [r7, #24]
 8002d30:	2b00      	cmp	r3, #0
 8002d32:	d1e5      	bne.n	8002d00 <UART_WaitOnFlagUntilTimeout+0x64>

        huart->gState  = HAL_UART_STATE_READY;
 8002d34:	68fb      	ldr	r3, [r7, #12]
 8002d36:	2220      	movs	r2, #32
 8002d38:	f883 203d 	strb.w	r2, [r3, #61]	@ 0x3d
        huart->RxState = HAL_UART_STATE_READY;
 8002d3c:	68fb      	ldr	r3, [r7, #12]
 8002d3e:	2220      	movs	r2, #32
 8002d40:	f883 203e 	strb.w	r2, [r3, #62]	@ 0x3e

        /* Process Unlocked */
        __HAL_UNLOCK(huart);
 8002d44:	68fb      	ldr	r3, [r7, #12]
 8002d46:	2200      	movs	r2, #0
 8002d48:	f883 203c 	strb.w	r2, [r3, #60]	@ 0x3c

        return HAL_TIMEOUT;
 8002d4c:	2303      	movs	r3, #3
 8002d4e:	e00f      	b.n	8002d70 <UART_WaitOnFlagUntilTimeout+0xd4>
  while ((__HAL_UART_GET_FLAG(huart, Flag) ? SET : RESET) == Status)
 8002d50:	68fb      	ldr	r3, [r7, #12]
 8002d52:	681b      	ldr	r3, [r3, #0]
 8002d54:	681a      	ldr	r2, [r3, #0]
 8002d56:	68bb      	ldr	r3, [r7, #8]
 8002d58:	4013      	ands	r3, r2
 8002d5a:	68ba      	ldr	r2, [r7, #8]
 8002d5c:	429a      	cmp	r2, r3
 8002d5e:	bf0c      	ite	eq
 8002d60:	2301      	moveq	r3, #1
 8002d62:	2300      	movne	r3, #0
 8002d64:	b2db      	uxtb	r3, r3
 8002d66:	461a      	mov	r2, r3
 8002d68:	79fb      	ldrb	r3, [r7, #7]
 8002d6a:	429a      	cmp	r2, r3
 8002d6c:	d09f      	beq.n	8002cae <UART_WaitOnFlagUntilTimeout+0x12>
      }
    }
  }
  return HAL_OK;
 8002d6e:	2300      	movs	r3, #0
}
 8002d70:	4618      	mov	r0, r3
 8002d72:	3740      	adds	r7, #64	@ 0x40
 8002d74:	46bd      	mov	sp, r7
 8002d76:	bd80      	pop	{r7, pc}

08002d78 <UART_Start_Receive_IT>:
  * @param  pData Pointer to data buffer (u8 or u16 data elements).
  * @param  Size  Amount of data elements (u8 or u16) to be received.
  * @retval HAL status
  */
HAL_StatusTypeDef UART_Start_Receive_IT(UART_HandleTypeDef *huart, uint8_t *pData, uint16_t Size)
{
 8002d78:	b480      	push	{r7}
 8002d7a:	b085      	sub	sp, #20
 8002d7c:	af00      	add	r7, sp, #0
 8002d7e:	60f8      	str	r0, [r7, #12]
 8002d80:	60b9      	str	r1, [r7, #8]
 8002d82:	4613      	mov	r3, r2
 8002d84:	80fb      	strh	r3, [r7, #6]
  huart->pRxBuffPtr = pData;
 8002d86:	68fb      	ldr	r3, [r7, #12]
 8002d88:	68ba      	ldr	r2, [r7, #8]
 8002d8a:	629a      	str	r2, [r3, #40]	@ 0x28
  huart->RxXferSize = Size;
 8002d8c:	68fb      	ldr	r3, [r7, #12]
 8002d8e:	88fa      	ldrh	r2, [r7, #6]
 8002d90:	859a      	strh	r2, [r3, #44]	@ 0x2c
  huart->RxXferCount = Size;
 8002d92:	68fb      	ldr	r3, [r7, #12]
 8002d94:	88fa      	ldrh	r2, [r7, #6]
 8002d96:	85da      	strh	r2, [r3, #46]	@ 0x2e

  huart->ErrorCode = HAL_UART_ERROR_NONE;
 8002d98:	68fb      	ldr	r3, [r7, #12]
 8002d9a:	2200      	movs	r2, #0
 8002d9c:	641a      	str	r2, [r3, #64]	@ 0x40
  huart->RxState = HAL_UART_STATE_BUSY_RX;
 8002d9e:	68fb      	ldr	r3, [r7, #12]
 8002da0:	2222      	movs	r2, #34	@ 0x22
 8002da2:	f883 203e 	strb.w	r2, [r3, #62]	@ 0x3e

  /* Process Unlocked */
  __HAL_UNLOCK(huart);
 8002da6:	68fb      	ldr	r3, [r7, #12]
 8002da8:	2200      	movs	r2, #0
 8002daa:	f883 203c 	strb.w	r2, [r3, #60]	@ 0x3c

  if (huart->Init.Parity != UART_PARITY_NONE)
 8002dae:	68fb      	ldr	r3, [r7, #12]
 8002db0:	691b      	ldr	r3, [r3, #16]
 8002db2:	2b00      	cmp	r3, #0
 8002db4:	d007      	beq.n	8002dc6 <UART_Start_Receive_IT+0x4e>
  {
    /* Enable the UART Parity Error Interrupt */
    __HAL_UART_ENABLE_IT(huart, UART_IT_PE);
 8002db6:	68fb      	ldr	r3, [r7, #12]
 8002db8:	681b      	ldr	r3, [r3, #0]
 8002dba:	68da      	ldr	r2, [r3, #12]
 8002dbc:	68fb      	ldr	r3, [r7, #12]
 8002dbe:	681b      	ldr	r3, [r3, #0]
 8002dc0:	f442 7280 	orr.w	r2, r2, #256	@ 0x100
 8002dc4:	60da      	str	r2, [r3, #12]
  }

  /* Enable the UART Error Interrupt: (Frame error, noise error, overrun error) */
  __HAL_UART_ENABLE_IT(huart, UART_IT_ERR);
 8002dc6:	68fb      	ldr	r3, [r7, #12]
 8002dc8:	681b      	ldr	r3, [r3, #0]
 8002dca:	695a      	ldr	r2, [r3, #20]
 8002dcc:	68fb      	ldr	r3, [r7, #12]
 8002dce:	681b      	ldr	r3, [r3, #0]
 8002dd0:	f042 0201 	orr.w	r2, r2, #1
 8002dd4:	615a      	str	r2, [r3, #20]

  /* Enable the UART Data Register not empty Interrupt */
  __HAL_UART_ENABLE_IT(huart, UART_IT_RXNE);
 8002dd6:	68fb      	ldr	r3, [r7, #12]
 8002dd8:	681b      	ldr	r3, [r3, #0]
 8002dda:	68da      	ldr	r2, [r3, #12]
 8002ddc:	68fb      	ldr	r3, [r7, #12]
 8002dde:	681b      	ldr	r3, [r3, #0]
 8002de0:	f042 0220 	orr.w	r2, r2, #32
 8002de4:	60da      	str	r2, [r3, #12]

  return HAL_OK;
 8002de6:	2300      	movs	r3, #0
}
 8002de8:	4618      	mov	r0, r3
 8002dea:	3714      	adds	r7, #20
 8002dec:	46bd      	mov	sp, r7
 8002dee:	f85d 7b04 	ldr.w	r7, [sp], #4
 8002df2:	4770      	bx	lr

08002df4 <UART_EndRxTransfer>:
  * @brief  End ongoing Rx transfer on UART peripheral (following error detection or Reception completion).
  * @param  huart UART handle.
  * @retval None
  */
static void UART_EndRxTransfer(UART_HandleTypeDef *huart)
{
 8002df4:	b480      	push	{r7}
 8002df6:	b095      	sub	sp, #84	@ 0x54
 8002df8:	af00      	add	r7, sp, #0
 8002dfa:	6078      	str	r0, [r7, #4]
  /* Disable RXNE, PE and ERR (Frame error, noise error, overrun error) interrupts */
  ATOMIC_CLEAR_BIT(huart->Instance->CR1, (USART_CR1_RXNEIE | USART_CR1_PEIE));
 8002dfc:	687b      	ldr	r3, [r7, #4]
 8002dfe:	681b      	ldr	r3, [r3, #0]
 8002e00:	330c      	adds	r3, #12
 8002e02:	637b      	str	r3, [r7, #52]	@ 0x34
   __ASM volatile ("ldrex %0, %1" : "=r" (result) : "Q" (*addr) );
 8002e04:	6b7b      	ldr	r3, [r7, #52]	@ 0x34
 8002e06:	e853 3f00 	ldrex	r3, [r3]
 8002e0a:	633b      	str	r3, [r7, #48]	@ 0x30
   return(result);
 8002e0c:	6b3b      	ldr	r3, [r7, #48]	@ 0x30
 8002e0e:	f423 7390 	bic.w	r3, r3, #288	@ 0x120
 8002e12:	64fb      	str	r3, [r7, #76]	@ 0x4c
 8002e14:	687b      	ldr	r3, [r7, #4]
 8002e16:	681b      	ldr	r3, [r3, #0]
 8002e18:	330c      	adds	r3, #12
 8002e1a:	6cfa      	ldr	r2, [r7, #76]	@ 0x4c
 8002e1c:	643a      	str	r2, [r7, #64]	@ 0x40
 8002e1e:	63fb      	str	r3, [r7, #60]	@ 0x3c
   __ASM volatile ("strex %0, %2, %1" : "=&r" (result), "=Q" (*addr) : "r" (value) );
 8002e20:	6bf9      	ldr	r1, [r7, #60]	@ 0x3c
 8002e22:	6c3a      	ldr	r2, [r7, #64]	@ 0x40
 8002e24:	e841 2300 	strex	r3, r2, [r1]
 8002e28:	63bb      	str	r3, [r7, #56]	@ 0x38
   return(result);
 8002e2a:	6bbb      	ldr	r3, [r7, #56]	@ 0x38
 8002e2c:	2b00      	cmp	r3, #0
 8002e2e:	d1e5      	bne.n	8002dfc <UART_EndRxTransfer+0x8>
  ATOMIC_CLEAR_BIT(huart->Instance->CR3, USART_CR3_EIE);
 8002e30:	687b      	ldr	r3, [r7, #4]
 8002e32:	681b      	ldr	r3, [r3, #0]
 8002e34:	3314      	adds	r3, #20
 8002e36:	623b      	str	r3, [r7, #32]
   __ASM volatile ("ldrex %0, %1" : "=r" (result) : "Q" (*addr) );
 8002e38:	6a3b      	ldr	r3, [r7, #32]
 8002e3a:	e853 3f00 	ldrex	r3, [r3]
 8002e3e:	61fb      	str	r3, [r7, #28]
   return(result);
 8002e40:	69fb      	ldr	r3, [r7, #28]
 8002e42:	f023 0301 	bic.w	r3, r3, #1
 8002e46:	64bb      	str	r3, [r7, #72]	@ 0x48
 8002e48:	687b      	ldr	r3, [r7, #4]
 8002e4a:	681b      	ldr	r3, [r3, #0]
 8002e4c:	3314      	adds	r3, #20
 8002e4e:	6cba      	ldr	r2, [r7, #72]	@ 0x48
 8002e50:	62fa      	str	r2, [r7, #44]	@ 0x2c
 8002e52:	62bb      	str	r3, [r7, #40]	@ 0x28
   __ASM volatile ("strex %0, %2, %1" : "=&r" (result), "=Q" (*addr) : "r" (value) );
 8002e54:	6ab9      	ldr	r1, [r7, #40]	@ 0x28
 8002e56:	6afa      	ldr	r2, [r7, #44]	@ 0x2c
 8002e58:	e841 2300 	strex	r3, r2, [r1]
 8002e5c:	627b      	str	r3, [r7, #36]	@ 0x24
   return(result);
 8002e5e:	6a7b      	ldr	r3, [r7, #36]	@ 0x24
 8002e60:	2b00      	cmp	r3, #0
 8002e62:	d1e5      	bne.n	8002e30 <UART_EndRxTransfer+0x3c>

  /* In case of reception waiting for IDLE event, disable also the IDLE IE interrupt source */
  if (huart->ReceptionType == HAL_UART_RECEPTION_TOIDLE)
 8002e64:	687b      	ldr	r3, [r7, #4]
 8002e66:	6b1b      	ldr	r3, [r3, #48]	@ 0x30
 8002e68:	2b01      	cmp	r3, #1
 8002e6a:	d119      	bne.n	8002ea0 <UART_EndRxTransfer+0xac>
  {
    ATOMIC_CLEAR_BIT(huart->Instance->CR1, USART_CR1_IDLEIE);
 8002e6c:	687b      	ldr	r3, [r7, #4]
 8002e6e:	681b      	ldr	r3, [r3, #0]
 8002e70:	330c      	adds	r3, #12
 8002e72:	60fb      	str	r3, [r7, #12]
   __ASM volatile ("ldrex %0, %1" : "=r" (result) : "Q" (*addr) );
 8002e74:	68fb      	ldr	r3, [r7, #12]
 8002e76:	e853 3f00 	ldrex	r3, [r3]
 8002e7a:	60bb      	str	r3, [r7, #8]
   return(result);
 8002e7c:	68bb      	ldr	r3, [r7, #8]
 8002e7e:	f023 0310 	bic.w	r3, r3, #16
 8002e82:	647b      	str	r3, [r7, #68]	@ 0x44
 8002e84:	687b      	ldr	r3, [r7, #4]
 8002e86:	681b      	ldr	r3, [r3, #0]
 8002e88:	330c      	adds	r3, #12
 8002e8a:	6c7a      	ldr	r2, [r7, #68]	@ 0x44
 8002e8c:	61ba      	str	r2, [r7, #24]
 8002e8e:	617b      	str	r3, [r7, #20]
   __ASM volatile ("strex %0, %2, %1" : "=&r" (result), "=Q" (*addr) : "r" (value) );
 8002e90:	6979      	ldr	r1, [r7, #20]
 8002e92:	69ba      	ldr	r2, [r7, #24]
 8002e94:	e841 2300 	strex	r3, r2, [r1]
 8002e98:	613b      	str	r3, [r7, #16]
   return(result);
 8002e9a:	693b      	ldr	r3, [r7, #16]
 8002e9c:	2b00      	cmp	r3, #0
 8002e9e:	d1e5      	bne.n	8002e6c <UART_EndRxTransfer+0x78>
  }

  /* At end of Rx process, restore huart->RxState to Ready */
  huart->RxState = HAL_UART_STATE_READY;
 8002ea0:	687b      	ldr	r3, [r7, #4]
 8002ea2:	2220      	movs	r2, #32
 8002ea4:	f883 203e 	strb.w	r2, [r3, #62]	@ 0x3e
  huart->ReceptionType = HAL_UART_RECEPTION_STANDARD;
 8002ea8:	687b      	ldr	r3, [r7, #4]
 8002eaa:	2200      	movs	r2, #0
 8002eac:	631a      	str	r2, [r3, #48]	@ 0x30
}
 8002eae:	bf00      	nop
 8002eb0:	3754      	adds	r7, #84	@ 0x54
 8002eb2:	46bd      	mov	sp, r7
 8002eb4:	f85d 7b04 	ldr.w	r7, [sp], #4
 8002eb8:	4770      	bx	lr

08002eba <UART_DMAAbortOnError>:
  * @param  hdma  Pointer to a DMA_HandleTypeDef structure that contains
  *               the configuration information for the specified DMA module.
  * @retval None
  */
static void UART_DMAAbortOnError(DMA_HandleTypeDef *hdma)
{
 8002eba:	b580      	push	{r7, lr}
 8002ebc:	b084      	sub	sp, #16
 8002ebe:	af00      	add	r7, sp, #0
 8002ec0:	6078      	str	r0, [r7, #4]
  UART_HandleTypeDef *huart = (UART_HandleTypeDef *)((DMA_HandleTypeDef *)hdma)->Parent;
 8002ec2:	687b      	ldr	r3, [r7, #4]
 8002ec4:	6b9b      	ldr	r3, [r3, #56]	@ 0x38
 8002ec6:	60fb      	str	r3, [r7, #12]
  huart->RxXferCount = 0x00U;
 8002ec8:	68fb      	ldr	r3, [r7, #12]
 8002eca:	2200      	movs	r2, #0
 8002ecc:	85da      	strh	r2, [r3, #46]	@ 0x2e
  huart->TxXferCount = 0x00U;
 8002ece:	68fb      	ldr	r3, [r7, #12]
 8002ed0:	2200      	movs	r2, #0
 8002ed2:	84da      	strh	r2, [r3, #38]	@ 0x26
#if (USE_HAL_UART_REGISTER_CALLBACKS == 1)
  /*Call registered error callback*/
  huart->ErrorCallback(huart);
#else
  /*Call legacy weak error callback*/
  HAL_UART_ErrorCallback(huart);
 8002ed4:	68f8      	ldr	r0, [r7, #12]
 8002ed6:	f7ff fecb 	bl	8002c70 <HAL_UART_ErrorCallback>
#endif /* USE_HAL_UART_REGISTER_CALLBACKS */
}
 8002eda:	bf00      	nop
 8002edc:	3710      	adds	r7, #16
 8002ede:	46bd      	mov	sp, r7
 8002ee0:	bd80      	pop	{r7, pc}

08002ee2 <UART_Transmit_IT>:
  * @param  huart  Pointer to a UART_HandleTypeDef structure that contains
  *                the configuration information for the specified UART module.
  * @retval HAL status
  */
static HAL_StatusTypeDef UART_Transmit_IT(UART_HandleTypeDef *huart)
{
 8002ee2:	b480      	push	{r7}
 8002ee4:	b085      	sub	sp, #20
 8002ee6:	af00      	add	r7, sp, #0
 8002ee8:	6078      	str	r0, [r7, #4]
  const uint16_t *tmp;

  /* Check that a Tx process is ongoing */
  if (huart->gState == HAL_UART_STATE_BUSY_TX)
 8002eea:	687b      	ldr	r3, [r7, #4]
 8002eec:	f893 303d 	ldrb.w	r3, [r3, #61]	@ 0x3d
 8002ef0:	b2db      	uxtb	r3, r3
 8002ef2:	2b21      	cmp	r3, #33	@ 0x21
 8002ef4:	d13e      	bne.n	8002f74 <UART_Transmit_IT+0x92>
  {
    if ((huart->Init.WordLength == UART_WORDLENGTH_9B) && (huart->Init.Parity == UART_PARITY_NONE))
 8002ef6:	687b      	ldr	r3, [r7, #4]
 8002ef8:	689b      	ldr	r3, [r3, #8]
 8002efa:	f5b3 5f80 	cmp.w	r3, #4096	@ 0x1000
 8002efe:	d114      	bne.n	8002f2a <UART_Transmit_IT+0x48>
 8002f00:	687b      	ldr	r3, [r7, #4]
 8002f02:	691b      	ldr	r3, [r3, #16]
 8002f04:	2b00      	cmp	r3, #0
 8002f06:	d110      	bne.n	8002f2a <UART_Transmit_IT+0x48>
    {
      tmp = (const uint16_t *) huart->pTxBuffPtr;
 8002f08:	687b      	ldr	r3, [r7, #4]
 8002f0a:	6a1b      	ldr	r3, [r3, #32]
 8002f0c:	60fb      	str	r3, [r7, #12]
      huart->Instance->DR = (uint16_t)(*tmp & (uint16_t)0x01FF);
 8002f0e:	68fb      	ldr	r3, [r7, #12]
 8002f10:	881b      	ldrh	r3, [r3, #0]
 8002f12:	461a      	mov	r2, r3
 8002f14:	687b      	ldr	r3, [r7, #4]
 8002f16:	681b      	ldr	r3, [r3, #0]
 8002f18:	f3c2 0208 	ubfx	r2, r2, #0, #9
 8002f1c:	605a      	str	r2, [r3, #4]
      huart->pTxBuffPtr += 2U;
 8002f1e:	687b      	ldr	r3, [r7, #4]
 8002f20:	6a1b      	ldr	r3, [r3, #32]
 8002f22:	1c9a      	adds	r2, r3, #2
 8002f24:	687b      	ldr	r3, [r7, #4]
 8002f26:	621a      	str	r2, [r3, #32]
 8002f28:	e008      	b.n	8002f3c <UART_Transmit_IT+0x5a>
    }
    else
    {
      huart->Instance->DR = (uint8_t)(*huart->pTxBuffPtr++ & (uint8_t)0x00FF);
 8002f2a:	687b      	ldr	r3, [r7, #4]
 8002f2c:	6a1b      	ldr	r3, [r3, #32]
 8002f2e:	1c59      	adds	r1, r3, #1
 8002f30:	687a      	ldr	r2, [r7, #4]
 8002f32:	6211      	str	r1, [r2, #32]
 8002f34:	781a      	ldrb	r2, [r3, #0]
 8002f36:	687b      	ldr	r3, [r7, #4]
 8002f38:	681b      	ldr	r3, [r3, #0]
 8002f3a:	605a      	str	r2, [r3, #4]
    }

    if (--huart->TxXferCount == 0U)
 8002f3c:	687b      	ldr	r3, [r7, #4]
 8002f3e:	8cdb      	ldrh	r3, [r3, #38]	@ 0x26
 8002f40:	b29b      	uxth	r3, r3
 8002f42:	3b01      	subs	r3, #1
 8002f44:	b29b      	uxth	r3, r3
 8002f46:	687a      	ldr	r2, [r7, #4]
 8002f48:	4619      	mov	r1, r3
 8002f4a:	84d1      	strh	r1, [r2, #38]	@ 0x26
 8002f4c:	2b00      	cmp	r3, #0
 8002f4e:	d10f      	bne.n	8002f70 <UART_Transmit_IT+0x8e>
    {
      /* Disable the UART Transmit Data Register Empty Interrupt */
      __HAL_UART_DISABLE_IT(huart, UART_IT_TXE);
 8002f50:	687b      	ldr	r3, [r7, #4]
 8002f52:	681b      	ldr	r3, [r3, #0]
 8002f54:	68da      	ldr	r2, [r3, #12]
 8002f56:	687b      	ldr	r3, [r7, #4]
 8002f58:	681b      	ldr	r3, [r3, #0]
 8002f5a:	f022 0280 	bic.w	r2, r2, #128	@ 0x80
 8002f5e:	60da      	str	r2, [r3, #12]

      /* Enable the UART Transmit Complete Interrupt */
      __HAL_UART_ENABLE_IT(huart, UART_IT_TC);
 8002f60:	687b      	ldr	r3, [r7, #4]
 8002f62:	681b      	ldr	r3, [r3, #0]
 8002f64:	68da      	ldr	r2, [r3, #12]
 8002f66:	687b      	ldr	r3, [r7, #4]
 8002f68:	681b      	ldr	r3, [r3, #0]
 8002f6a:	f042 0240 	orr.w	r2, r2, #64	@ 0x40
 8002f6e:	60da      	str	r2, [r3, #12]
    }
    return HAL_OK;
 8002f70:	2300      	movs	r3, #0
 8002f72:	e000      	b.n	8002f76 <UART_Transmit_IT+0x94>
  }
  else
  {
    return HAL_BUSY;
 8002f74:	2302      	movs	r3, #2
  }
}
 8002f76:	4618      	mov	r0, r3
 8002f78:	3714      	adds	r7, #20
 8002f7a:	46bd      	mov	sp, r7
 8002f7c:	f85d 7b04 	ldr.w	r7, [sp], #4
 8002f80:	4770      	bx	lr

08002f82 <UART_EndTransmit_IT>:
  * @param  huart  Pointer to a UART_HandleTypeDef structure that contains
  *                the configuration information for the specified UART module.
  * @retval HAL status
  */
static HAL_StatusTypeDef UART_EndTransmit_IT(UART_HandleTypeDef *huart)
{
 8002f82:	b580      	push	{r7, lr}
 8002f84:	b082      	sub	sp, #8
 8002f86:	af00      	add	r7, sp, #0
 8002f88:	6078      	str	r0, [r7, #4]
  /* Disable the UART Transmit Complete Interrupt */
  __HAL_UART_DISABLE_IT(huart, UART_IT_TC);
 8002f8a:	687b      	ldr	r3, [r7, #4]
 8002f8c:	681b      	ldr	r3, [r3, #0]
 8002f8e:	68da      	ldr	r2, [r3, #12]
 8002f90:	687b      	ldr	r3, [r7, #4]
 8002f92:	681b      	ldr	r3, [r3, #0]
 8002f94:	f022 0240 	bic.w	r2, r2, #64	@ 0x40
 8002f98:	60da      	str	r2, [r3, #12]

  /* Tx process is ended, restore huart->gState to Ready */
  huart->gState = HAL_UART_STATE_READY;
 8002f9a:	687b      	ldr	r3, [r7, #4]
 8002f9c:	2220      	movs	r2, #32
 8002f9e:	f883 203d 	strb.w	r2, [r3, #61]	@ 0x3d
#if (USE_HAL_UART_REGISTER_CALLBACKS == 1)
  /*Call registered Tx complete callback*/
  huart->TxCpltCallback(huart);
#else
  /*Call legacy weak Tx complete callback*/
  HAL_UART_TxCpltCallback(huart);
 8002fa2:	6878      	ldr	r0, [r7, #4]
 8002fa4:	f7ff fe5a 	bl	8002c5c <HAL_UART_TxCpltCallback>
#endif /* USE_HAL_UART_REGISTER_CALLBACKS */

  return HAL_OK;
 8002fa8:	2300      	movs	r3, #0
}
 8002faa:	4618      	mov	r0, r3
 8002fac:	3708      	adds	r7, #8
 8002fae:	46bd      	mov	sp, r7
 8002fb0:	bd80      	pop	{r7, pc}

08002fb2 <UART_Receive_IT>:
  * @param  huart  Pointer to a UART_HandleTypeDef structure that contains
  *                the configuration information for the specified UART module.
  * @retval HAL status
  */
static HAL_StatusTypeDef UART_Receive_IT(UART_HandleTypeDef *huart)
{
 8002fb2:	b580      	push	{r7, lr}
 8002fb4:	b08c      	sub	sp, #48	@ 0x30
 8002fb6:	af00      	add	r7, sp, #0
 8002fb8:	6078      	str	r0, [r7, #4]
  uint8_t  *pdata8bits;
  uint16_t *pdata16bits;

  /* Check that a Rx process is ongoing */
  if (huart->RxState == HAL_UART_STATE_BUSY_RX)
 8002fba:	687b      	ldr	r3, [r7, #4]
 8002fbc:	f893 303e 	ldrb.w	r3, [r3, #62]	@ 0x3e
 8002fc0:	b2db      	uxtb	r3, r3
 8002fc2:	2b22      	cmp	r3, #34	@ 0x22
 8002fc4:	f040 80ab 	bne.w	800311e <UART_Receive_IT+0x16c>
  {
    if ((huart->Init.WordLength == UART_WORDLENGTH_9B) && (huart->Init.Parity == UART_PARITY_NONE))
 8002fc8:	687b      	ldr	r3, [r7, #4]
 8002fca:	689b      	ldr	r3, [r3, #8]
 8002fcc:	f5b3 5f80 	cmp.w	r3, #4096	@ 0x1000
 8002fd0:	d117      	bne.n	8003002 <UART_Receive_IT+0x50>
 8002fd2:	687b      	ldr	r3, [r7, #4]
 8002fd4:	691b      	ldr	r3, [r3, #16]
 8002fd6:	2b00      	cmp	r3, #0
 8002fd8:	d113      	bne.n	8003002 <UART_Receive_IT+0x50>
    {
      pdata8bits  = NULL;
 8002fda:	2300      	movs	r3, #0
 8002fdc:	62fb      	str	r3, [r7, #44]	@ 0x2c
      pdata16bits = (uint16_t *) huart->pRxBuffPtr;
 8002fde:	687b      	ldr	r3, [r7, #4]
 8002fe0:	6a9b      	ldr	r3, [r3, #40]	@ 0x28
 8002fe2:	62bb      	str	r3, [r7, #40]	@ 0x28
      *pdata16bits = (uint16_t)(huart->Instance->DR & (uint16_t)0x01FF);
 8002fe4:	687b      	ldr	r3, [r7, #4]
 8002fe6:	681b      	ldr	r3, [r3, #0]
 8002fe8:	685b      	ldr	r3, [r3, #4]
 8002fea:	b29b      	uxth	r3, r3
 8002fec:	f3c3 0308 	ubfx	r3, r3, #0, #9
 8002ff0:	b29a      	uxth	r2, r3
 8002ff2:	6abb      	ldr	r3, [r7, #40]	@ 0x28
 8002ff4:	801a      	strh	r2, [r3, #0]
      huart->pRxBuffPtr += 2U;
 8002ff6:	687b      	ldr	r3, [r7, #4]
 8002ff8:	6a9b      	ldr	r3, [r3, #40]	@ 0x28
 8002ffa:	1c9a      	adds	r2, r3, #2
 8002ffc:	687b      	ldr	r3, [r7, #4]
 8002ffe:	629a      	str	r2, [r3, #40]	@ 0x28
 8003000:	e026      	b.n	8003050 <UART_Receive_IT+0x9e>
    }
    else
    {
      pdata8bits = (uint8_t *) huart->pRxBuffPtr;
 8003002:	687b      	ldr	r3, [r7, #4]
 8003004:	6a9b      	ldr	r3, [r3, #40]	@ 0x28
 8003006:	62fb      	str	r3, [r7, #44]	@ 0x2c
      pdata16bits  = NULL;
 8003008:	2300      	movs	r3, #0
 800300a:	62bb      	str	r3, [r7, #40]	@ 0x28

      if ((huart->Init.WordLength == UART_WORDLENGTH_9B) || ((huart->Init.WordLength == UART_WORDLENGTH_8B) && (huart->Init.Parity == UART_PARITY_NONE)))
 800300c:	687b      	ldr	r3, [r7, #4]
 800300e:	689b      	ldr	r3, [r3, #8]
 8003010:	f5b3 5f80 	cmp.w	r3, #4096	@ 0x1000
 8003014:	d007      	beq.n	8003026 <UART_Receive_IT+0x74>
 8003016:	687b      	ldr	r3, [r7, #4]
 8003018:	689b      	ldr	r3, [r3, #8]
 800301a:	2b00      	cmp	r3, #0
 800301c:	d10a      	bne.n	8003034 <UART_Receive_IT+0x82>
 800301e:	687b      	ldr	r3, [r7, #4]
 8003020:	691b      	ldr	r3, [r3, #16]
 8003022:	2b00      	cmp	r3, #0
 8003024:	d106      	bne.n	8003034 <UART_Receive_IT+0x82>
      {
        *pdata8bits = (uint8_t)(huart->Instance->DR & (uint8_t)0x00FF);
 8003026:	687b      	ldr	r3, [r7, #4]
 8003028:	681b      	ldr	r3, [r3, #0]
 800302a:	685b      	ldr	r3, [r3, #4]
 800302c:	b2da      	uxtb	r2, r3
 800302e:	6afb      	ldr	r3, [r7, #44]	@ 0x2c
 8003030:	701a      	strb	r2, [r3, #0]
 8003032:	e008      	b.n	8003046 <UART_Receive_IT+0x94>
      }
      else
      {
        *pdata8bits = (uint8_t)(huart->Instance->DR & (uint8_t)0x007F);
 8003034:	687b      	ldr	r3, [r7, #4]
 8003036:	681b      	ldr	r3, [r3, #0]
 8003038:	685b      	ldr	r3, [r3, #4]
 800303a:	b2db      	uxtb	r3, r3
 800303c:	f003 037f 	and.w	r3, r3, #127	@ 0x7f
 8003040:	b2da      	uxtb	r2, r3
 8003042:	6afb      	ldr	r3, [r7, #44]	@ 0x2c
 8003044:	701a      	strb	r2, [r3, #0]
      }
      huart->pRxBuffPtr += 1U;
 8003046:	687b      	ldr	r3, [r7, #4]
 8003048:	6a9b      	ldr	r3, [r3, #40]	@ 0x28
 800304a:	1c5a      	adds	r2, r3, #1
 800304c:	687b      	ldr	r3, [r7, #4]
 800304e:	629a      	str	r2, [r3, #40]	@ 0x28
    }

    if (--huart->RxXferCount == 0U)
 8003050:	687b      	ldr	r3, [r7, #4]
 8003052:	8ddb      	ldrh	r3, [r3, #46]	@ 0x2e
 8003054:	b29b      	uxth	r3, r3
 8003056:	3b01      	subs	r3, #1
 8003058:	b29b      	uxth	r3, r3
 800305a:	687a      	ldr	r2, [r7, #4]
 800305c:	4619      	mov	r1, r3
 800305e:	85d1      	strh	r1, [r2, #46]	@ 0x2e
 8003060:	2b00      	cmp	r3, #0
 8003062:	d15a      	bne.n	800311a <UART_Receive_IT+0x168>
    {
      /* Disable the UART Data Register not empty Interrupt */
      __HAL_UART_DISABLE_IT(huart, UART_IT_RXNE);
 8003064:	687b      	ldr	r3, [r7, #4]
 8003066:	681b      	ldr	r3, [r3, #0]
 8003068:	68da      	ldr	r2, [r3, #12]
 800306a:	687b      	ldr	r3, [r7, #4]
 800306c:	681b      	ldr	r3, [r3, #0]
 800306e:	f022 0220 	bic.w	r2, r2, #32
 8003072:	60da      	str	r2, [r3, #12]

      /* Disable the UART Parity Error Interrupt */
      __HAL_UART_DISABLE_IT(huart, UART_IT_PE);
 8003074:	687b      	ldr	r3, [r7, #4]
 8003076:	681b      	ldr	r3, [r3, #0]
 8003078:	68da      	ldr	r2, [r3, #12]
 800307a:	687b      	ldr	r3, [r7, #4]
 800307c:	681b      	ldr	r3, [r3, #0]
 800307e:	f422 7280 	bic.w	r2, r2, #256	@ 0x100
 8003082:	60da      	str	r2, [r3, #12]

      /* Disable the UART Error Interrupt: (Frame error, noise error, overrun error) */
      __HAL_UART_DISABLE_IT(huart, UART_IT_ERR);
 8003084:	687b      	ldr	r3, [r7, #4]
 8003086:	681b      	ldr	r3, [r3, #0]
 8003088:	695a      	ldr	r2, [r3, #20]
 800308a:	687b      	ldr	r3, [r7, #4]
 800308c:	681b      	ldr	r3, [r3, #0]
 800308e:	f022 0201 	bic.w	r2, r2, #1
 8003092:	615a      	str	r2, [r3, #20]

      /* Rx process is completed, restore huart->RxState to Ready */
      huart->RxState = HAL_UART_STATE_READY;
 8003094:	687b      	ldr	r3, [r7, #4]
 8003096:	2220      	movs	r2, #32
 8003098:	f883 203e 	strb.w	r2, [r3, #62]	@ 0x3e

      /* Check current reception Mode :
         If Reception till IDLE event has been selected : */
      if (huart->ReceptionType == HAL_UART_RECEPTION_TOIDLE)
 800309c:	687b      	ldr	r3, [r7, #4]
 800309e:	6b1b      	ldr	r3, [r3, #48]	@ 0x30
 80030a0:	2b01      	cmp	r3, #1
 80030a2:	d135      	bne.n	8003110 <UART_Receive_IT+0x15e>
      {
        /* Set reception type to Standard */
        huart->ReceptionType = HAL_UART_RECEPTION_STANDARD;
 80030a4:	687b      	ldr	r3, [r7, #4]
 80030a6:	2200      	movs	r2, #0
 80030a8:	631a      	str	r2, [r3, #48]	@ 0x30

        /* Disable IDLE interrupt */
        ATOMIC_CLEAR_BIT(huart->Instance->CR1, USART_CR1_IDLEIE);
 80030aa:	687b      	ldr	r3, [r7, #4]
 80030ac:	681b      	ldr	r3, [r3, #0]
 80030ae:	330c      	adds	r3, #12
 80030b0:	617b      	str	r3, [r7, #20]
   __ASM volatile ("ldrex %0, %1" : "=r" (result) : "Q" (*addr) );
 80030b2:	697b      	ldr	r3, [r7, #20]
 80030b4:	e853 3f00 	ldrex	r3, [r3]
 80030b8:	613b      	str	r3, [r7, #16]
   return(result);
 80030ba:	693b      	ldr	r3, [r7, #16]
 80030bc:	f023 0310 	bic.w	r3, r3, #16
 80030c0:	627b      	str	r3, [r7, #36]	@ 0x24
 80030c2:	687b      	ldr	r3, [r7, #4]
 80030c4:	681b      	ldr	r3, [r3, #0]
 80030c6:	330c      	adds	r3, #12
 80030c8:	6a7a      	ldr	r2, [r7, #36]	@ 0x24
 80030ca:	623a      	str	r2, [r7, #32]
 80030cc:	61fb      	str	r3, [r7, #28]
   __ASM volatile ("strex %0, %2, %1" : "=&r" (result), "=Q" (*addr) : "r" (value) );
 80030ce:	69f9      	ldr	r1, [r7, #28]
 80030d0:	6a3a      	ldr	r2, [r7, #32]
 80030d2:	e841 2300 	strex	r3, r2, [r1]
 80030d6:	61bb      	str	r3, [r7, #24]
   return(result);
 80030d8:	69bb      	ldr	r3, [r7, #24]
 80030da:	2b00      	cmp	r3, #0
 80030dc:	d1e5      	bne.n	80030aa <UART_Receive_IT+0xf8>

        /* Check if IDLE flag is set */
        if (__HAL_UART_GET_FLAG(huart, UART_FLAG_IDLE))
 80030de:	687b      	ldr	r3, [r7, #4]
 80030e0:	681b      	ldr	r3, [r3, #0]
 80030e2:	681b      	ldr	r3, [r3, #0]
 80030e4:	f003 0310 	and.w	r3, r3, #16
 80030e8:	2b10      	cmp	r3, #16
 80030ea:	d10a      	bne.n	8003102 <UART_Receive_IT+0x150>
        {
          /* Clear IDLE flag in ISR */
          __HAL_UART_CLEAR_IDLEFLAG(huart);
 80030ec:	2300      	movs	r3, #0
 80030ee:	60fb      	str	r3, [r7, #12]
 80030f0:	687b      	ldr	r3, [r7, #4]
 80030f2:	681b      	ldr	r3, [r3, #0]
 80030f4:	681b      	ldr	r3, [r3, #0]
 80030f6:	60fb      	str	r3, [r7, #12]
 80030f8:	687b      	ldr	r3, [r7, #4]
 80030fa:	681b      	ldr	r3, [r3, #0]
 80030fc:	685b      	ldr	r3, [r3, #4]
 80030fe:	60fb      	str	r3, [r7, #12]
 8003100:	68fb      	ldr	r3, [r7, #12]
#if (USE_HAL_UART_REGISTER_CALLBACKS == 1)
        /*Call registered Rx Event callback*/
        huart->RxEventCallback(huart, huart->RxXferSize);
#else
        /*Call legacy weak Rx Event callback*/
        HAL_UARTEx_RxEventCallback(huart, huart->RxXferSize);
 8003102:	687b      	ldr	r3, [r7, #4]
 8003104:	8d9b      	ldrh	r3, [r3, #44]	@ 0x2c
 8003106:	4619      	mov	r1, r3
 8003108:	6878      	ldr	r0, [r7, #4]
 800310a:	f7ff fdbb 	bl	8002c84 <HAL_UARTEx_RxEventCallback>
 800310e:	e002      	b.n	8003116 <UART_Receive_IT+0x164>
#if (USE_HAL_UART_REGISTER_CALLBACKS == 1)
        /*Call registered Rx complete callback*/
        huart->RxCpltCallback(huart);
#else
        /*Call legacy weak Rx complete callback*/
        HAL_UART_RxCpltCallback(huart);
 8003110:	6878      	ldr	r0, [r7, #4]
 8003112:	f7fd feb5 	bl	8000e80 <HAL_UART_RxCpltCallback>
#endif /* USE_HAL_UART_REGISTER_CALLBACKS */
      }

      return HAL_OK;
 8003116:	2300      	movs	r3, #0
 8003118:	e002      	b.n	8003120 <UART_Receive_IT+0x16e>
    }
    return HAL_OK;
 800311a:	2300      	movs	r3, #0
 800311c:	e000      	b.n	8003120 <UART_Receive_IT+0x16e>
  }
  else
  {
    return HAL_BUSY;
 800311e:	2302      	movs	r3, #2
  }
}
 8003120:	4618      	mov	r0, r3
 8003122:	3730      	adds	r7, #48	@ 0x30
 8003124:	46bd      	mov	sp, r7
 8003126:	bd80      	pop	{r7, pc}

08003128 <UART_SetConfig>:
  * @param  huart  Pointer to a UART_HandleTypeDef structure that contains
  *                the configuration information for the specified UART module.
  * @retval None
  */
static void UART_SetConfig(UART_HandleTypeDef *huart)
{
 8003128:	e92d 4fb0 	stmdb	sp!, {r4, r5, r7, r8, r9, sl, fp, lr}
 800312c:	b0c0      	sub	sp, #256	@ 0x100
 800312e:	af00      	add	r7, sp, #0
 8003130:	f8c7 00f4 	str.w	r0, [r7, #244]	@ 0xf4
  assert_param(IS_UART_MODE(huart->Init.Mode));

  /*-------------------------- USART CR2 Configuration -----------------------*/
  /* Configure the UART Stop Bits: Set STOP[13:12] bits
     according to huart->Init.StopBits value */
  MODIFY_REG(huart->Instance->CR2, USART_CR2_STOP, huart->Init.StopBits);
 8003134:	f8d7 30f4 	ldr.w	r3, [r7, #244]	@ 0xf4
 8003138:	681b      	ldr	r3, [r3, #0]
 800313a:	691b      	ldr	r3, [r3, #16]
 800313c:	f423 5040 	bic.w	r0, r3, #12288	@ 0x3000
 8003140:	f8d7 30f4 	ldr.w	r3, [r7, #244]	@ 0xf4
 8003144:	68d9      	ldr	r1, [r3, #12]
 8003146:	f8d7 30f4 	ldr.w	r3, [r7, #244]	@ 0xf4
 800314a:	681a      	ldr	r2, [r3, #0]
 800314c:	ea40 0301 	orr.w	r3, r0, r1
 8003150:	6113      	str	r3, [r2, #16]
     Set the M bits according to huart->Init.WordLength value
     Set PCE and PS bits according to huart->Init.Parity value
     Set TE and RE bits according to huart->Init.Mode value
     Set OVER8 bit according to huart->Init.OverSampling value */

  tmpreg = (uint32_t)huart->Init.WordLength | huart->Init.Parity | huart->Init.Mode | huart->Init.OverSampling;
 8003152:	f8d7 30f4 	ldr.w	r3, [r7, #244]	@ 0xf4
 8003156:	689a      	ldr	r2, [r3, #8]
 8003158:	f8d7 30f4 	ldr.w	r3, [r7, #244]	@ 0xf4
 800315c:	691b      	ldr	r3, [r3, #16]
 800315e:	431a      	orrs	r2, r3
 8003160:	f8d7 30f4 	ldr.w	r3, [r7, #244]	@ 0xf4
 8003164:	695b      	ldr	r3, [r3, #20]
 8003166:	431a      	orrs	r2, r3
 8003168:	f8d7 30f4 	ldr.w	r3, [r7, #244]	@ 0xf4
 800316c:	69db      	ldr	r3, [r3, #28]
 800316e:	4313      	orrs	r3, r2
 8003170:	f8c7 30f8 	str.w	r3, [r7, #248]	@ 0xf8
  MODIFY_REG(huart->Instance->CR1,
 8003174:	f8d7 30f4 	ldr.w	r3, [r7, #244]	@ 0xf4
 8003178:	681b      	ldr	r3, [r3, #0]
 800317a:	68db      	ldr	r3, [r3, #12]
 800317c:	f423 4116 	bic.w	r1, r3, #38400	@ 0x9600
 8003180:	f021 010c 	bic.w	r1, r1, #12
 8003184:	f8d7 30f4 	ldr.w	r3, [r7, #244]	@ 0xf4
 8003188:	681a      	ldr	r2, [r3, #0]
 800318a:	f8d7 30f8 	ldr.w	r3, [r7, #248]	@ 0xf8
 800318e:	430b      	orrs	r3, r1
 8003190:	60d3      	str	r3, [r2, #12]
             (uint32_t)(USART_CR1_M | USART_CR1_PCE | USART_CR1_PS | USART_CR1_TE | USART_CR1_RE | USART_CR1_OVER8),
             tmpreg);

  /*-------------------------- USART CR3 Configuration -----------------------*/
  /* Configure the UART HFC: Set CTSE and RTSE bits according to huart->Init.HwFlowCtl value */
  MODIFY_REG(huart->Instance->CR3, (USART_CR3_RTSE | USART_CR3_CTSE), huart->Init.HwFlowCtl);
 8003192:	f8d7 30f4 	ldr.w	r3, [r7, #244]	@ 0xf4
 8003196:	681b      	ldr	r3, [r3, #0]
 8003198:	695b      	ldr	r3, [r3, #20]
 800319a:	f423 7040 	bic.w	r0, r3, #768	@ 0x300
 800319e:	f8d7 30f4 	ldr.w	r3, [r7, #244]	@ 0xf4
 80031a2:	6999      	ldr	r1, [r3, #24]
 80031a4:	f8d7 30f4 	ldr.w	r3, [r7, #244]	@ 0xf4
 80031a8:	681a      	ldr	r2, [r3, #0]
 80031aa:	ea40 0301 	orr.w	r3, r0, r1
 80031ae:	6153      	str	r3, [r2, #20]
    if ((huart->Instance == USART1) || (huart->Instance == USART6) || (huart->Instance == UART9) || (huart->Instance == UART10))
    {
      pclk = HAL_RCC_GetPCLK2Freq();
    }
#elif defined(USART6)
    if ((huart->Instance == USART1) || (huart->Instance == USART6))
 80031b0:	f8d7 30f4 	ldr.w	r3, [r7, #244]	@ 0xf4
 80031b4:	681a      	ldr	r2, [r3, #0]
 80031b6:	4b8f      	ldr	r3, [pc, #572]	@ (80033f4 <UART_SetConfig+0x2cc>)
 80031b8:	429a      	cmp	r2, r3
 80031ba:	d005      	beq.n	80031c8 <UART_SetConfig+0xa0>
 80031bc:	f8d7 30f4 	ldr.w	r3, [r7, #244]	@ 0xf4
 80031c0:	681a      	ldr	r2, [r3, #0]
 80031c2:	4b8d      	ldr	r3, [pc, #564]	@ (80033f8 <UART_SetConfig+0x2d0>)
 80031c4:	429a      	cmp	r2, r3
 80031c6:	d104      	bne.n	80031d2 <UART_SetConfig+0xaa>
    {
      pclk = HAL_RCC_GetPCLK2Freq();
 80031c8:	f7ff f996 	bl	80024f8 <HAL_RCC_GetPCLK2Freq>
 80031cc:	f8c7 00fc 	str.w	r0, [r7, #252]	@ 0xfc
 80031d0:	e003      	b.n	80031da <UART_SetConfig+0xb2>
      pclk = HAL_RCC_GetPCLK2Freq();
    }
#endif /* USART6 */
    else
    {
      pclk = HAL_RCC_GetPCLK1Freq();
 80031d2:	f7ff f97d 	bl	80024d0 <HAL_RCC_GetPCLK1Freq>
 80031d6:	f8c7 00fc 	str.w	r0, [r7, #252]	@ 0xfc
    }
  /*-------------------------- USART BRR Configuration ---------------------*/
  if (huart->Init.OverSampling == UART_OVERSAMPLING_8)
 80031da:	f8d7 30f4 	ldr.w	r3, [r7, #244]	@ 0xf4
 80031de:	69db      	ldr	r3, [r3, #28]
 80031e0:	f5b3 4f00 	cmp.w	r3, #32768	@ 0x8000
 80031e4:	f040 810c 	bne.w	8003400 <UART_SetConfig+0x2d8>
  {
    huart->Instance->BRR = UART_BRR_SAMPLING8(pclk, huart->Init.BaudRate);
 80031e8:	f8d7 30fc 	ldr.w	r3, [r7, #252]	@ 0xfc
 80031ec:	2200      	movs	r2, #0
 80031ee:	f8c7 30e8 	str.w	r3, [r7, #232]	@ 0xe8
 80031f2:	f8c7 20ec 	str.w	r2, [r7, #236]	@ 0xec
 80031f6:	e9d7 453a 	ldrd	r4, r5, [r7, #232]	@ 0xe8
 80031fa:	4622      	mov	r2, r4
 80031fc:	462b      	mov	r3, r5
 80031fe:	1891      	adds	r1, r2, r2
 8003200:	65b9      	str	r1, [r7, #88]	@ 0x58
 8003202:	415b      	adcs	r3, r3
 8003204:	65fb      	str	r3, [r7, #92]	@ 0x5c
 8003206:	e9d7 2316 	ldrd	r2, r3, [r7, #88]	@ 0x58
 800320a:	4621      	mov	r1, r4
 800320c:	eb12 0801 	adds.w	r8, r2, r1
 8003210:	4629      	mov	r1, r5
 8003212:	eb43 0901 	adc.w	r9, r3, r1
 8003216:	f04f 0200 	mov.w	r2, #0
 800321a:	f04f 0300 	mov.w	r3, #0
 800321e:	ea4f 03c9 	mov.w	r3, r9, lsl #3
 8003222:	ea43 7358 	orr.w	r3, r3, r8, lsr #29
 8003226:	ea4f 02c8 	mov.w	r2, r8, lsl #3
 800322a:	4690      	mov	r8, r2
 800322c:	4699      	mov	r9, r3
 800322e:	4623      	mov	r3, r4
 8003230:	eb18 0303 	adds.w	r3, r8, r3
 8003234:	f8c7 30e0 	str.w	r3, [r7, #224]	@ 0xe0
 8003238:	462b      	mov	r3, r5
 800323a:	eb49 0303 	adc.w	r3, r9, r3
 800323e:	f8c7 30e4 	str.w	r3, [r7, #228]	@ 0xe4
 8003242:	f8d7 30f4 	ldr.w	r3, [r7, #244]	@ 0xf4
 8003246:	685b      	ldr	r3, [r3, #4]
 8003248:	2200      	movs	r2, #0
 800324a:	f8c7 30d8 	str.w	r3, [r7, #216]	@ 0xd8
 800324e:	f8c7 20dc 	str.w	r2, [r7, #220]	@ 0xdc
 8003252:	e9d7 1236 	ldrd	r1, r2, [r7, #216]	@ 0xd8
 8003256:	460b      	mov	r3, r1
 8003258:	18db      	adds	r3, r3, r3
 800325a:	653b      	str	r3, [r7, #80]	@ 0x50
 800325c:	4613      	mov	r3, r2
 800325e:	eb42 0303 	adc.w	r3, r2, r3
 8003262:	657b      	str	r3, [r7, #84]	@ 0x54
 8003264:	e9d7 2314 	ldrd	r2, r3, [r7, #80]	@ 0x50
 8003268:	e9d7 0138 	ldrd	r0, r1, [r7, #224]	@ 0xe0
 800326c:	f7fd f978 	bl	8000560 <__aeabi_uldivmod>
 8003270:	4602      	mov	r2, r0
 8003272:	460b      	mov	r3, r1
 8003274:	4b61      	ldr	r3, [pc, #388]	@ (80033fc <UART_SetConfig+0x2d4>)
 8003276:	fba3 2302 	umull	r2, r3, r3, r2
 800327a:	095b      	lsrs	r3, r3, #5
 800327c:	011c      	lsls	r4, r3, #4
 800327e:	f8d7 30fc 	ldr.w	r3, [r7, #252]	@ 0xfc
 8003282:	2200      	movs	r2, #0
 8003284:	f8c7 30d0 	str.w	r3, [r7, #208]	@ 0xd0
 8003288:	f8c7 20d4 	str.w	r2, [r7, #212]	@ 0xd4
 800328c:	e9d7 8934 	ldrd	r8, r9, [r7, #208]	@ 0xd0
 8003290:	4642      	mov	r2, r8
 8003292:	464b      	mov	r3, r9
 8003294:	1891      	adds	r1, r2, r2
 8003296:	64b9      	str	r1, [r7, #72]	@ 0x48
 8003298:	415b      	adcs	r3, r3
 800329a:	64fb      	str	r3, [r7, #76]	@ 0x4c
 800329c:	e9d7 2312 	ldrd	r2, r3, [r7, #72]	@ 0x48
 80032a0:	4641      	mov	r1, r8
 80032a2:	eb12 0a01 	adds.w	sl, r2, r1
 80032a6:	4649      	mov	r1, r9
 80032a8:	eb43 0b01 	adc.w	fp, r3, r1
 80032ac:	f04f 0200 	mov.w	r2, #0
 80032b0:	f04f 0300 	mov.w	r3, #0
 80032b4:	ea4f 03cb 	mov.w	r3, fp, lsl #3
 80032b8:	ea43 735a 	orr.w	r3, r3, sl, lsr #29
 80032bc:	ea4f 02ca 	mov.w	r2, sl, lsl #3
 80032c0:	4692      	mov	sl, r2
 80032c2:	469b      	mov	fp, r3
 80032c4:	4643      	mov	r3, r8
 80032c6:	eb1a 0303 	adds.w	r3, sl, r3
 80032ca:	f8c7 30c8 	str.w	r3, [r7, #200]	@ 0xc8
 80032ce:	464b      	mov	r3, r9
 80032d0:	eb4b 0303 	adc.w	r3, fp, r3
 80032d4:	f8c7 30cc 	str.w	r3, [r7, #204]	@ 0xcc
 80032d8:	f8d7 30f4 	ldr.w	r3, [r7, #244]	@ 0xf4
 80032dc:	685b      	ldr	r3, [r3, #4]
 80032de:	2200      	movs	r2, #0
 80032e0:	f8c7 30c0 	str.w	r3, [r7, #192]	@ 0xc0
 80032e4:	f8c7 20c4 	str.w	r2, [r7, #196]	@ 0xc4
 80032e8:	e9d7 1230 	ldrd	r1, r2, [r7, #192]	@ 0xc0
 80032ec:	460b      	mov	r3, r1
 80032ee:	18db      	adds	r3, r3, r3
 80032f0:	643b      	str	r3, [r7, #64]	@ 0x40
 80032f2:	4613      	mov	r3, r2
 80032f4:	eb42 0303 	adc.w	r3, r2, r3
 80032f8:	647b      	str	r3, [r7, #68]	@ 0x44
 80032fa:	e9d7 2310 	ldrd	r2, r3, [r7, #64]	@ 0x40
 80032fe:	e9d7 0132 	ldrd	r0, r1, [r7, #200]	@ 0xc8
 8003302:	f7fd f92d 	bl	8000560 <__aeabi_uldivmod>
 8003306:	4602      	mov	r2, r0
 8003308:	460b      	mov	r3, r1
 800330a:	4611      	mov	r1, r2
 800330c:	4b3b      	ldr	r3, [pc, #236]	@ (80033fc <UART_SetConfig+0x2d4>)
 800330e:	fba3 2301 	umull	r2, r3, r3, r1
 8003312:	095b      	lsrs	r3, r3, #5
 8003314:	2264      	movs	r2, #100	@ 0x64
 8003316:	fb02 f303 	mul.w	r3, r2, r3
 800331a:	1acb      	subs	r3, r1, r3
 800331c:	00db      	lsls	r3, r3, #3
 800331e:	f103 0232 	add.w	r2, r3, #50	@ 0x32
 8003322:	4b36      	ldr	r3, [pc, #216]	@ (80033fc <UART_SetConfig+0x2d4>)
 8003324:	fba3 2302 	umull	r2, r3, r3, r2
 8003328:	095b      	lsrs	r3, r3, #5
 800332a:	005b      	lsls	r3, r3, #1
 800332c:	f403 73f8 	and.w	r3, r3, #496	@ 0x1f0
 8003330:	441c      	add	r4, r3
 8003332:	f8d7 30fc 	ldr.w	r3, [r7, #252]	@ 0xfc
 8003336:	2200      	movs	r2, #0
 8003338:	f8c7 30b8 	str.w	r3, [r7, #184]	@ 0xb8
 800333c:	f8c7 20bc 	str.w	r2, [r7, #188]	@ 0xbc
 8003340:	e9d7 892e 	ldrd	r8, r9, [r7, #184]	@ 0xb8
 8003344:	4642      	mov	r2, r8
 8003346:	464b      	mov	r3, r9
 8003348:	1891      	adds	r1, r2, r2
 800334a:	63b9      	str	r1, [r7, #56]	@ 0x38
 800334c:	415b      	adcs	r3, r3
 800334e:	63fb      	str	r3, [r7, #60]	@ 0x3c
 8003350:	e9d7 230e 	ldrd	r2, r3, [r7, #56]	@ 0x38
 8003354:	4641      	mov	r1, r8
 8003356:	1851      	adds	r1, r2, r1
 8003358:	6339      	str	r1, [r7, #48]	@ 0x30
 800335a:	4649      	mov	r1, r9
 800335c:	414b      	adcs	r3, r1
 800335e:	637b      	str	r3, [r7, #52]	@ 0x34
 8003360:	f04f 0200 	mov.w	r2, #0
 8003364:	f04f 0300 	mov.w	r3, #0
 8003368:	e9d7 ab0c 	ldrd	sl, fp, [r7, #48]	@ 0x30
 800336c:	4659      	mov	r1, fp
 800336e:	00cb      	lsls	r3, r1, #3
 8003370:	4651      	mov	r1, sl
 8003372:	ea43 7351 	orr.w	r3, r3, r1, lsr #29
 8003376:	4651      	mov	r1, sl
 8003378:	00ca      	lsls	r2, r1, #3
 800337a:	4610      	mov	r0, r2
 800337c:	4619      	mov	r1, r3
 800337e:	4603      	mov	r3, r0
 8003380:	4642      	mov	r2, r8
 8003382:	189b      	adds	r3, r3, r2
 8003384:	f8c7 30b0 	str.w	r3, [r7, #176]	@ 0xb0
 8003388:	464b      	mov	r3, r9
 800338a:	460a      	mov	r2, r1
 800338c:	eb42 0303 	adc.w	r3, r2, r3
 8003390:	f8c7 30b4 	str.w	r3, [r7, #180]	@ 0xb4
 8003394:	f8d7 30f4 	ldr.w	r3, [r7, #244]	@ 0xf4
 8003398:	685b      	ldr	r3, [r3, #4]
 800339a:	2200      	movs	r2, #0
 800339c:	f8c7 30a8 	str.w	r3, [r7, #168]	@ 0xa8
 80033a0:	f8c7 20ac 	str.w	r2, [r7, #172]	@ 0xac
 80033a4:	e9d7 122a 	ldrd	r1, r2, [r7, #168]	@ 0xa8
 80033a8:	460b      	mov	r3, r1
 80033aa:	18db      	adds	r3, r3, r3
 80033ac:	62bb      	str	r3, [r7, #40]	@ 0x28
 80033ae:	4613      	mov	r3, r2
 80033b0:	eb42 0303 	adc.w	r3, r2, r3
 80033b4:	62fb      	str	r3, [r7, #44]	@ 0x2c
 80033b6:	e9d7 230a 	ldrd	r2, r3, [r7, #40]	@ 0x28
 80033ba:	e9d7 012c 	ldrd	r0, r1, [r7, #176]	@ 0xb0
 80033be:	f7fd f8cf 	bl	8000560 <__aeabi_uldivmod>
 80033c2:	4602      	mov	r2, r0
 80033c4:	460b      	mov	r3, r1
 80033c6:	4b0d      	ldr	r3, [pc, #52]	@ (80033fc <UART_SetConfig+0x2d4>)
 80033c8:	fba3 1302 	umull	r1, r3, r3, r2
 80033cc:	095b      	lsrs	r3, r3, #5
 80033ce:	2164      	movs	r1, #100	@ 0x64
 80033d0:	fb01 f303 	mul.w	r3, r1, r3
 80033d4:	1ad3      	subs	r3, r2, r3
 80033d6:	00db      	lsls	r3, r3, #3
 80033d8:	3332      	adds	r3, #50	@ 0x32
 80033da:	4a08      	ldr	r2, [pc, #32]	@ (80033fc <UART_SetConfig+0x2d4>)
 80033dc:	fba2 2303 	umull	r2, r3, r2, r3
 80033e0:	095b      	lsrs	r3, r3, #5
 80033e2:	f003 0207 	and.w	r2, r3, #7
 80033e6:	f8d7 30f4 	ldr.w	r3, [r7, #244]	@ 0xf4
 80033ea:	681b      	ldr	r3, [r3, #0]
 80033ec:	4422      	add	r2, r4
 80033ee:	609a      	str	r2, [r3, #8]
  }
  else
  {
    huart->Instance->BRR = UART_BRR_SAMPLING16(pclk, huart->Init.BaudRate);
  }
}
 80033f0:	e106      	b.n	8003600 <UART_SetConfig+0x4d8>
 80033f2:	bf00      	nop
 80033f4:	40011000 	.word	0x40011000
 80033f8:	40011400 	.word	0x40011400
 80033fc:	51eb851f 	.word	0x51eb851f
    huart->Instance->BRR = UART_BRR_SAMPLING16(pclk, huart->Init.BaudRate);
 8003400:	f8d7 30fc 	ldr.w	r3, [r7, #252]	@ 0xfc
 8003404:	2200      	movs	r2, #0
 8003406:	f8c7 30a0 	str.w	r3, [r7, #160]	@ 0xa0
 800340a:	f8c7 20a4 	str.w	r2, [r7, #164]	@ 0xa4
 800340e:	e9d7 8928 	ldrd	r8, r9, [r7, #160]	@ 0xa0
 8003412:	4642      	mov	r2, r8
 8003414:	464b      	mov	r3, r9
 8003416:	1891      	adds	r1, r2, r2
 8003418:	6239      	str	r1, [r7, #32]
 800341a:	415b      	adcs	r3, r3
 800341c:	627b      	str	r3, [r7, #36]	@ 0x24
 800341e:	e9d7 2308 	ldrd	r2, r3, [r7, #32]
 8003422:	4641      	mov	r1, r8
 8003424:	1854      	adds	r4, r2, r1
 8003426:	4649      	mov	r1, r9
 8003428:	eb43 0501 	adc.w	r5, r3, r1
 800342c:	f04f 0200 	mov.w	r2, #0
 8003430:	f04f 0300 	mov.w	r3, #0
 8003434:	00eb      	lsls	r3, r5, #3
 8003436:	ea43 7354 	orr.w	r3, r3, r4, lsr #29
 800343a:	00e2      	lsls	r2, r4, #3
 800343c:	4614      	mov	r4, r2
 800343e:	461d      	mov	r5, r3
 8003440:	4643      	mov	r3, r8
 8003442:	18e3      	adds	r3, r4, r3
 8003444:	f8c7 3098 	str.w	r3, [r7, #152]	@ 0x98
 8003448:	464b      	mov	r3, r9
 800344a:	eb45 0303 	adc.w	r3, r5, r3
 800344e:	f8c7 309c 	str.w	r3, [r7, #156]	@ 0x9c
 8003452:	f8d7 30f4 	ldr.w	r3, [r7, #244]	@ 0xf4
 8003456:	685b      	ldr	r3, [r3, #4]
 8003458:	2200      	movs	r2, #0
 800345a:	f8c7 3090 	str.w	r3, [r7, #144]	@ 0x90
 800345e:	f8c7 2094 	str.w	r2, [r7, #148]	@ 0x94
 8003462:	f04f 0200 	mov.w	r2, #0
 8003466:	f04f 0300 	mov.w	r3, #0
 800346a:	e9d7 4524 	ldrd	r4, r5, [r7, #144]	@ 0x90
 800346e:	4629      	mov	r1, r5
 8003470:	008b      	lsls	r3, r1, #2
 8003472:	4621      	mov	r1, r4
 8003474:	ea43 7391 	orr.w	r3, r3, r1, lsr #30
 8003478:	4621      	mov	r1, r4
 800347a:	008a      	lsls	r2, r1, #2
 800347c:	e9d7 0126 	ldrd	r0, r1, [r7, #152]	@ 0x98
 8003480:	f7fd f86e 	bl	8000560 <__aeabi_uldivmod>
 8003484:	4602      	mov	r2, r0
 8003486:	460b      	mov	r3, r1
 8003488:	4b60      	ldr	r3, [pc, #384]	@ (800360c <UART_SetConfig+0x4e4>)
 800348a:	fba3 2302 	umull	r2, r3, r3, r2
 800348e:	095b      	lsrs	r3, r3, #5
 8003490:	011c      	lsls	r4, r3, #4
 8003492:	f8d7 30fc 	ldr.w	r3, [r7, #252]	@ 0xfc
 8003496:	2200      	movs	r2, #0
 8003498:	f8c7 3088 	str.w	r3, [r7, #136]	@ 0x88
 800349c:	f8c7 208c 	str.w	r2, [r7, #140]	@ 0x8c
 80034a0:	e9d7 8922 	ldrd	r8, r9, [r7, #136]	@ 0x88
 80034a4:	4642      	mov	r2, r8
 80034a6:	464b      	mov	r3, r9
 80034a8:	1891      	adds	r1, r2, r2
 80034aa:	61b9      	str	r1, [r7, #24]
 80034ac:	415b      	adcs	r3, r3
 80034ae:	61fb      	str	r3, [r7, #28]
 80034b0:	e9d7 2306 	ldrd	r2, r3, [r7, #24]
 80034b4:	4641      	mov	r1, r8
 80034b6:	1851      	adds	r1, r2, r1
 80034b8:	6139      	str	r1, [r7, #16]
 80034ba:	4649      	mov	r1, r9
 80034bc:	414b      	adcs	r3, r1
 80034be:	617b      	str	r3, [r7, #20]
 80034c0:	f04f 0200 	mov.w	r2, #0
 80034c4:	f04f 0300 	mov.w	r3, #0
 80034c8:	e9d7 ab04 	ldrd	sl, fp, [r7, #16]
 80034cc:	4659      	mov	r1, fp
 80034ce:	00cb      	lsls	r3, r1, #3
 80034d0:	4651      	mov	r1, sl
 80034d2:	ea43 7351 	orr.w	r3, r3, r1, lsr #29
 80034d6:	4651      	mov	r1, sl
 80034d8:	00ca      	lsls	r2, r1, #3
 80034da:	4610      	mov	r0, r2
 80034dc:	4619      	mov	r1, r3
 80034de:	4603      	mov	r3, r0
 80034e0:	4642      	mov	r2, r8
 80034e2:	189b      	adds	r3, r3, r2
 80034e4:	f8c7 3080 	str.w	r3, [r7, #128]	@ 0x80
 80034e8:	464b      	mov	r3, r9
 80034ea:	460a      	mov	r2, r1
 80034ec:	eb42 0303 	adc.w	r3, r2, r3
 80034f0:	f8c7 3084 	str.w	r3, [r7, #132]	@ 0x84
 80034f4:	f8d7 30f4 	ldr.w	r3, [r7, #244]	@ 0xf4
 80034f8:	685b      	ldr	r3, [r3, #4]
 80034fa:	2200      	movs	r2, #0
 80034fc:	67bb      	str	r3, [r7, #120]	@ 0x78
 80034fe:	67fa      	str	r2, [r7, #124]	@ 0x7c
 8003500:	f04f 0200 	mov.w	r2, #0
 8003504:	f04f 0300 	mov.w	r3, #0
 8003508:	e9d7 891e 	ldrd	r8, r9, [r7, #120]	@ 0x78
 800350c:	4649      	mov	r1, r9
 800350e:	008b      	lsls	r3, r1, #2
 8003510:	4641      	mov	r1, r8
 8003512:	ea43 7391 	orr.w	r3, r3, r1, lsr #30
 8003516:	4641      	mov	r1, r8
 8003518:	008a      	lsls	r2, r1, #2
 800351a:	e9d7 0120 	ldrd	r0, r1, [r7, #128]	@ 0x80
 800351e:	f7fd f81f 	bl	8000560 <__aeabi_uldivmod>
 8003522:	4602      	mov	r2, r0
 8003524:	460b      	mov	r3, r1
 8003526:	4611      	mov	r1, r2
 8003528:	4b38      	ldr	r3, [pc, #224]	@ (800360c <UART_SetConfig+0x4e4>)
 800352a:	fba3 2301 	umull	r2, r3, r3, r1
 800352e:	095b      	lsrs	r3, r3, #5
 8003530:	2264      	movs	r2, #100	@ 0x64
 8003532:	fb02 f303 	mul.w	r3, r2, r3
 8003536:	1acb      	subs	r3, r1, r3
 8003538:	011b      	lsls	r3, r3, #4
 800353a:	3332      	adds	r3, #50	@ 0x32
 800353c:	4a33      	ldr	r2, [pc, #204]	@ (800360c <UART_SetConfig+0x4e4>)
 800353e:	fba2 2303 	umull	r2, r3, r2, r3
 8003542:	095b      	lsrs	r3, r3, #5
 8003544:	f003 03f0 	and.w	r3, r3, #240	@ 0xf0
 8003548:	441c      	add	r4, r3
 800354a:	f8d7 30fc 	ldr.w	r3, [r7, #252]	@ 0xfc
 800354e:	2200      	movs	r2, #0
 8003550:	673b      	str	r3, [r7, #112]	@ 0x70
 8003552:	677a      	str	r2, [r7, #116]	@ 0x74
 8003554:	e9d7 891c 	ldrd	r8, r9, [r7, #112]	@ 0x70
 8003558:	4642      	mov	r2, r8
 800355a:	464b      	mov	r3, r9
 800355c:	1891      	adds	r1, r2, r2
 800355e:	60b9      	str	r1, [r7, #8]
 8003560:	415b      	adcs	r3, r3
 8003562:	60fb      	str	r3, [r7, #12]
 8003564:	e9d7 2302 	ldrd	r2, r3, [r7, #8]
 8003568:	4641      	mov	r1, r8
 800356a:	1851      	adds	r1, r2, r1
 800356c:	6039      	str	r1, [r7, #0]
 800356e:	4649      	mov	r1, r9
 8003570:	414b      	adcs	r3, r1
 8003572:	607b      	str	r3, [r7, #4]
 8003574:	f04f 0200 	mov.w	r2, #0
 8003578:	f04f 0300 	mov.w	r3, #0
 800357c:	e9d7 ab00 	ldrd	sl, fp, [r7]
 8003580:	4659      	mov	r1, fp
 8003582:	00cb      	lsls	r3, r1, #3
 8003584:	4651      	mov	r1, sl
 8003586:	ea43 7351 	orr.w	r3, r3, r1, lsr #29
 800358a:	4651      	mov	r1, sl
 800358c:	00ca      	lsls	r2, r1, #3
 800358e:	4610      	mov	r0, r2
 8003590:	4619      	mov	r1, r3
 8003592:	4603      	mov	r3, r0
 8003594:	4642      	mov	r2, r8
 8003596:	189b      	adds	r3, r3, r2
 8003598:	66bb      	str	r3, [r7, #104]	@ 0x68
 800359a:	464b      	mov	r3, r9
 800359c:	460a      	mov	r2, r1
 800359e:	eb42 0303 	adc.w	r3, r2, r3
 80035a2:	66fb      	str	r3, [r7, #108]	@ 0x6c
 80035a4:	f8d7 30f4 	ldr.w	r3, [r7, #244]	@ 0xf4
 80035a8:	685b      	ldr	r3, [r3, #4]
 80035aa:	2200      	movs	r2, #0
 80035ac:	663b      	str	r3, [r7, #96]	@ 0x60
 80035ae:	667a      	str	r2, [r7, #100]	@ 0x64
 80035b0:	f04f 0200 	mov.w	r2, #0
 80035b4:	f04f 0300 	mov.w	r3, #0
 80035b8:	e9d7 8918 	ldrd	r8, r9, [r7, #96]	@ 0x60
 80035bc:	4649      	mov	r1, r9
 80035be:	008b      	lsls	r3, r1, #2
 80035c0:	4641      	mov	r1, r8
 80035c2:	ea43 7391 	orr.w	r3, r3, r1, lsr #30
 80035c6:	4641      	mov	r1, r8
 80035c8:	008a      	lsls	r2, r1, #2
 80035ca:	e9d7 011a 	ldrd	r0, r1, [r7, #104]	@ 0x68
 80035ce:	f7fc ffc7 	bl	8000560 <__aeabi_uldivmod>
 80035d2:	4602      	mov	r2, r0
 80035d4:	460b      	mov	r3, r1
 80035d6:	4b0d      	ldr	r3, [pc, #52]	@ (800360c <UART_SetConfig+0x4e4>)
 80035d8:	fba3 1302 	umull	r1, r3, r3, r2
 80035dc:	095b      	lsrs	r3, r3, #5
 80035de:	2164      	movs	r1, #100	@ 0x64
 80035e0:	fb01 f303 	mul.w	r3, r1, r3
 80035e4:	1ad3      	subs	r3, r2, r3
 80035e6:	011b      	lsls	r3, r3, #4
 80035e8:	3332      	adds	r3, #50	@ 0x32
 80035ea:	4a08      	ldr	r2, [pc, #32]	@ (800360c <UART_SetConfig+0x4e4>)
 80035ec:	fba2 2303 	umull	r2, r3, r2, r3
 80035f0:	095b      	lsrs	r3, r3, #5
 80035f2:	f003 020f 	and.w	r2, r3, #15
 80035f6:	f8d7 30f4 	ldr.w	r3, [r7, #244]	@ 0xf4
 80035fa:	681b      	ldr	r3, [r3, #0]
 80035fc:	4422      	add	r2, r4
 80035fe:	609a      	str	r2, [r3, #8]
}
 8003600:	bf00      	nop
 8003602:	f507 7780 	add.w	r7, r7, #256	@ 0x100
 8003606:	46bd      	mov	sp, r7
 8003608:	e8bd 8fb0 	ldmia.w	sp!, {r4, r5, r7, r8, r9, sl, fp, pc}
 800360c:	51eb851f 	.word	0x51eb851f

08003610 <memset>:
 8003610:	4402      	add	r2, r0
 8003612:	4603      	mov	r3, r0
 8003614:	4293      	cmp	r3, r2
 8003616:	d100      	bne.n	800361a <memset+0xa>
 8003618:	4770      	bx	lr
 800361a:	f803 1b01 	strb.w	r1, [r3], #1
 800361e:	e7f9      	b.n	8003614 <memset+0x4>

08003620 <strcat>:
 8003620:	b510      	push	{r4, lr}
 8003622:	4602      	mov	r2, r0
 8003624:	7814      	ldrb	r4, [r2, #0]
 8003626:	4613      	mov	r3, r2
 8003628:	3201      	adds	r2, #1
 800362a:	2c00      	cmp	r4, #0
 800362c:	d1fa      	bne.n	8003624 <strcat+0x4>
 800362e:	3b01      	subs	r3, #1
 8003630:	f811 2b01 	ldrb.w	r2, [r1], #1
 8003634:	f803 2f01 	strb.w	r2, [r3, #1]!
 8003638:	2a00      	cmp	r2, #0
 800363a:	d1f9      	bne.n	8003630 <strcat+0x10>
 800363c:	bd10      	pop	{r4, pc}
	...

08003640 <__libc_init_array>:
 8003640:	b570      	push	{r4, r5, r6, lr}
 8003642:	4d0d      	ldr	r5, [pc, #52]	@ (8003678 <__libc_init_array+0x38>)
 8003644:	4c0d      	ldr	r4, [pc, #52]	@ (800367c <__libc_init_array+0x3c>)
 8003646:	1b64      	subs	r4, r4, r5
 8003648:	10a4      	asrs	r4, r4, #2
 800364a:	2600      	movs	r6, #0
 800364c:	42a6      	cmp	r6, r4
 800364e:	d109      	bne.n	8003664 <__libc_init_array+0x24>
 8003650:	4d0b      	ldr	r5, [pc, #44]	@ (8003680 <__libc_init_array+0x40>)
 8003652:	4c0c      	ldr	r4, [pc, #48]	@ (8003684 <__libc_init_array+0x44>)
 8003654:	f000 f818 	bl	8003688 <_init>
 8003658:	1b64      	subs	r4, r4, r5
 800365a:	10a4      	asrs	r4, r4, #2
 800365c:	2600      	movs	r6, #0
 800365e:	42a6      	cmp	r6, r4
 8003660:	d105      	bne.n	800366e <__libc_init_array+0x2e>
 8003662:	bd70      	pop	{r4, r5, r6, pc}
 8003664:	f855 3b04 	ldr.w	r3, [r5], #4
 8003668:	4798      	blx	r3
 800366a:	3601      	adds	r6, #1
 800366c:	e7ee      	b.n	800364c <__libc_init_array+0xc>
 800366e:	f855 3b04 	ldr.w	r3, [r5], #4
 8003672:	4798      	blx	r3
 8003674:	3601      	adds	r6, #1
 8003676:	e7f2      	b.n	800365e <__libc_init_array+0x1e>
 8003678:	080037e8 	.word	0x080037e8
 800367c:	080037e8 	.word	0x080037e8
 8003680:	080037e8 	.word	0x080037e8
 8003684:	080037ec 	.word	0x080037ec

08003688 <_init>:
 8003688:	b5f8      	push	{r3, r4, r5, r6, r7, lr}
 800368a:	bf00      	nop
 800368c:	bcf8      	pop	{r3, r4, r5, r6, r7}
 800368e:	bc08      	pop	{r3}
 8003690:	469e      	mov	lr, r3
 8003692:	4770      	bx	lr

08003694 <_fini>:
 8003694:	b5f8      	push	{r3, r4, r5, r6, r7, lr}
 8003696:	bf00      	nop
 8003698:	bcf8      	pop	{r3, r4, r5, r6, r7}
 800369a:	bc08      	pop	{r3}
 800369c:	469e      	mov	lr, r3
 800369e:	4770      	bx	lr
